; ModuleID = '4a9g39ij3qp2zfyw'
source_filename = "4a9g39ij3qp2zfyw"
target datalayout = "e-m:e-p270:32:32-p271:32:32-p272:64:64-i64:64-f80:128-n8:16:32:64-S128"
target triple = "x86_64-unknown-linux-gnu"

%"[closure@std::thread::Builder::spawn_unchecked<[closure@crossbeam::thread::ScopedThreadBuilder::spawn<[closure@src/main.rs:15:27: 20:4], ()>::{closure#1}], ()>::{closure#0}]" = type { [0 x i64], i64*, [0 x i64], i64*, [0 x i64], { i8*, i64* }, [0 x i64], i64*, [0 x i64] }
%"[closure@crossbeam::thread::ScopedThreadBuilder::spawn<[closure@src/main.rs:15:27: 20:4], ()>::{closure#0}]" = type { [0 x i64], { i64*, i64* }, [0 x i64], %"[closure@src/main.rs:15:27: 20:4]", [0 x i64], i64*, [0 x i64] }
%"[closure@src/main.rs:15:27: 20:4]" = type { [0 x i64], i32*, [0 x i64], i32*, [0 x i64], i32*, [0 x i64] }
%"std::vec::Vec<std::boxed::Box<dyn std::any::Any + std::marker::Send>>" = type { [0 x i64], { i64*, i64 }, [0 x i64], i64, [0 x i64] }
%"std::io::Error" = type { [0 x i64], %"std::io::error::Repr", [0 x i64] }
%"std::io::error::Repr" = type { [0 x i8], i8, [15 x i8] }
%"std::fmt::Formatter" = type { [0 x i64], { i64, i64 }, [0 x i64], { i64, i64 }, [0 x i64], { {}*, [3 x i64]* }, [0 x i32], i32, [0 x i32], i32, [0 x i8], i8, [7 x i8] }
%"std::sync::atomic::AtomicUsize" = type { [0 x i64], i64, [0 x i64] }
%"std::result::Result<std::thread::JoinHandle<()>, std::io::Error>" = type { [0 x i64], i64, [4 x i64] }
%"std::thread::Builder" = type { [0 x i64], %"std::option::Option<std::string::String>", [0 x i64], { i64, i64 }, [0 x i64] }
%"std::option::Option<std::string::String>" = type { [0 x i64], {}*, [2 x i64] }
%"std::result::Result<std::sys::unix::thread::Thread, std::io::Error>" = type { [0 x i64], i64, [2 x i64] }
%"std::thread::JoinInner<()>" = type { [0 x i64], { i64, i64 }, [0 x i64], i64*, [0 x i64], i64*, [0 x i64] }
%"std::thread::JoinHandle<()>" = type { [0 x i64], %"std::thread::JoinInner<()>", [0 x i64] }
%"std::option::Option<std::result::Result<(), std::boxed::Box<dyn std::any::Any + std::marker::Send>>>" = type { [0 x i64], i64, [2 x i64] }
%"std::cell::UnsafeCell<std::option::Option<std::result::Result<(), std::boxed::Box<dyn std::any::Any + std::marker::Send>>>>" = type { [0 x i64], %"std::option::Option<std::result::Result<(), std::boxed::Box<dyn std::any::Any + std::marker::Send>>>", [0 x i64] }
%"std::result::Result<std::sys::unix::thread::Thread, std::io::Error>::Ok" = type { [1 x i64], i64, [0 x i64] }
%"std::option::Option<std::sys::unix::thread::Thread>::Some" = type { [1 x i64], i64, [0 x i64] }
%"std::result::Result<std::thread::JoinHandle<()>, std::io::Error>::Ok" = type { [1 x i64], %"std::thread::JoinHandle<()>", [0 x i64] }
%"std::result::Result<std::sys::unix::thread::Thread, std::io::Error>::Err" = type { [1 x i64], %"std::io::Error", [0 x i64] }
%"[closure@<std::vec::Drain<std::sync::Arc<std::sync::Mutex<std::option::Option<std::thread::JoinHandle<()>>>>> as std::iter::Iterator>::next::{closure#0}]" = type {}
%"[closure@<std::ops::RangeFull as std::ops::RangeBounds<usize>>::assert_len::{closure#0}]" = type {}
%"std::option::Option<usize>::Some" = type { [1 x i64], i64, [0 x i64] }
%"[closure@<std::ops::RangeFull as std::ops::RangeBounds<usize>>::assert_len::{closure#1}]" = type {}
%"alloc::sync::ArcInner<std::cell::UnsafeCell<std::option::Option<std::result::Result<(), std::boxed::Box<dyn std::any::Any + std::marker::Send>>>>>" = type { [0 x i64], %"std::sync::atomic::AtomicUsize", [0 x i64], %"std::sync::atomic::AtomicUsize", [0 x i64], %"std::cell::UnsafeCell<std::option::Option<std::result::Result<(), std::boxed::Box<dyn std::any::Any + std::marker::Send>>>>", [0 x i64] }
%"alloc::sync::ArcInner<std::sync::Mutex<std::vec::Vec<std::sync::Arc<std::sync::Mutex<std::option::Option<std::thread::JoinHandle<()>>>>>>>" = type { [0 x i64], %"std::sync::atomic::AtomicUsize", [0 x i64], %"std::sync::atomic::AtomicUsize", [0 x i64], %"std::sync::Mutex<std::vec::Vec<std::sync::Arc<std::sync::Mutex<std::option::Option<std::thread::JoinHandle<()>>>>>>", [0 x i64] }
%"std::sync::Mutex<std::vec::Vec<std::sync::Arc<std::sync::Mutex<std::option::Option<std::thread::JoinHandle<()>>>>>>" = type { [0 x i64], i64*, [0 x i8], %"std::sys_common::poison::Flag", [7 x i8], %"std::cell::UnsafeCell<std::vec::Vec<std::sync::Arc<std::sync::Mutex<std::option::Option<std::thread::JoinHandle<()>>>>>>", [0 x i64] }
%"std::sys_common::poison::Flag" = type { [0 x i8], %"std::sync::atomic::AtomicBool", [0 x i8] }
%"std::sync::atomic::AtomicBool" = type { [0 x i8], i8, [0 x i8] }
%"std::cell::UnsafeCell<std::vec::Vec<std::sync::Arc<std::sync::Mutex<std::option::Option<std::thread::JoinHandle<()>>>>>>" = type { [0 x i64], %"std::vec::Vec<std::sync::Arc<std::sync::Mutex<std::option::Option<std::thread::JoinHandle<()>>>>>", [0 x i64] }
%"std::vec::Vec<std::sync::Arc<std::sync::Mutex<std::option::Option<std::thread::JoinHandle<()>>>>>" = type { [0 x i64], { i64*, i64 }, [0 x i64], i64, [0 x i64] }
%"alloc::sync::ArcInner<std::sync::Mutex<std::vec::Vec<u8>>>" = type { [0 x i64], %"std::sync::atomic::AtomicUsize", [0 x i64], %"std::sync::atomic::AtomicUsize", [0 x i64], %"std::sync::Mutex<std::vec::Vec<u8>>", [0 x i64] }
%"std::sync::Mutex<std::vec::Vec<u8>>" = type { [0 x i64], i64*, [0 x i8], %"std::sys_common::poison::Flag", [7 x i8], %"std::cell::UnsafeCell<std::vec::Vec<u8>>", [0 x i64] }
%"std::cell::UnsafeCell<std::vec::Vec<u8>>" = type { [0 x i64], %"std::vec::Vec<u8>", [0 x i64] }
%"std::vec::Vec<u8>" = type { [0 x i64], { i8*, i64 }, [0 x i64], i64, [0 x i64] }
%"alloc::sync::ArcInner<std::sync::Mutex<std::option::Option<std::thread::JoinHandle<()>>>>" = type { [0 x i64], %"std::sync::atomic::AtomicUsize", [0 x i64], %"std::sync::atomic::AtomicUsize", [0 x i64], %"std::sync::Mutex<std::option::Option<std::thread::JoinHandle<()>>>", [0 x i64] }
%"std::sync::Mutex<std::option::Option<std::thread::JoinHandle<()>>>" = type { [0 x i64], i64*, [0 x i8], %"std::sys_common::poison::Flag", [7 x i8], %"std::cell::UnsafeCell<std::option::Option<std::thread::JoinHandle<()>>>", [0 x i64] }
%"std::cell::UnsafeCell<std::option::Option<std::thread::JoinHandle<()>>>" = type { [0 x i64], %"std::option::Option<std::thread::JoinHandle<()>>", [0 x i64] }
%"std::option::Option<std::thread::JoinHandle<()>>" = type { [0 x i64], i64, [3 x i64] }
%"alloc::sync::ArcInner<std::sync::Mutex<std::option::Option<()>>>" = type { [0 x i64], %"std::sync::atomic::AtomicUsize", [0 x i64], %"std::sync::atomic::AtomicUsize", [0 x i64], %"std::sync::Mutex<std::option::Option<()>>", [0 x i64] }
%"std::sync::Mutex<std::option::Option<()>>" = type { [0 x i64], i64*, [0 x i8], %"std::sys_common::poison::Flag", [0 x i8], i8, [6 x i8] }
%"std::alloc::LayoutError" = type { [0 x i8], {}, [0 x i8] }
%"std::result::Result<(std::alloc::Layout, usize), std::alloc::LayoutError>" = type { [1 x i64], i64, [1 x i64] }
%"std::result::Result<(std::alloc::Layout, usize), std::alloc::LayoutError>::Ok" = type { [0 x i64], { [0 x i64], { i64, i64 }, [0 x i64], i64, [0 x i64] }, [0 x i64] }
%"std::result::Result<crossbeam::thread::ScopedJoinHandle<()>, std::io::Error>" = type { [0 x i64], i64, [3 x i64] }
%"crossbeam::thread::ScopedThreadBuilder" = type { [0 x i64], { i64*, i64* }*, [0 x i64], %"std::thread::Builder", [0 x i64] }
%"crossbeam::thread::ScopedJoinHandle<()>" = type { [0 x i8], %"std::marker::PhantomData<&()>", [0 x i8], i64*, [0 x i64], i64*, [0 x i64], i64*, [0 x i64] }
%"std::marker::PhantomData<&()>" = type {}
%"std::result::Result<std::sync::MutexGuard<std::vec::Vec<std::sync::Arc<std::sync::Mutex<std::option::Option<std::thread::JoinHandle<()>>>>>>, std::sync::PoisonError<std::sync::MutexGuard<std::vec::Vec<std::sync::Arc<std::sync::Mutex<std::option::Option<std::thread::JoinHandle<()>>>>>>>>" = type { [0 x i64], i64, [2 x i64] }
%"std::marker::PhantomData<&mut &()>" = type {}
%"std::result::Result<std::thread::JoinHandle<()>, std::io::Error>::Err" = type { [1 x i64], %"std::io::Error", [0 x i64] }
%"std::option::Option<std::thread::JoinHandle<()>>::Some" = type { [0 x i64], %"std::thread::JoinHandle<()>", [0 x i64] }
%"std::panic::Location" = type { [0 x i64], { [0 x i8]*, i64 }, [0 x i32], i32, [0 x i32], i32, [0 x i32] }
%"std::result::Result<crossbeam::thread::ScopedJoinHandle<()>, std::io::Error>::Ok" = type { [1 x i64], %"crossbeam::thread::ScopedJoinHandle<()>", [0 x i64] }
%"std::io::error::Custom" = type { [0 x i64], { {}*, [3 x i64]* }, [0 x i8], i8, [7 x i8] }
%"std::vec::Drain<std::sync::Arc<std::sync::Mutex<std::option::Option<std::thread::JoinHandle<()>>>>>" = type { [0 x i64], i64, [0 x i64], i64, [0 x i64], { i64*, i64* }, [0 x i64], i64*, [0 x i64] }
%"std::ops::RangeFull" = type {}
%"std::iter::FilterMap<std::iter::FilterMap<std::vec::Drain<std::sync::Arc<std::sync::Mutex<std::option::Option<std::thread::JoinHandle<()>>>>>, [closure@crossbeam::scope<[closure@src/main.rs:14:16: 22:3], ()>::{closure#1}]>, [closure@crossbeam::scope<[closure@src/main.rs:14:16: 22:3], ()>::{closure#2}]>" = type { [0 x i8], %"[closure@crossbeam::scope<[closure@src/main.rs:14:16: 22:3], ()>::{closure#2}]", [0 x i8], %"std::iter::FilterMap<std::vec::Drain<std::sync::Arc<std::sync::Mutex<std::option::Option<std::thread::JoinHandle<()>>>>>, [closure@crossbeam::scope<[closure@src/main.rs:14:16: 22:3], ()>::{closure#1}]>", [0 x i64] }
%"[closure@crossbeam::scope<[closure@src/main.rs:14:16: 22:3], ()>::{closure#2}]" = type {}
%"std::iter::FilterMap<std::vec::Drain<std::sync::Arc<std::sync::Mutex<std::option::Option<std::thread::JoinHandle<()>>>>>, [closure@crossbeam::scope<[closure@src/main.rs:14:16: 22:3], ()>::{closure#1}]>" = type { [0 x i8], %"[closure@crossbeam::scope<[closure@src/main.rs:14:16: 22:3], ()>::{closure#1}]", [0 x i8], %"std::vec::Drain<std::sync::Arc<std::sync::Mutex<std::option::Option<std::thread::JoinHandle<()>>>>>", [0 x i64] }
%"[closure@crossbeam::scope<[closure@src/main.rs:14:16: 22:3], ()>::{closure#1}]" = type {}
%"std::panic::AssertUnwindSafe<[closure@crossbeam::scope<[closure@src/main.rs:14:16: 22:3], ()>::{closure#0}]>" = type { [0 x i64], %"[closure@crossbeam::scope<[closure@src/main.rs:14:16: 22:3], ()>::{closure#0}]", [0 x i64] }
%"[closure@crossbeam::scope<[closure@src/main.rs:14:16: 22:3], ()>::{closure#0}]" = type { [0 x i64], %"[closure@src/main.rs:14:16: 22:3]", [0 x i64], { i64*, i64* }*, [0 x i64] }
%"[closure@src/main.rs:14:16: 22:3]" = type { [0 x i64], i32*, [0 x i64], i32*, [0 x i64], i32*, [0 x i64] }
%"std::mem::ManuallyDrop<std::panic::AssertUnwindSafe<[closure@crossbeam::scope<[closure@src/main.rs:14:16: 22:3], ()>::{closure#0}]>>" = type { [0 x i64], %"std::panic::AssertUnwindSafe<[closure@crossbeam::scope<[closure@src/main.rs:14:16: 22:3], ()>::{closure#0}]>", [0 x i64] }
%"std::panicking::r#try::Data<std::panic::AssertUnwindSafe<[closure@crossbeam::scope<[closure@src/main.rs:14:16: 22:3], ()>::{closure#0}]>, ()>" = type { [4 x i64] }
%"std::mem::ManuallyDrop<()>" = type { [0 x i8], {}, [0 x i8] }
%"std::result::Result<(), std::boxed::Box<dyn std::any::Any + std::marker::Send>>::Ok" = type { [0 x i8], {}, [0 x i8] }
%"std::option::Option<std::result::Result<(), std::boxed::Box<dyn std::any::Any + std::marker::Send>>>::Some" = type { [1 x i64], { i8*, i8* }, [0 x i64] }
%"std::option::Option<std::string::String>::Some" = type { [0 x i64], %"std::string::String", [0 x i64] }
%"std::string::String" = type { [0 x i64], %"std::vec::Vec<u8>", [0 x i64] }
%"std::result::Result<crossbeam::thread::ScopedJoinHandle<()>, std::io::Error>::Err" = type { [1 x i64], %"std::io::Error", [0 x i64] }
%"std::io::error::Repr::Custom" = type { [1 x i64], %"std::io::error::Custom"*, [0 x i64] }
%"std::ptr::Repr<std::sync::Arc<std::sync::Mutex<std::option::Option<std::thread::JoinHandle<()>>>>>" = type { [2 x i64] }
%"std::ptr::Repr<std::boxed::Box<dyn std::any::Any + std::marker::Send>>" = type { [2 x i64] }
%"std::mem::MaybeUninit<std::option::Option<std::result::Result<(), std::boxed::Box<dyn std::any::Any + std::marker::Send>>>>" = type { [3 x i64] }
%"std::mem::ManuallyDrop<std::option::Option<std::result::Result<(), std::boxed::Box<dyn std::any::Any + std::marker::Send>>>>" = type { [0 x i64], %"std::option::Option<std::result::Result<(), std::boxed::Box<dyn std::any::Any + std::marker::Send>>>", [0 x i64] }
%"std::mem::MaybeUninit<std::option::Option<std::thread::JoinHandle<()>>>" = type { [4 x i64] }
%"std::mem::ManuallyDrop<std::option::Option<std::thread::JoinHandle<()>>>" = type { [0 x i64], %"std::option::Option<std::thread::JoinHandle<()>>", [0 x i64] }
%"std::mem::MaybeUninit<std::panic::AssertUnwindSafe<[closure@crossbeam::scope<[closure@src/main.rs:14:16: 22:3], ()>::{closure#0}]>>" = type { [4 x i64] }
%"std::alloc::Global" = type {}
%"std::result::Result<std::sync::MutexGuard<std::option::Option<std::thread::JoinHandle<()>>>, std::sync::PoisonError<std::sync::MutexGuard<std::option::Option<std::thread::JoinHandle<()>>>>>" = type { [0 x i64], i64, [2 x i64] }
%"std::result::Result<std::sys_common::poison::Guard, std::sync::PoisonError<std::sys_common::poison::Guard>>::Err" = type { [1 x i8], i8, [0 x i8] }
%"std::result::Result<std::sys_common::poison::Guard, std::sync::PoisonError<std::sys_common::poison::Guard>>::Ok" = type { [1 x i8], i8, [0 x i8] }
%"std::result::Result<std::sync::MutexGuard<std::option::Option<std::thread::JoinHandle<()>>>, std::sync::PoisonError<std::sync::MutexGuard<std::option::Option<std::thread::JoinHandle<()>>>>>::Ok" = type { [1 x i64], { i64*, i8 }, [0 x i64] }
%"std::result::Result<std::sync::MutexGuard<std::option::Option<std::thread::JoinHandle<()>>>, std::sync::PoisonError<std::sync::MutexGuard<std::option::Option<std::thread::JoinHandle<()>>>>>::Err" = type { [1 x i64], { i64*, i8 }, [0 x i64] }
%"std::result::Result<std::sync::MutexGuard<std::option::Option<()>>, std::sync::PoisonError<std::sync::MutexGuard<std::option::Option<()>>>>" = type { [0 x i64], i64, [2 x i64] }
%"std::result::Result<std::sync::MutexGuard<std::option::Option<()>>, std::sync::PoisonError<std::sync::MutexGuard<std::option::Option<()>>>>::Ok" = type { [1 x i64], { i64*, i8 }, [0 x i64] }
%"std::result::Result<std::sync::MutexGuard<std::option::Option<()>>, std::sync::PoisonError<std::sync::MutexGuard<std::option::Option<()>>>>::Err" = type { [1 x i64], { i64*, i8 }, [0 x i64] }
%"std::result::Result<std::sync::MutexGuard<std::vec::Vec<std::sync::Arc<std::sync::Mutex<std::option::Option<std::thread::JoinHandle<()>>>>>>, std::sync::PoisonError<std::sync::MutexGuard<std::vec::Vec<std::sync::Arc<std::sync::Mutex<std::option::Option<std::thread::JoinHandle<()>>>>>>>>::Ok" = type { [1 x i64], { i64*, i8 }, [0 x i64] }
%"std::result::Result<std::sync::MutexGuard<std::vec::Vec<std::sync::Arc<std::sync::Mutex<std::option::Option<std::thread::JoinHandle<()>>>>>>, std::sync::PoisonError<std::sync::MutexGuard<std::vec::Vec<std::sync::Arc<std::sync::Mutex<std::option::Option<std::thread::JoinHandle<()>>>>>>>>::Err" = type { [1 x i64], { i64*, i8 }, [0 x i64] }
%"[closure@std::iter::Iterator::for_each::call<std::sync::Arc<std::sync::Mutex<std::option::Option<std::thread::JoinHandle<()>>>>, fn(std::sync::Arc<std::sync::Mutex<std::option::Option<std::thread::JoinHandle<()>>>>) {std::mem::drop::<std::sync::Arc<std::sync::Mutex<std::option::Option<std::thread::JoinHandle<()>>>>>}>::{closure#0}]" = type { [0 x i8], {}, [0 x i8] }
%"std::ffi::CStr" = type { [0 x i8], [0 x i8] }
%"std::option::Option<std::ops::Range<usize>>" = type { [0 x i64], i64, [2 x i64] }
%"std::option::Option<()>::Some" = type { [1 x i8], {}, [0 x i8] }
%"std::alloc::AllocError" = type {}
%"std::result::Result<std::alloc::Layout, std::alloc::LayoutError>::Err" = type { [0 x i8], %"std::alloc::LayoutError", [0 x i8] }
%"std::result::Result<usize, std::alloc::LayoutError>::Ok" = type { [1 x i64], i64, [0 x i64] }
%"std::result::Result<(), std::collections::TryReserveError>" = type { [0 x i64], i64, [2 x i64] }
%"std::option::Option<(std::ptr::NonNull<u8>, std::alloc::Layout)>" = type { [0 x i64], {}*, [2 x i64] }
%"std::result::Result<std::ptr::NonNull<[u8]>, std::collections::TryReserveError>" = type { [0 x i64], i64, [2 x i64] }
%"std::result::Result<usize, std::collections::TryReserveError>" = type { [0 x i64], i64, [2 x i64] }
%"std::result::Result<(), std::collections::TryReserveError>::Err" = type { [1 x i64], { i64, i64 }, [0 x i64] }
%"std::result::Result<usize, std::collections::TryReserveError>::Ok" = type { [1 x i64], i64, [0 x i64] }
%"std::result::Result<usize, std::collections::TryReserveError>::Err" = type { [1 x i64], { i64, i64 }, [0 x i64] }
%"std::result::Result<std::ptr::NonNull<[u8]>, std::collections::TryReserveError>::Ok" = type { [1 x i64], { i8*, i64 }, [0 x i64] }
%"std::result::Result<std::ptr::NonNull<[u8]>, std::collections::TryReserveError>::Err" = type { [1 x i64], { i64, i64 }, [0 x i64] }
%"std::result::Result<(), std::collections::TryReserveError>::Ok" = type { [8 x i8], {}, [0 x i8] }
%"std::sys::unix::mutex::Mutex" = type { [0 x i64], %"std::cell::UnsafeCell<libc::unix::linux_like::linux::pthread_mutex_t>", [0 x i64] }
%"std::cell::UnsafeCell<libc::unix::linux_like::linux::pthread_mutex_t>" = type { [0 x i64], %"libc::unix::linux_like::linux::pthread_mutex_t", [0 x i64] }
%"libc::unix::linux_like::linux::pthread_mutex_t" = type { [0 x i8], [40 x i8], [0 x i8] }
%"std::marker::PhantomData<std::sync::Arc<std::sync::Mutex<std::option::Option<std::thread::JoinHandle<()>>>>>" = type {}
%"std::marker::PhantomData<std::boxed::Box<dyn std::any::Any + std::marker::Send>>" = type {}
%"std::marker::PhantomData<alloc::sync::ArcInner<std::cell::UnsafeCell<std::option::Option<std::result::Result<(), std::boxed::Box<dyn std::any::Any + std::marker::Send>>>>>>" = type {}
%"std::marker::PhantomData<alloc::sync::ArcInner<std::sync::Mutex<std::vec::Vec<std::sync::Arc<std::sync::Mutex<std::option::Option<std::thread::JoinHandle<()>>>>>>>>" = type {}
%"std::marker::PhantomData<alloc::sync::ArcInner<std::sync::Mutex<std::vec::Vec<u8>>>>" = type {}
%"std::marker::PhantomData<alloc::sync::ArcInner<std::sync::Mutex<std::option::Option<std::thread::JoinHandle<()>>>>>" = type {}
%"std::marker::PhantomData<alloc::sync::ArcInner<std::sync::Mutex<std::option::Option<()>>>>" = type {}
%"std::marker::PhantomData<alloc::sync::ArcInner<std::thread::Inner>>" = type {}
%"std::marker::PhantomData<&std::sync::Arc<std::sync::Mutex<std::option::Option<std::thread::JoinHandle<()>>>>>" = type {}
%"std::option::Option<(std::ptr::NonNull<u8>, std::alloc::Layout)>::Some" = type { [0 x i64], { [0 x i64], i8*, [0 x i64], { i64, i64 }, [0 x i64] }, [0 x i64] }
%"std::mem::MaybeUninit<std::ptr::swap_nonoverlapping_bytes::UnalignedBlock>" = type { [4 x i64] }
%"std::ptr::swap_nonoverlapping_bytes::UnalignedBlock" = type { [0 x i64], i64, [0 x i64], i64, [0 x i64], i64, [0 x i64], i64, [0 x i64] }
%"std::ops::ControlFlow<std::boxed::Box<dyn std::any::Any + std::marker::Send>>::Continue" = type { [0 x i8], {}, [0 x i8] }
%"alloc::sync::ArcInner<std::thread::Inner>" = type { [0 x i64], %"std::sync::atomic::AtomicUsize", [0 x i64], %"std::sync::atomic::AtomicUsize", [0 x i64], %"std::thread::Inner", [0 x i64] }
%"std::thread::Inner" = type { [0 x i64], { i8*, i64 }, [0 x i64], i64, [0 x i32], %"std::sys_common::thread_parker::futex::Parker", [1 x i32] }
%"std::sys_common::thread_parker::futex::Parker" = type { [0 x i32], %"std::sync::atomic::AtomicI32", [0 x i32] }
%"std::sync::atomic::AtomicI32" = type { [0 x i32], i32, [0 x i32] }
%"std::collections::Bound<&usize>::Included" = type { [1 x i64], i64*, [0 x i64] }
%"std::collections::Bound<&usize>::Excluded" = type { [1 x i64], i64*, [0 x i64] }
%"unwind::libunwind::_Unwind_Exception" = type { [0 x i64], i64, [0 x i64], void (i32, %"unwind::libunwind::_Unwind_Exception"*)*, [0 x i64], [6 x i64], [0 x i64] }
%"unwind::libunwind::_Unwind_Context" = type { [0 x i8] }

@vtable.0 = private unnamed_addr constant { void (%"[closure@std::thread::Builder::spawn_unchecked<[closure@crossbeam::thread::ScopedThreadBuilder::spawn<[closure@src/main.rs:15:27: 20:4], ()>::{closure#1}], ()>::{closure#0}]"*)*, i64, i64, void (%"[closure@std::thread::Builder::spawn_unchecked<[closure@crossbeam::thread::ScopedThreadBuilder::spawn<[closure@src/main.rs:15:27: 20:4], ()>::{closure#1}], ()>::{closure#0}]"*)* } { void (%"[closure@std::thread::Builder::spawn_unchecked<[closure@crossbeam::thread::ScopedThreadBuilder::spawn<[closure@src/main.rs:15:27: 20:4], ()>::{closure#1}], ()>::{closure#0}]"*)* @_RINvNtCs3p84KrD9aKt_4core3ptr13drop_in_placeNCINvMNtCs2bNvlddUlXM_3std6threadNtBM_7Builder15spawn_uncheckedNCINvMs1_NtCs48Yq53b35jF_15crossbeam_utils6threadNtB1Q_19ScopedThreadBuilder5spawnNCNCNvCseZ2WzEtypfB_15crossbeam_scope4main00uEs_0uE0EB37_, i64 40, i64 8, void (%"[closure@std::thread::Builder::spawn_unchecked<[closure@crossbeam::thread::ScopedThreadBuilder::spawn<[closure@src/main.rs:15:27: 20:4], ()>::{closure#1}], ()>::{closure#0}]"*)* @_RNSNvYNCINvMNtCs2bNvlddUlXM_3std6threadNtBa_7Builder15spawn_uncheckedNCINvMs1_NtCs48Yq53b35jF_15crossbeam_utils6threadNtB1e_19ScopedThreadBuilder5spawnNCNCNvCseZ2WzEtypfB_15crossbeam_scope4main00uEs_0uE0INtNtNtCs3p84KrD9aKt_4core3ops8function6FnOnceuE9call_once6vtableB2v_ }, align 8, !dbg !0
@vtable.1 = private unnamed_addr constant { void (%"[closure@crossbeam::thread::ScopedThreadBuilder::spawn<[closure@src/main.rs:15:27: 20:4], ()>::{closure#0}]"*)*, i64, i64, void (%"[closure@crossbeam::thread::ScopedThreadBuilder::spawn<[closure@src/main.rs:15:27: 20:4], ()>::{closure#0}]"*)* } { void (%"[closure@crossbeam::thread::ScopedThreadBuilder::spawn<[closure@src/main.rs:15:27: 20:4], ()>::{closure#0}]"*)* @_RINvNtCs3p84KrD9aKt_4core3ptr13drop_in_placeNCINvMs1_NtCs48Yq53b35jF_15crossbeam_utils6threadNtBP_19ScopedThreadBuilder5spawnNCNCNvCseZ2WzEtypfB_15crossbeam_scope4main00uE0EB25_, i64 48, i64 8, void (%"[closure@crossbeam::thread::ScopedThreadBuilder::spawn<[closure@src/main.rs:15:27: 20:4], ()>::{closure#0}]"*)* @_RNSNvYNCINvMs1_NtCs48Yq53b35jF_15crossbeam_utils6threadNtBd_19ScopedThreadBuilder5spawnNCNCNvCseZ2WzEtypfB_15crossbeam_scope4main00uE0INtNtNtCs3p84KrD9aKt_4core3ops8function6FnOnceuE9call_once6vtableB1t_ }, align 8, !dbg !302
@alloc73 = private unnamed_addr constant <{ [95 x i8] }> <{ [95 x i8] c"/home/skeet/.cargo/registry/src/github.com-1ecc6299db9ec823/crossbeam-utils-0.8.1/src/thread.rs" }>, align 1
@alloc63 = private unnamed_addr constant <{ i8*, [16 x i8] }> <{ i8* getelementptr inbounds (<{ [95 x i8] }>, <{ [95 x i8] }>* @alloc73, i32 0, i32 0, i32 0), [16 x i8] c"_\00\00\00\00\00\00\00\CC\01\00\00#\00\00\00" }>, align 8
@alloc64 = private unnamed_addr constant <{ [29 x i8] }> <{ [29 x i8] c"failed to spawn scoped thread" }>, align 1
@alloc66 = private unnamed_addr constant <{ i8*, [16 x i8] }> <{ i8* getelementptr inbounds (<{ [95 x i8] }>, <{ [95 x i8] }>* @alloc73, i32 0, i32 0, i32 0), [16 x i8] c"_\00\00\00\00\00\00\00\FF\00\00\00\0E\00\00\00" }>, align 8
@alloc67 = private unnamed_addr constant <{ [76 x i8] }> <{ [76 x i8] c"/rustc/e38fb306b7f5e65cca34df2dab1f0db15e1defb4/library/alloc/src/vec/mod.rs" }>, align 1
@alloc68 = private unnamed_addr constant <{ i8*, [16 x i8] }> <{ i8* getelementptr inbounds (<{ [76 x i8] }>, <{ [76 x i8] }>* @alloc67, i32 0, i32 0, i32 0), [16 x i8] c"L\00\00\00\00\00\00\00#\06\00\00*\00\00\00" }>, align 8
@vtable.2 = private unnamed_addr constant { void (i64**)*, i64, i64, i32 (i64**)*, i32 (i64**)*, i32 (i64**)* } { void (i64**)* @_RINvNtCs3p84KrD9aKt_4core3ptr13drop_in_placeNCINvNtCs2bNvlddUlXM_3std2rt10lang_startuE0ECseZ2WzEtypfB_15crossbeam_scope, i64 8, i64 8, i32 (i64**)* @_RNCINvNtCs2bNvlddUlXM_3std2rt10lang_startuE0CseZ2WzEtypfB_15crossbeam_scope, i32 (i64**)* @_RNCINvNtCs2bNvlddUlXM_3std2rt10lang_startuE0CseZ2WzEtypfB_15crossbeam_scope, i32 (i64**)* @_RNSNvYNCINvNtCs2bNvlddUlXM_3std2rt10lang_startuE0INtNtNtCs3p84KrD9aKt_4core3ops8function6FnOnceuE9call_once6vtableCseZ2WzEtypfB_15crossbeam_scope }, align 8, !dbg !536
@alloc70 = private unnamed_addr constant <{ i8*, [16 x i8] }> <{ i8* getelementptr inbounds (<{ [95 x i8] }>, <{ [95 x i8] }>* @alloc73, i32 0, i32 0, i32 0), [16 x i8] c"_\00\00\00\00\00\00\00\AC\00\00\00\0A\00\00\00" }>, align 8
@vtable.3 = private unnamed_addr constant { void (%"std::vec::Vec<std::boxed::Box<dyn std::any::Any + std::marker::Send>>"*)*, i64, i64, i64 (%"std::vec::Vec<std::boxed::Box<dyn std::any::Any + std::marker::Send>>"*)* } { void (%"std::vec::Vec<std::boxed::Box<dyn std::any::Any + std::marker::Send>>"*)* @_RINvNtCs3p84KrD9aKt_4core3ptr13drop_in_placeINtNtCs8RW06R9lH2S_5alloc3vec3VecINtNtBL_5boxed3BoxDNtNtB4_3any3AnyNtNtB4_6marker4SendEL_EEECseZ2WzEtypfB_15crossbeam_scope, i64 24, i64 8, i64 (%"std::vec::Vec<std::boxed::Box<dyn std::any::Any + std::marker::Send>>"*)* @_RNvXNtCs3p84KrD9aKt_4core3anyINtNtCs8RW06R9lH2S_5alloc3vec3VecINtNtBw_5boxed3BoxDNtB2_3AnyNtNtB4_6marker4SendEL_EEB1h_7type_idCseZ2WzEtypfB_15crossbeam_scope }, align 8, !dbg !547
@alloc72 = private unnamed_addr constant <{ i8*, [16 x i8] }> <{ i8* getelementptr inbounds (<{ [95 x i8] }>, <{ [95 x i8] }>* @alloc73, i32 0, i32 0, i32 0), [16 x i8] c"_\00\00\00\00\00\00\00\BA\01\00\00$\00\00\00" }>, align 8
@alloc74 = private unnamed_addr constant <{ i8*, [16 x i8] }> <{ i8* getelementptr inbounds (<{ [95 x i8] }>, <{ [95 x i8] }>* @alloc73, i32 0, i32 0, i32 0), [16 x i8] c"_\00\00\00\00\00\00\00\AF\00\00\00,\00\00\00" }>, align 8
@0 = private unnamed_addr constant <{ [16 x i8] }> zeroinitializer, align 8
@alloc77 = private unnamed_addr constant <{ [77 x i8] }> <{ [77 x i8] c"/rustc/e38fb306b7f5e65cca34df2dab1f0db15e1defb4/library/core/src/ops/range.rs" }>, align 1
@alloc76 = private unnamed_addr constant <{ i8*, [16 x i8] }> <{ i8* getelementptr inbounds (<{ [77 x i8] }>, <{ [77 x i8] }>* @alloc77, i32 0, i32 0, i32 0), [16 x i8] c"M\00\00\00\00\00\00\00=\03\00\008\00\00\00" }>, align 8
@alloc78 = private unnamed_addr constant <{ i8*, [16 x i8] }> <{ i8* getelementptr inbounds (<{ [77 x i8] }>, <{ [77 x i8] }>* @alloc77, i32 0, i32 0, i32 0), [16 x i8] c"M\00\00\00\00\00\00\00E\03\00\006\00\00\00" }>, align 8
@alloc80 = private unnamed_addr constant <{ [43 x i8] }> <{ [43 x i8] c"called `Option::unwrap()` on a `None` value" }>, align 1
@1 = private unnamed_addr constant <{ [16 x i8] }> <{ [16 x i8] c"\08\00\00\00\00\00\00\00\00\00\00\00\00\00\00\00" }>, align 8
@alloc81 = private unnamed_addr constant <{ [80 x i8] }> <{ [80 x i8] c"/rustc/e38fb306b7f5e65cca34df2dab1f0db15e1defb4/library/core/src/alloc/layout.rs" }>, align 1
@alloc82 = private unnamed_addr constant <{ i8*, [16 x i8] }> <{ i8* getelementptr inbounds (<{ [80 x i8] }>, <{ [80 x i8] }>* @alloc81, i32 0, i32 0, i32 0), [16 x i8] c"P\00\00\00\00\00\00\00\11\01\00\009\00\00\00" }>, align 8
@alloc83 = private unnamed_addr constant <{ [76 x i8] }> <{ [76 x i8] c"/rustc/e38fb306b7f5e65cca34df2dab1f0db15e1defb4/library/alloc/src/raw_vec.rs" }>, align 1
@alloc84 = private unnamed_addr constant <{ i8*, [16 x i8] }> <{ i8* getelementptr inbounds (<{ [76 x i8] }>, <{ [76 x i8] }>* @alloc83, i32 0, i32 0, i32 0), [16 x i8] c"L\00\00\00\00\00\00\00s\01\00\00\09\00\00\00" }>, align 8
@str.4 = internal constant [25 x i8] c"attempt to divide by zero"
@vtable.5 = private unnamed_addr constant { void (%"std::io::Error"*)*, i64, i64, i1 (%"std::io::Error"*, %"std::fmt::Formatter"*)* } { void (%"std::io::Error"*)* @_RINvNtCs3p84KrD9aKt_4core3ptr13drop_in_placeNtNtNtCs2bNvlddUlXM_3std2io5error5ErrorECseZ2WzEtypfB_15crossbeam_scope, i64 16, i64 8, i1 (%"std::io::Error"*, %"std::fmt::Formatter"*)* @"_ZN58_$LT$std..io..error..Error$u20$as$u20$core..fmt..Debug$GT$3fmt17h9846d30f97792c23E" }, align 8, !dbg !568
@alloc88 = private unnamed_addr constant <{ [43 x i8] }> <{ [43 x i8] c"called `Result::unwrap()` on an `Err` value" }>, align 1
@vtable.6 = private unnamed_addr constant { void ({ i64*, i8 }*)*, i64, i64, i1 ({ i64*, i8 }*, %"std::fmt::Formatter"*)* } { void ({ i64*, i8 }*)* @_RINvNtCs3p84KrD9aKt_4core3ptr13drop_in_placeINtNtNtCs2bNvlddUlXM_3std10sys_common6poison11PoisonErrorINtNtNtBN_4sync5mutex10MutexGuardINtNtB4_6option6OptionINtNtBN_6thread10JoinHandleuEEEEECseZ2WzEtypfB_15crossbeam_scope, i64 16, i64 8, i1 ({ i64*, i8 }*, %"std::fmt::Formatter"*)* @_RNvXs_NtNtCs2bNvlddUlXM_3std10sys_common6poisonINtB4_11PoisonErrorINtNtNtB8_4sync5mutex10MutexGuardINtNtCs3p84KrD9aKt_4core6option6OptionINtNtB8_6thread10JoinHandleuEEEENtNtB1E_3fmt5Debug3fmtCseZ2WzEtypfB_15crossbeam_scope }, align 8, !dbg !629
@vtable.7 = private unnamed_addr constant { void ({ i64*, i8 }*)*, i64, i64, i1 ({ i64*, i8 }*, %"std::fmt::Formatter"*)* } { void ({ i64*, i8 }*)* @_RINvNtCs3p84KrD9aKt_4core3ptr13drop_in_placeINtNtNtCs2bNvlddUlXM_3std10sys_common6poison11PoisonErrorINtNtNtBN_4sync5mutex10MutexGuardINtNtB4_6option6OptionuEEEECseZ2WzEtypfB_15crossbeam_scope, i64 16, i64 8, i1 ({ i64*, i8 }*, %"std::fmt::Formatter"*)* @_RNvXs_NtNtCs2bNvlddUlXM_3std10sys_common6poisonINtB4_11PoisonErrorINtNtNtB8_4sync5mutex10MutexGuardINtNtCs3p84KrD9aKt_4core6option6OptionuEEENtNtB1E_3fmt5Debug3fmtCseZ2WzEtypfB_15crossbeam_scope }, align 8, !dbg !646
@vtable.8 = private unnamed_addr constant { void ({ i64*, i8 }*)*, i64, i64, i1 ({ i64*, i8 }*, %"std::fmt::Formatter"*)* } { void ({ i64*, i8 }*)* @_RINvNtCs3p84KrD9aKt_4core3ptr13drop_in_placeINtNtNtCs2bNvlddUlXM_3std10sys_common6poison11PoisonErrorINtNtNtBN_4sync5mutex10MutexGuardINtNtCs8RW06R9lH2S_5alloc3vec3VecINtNtB2d_4sync3ArcINtB1E_5MutexINtNtB4_6option6OptionINtNtBN_6thread10JoinHandleuEEEEEEEECseZ2WzEtypfB_15crossbeam_scope, i64 16, i64 8, i1 ({ i64*, i8 }*, %"std::fmt::Formatter"*)* @_RNvXs_NtNtCs2bNvlddUlXM_3std10sys_common6poisonINtB4_11PoisonErrorINtNtNtB8_4sync5mutex10MutexGuardINtNtCs8RW06R9lH2S_5alloc3vec3VecINtNtB1E_4sync3ArcINtB15_5MutexINtNtCs3p84KrD9aKt_4core6option6OptionINtNtB8_6thread10JoinHandleuEEEEEEENtNtB2G_3fmt5Debug3fmtCseZ2WzEtypfB_15crossbeam_scope }, align 8, !dbg !659
@vtable.9 = private unnamed_addr constant { void ({ {}*, [3 x i64]* }*)*, i64, i64, i1 ({ {}*, [3 x i64]* }*, %"std::fmt::Formatter"*)* } { void ({ {}*, [3 x i64]* }*)* @_RINvNtCs3p84KrD9aKt_4core3ptr13drop_in_placeINtNtCs8RW06R9lH2S_5alloc5boxed3BoxDNtNtB4_3any3AnyNtNtB4_6marker4SendEL_EECs48Yq53b35jF_15crossbeam_utils, i64 16, i64 8, i1 ({ {}*, [3 x i64]* }*, %"std::fmt::Formatter"*)* @_RNvXsu_NtCs8RW06R9lH2S_5alloc5boxedINtB5_3BoxDNtNtCs3p84KrD9aKt_4core3any3AnyNtNtBM_6marker4SendEL_ENtNtBM_3fmt5Debug3fmtCseZ2WzEtypfB_15crossbeam_scope }, align 8, !dbg !672
@alloc91 = private unnamed_addr constant <{ [77 x i8] }> <{ [77 x i8] c"/rustc/e38fb306b7f5e65cca34df2dab1f0db15e1defb4/library/std/src/thread/mod.rs" }>, align 1
@alloc90 = private unnamed_addr constant <{ i8*, [16 x i8] }> <{ i8* getelementptr inbounds (<{ [77 x i8] }>, <{ [77 x i8] }>* @alloc91, i32 0, i32 0, i32 0), [16 x i8] c"M\00\00\00\00\00\00\00\E1\04\00\00\1C\00\00\00" }>, align 8
@alloc92 = private unnamed_addr constant <{ i8*, [16 x i8] }> <{ i8* getelementptr inbounds (<{ [77 x i8] }>, <{ [77 x i8] }>* @alloc91, i32 0, i32 0, i32 0), [16 x i8] c"M\00\00\00\00\00\00\00\E2\04\00\000\00\00\00" }>, align 8
@alloc27 = private unnamed_addr constant <{ [0 x i8] }> zeroinitializer, align 1
@_ZN3std9panicking11panic_count18GLOBAL_PANIC_COUNT17he153705974b5d722E = external global %"std::sync::atomic::AtomicUsize"
@alloc93 = private unnamed_addr constant <{ [41 x i8] }> <{ [41 x i8] c"there is no such thing as a relaxed fence" }>, align 1
@alloc94 = private unnamed_addr constant <{ [79 x i8] }> <{ [79 x i8] c"/rustc/e38fb306b7f5e65cca34df2dab1f0db15e1defb4/library/core/src/sync/atomic.rs" }>, align 1
@alloc95 = private unnamed_addr constant <{ i8*, [16 x i8] }> <{ i8* getelementptr inbounds (<{ [79 x i8] }>, <{ [79 x i8] }>* @alloc94, i32 0, i32 0, i32 0), [16 x i8] c"O\00\00\00\00\00\00\00n\0A\00\00\18\00\00\00" }>, align 8
@alloc98 = private unnamed_addr constant <{ [25 x i8] }> <{ [25 x i8] c"PoisonError { inner: .. }" }>, align 1
@alloc105 = private unnamed_addr constant <{ [11 x i8] }> <{ [11 x i8] c"src/main.rs" }>, align 1
@alloc100 = private unnamed_addr constant <{ i8*, [16 x i8] }> <{ i8* getelementptr inbounds (<{ [11 x i8] }>, <{ [11 x i8] }>* @alloc105, i32 0, i32 0, i32 0), [16 x i8] c"\0B\00\00\00\00\00\00\00\16\00\00\00\08\00\00\00" }>, align 8
@alloc102 = private unnamed_addr constant <{ i8*, [16 x i8] }> <{ i8* getelementptr inbounds (<{ [11 x i8] }>, <{ [11 x i8] }>* @alloc105, i32 0, i32 0, i32 0), [16 x i8] c"\0B\00\00\00\00\00\00\00\12\00\00\00\0D\00\00\00" }>, align 8
@str.a = internal constant [28 x i8] c"attempt to add with overflow"
@alloc104 = private unnamed_addr constant <{ i8*, [16 x i8] }> <{ i8* getelementptr inbounds (<{ [11 x i8] }>, <{ [11 x i8] }>* @alloc105, i32 0, i32 0, i32 0), [16 x i8] c"\0B\00\00\00\00\00\00\00\12\00\00\00\17\00\00\00" }>, align 8
@alloc106 = private unnamed_addr constant <{ i8*, [16 x i8] }> <{ i8* getelementptr inbounds (<{ [11 x i8] }>, <{ [11 x i8] }>* @alloc105, i32 0, i32 0, i32 0), [16 x i8] c"\0B\00\00\00\00\00\00\00\12\00\00\00\22\00\00\00" }>, align 8
@__rustc_debug_gdb_scripts_section__ = linkonce_odr unnamed_addr constant [34 x i8] c"\01gdb_load_rust_pretty_printers.py\00", section ".debug_gdb_scripts", align 1

; <std::thread::Builder>::spawn_unchecked::<<crossbeam_utils::thread::ScopedThreadBuilder>::spawn<crossbeam_scope::main::{closure#0}::{closure#0}, ()>::{closure#1}, ()>
; Function Attrs: nonlazybind uwtable
define internal void @_RINvMNtCs2bNvlddUlXM_3std6threadNtB3_7Builder15spawn_uncheckedNCINvMs1_NtCs48Yq53b35jF_15crossbeam_utils6threadNtB17_19ScopedThreadBuilder5spawnNCNCNvCseZ2WzEtypfB_15crossbeam_scope4main00uEs_0uEB2o_(%"std::result::Result<std::thread::JoinHandle<()>, std::io::Error>"* noalias nocapture sret dereferenceable(40) %0, %"std::thread::Builder"* noalias nocapture dereferenceable(40) %self, i8* noalias nonnull align 1 %1, i64* noalias readonly align 8 dereferenceable(24) %2) unnamed_addr #0 personality i32 (i32, i32, i64, %"unwind::libunwind::_Unwind_Exception"*, %"unwind::libunwind::_Unwind_Context"*)* @rust_eh_personality !dbg !707 {
start:
  %val.dbg.spill = alloca i64, align 8
  %3 = alloca i128, align 8
  %4 = alloca { {}*, [3 x i64]* }, align 8
  %stack_size.dbg.spill1 = alloca i64, align 8
  %5 = alloca { i8*, i32 }, align 8
  %stack_size.dbg.spill = alloca { i64, i64 }, align 8
  %_46 = alloca i8, align 1
  %_45 = alloca i8, align 1
  %_44 = alloca i8, align 1
  %_43 = alloca i8, align 1
  %_42 = alloca i8, align 1
  %_40 = alloca i64*, align 8
  %_37 = alloca %"std::io::Error", align 8
  %_36 = alloca %"std::io::Error", align 8
  %err = alloca %"std::io::Error", align 8
  %_33 = alloca %"[closure@std::thread::Builder::spawn_unchecked<[closure@crossbeam::thread::ScopedThreadBuilder::spawn<[closure@src/main.rs:15:27: 20:4], ()>::{closure#1}], ()>::{closure#0}]", align 8
  %_27 = alloca %"std::result::Result<std::sys::unix::thread::Thread, std::io::Error>", align 8
  %_26 = alloca %"std::result::Result<std::sys::unix::thread::Thread, std::io::Error>", align 8
  %_24 = alloca { i64, i64 }, align 8
  %_23 = alloca %"std::thread::JoinInner<()>", align 8
  %_22 = alloca %"std::thread::JoinHandle<()>", align 8
  %main = alloca %"[closure@std::thread::Builder::spawn_unchecked<[closure@crossbeam::thread::ScopedThreadBuilder::spawn<[closure@src/main.rs:15:27: 20:4], ()>::{closure#1}], ()>::{closure#0}]", align 8
  %_18 = alloca i64*, align 8
  %_17 = alloca i64*, align 8
  %output_capture = alloca i64*, align 8
  %their_packet = alloca i64*, align 8
  %_13 = alloca %"std::option::Option<std::result::Result<(), std::boxed::Box<dyn std::any::Any + std::marker::Send>>>", align 8
  %_12 = alloca %"std::cell::UnsafeCell<std::option::Option<std::result::Result<(), std::boxed::Box<dyn std::any::Any + std::marker::Send>>>>", align 8
  %my_packet = alloca i64*, align 8
  %their_thread = alloca i64*, align 8
  %_8 = alloca %"std::option::Option<std::string::String>", align 8
  %my_thread = alloca i64*, align 8
  %name = alloca %"std::option::Option<std::string::String>", align 8
  %f = alloca { i8*, i64* }, align 8
  %6 = getelementptr inbounds { i8*, i64* }, { i8*, i64* }* %f, i32 0, i32 0
  store i8* %1, i8** %6, align 8
  %7 = getelementptr inbounds { i8*, i64* }, { i8*, i64* }* %f, i32 0, i32 1
  store i64* %2, i64** %7, align 8
  call void @llvm.dbg.declare(metadata %"std::thread::Builder"* %self, metadata !756, metadata !DIExpression()), !dbg !781
  call void @llvm.dbg.declare(metadata { i8*, i64* }* %f, metadata !757, metadata !DIExpression()), !dbg !782
  call void @llvm.dbg.declare(metadata %"std::option::Option<std::string::String>"* %name, metadata !758, metadata !DIExpression()), !dbg !783
  call void @llvm.dbg.declare(metadata i64** %my_thread, metadata !763, metadata !DIExpression()), !dbg !784
  call void @llvm.dbg.declare(metadata i64** %their_thread, metadata !765, metadata !DIExpression()), !dbg !785
  call void @llvm.dbg.declare(metadata i64** %my_packet, metadata !767, metadata !DIExpression()), !dbg !786
  call void @llvm.dbg.declare(metadata i64** %their_packet, metadata !769, metadata !DIExpression()), !dbg !787
  call void @llvm.dbg.declare(metadata i64** %output_capture, metadata !771, metadata !DIExpression()), !dbg !788
  call void @llvm.dbg.declare(metadata %"[closure@std::thread::Builder::spawn_unchecked<[closure@crossbeam::thread::ScopedThreadBuilder::spawn<[closure@src/main.rs:15:27: 20:4], ()>::{closure#1}], ()>::{closure#0}]"* %main, metadata !773, metadata !DIExpression()), !dbg !789
  call void @llvm.dbg.declare(metadata %"std::io::Error"* %err, metadata !775, metadata !DIExpression()), !dbg !790
  store i8 0, i8* %_42, align 1, !dbg !791
  store i8 0, i8* %_46, align 1, !dbg !791
  store i8 0, i8* %_44, align 1, !dbg !791
  store i8 0, i8* %_43, align 1, !dbg !791
  store i8 0, i8* %_45, align 1, !dbg !791
  store i8 1, i8* %_46, align 1, !dbg !791
  store i8 1, i8* %_45, align 1, !dbg !791
  %8 = bitcast %"std::thread::Builder"* %self to %"std::option::Option<std::string::String>"*, !dbg !791
  %9 = bitcast %"std::option::Option<std::string::String>"* %name to i8*, !dbg !791
  %10 = bitcast %"std::option::Option<std::string::String>"* %8 to i8*, !dbg !791
  call void @llvm.memcpy.p0i8.p0i8.i64(i8* align 8 %9, i8* align 8 %10, i64 24, i1 false), !dbg !791
  %11 = getelementptr inbounds %"std::thread::Builder", %"std::thread::Builder"* %self, i32 0, i32 3, !dbg !792
  %12 = getelementptr inbounds { i64, i64 }, { i64, i64 }* %11, i32 0, i32 0, !dbg !792
  %stack_size.0 = load i64, i64* %12, align 8, !dbg !792, !range !793
  %13 = getelementptr inbounds { i64, i64 }, { i64, i64 }* %11, i32 0, i32 1, !dbg !792
  %stack_size.1 = load i64, i64* %13, align 8, !dbg !792
  %14 = getelementptr inbounds { i64, i64 }, { i64, i64 }* %stack_size.dbg.spill, i32 0, i32 0, !dbg !792
  store i64 %stack_size.0, i64* %14, align 8, !dbg !792
  %15 = getelementptr inbounds { i64, i64 }, { i64, i64 }* %stack_size.dbg.spill, i32 0, i32 1, !dbg !792
  store i64 %stack_size.1, i64* %15, align 8, !dbg !792
  call void @llvm.dbg.declare(metadata { i64, i64 }* %stack_size.dbg.spill, metadata !760, metadata !DIExpression()), !dbg !794
; invoke <core::option::Option<usize>>::unwrap_or_else::<std::sys_common::thread::min_stack>
  %stack_size = invoke i64 @_RINvMNtCs3p84KrD9aKt_4core6optionINtB3_6OptionjE14unwrap_or_elseNvNtNtCs2bNvlddUlXM_3std10sys_common6thread9min_stackECseZ2WzEtypfB_15crossbeam_scope(i64 %stack_size.0, i64 %stack_size.1)
          to label %bb1 unwind label %cleanup, !dbg !795

bb1:                                              ; preds = %start
  store i64 %stack_size, i64* %stack_size.dbg.spill1, align 8, !dbg !795
  call void @llvm.dbg.declare(metadata i64* %stack_size.dbg.spill1, metadata !761, metadata !DIExpression()), !dbg !796
  store i8 0, i8* %_45, align 1, !dbg !797
  %16 = bitcast %"std::option::Option<std::string::String>"* %_8 to i8*, !dbg !797
  %17 = bitcast %"std::option::Option<std::string::String>"* %name to i8*, !dbg !797
  call void @llvm.memcpy.p0i8.p0i8.i64(i8* align 8 %16, i8* align 8 %17, i64 24, i1 false), !dbg !797
; invoke std::thread::Thread::new
  %18 = invoke nonnull i64* @_ZN3std6thread6Thread3new17hb6f98794e2c3d412E(%"std::option::Option<std::string::String>"* noalias nocapture dereferenceable(24) %_8)
          to label %bb2 unwind label %cleanup, !dbg !798

bb2:                                              ; preds = %bb1
  store i64* %18, i64** %my_thread, align 8, !dbg !798
; invoke <std::thread::Thread as core::clone::Clone>::clone
  %19 = invoke nonnull i64* @_RNvXsk_NtCs2bNvlddUlXM_3std6threadNtB5_6ThreadNtNtCs3p84KrD9aKt_4core5clone5Clone5cloneCseZ2WzEtypfB_15crossbeam_scope(i64** noalias readonly align 8 dereferenceable(8) %my_thread)
          to label %bb3 unwind label %cleanup2, !dbg !799

bb3:                                              ; preds = %bb2
  store i64* %19, i64** %their_thread, align 8, !dbg !799
  store i8 1, i8* %_44, align 1, !dbg !800
  %20 = bitcast %"std::option::Option<std::result::Result<(), std::boxed::Box<dyn std::any::Any + std::marker::Send>>>"* %_13 to i64*, !dbg !801
  store i64 0, i64* %20, align 8, !dbg !801
; invoke <core::cell::UnsafeCell<core::option::Option<core::result::Result<(), alloc::boxed::Box<dyn core::any::Any + core::marker::Send>>>>>::new
  invoke void @_RNvMsJ_NtCs3p84KrD9aKt_4core4cellINtB5_10UnsafeCellINtNtB7_6option6OptionINtNtB7_6result6ResultuINtNtCs8RW06R9lH2S_5alloc5boxed3BoxDNtNtB7_3any3AnyNtNtB7_6marker4SendEL_EEEE3newCseZ2WzEtypfB_15crossbeam_scope(%"std::cell::UnsafeCell<std::option::Option<std::result::Result<(), std::boxed::Box<dyn std::any::Any + std::marker::Send>>>>"* noalias nocapture sret dereferenceable(24) %_12, %"std::option::Option<std::result::Result<(), std::boxed::Box<dyn std::any::Any + std::marker::Send>>>"* noalias nocapture dereferenceable(24) %_13)
          to label %bb4 unwind label %cleanup3, !dbg !802

bb4:                                              ; preds = %bb3
; invoke <alloc::sync::Arc<core::cell::UnsafeCell<core::option::Option<core::result::Result<(), alloc::boxed::Box<dyn core::any::Any + core::marker::Send>>>>>>::new
  %21 = invoke nonnull i64* @_RNvMsa_NtCs8RW06R9lH2S_5alloc4syncINtB5_3ArcINtNtCs3p84KrD9aKt_4core4cell10UnsafeCellINtNtBL_6option6OptionINtNtBL_6result6ResultuINtNtB7_5boxed3BoxDNtNtBL_3any3AnyNtNtBL_6marker4SendEL_EEEEE3newCseZ2WzEtypfB_15crossbeam_scope(%"std::cell::UnsafeCell<std::option::Option<std::result::Result<(), std::boxed::Box<dyn std::any::Any + std::marker::Send>>>>"* noalias nocapture dereferenceable(24) %_12)
          to label %bb5 unwind label %cleanup3, !dbg !803

bb5:                                              ; preds = %bb4
  store i64* %21, i64** %my_packet, align 8, !dbg !803
; invoke <alloc::sync::Arc<core::cell::UnsafeCell<core::option::Option<core::result::Result<(), alloc::boxed::Box<dyn core::any::Any + core::marker::Send>>>>> as core::clone::Clone>::clone
  %22 = invoke nonnull i64* @_RNvXsk_NtCs8RW06R9lH2S_5alloc4syncINtB5_3ArcINtNtCs3p84KrD9aKt_4core4cell10UnsafeCellINtNtBL_6option6OptionINtNtBL_6result6ResultuINtNtB7_5boxed3BoxDNtNtBL_3any3AnyNtNtBL_6marker4SendEL_EEEEENtNtBL_5clone5Clone5cloneCseZ2WzEtypfB_15crossbeam_scope(i64** noalias readonly align 8 dereferenceable(8) %my_packet)
          to label %bb6 unwind label %cleanup4, !dbg !804

bb6:                                              ; preds = %bb5
  store i64* %22, i64** %their_packet, align 8, !dbg !804
  store i8 1, i8* %_43, align 1, !dbg !805
  %23 = bitcast i64** %_17 to {}**, !dbg !806
  store {}* null, {}** %23, align 8, !dbg !806
  %24 = load i64*, i64** %_17, align 8, !dbg !807
; invoke std::io::stdio::set_output_capture
  %25 = invoke i64* @_ZN3std2io5stdio18set_output_capture17he178fcaf92baad96E(i64* %24)
          to label %bb7 unwind label %cleanup5, !dbg !807

bb7:                                              ; preds = %bb6
  store i64* %25, i64** %output_capture, align 8, !dbg !807
  store i8 1, i8* %_42, align 1, !dbg !808
; invoke <core::option::Option<alloc::sync::Arc<std::sync::mutex::Mutex<alloc::vec::Vec<u8>>>> as core::clone::Clone>::clone
  %_19 = invoke i64* @_RNvXs8_NtCs3p84KrD9aKt_4core6optionINtB5_6OptionINtNtCs8RW06R9lH2S_5alloc4sync3ArcINtNtNtCs2bNvlddUlXM_3std4sync5mutex5MutexINtNtBP_3vec3VechEEEENtNtB7_5clone5Clone5cloneCseZ2WzEtypfB_15crossbeam_scope(i64** noalias readonly align 8 dereferenceable(8) %output_capture)
          to label %bb8 unwind label %cleanup6, !dbg !809

bb8:                                              ; preds = %bb7
; invoke std::io::stdio::set_output_capture
  %26 = invoke i64* @_ZN3std2io5stdio18set_output_capture17he178fcaf92baad96E(i64* %_19)
          to label %bb9 unwind label %cleanup6, !dbg !810

bb9:                                              ; preds = %bb8
  store i64* %26, i64** %_18, align 8, !dbg !810
; invoke core::ptr::drop_in_place::<core::option::Option<alloc::sync::Arc<std::sync::mutex::Mutex<alloc::vec::Vec<u8>>>>>
  invoke void @_RINvNtCs3p84KrD9aKt_4core3ptr13drop_in_placeINtNtB4_6option6OptionINtNtCs8RW06R9lH2S_5alloc4sync3ArcINtNtNtCs2bNvlddUlXM_3std4sync5mutex5MutexINtNtB17_3vec3VechEEEEECseZ2WzEtypfB_15crossbeam_scope(i64** %_18)
          to label %bb10 unwind label %cleanup6, !dbg !811

bb10:                                             ; preds = %bb9
  store i8 0, i8* %_44, align 1, !dbg !812
  store i8 0, i8* %_42, align 1, !dbg !812
  store i8 0, i8* %_46, align 1, !dbg !812
  store i8 0, i8* %_43, align 1, !dbg !812
  %27 = bitcast %"[closure@std::thread::Builder::spawn_unchecked<[closure@crossbeam::thread::ScopedThreadBuilder::spawn<[closure@src/main.rs:15:27: 20:4], ()>::{closure#1}], ()>::{closure#0}]"* %main to i64**, !dbg !812
  %28 = load i64*, i64** %their_thread, align 8, !dbg !812, !nonnull !4
  store i64* %28, i64** %27, align 8, !dbg !812
  %29 = getelementptr inbounds %"[closure@std::thread::Builder::spawn_unchecked<[closure@crossbeam::thread::ScopedThreadBuilder::spawn<[closure@src/main.rs:15:27: 20:4], ()>::{closure#1}], ()>::{closure#0}]", %"[closure@std::thread::Builder::spawn_unchecked<[closure@crossbeam::thread::ScopedThreadBuilder::spawn<[closure@src/main.rs:15:27: 20:4], ()>::{closure#1}], ()>::{closure#0}]"* %main, i32 0, i32 3, !dbg !812
  %30 = load i64*, i64** %output_capture, align 8, !dbg !812
  store i64* %30, i64** %29, align 8, !dbg !812
  %31 = getelementptr inbounds %"[closure@std::thread::Builder::spawn_unchecked<[closure@crossbeam::thread::ScopedThreadBuilder::spawn<[closure@src/main.rs:15:27: 20:4], ()>::{closure#1}], ()>::{closure#0}]", %"[closure@std::thread::Builder::spawn_unchecked<[closure@crossbeam::thread::ScopedThreadBuilder::spawn<[closure@src/main.rs:15:27: 20:4], ()>::{closure#1}], ()>::{closure#0}]"* %main, i32 0, i32 5, !dbg !812
  %32 = getelementptr inbounds { i8*, i64* }, { i8*, i64* }* %f, i32 0, i32 0, !dbg !812
  %33 = load i8*, i8** %32, align 8, !dbg !812, !nonnull !4
  %34 = getelementptr inbounds { i8*, i64* }, { i8*, i64* }* %f, i32 0, i32 1, !dbg !812
  %35 = load i64*, i64** %34, align 8, !dbg !812, !nonnull !4
  %36 = getelementptr inbounds { i8*, i64* }, { i8*, i64* }* %31, i32 0, i32 0, !dbg !812
  store i8* %33, i8** %36, align 8, !dbg !812
  %37 = getelementptr inbounds { i8*, i64* }, { i8*, i64* }* %31, i32 0, i32 1, !dbg !812
  store i64* %35, i64** %37, align 8, !dbg !812
  %38 = getelementptr inbounds %"[closure@std::thread::Builder::spawn_unchecked<[closure@crossbeam::thread::ScopedThreadBuilder::spawn<[closure@src/main.rs:15:27: 20:4], ()>::{closure#1}], ()>::{closure#0}]", %"[closure@std::thread::Builder::spawn_unchecked<[closure@crossbeam::thread::ScopedThreadBuilder::spawn<[closure@src/main.rs:15:27: 20:4], ()>::{closure#1}], ()>::{closure#0}]"* %main, i32 0, i32 7, !dbg !812
  %39 = load i64*, i64** %their_packet, align 8, !dbg !812, !nonnull !4
  store i64* %39, i64** %38, align 8, !dbg !812
  %40 = bitcast %"[closure@std::thread::Builder::spawn_unchecked<[closure@crossbeam::thread::ScopedThreadBuilder::spawn<[closure@src/main.rs:15:27: 20:4], ()>::{closure#1}], ()>::{closure#0}]"* %_33 to i8*, !dbg !813
  %41 = bitcast %"[closure@std::thread::Builder::spawn_unchecked<[closure@crossbeam::thread::ScopedThreadBuilder::spawn<[closure@src/main.rs:15:27: 20:4], ()>::{closure#1}], ()>::{closure#0}]"* %main to i8*, !dbg !813
  call void @llvm.memcpy.p0i8.p0i8.i64(i8* align 8 %40, i8* align 8 %41, i64 40, i1 false), !dbg !813
  call void @llvm.dbg.declare(metadata %"[closure@std::thread::Builder::spawn_unchecked<[closure@crossbeam::thread::ScopedThreadBuilder::spawn<[closure@src/main.rs:15:27: 20:4], ()>::{closure#1}], ()>::{closure#0}]"* %_33, metadata !814, metadata !DIExpression()), !dbg !825
; invoke alloc::alloc::exchange_malloc
  %42 = invoke i8* @_RNvNtCs8RW06R9lH2S_5alloc5alloc15exchange_mallocCseZ2WzEtypfB_15crossbeam_scope(i64 40, i64 8)
          to label %_RNvMNtCs8RW06R9lH2S_5alloc5boxedINtB2_3BoxNCINvMNtCs2bNvlddUlXM_3std6threadNtBK_7Builder15spawn_uncheckedNCINvMs1_NtCs48Yq53b35jF_15crossbeam_utils6threadNtB1O_19ScopedThreadBuilder5spawnNCNCNvCseZ2WzEtypfB_15crossbeam_scope4main00uEs_0uE0E3newB35_.exit unwind label %cleanup6, !dbg !827

_RNvMNtCs8RW06R9lH2S_5alloc5boxedINtB2_3BoxNCINvMNtCs2bNvlddUlXM_3std6threadNtBK_7Builder15spawn_uncheckedNCINvMs1_NtCs48Yq53b35jF_15crossbeam_utils6threadNtB1O_19ScopedThreadBuilder5spawnNCNCNvCseZ2WzEtypfB_15crossbeam_scope4main00uEs_0uE0E3newB35_.exit: ; preds = %bb10
  %43 = bitcast i8* %42 to %"[closure@std::thread::Builder::spawn_unchecked<[closure@crossbeam::thread::ScopedThreadBuilder::spawn<[closure@src/main.rs:15:27: 20:4], ()>::{closure#1}], ()>::{closure#0}]"*, !dbg !827
  %44 = bitcast %"[closure@std::thread::Builder::spawn_unchecked<[closure@crossbeam::thread::ScopedThreadBuilder::spawn<[closure@src/main.rs:15:27: 20:4], ()>::{closure#1}], ()>::{closure#0}]"* %_33 to i8*, !dbg !828
  call void @llvm.memcpy.p0i8.p0i8.i64(i8* align 8 %42, i8* align 8 %44, i64 40, i1 false), !dbg !828
  br label %bb11, !dbg !829

bb11:                                             ; preds = %_RNvMNtCs8RW06R9lH2S_5alloc5boxedINtB2_3BoxNCINvMNtCs2bNvlddUlXM_3std6threadNtBK_7Builder15spawn_uncheckedNCINvMs1_NtCs48Yq53b35jF_15crossbeam_utils6threadNtB1O_19ScopedThreadBuilder5spawnNCNCNvCseZ2WzEtypfB_15crossbeam_scope4main00uEs_0uE0E3newB35_.exit
  %45 = bitcast %"[closure@std::thread::Builder::spawn_unchecked<[closure@crossbeam::thread::ScopedThreadBuilder::spawn<[closure@src/main.rs:15:27: 20:4], ()>::{closure#1}], ()>::{closure#0}]"* %43 to {}*, !dbg !830
  %46 = bitcast {}* %45 to i8*, !dbg !830
  %_31.0 = bitcast i8* %46 to {}*, !dbg !830
  %47 = getelementptr inbounds { {}*, [3 x i64]* }, { {}*, [3 x i64]* }* %4, i32 0, i32 0, !dbg !831
  store {}* %_31.0, {}** %47, align 8, !dbg !831
  %48 = getelementptr inbounds { {}*, [3 x i64]* }, { {}*, [3 x i64]* }* %4, i32 0, i32 1, !dbg !831
  store [3 x i64]* bitcast ({ void (%"[closure@std::thread::Builder::spawn_unchecked<[closure@crossbeam::thread::ScopedThreadBuilder::spawn<[closure@src/main.rs:15:27: 20:4], ()>::{closure#1}], ()>::{closure#0}]"*)*, i64, i64, void (%"[closure@std::thread::Builder::spawn_unchecked<[closure@crossbeam::thread::ScopedThreadBuilder::spawn<[closure@src/main.rs:15:27: 20:4], ()>::{closure#1}], ()>::{closure#0}]"*)* }* @vtable.0 to [3 x i64]*), [3 x i64]** %48, align 8, !dbg !831
  %49 = getelementptr inbounds { {}*, [3 x i64]* }, { {}*, [3 x i64]* }* %4, i32 0, i32 0, !dbg !831
  %_30.0 = load {}*, {}** %49, align 8, !dbg !831, !nonnull !4
  %50 = getelementptr inbounds { {}*, [3 x i64]* }, { {}*, [3 x i64]* }* %4, i32 0, i32 1, !dbg !831
  %_30.1 = load [3 x i64]*, [3 x i64]** %50, align 8, !dbg !831, !nonnull !4
  br label %bb12, !dbg !831

bb12:                                             ; preds = %bb11
; invoke std::sys::unix::thread::Thread::new
  invoke void @_ZN3std3sys4unix6thread6Thread3new17h3bc268f2aed68233E(%"std::result::Result<std::sys::unix::thread::Thread, std::io::Error>"* noalias nocapture sret dereferenceable(24) %_27, i64 %stack_size, {}* noalias nonnull align 1 %_30.0, [3 x i64]* noalias readonly align 8 dereferenceable(24) %_30.1)
          to label %bb13 unwind label %cleanup6, !dbg !832

bb13:                                             ; preds = %bb12
; invoke <core::result::Result<std::sys::unix::thread::Thread, std::io::error::Error> as core::ops::try::Try>::into_result
  invoke void @_RNvXsw_NtCs3p84KrD9aKt_4core6resultINtB5_6ResultNtNtNtNtCs2bNvlddUlXM_3std3sys4unix6thread6ThreadNtNtNtBS_2io5error5ErrorENtNtNtB7_3ops3try3Try11into_resultCseZ2WzEtypfB_15crossbeam_scope(%"std::result::Result<std::sys::unix::thread::Thread, std::io::Error>"* noalias nocapture sret dereferenceable(24) %_26, %"std::result::Result<std::sys::unix::thread::Thread, std::io::Error>"* noalias nocapture dereferenceable(24) %_27)
          to label %bb14 unwind label %cleanup6, !dbg !832

bb14:                                             ; preds = %bb13
  %51 = bitcast %"std::result::Result<std::sys::unix::thread::Thread, std::io::Error>"* %_26 to i64*, !dbg !833
  %_34 = load i64, i64* %51, align 8, !dbg !833, !range !793
  switch i64 %_34, label %bb16 [
    i64 0, label %bb15
    i64 1, label %bb17
  ], !dbg !833

bb15:                                             ; preds = %bb14
  %52 = bitcast %"std::result::Result<std::sys::unix::thread::Thread, std::io::Error>"* %_26 to %"std::result::Result<std::sys::unix::thread::Thread, std::io::Error>::Ok"*, !dbg !832
  %53 = getelementptr inbounds %"std::result::Result<std::sys::unix::thread::Thread, std::io::Error>::Ok", %"std::result::Result<std::sys::unix::thread::Thread, std::io::Error>::Ok"* %52, i32 0, i32 1, !dbg !832
  %val = load i64, i64* %53, align 8, !dbg !832
  store i64 %val, i64* %val.dbg.spill, align 8, !dbg !832
  call void @llvm.dbg.declare(metadata i64* %val.dbg.spill, metadata !777, metadata !DIExpression()), !dbg !834
  %54 = bitcast { i64, i64 }* %_24 to %"std::option::Option<std::sys::unix::thread::Thread>::Some"*, !dbg !835
  %55 = getelementptr inbounds %"std::option::Option<std::sys::unix::thread::Thread>::Some", %"std::option::Option<std::sys::unix::thread::Thread>::Some"* %54, i32 0, i32 1, !dbg !835
  store i64 %val, i64* %55, align 8, !dbg !835
  %56 = bitcast { i64, i64 }* %_24 to i64*, !dbg !835
  store i64 1, i64* %56, align 8, !dbg !835
  %_39 = load i64*, i64** %my_thread, align 8, !dbg !836, !nonnull !4
  %_41 = load i64*, i64** %my_packet, align 8, !dbg !837, !nonnull !4
  store i64* %_41, i64** %_40, align 8, !dbg !838
  %57 = bitcast %"std::thread::JoinInner<()>"* %_23 to { i64, i64 }*, !dbg !839
  %58 = getelementptr inbounds { i64, i64 }, { i64, i64 }* %_24, i32 0, i32 0, !dbg !839
  %59 = load i64, i64* %58, align 8, !dbg !839, !range !793
  %60 = getelementptr inbounds { i64, i64 }, { i64, i64 }* %_24, i32 0, i32 1, !dbg !839
  %61 = load i64, i64* %60, align 8, !dbg !839
  %62 = getelementptr inbounds { i64, i64 }, { i64, i64 }* %57, i32 0, i32 0, !dbg !839
  store i64 %59, i64* %62, align 8, !dbg !839
  %63 = getelementptr inbounds { i64, i64 }, { i64, i64 }* %57, i32 0, i32 1, !dbg !839
  store i64 %61, i64* %63, align 8, !dbg !839
  %64 = getelementptr inbounds %"std::thread::JoinInner<()>", %"std::thread::JoinInner<()>"* %_23, i32 0, i32 3, !dbg !839
  store i64* %_39, i64** %64, align 8, !dbg !839
  %65 = getelementptr inbounds %"std::thread::JoinInner<()>", %"std::thread::JoinInner<()>"* %_23, i32 0, i32 5, !dbg !839
  %66 = load i64*, i64** %_40, align 8, !dbg !839, !nonnull !4
  store i64* %66, i64** %65, align 8, !dbg !839
  %67 = bitcast %"std::thread::JoinHandle<()>"* %_22 to %"std::thread::JoinInner<()>"*, !dbg !840
  %68 = bitcast %"std::thread::JoinInner<()>"* %67 to i8*, !dbg !840
  %69 = bitcast %"std::thread::JoinInner<()>"* %_23 to i8*, !dbg !840
  call void @llvm.memcpy.p0i8.p0i8.i64(i8* align 8 %68, i8* align 8 %69, i64 32, i1 false), !dbg !840
  %70 = bitcast %"std::result::Result<std::thread::JoinHandle<()>, std::io::Error>"* %0 to %"std::result::Result<std::thread::JoinHandle<()>, std::io::Error>::Ok"*, !dbg !841
  %71 = getelementptr inbounds %"std::result::Result<std::thread::JoinHandle<()>, std::io::Error>::Ok", %"std::result::Result<std::thread::JoinHandle<()>, std::io::Error>::Ok"* %70, i32 0, i32 1, !dbg !841
  %72 = bitcast %"std::thread::JoinHandle<()>"* %71 to i8*, !dbg !841
  %73 = bitcast %"std::thread::JoinHandle<()>"* %_22 to i8*, !dbg !841
  call void @llvm.memcpy.p0i8.p0i8.i64(i8* align 8 %72, i8* align 8 %73, i64 32, i1 false), !dbg !841
  %74 = bitcast %"std::result::Result<std::thread::JoinHandle<()>, std::io::Error>"* %0 to i64*, !dbg !841
  store i64 0, i64* %74, align 8, !dbg !841
  store i8 0, i8* %_42, align 1, !dbg !842
  store i8 0, i8* %_43, align 1, !dbg !843
  store i8 0, i8* %_44, align 1, !dbg !844
  store i8 0, i8* %_45, align 1, !dbg !845
  br label %bb22, !dbg !845

bb16:                                             ; preds = %bb14
  unreachable, !dbg !832

bb17:                                             ; preds = %bb14
  %75 = bitcast %"std::result::Result<std::sys::unix::thread::Thread, std::io::Error>"* %_26 to %"std::result::Result<std::sys::unix::thread::Thread, std::io::Error>::Err"*, !dbg !833
  %76 = getelementptr inbounds %"std::result::Result<std::sys::unix::thread::Thread, std::io::Error>::Err", %"std::result::Result<std::sys::unix::thread::Thread, std::io::Error>::Err"* %75, i32 0, i32 1, !dbg !833
  %77 = bitcast %"std::io::Error"* %err to i8*, !dbg !833
  %78 = bitcast %"std::io::Error"* %76 to i8*, !dbg !833
  call void @llvm.memcpy.p0i8.p0i8.i64(i8* align 8 %77, i8* align 8 %78, i64 16, i1 false), !dbg !833
  %79 = bitcast %"std::io::Error"* %_37 to i8*, !dbg !790
  %80 = bitcast %"std::io::Error"* %err to i8*, !dbg !790
  call void @llvm.memcpy.p0i8.p0i8.i64(i8* align 8 %79, i8* align 8 %80, i64 16, i1 false), !dbg !790
  %81 = bitcast %"std::io::Error"* %_37 to i128*, !dbg !790
  %82 = load i128, i128* %81, align 8, !dbg !790
; invoke <std::io::error::Error as core::convert::From<std::io::error::Error>>::from
  %83 = invoke i128 @_RNvXs2_NtCs3p84KrD9aKt_4core7convertNtNtNtCs2bNvlddUlXM_3std2io5error5ErrorINtB5_4FromBy_E4fromCseZ2WzEtypfB_15crossbeam_scope(i128 %82)
          to label %bb18 unwind label %cleanup7, !dbg !790

bb18:                                             ; preds = %bb17
  store i128 %83, i128* %3, align 8, !dbg !790
  %84 = bitcast %"std::io::Error"* %_36 to i8*, !dbg !790
  %85 = bitcast i128* %3 to i8*, !dbg !790
  call void @llvm.memcpy.p0i8.p0i8.i64(i8* align 8 %84, i8* align 8 %85, i64 16, i1 false), !dbg !790
  %86 = bitcast %"std::io::Error"* %_36 to i128*, !dbg !846
  %87 = load i128, i128* %86, align 8, !dbg !846
; invoke <core::result::Result<std::thread::JoinHandle<()>, std::io::error::Error> as core::ops::try::Try>::from_error
  invoke void @_RNvXsw_NtCs3p84KrD9aKt_4core6resultINtB5_6ResultINtNtCs2bNvlddUlXM_3std6thread10JoinHandleuENtNtNtBP_2io5error5ErrorENtNtNtB7_3ops3try3Try10from_errorCseZ2WzEtypfB_15crossbeam_scope(%"std::result::Result<std::thread::JoinHandle<()>, std::io::Error>"* noalias nocapture sret dereferenceable(40) %0, i128 %87)
          to label %bb19 unwind label %cleanup7, !dbg !846

bb19:                                             ; preds = %bb18
  store i8 0, i8* %_42, align 1, !dbg !842
  store i8 0, i8* %_43, align 1, !dbg !843
; invoke core::ptr::drop_in_place::<alloc::sync::Arc<core::cell::UnsafeCell<core::option::Option<core::result::Result<(), alloc::boxed::Box<dyn core::any::Any + core::marker::Send>>>>>>
  invoke void @_RINvNtCs3p84KrD9aKt_4core3ptr13drop_in_placeINtNtCs8RW06R9lH2S_5alloc4sync3ArcINtNtB4_4cell10UnsafeCellINtNtB4_6option6OptionINtNtB4_6result6ResultuINtNtBL_5boxed3BoxDNtNtB4_3any3AnyNtNtB4_6marker4SendEL_EEEEEECseZ2WzEtypfB_15crossbeam_scope(i64** %my_packet)
          to label %bb20 unwind label %cleanup8, !dbg !847

bb20:                                             ; preds = %bb19
  store i8 0, i8* %_44, align 1, !dbg !844
; invoke core::ptr::drop_in_place::<std::thread::Thread>
  invoke void @_RINvNtCs3p84KrD9aKt_4core3ptr13drop_in_placeNtNtCs2bNvlddUlXM_3std6thread6ThreadECs48Yq53b35jF_15crossbeam_utils(i64** %my_thread)
          to label %bb21 unwind label %cleanup9, !dbg !848

bb21:                                             ; preds = %bb20
  store i8 0, i8* %_45, align 1, !dbg !845
  br label %bb22, !dbg !845

bb22:                                             ; preds = %bb15, %bb21
  ret void, !dbg !849

bb23:                                             ; preds = %cleanup8
; call core::ptr::drop_in_place::<std::thread::Thread>
  call void @_RINvNtCs3p84KrD9aKt_4core3ptr13drop_in_placeNtNtCs2bNvlddUlXM_3std6thread6ThreadECs48Yq53b35jF_15crossbeam_utils(i64** %my_thread) #15, !dbg !848
  br label %bb24, !dbg !848

bb24:                                             ; preds = %cleanup9, %bb23
; call core::ptr::drop_in_place::<core::result::Result<std::thread::JoinHandle<()>, std::io::error::Error>>
  call void @_RINvNtCs3p84KrD9aKt_4core3ptr13drop_in_placeINtNtB4_6result6ResultINtNtCs2bNvlddUlXM_3std6thread10JoinHandleuENtNtNtB17_2io5error5ErrorEECseZ2WzEtypfB_15crossbeam_scope(%"std::result::Result<std::thread::JoinHandle<()>, std::io::Error>"* %0) #15, !dbg !845
  br label %bb30, !dbg !845

bb25:                                             ; preds = %cleanup7
; call core::ptr::drop_in_place::<alloc::sync::Arc<core::cell::UnsafeCell<core::option::Option<core::result::Result<(), alloc::boxed::Box<dyn core::any::Any + core::marker::Send>>>>>>
  call void @_RINvNtCs3p84KrD9aKt_4core3ptr13drop_in_placeINtNtCs8RW06R9lH2S_5alloc4sync3ArcINtNtB4_4cell10UnsafeCellINtNtB4_6option6OptionINtNtB4_6result6ResultuINtNtBL_5boxed3BoxDNtNtB4_3any3AnyNtNtB4_6marker4SendEL_EEEEEECseZ2WzEtypfB_15crossbeam_scope(i64** %my_packet) #15, !dbg !847
  br label %bb26, !dbg !847

bb26:                                             ; preds = %bb25
; call core::ptr::drop_in_place::<std::thread::Thread>
  call void @_RINvNtCs3p84KrD9aKt_4core3ptr13drop_in_placeNtNtCs2bNvlddUlXM_3std6thread6ThreadECs48Yq53b35jF_15crossbeam_utils(i64** %my_thread) #15, !dbg !848
  br label %bb31, !dbg !848

bb27:                                             ; preds = %bb34, %bb35, %cleanup4
; call core::ptr::drop_in_place::<alloc::sync::Arc<core::cell::UnsafeCell<core::option::Option<core::result::Result<(), alloc::boxed::Box<dyn core::any::Any + core::marker::Send>>>>>>
  call void @_RINvNtCs3p84KrD9aKt_4core3ptr13drop_in_placeINtNtCs8RW06R9lH2S_5alloc4sync3ArcINtNtB4_4cell10UnsafeCellINtNtB4_6option6OptionINtNtB4_6result6ResultuINtNtBL_5boxed3BoxDNtNtB4_3any3AnyNtNtB4_6marker4SendEL_EEEEEECseZ2WzEtypfB_15crossbeam_scope(i64** %my_packet) #15, !dbg !847
  br label %bb37, !dbg !847

bb28:                                             ; preds = %bb36, %bb37, %cleanup2
; call core::ptr::drop_in_place::<std::thread::Thread>
  call void @_RINvNtCs3p84KrD9aKt_4core3ptr13drop_in_placeNtNtCs2bNvlddUlXM_3std6thread6ThreadECs48Yq53b35jF_15crossbeam_utils(i64** %my_thread) #15, !dbg !848
  br label %bb39, !dbg !848

bb29:                                             ; preds = %bb31, %bb38, %bb39
  %88 = load i8, i8* %_46, align 1, !dbg !845, !range !850
  %89 = trunc i8 %88 to i1, !dbg !845
  br i1 %89, label %bb40, label %bb30, !dbg !845

bb30:                                             ; preds = %bb24, %bb40, %bb29
  %90 = bitcast { i8*, i32 }* %5 to i8**, !dbg !851
  %91 = load i8*, i8** %90, align 8, !dbg !851
  %92 = getelementptr inbounds { i8*, i32 }, { i8*, i32 }* %5, i32 0, i32 1, !dbg !851
  %93 = load i32, i32* %92, align 8, !dbg !851
  %94 = insertvalue { i8*, i32 } undef, i8* %91, 0, !dbg !851
  %95 = insertvalue { i8*, i32 } %94, i32 %93, 1, !dbg !851
  resume { i8*, i32 } %95, !dbg !851

bb31:                                             ; preds = %bb26
  br label %bb29, !dbg !845

bb32:                                             ; preds = %bb33
; call core::ptr::drop_in_place::<core::option::Option<alloc::sync::Arc<std::sync::mutex::Mutex<alloc::vec::Vec<u8>>>>>
  call void @_RINvNtCs3p84KrD9aKt_4core3ptr13drop_in_placeINtNtB4_6option6OptionINtNtCs8RW06R9lH2S_5alloc4sync3ArcINtNtNtCs2bNvlddUlXM_3std4sync5mutex5MutexINtNtB17_3vec3VechEEEEECseZ2WzEtypfB_15crossbeam_scope(i64** %output_capture) #15, !dbg !842
  br label %bb35, !dbg !842

bb33:                                             ; preds = %cleanup6
  %96 = load i8, i8* %_42, align 1, !dbg !842, !range !850
  %97 = trunc i8 %96 to i1, !dbg !842
  br i1 %97, label %bb32, label %bb35, !dbg !842

bb34:                                             ; preds = %bb35
; call core::ptr::drop_in_place::<alloc::sync::Arc<core::cell::UnsafeCell<core::option::Option<core::result::Result<(), alloc::boxed::Box<dyn core::any::Any + core::marker::Send>>>>>>
  call void @_RINvNtCs3p84KrD9aKt_4core3ptr13drop_in_placeINtNtCs8RW06R9lH2S_5alloc4sync3ArcINtNtB4_4cell10UnsafeCellINtNtB4_6option6OptionINtNtB4_6result6ResultuINtNtBL_5boxed3BoxDNtNtB4_3any3AnyNtNtB4_6marker4SendEL_EEEEEECseZ2WzEtypfB_15crossbeam_scope(i64** %their_packet) #15, !dbg !843
  br label %bb27, !dbg !843

bb35:                                             ; preds = %bb32, %bb33, %cleanup5
  %98 = load i8, i8* %_43, align 1, !dbg !843, !range !850
  %99 = trunc i8 %98 to i1, !dbg !843
  br i1 %99, label %bb34, label %bb27, !dbg !843

bb36:                                             ; preds = %bb37
; call core::ptr::drop_in_place::<std::thread::Thread>
  call void @_RINvNtCs3p84KrD9aKt_4core3ptr13drop_in_placeNtNtCs2bNvlddUlXM_3std6thread6ThreadECs48Yq53b35jF_15crossbeam_utils(i64** %their_thread) #15, !dbg !844
  br label %bb28, !dbg !844

bb37:                                             ; preds = %bb27, %cleanup3
  %100 = load i8, i8* %_44, align 1, !dbg !844, !range !850
  %101 = trunc i8 %100 to i1, !dbg !844
  br i1 %101, label %bb36, label %bb28, !dbg !844

bb38:                                             ; preds = %bb39
; call core::ptr::drop_in_place::<core::option::Option<alloc::string::String>>
  call void @_RINvNtCs3p84KrD9aKt_4core3ptr13drop_in_placeINtNtB4_6option6OptionNtNtCs8RW06R9lH2S_5alloc6string6StringEECseZ2WzEtypfB_15crossbeam_scope(%"std::option::Option<std::string::String>"* %name) #15, !dbg !845
  br label %bb29, !dbg !845

bb39:                                             ; preds = %bb28, %cleanup
  %102 = load i8, i8* %_45, align 1, !dbg !845, !range !850
  %103 = trunc i8 %102 to i1, !dbg !845
  br i1 %103, label %bb38, label %bb29, !dbg !845

bb40:                                             ; preds = %bb29
; call core::ptr::drop_in_place::<<crossbeam_utils::thread::ScopedThreadBuilder>::spawn<crossbeam_scope::main::{closure#0}::{closure#0}, ()>::{closure#1}>
  call void @_RINvNtCs3p84KrD9aKt_4core3ptr13drop_in_placeNCINvMs1_NtCs48Yq53b35jF_15crossbeam_utils6threadNtBP_19ScopedThreadBuilder5spawnNCNCNvCseZ2WzEtypfB_15crossbeam_scope4main00uEs_0EB25_({ i8*, i64* }* %f) #15, !dbg !845
  br label %bb30, !dbg !845

cleanup:                                          ; preds = %bb1, %start
  %104 = landingpad { i8*, i32 }
          cleanup
  %105 = extractvalue { i8*, i32 } %104, 0
  %106 = extractvalue { i8*, i32 } %104, 1
  %107 = getelementptr inbounds { i8*, i32 }, { i8*, i32 }* %5, i32 0, i32 0
  store i8* %105, i8** %107, align 8
  %108 = getelementptr inbounds { i8*, i32 }, { i8*, i32 }* %5, i32 0, i32 1
  store i32 %106, i32* %108, align 8
  br label %bb39

cleanup2:                                         ; preds = %bb2
  %109 = landingpad { i8*, i32 }
          cleanup
  %110 = extractvalue { i8*, i32 } %109, 0
  %111 = extractvalue { i8*, i32 } %109, 1
  %112 = getelementptr inbounds { i8*, i32 }, { i8*, i32 }* %5, i32 0, i32 0
  store i8* %110, i8** %112, align 8
  %113 = getelementptr inbounds { i8*, i32 }, { i8*, i32 }* %5, i32 0, i32 1
  store i32 %111, i32* %113, align 8
  br label %bb28

cleanup3:                                         ; preds = %bb4, %bb3
  %114 = landingpad { i8*, i32 }
          cleanup
  %115 = extractvalue { i8*, i32 } %114, 0
  %116 = extractvalue { i8*, i32 } %114, 1
  %117 = getelementptr inbounds { i8*, i32 }, { i8*, i32 }* %5, i32 0, i32 0
  store i8* %115, i8** %117, align 8
  %118 = getelementptr inbounds { i8*, i32 }, { i8*, i32 }* %5, i32 0, i32 1
  store i32 %116, i32* %118, align 8
  br label %bb37

cleanup4:                                         ; preds = %bb5
  %119 = landingpad { i8*, i32 }
          cleanup
  %120 = extractvalue { i8*, i32 } %119, 0
  %121 = extractvalue { i8*, i32 } %119, 1
  %122 = getelementptr inbounds { i8*, i32 }, { i8*, i32 }* %5, i32 0, i32 0
  store i8* %120, i8** %122, align 8
  %123 = getelementptr inbounds { i8*, i32 }, { i8*, i32 }* %5, i32 0, i32 1
  store i32 %121, i32* %123, align 8
  br label %bb27

cleanup5:                                         ; preds = %bb6
  %124 = landingpad { i8*, i32 }
          cleanup
  %125 = extractvalue { i8*, i32 } %124, 0
  %126 = extractvalue { i8*, i32 } %124, 1
  %127 = getelementptr inbounds { i8*, i32 }, { i8*, i32 }* %5, i32 0, i32 0
  store i8* %125, i8** %127, align 8
  %128 = getelementptr inbounds { i8*, i32 }, { i8*, i32 }* %5, i32 0, i32 1
  store i32 %126, i32* %128, align 8
  br label %bb35

cleanup6:                                         ; preds = %bb10, %bb13, %bb12, %bb9, %bb8, %bb7
  %129 = landingpad { i8*, i32 }
          cleanup
  %130 = extractvalue { i8*, i32 } %129, 0
  %131 = extractvalue { i8*, i32 } %129, 1
  %132 = getelementptr inbounds { i8*, i32 }, { i8*, i32 }* %5, i32 0, i32 0
  store i8* %130, i8** %132, align 8
  %133 = getelementptr inbounds { i8*, i32 }, { i8*, i32 }* %5, i32 0, i32 1
  store i32 %131, i32* %133, align 8
  br label %bb33

cleanup7:                                         ; preds = %bb18, %bb17
  %134 = landingpad { i8*, i32 }
          cleanup
  %135 = extractvalue { i8*, i32 } %134, 0
  %136 = extractvalue { i8*, i32 } %134, 1
  %137 = getelementptr inbounds { i8*, i32 }, { i8*, i32 }* %5, i32 0, i32 0
  store i8* %135, i8** %137, align 8
  %138 = getelementptr inbounds { i8*, i32 }, { i8*, i32 }* %5, i32 0, i32 1
  store i32 %136, i32* %138, align 8
  br label %bb25

cleanup8:                                         ; preds = %bb19
  %139 = landingpad { i8*, i32 }
          cleanup
  %140 = extractvalue { i8*, i32 } %139, 0
  %141 = extractvalue { i8*, i32 } %139, 1
  %142 = getelementptr inbounds { i8*, i32 }, { i8*, i32 }* %5, i32 0, i32 0
  store i8* %140, i8** %142, align 8
  %143 = getelementptr inbounds { i8*, i32 }, { i8*, i32 }* %5, i32 0, i32 1
  store i32 %141, i32* %143, align 8
  br label %bb23

cleanup9:                                         ; preds = %bb20
  %144 = landingpad { i8*, i32 }
          cleanup
  %145 = extractvalue { i8*, i32 } %144, 0
  %146 = extractvalue { i8*, i32 } %144, 1
  %147 = getelementptr inbounds { i8*, i32 }, { i8*, i32 }* %5, i32 0, i32 0
  store i8* %145, i8** %147, align 8
  %148 = getelementptr inbounds { i8*, i32 }, { i8*, i32 }* %5, i32 0, i32 1
  store i32 %146, i32* %148, align 8
  br label %bb24
}

; <std::thread::Builder>::spawn::<<crossbeam_utils::thread::ScopedThreadBuilder>::spawn<crossbeam_scope::main::{closure#0}::{closure#0}, ()>::{closure#1}, ()>
; Function Attrs: nonlazybind uwtable
define internal void @_RINvMNtCs2bNvlddUlXM_3std6threadNtB3_7Builder5spawnNCINvMs1_NtCs48Yq53b35jF_15crossbeam_utils6threadNtBW_19ScopedThreadBuilder5spawnNCNCNvCseZ2WzEtypfB_15crossbeam_scope4main00uEs_0uEB2c_(%"std::result::Result<std::thread::JoinHandle<()>, std::io::Error>"* noalias nocapture sret dereferenceable(40) %0, %"std::thread::Builder"* noalias nocapture dereferenceable(40) %self, i8* noalias nonnull align 1 %f.0, i64* noalias readonly align 8 dereferenceable(24) %f.1) unnamed_addr #0 !dbg !852 {
start:
  %f.dbg.spill = alloca { i8*, i64* }, align 8
  %_3 = alloca %"std::thread::Builder", align 8
  call void @llvm.dbg.declare(metadata %"std::thread::Builder"* %self, metadata !854, metadata !DIExpression()), !dbg !856
  %1 = getelementptr inbounds { i8*, i64* }, { i8*, i64* }* %f.dbg.spill, i32 0, i32 0
  store i8* %f.0, i8** %1, align 8
  %2 = getelementptr inbounds { i8*, i64* }, { i8*, i64* }* %f.dbg.spill, i32 0, i32 1
  store i64* %f.1, i64** %2, align 8
  call void @llvm.dbg.declare(metadata { i8*, i64* }* %f.dbg.spill, metadata !855, metadata !DIExpression()), !dbg !857
  %3 = bitcast %"std::thread::Builder"* %_3 to i8*, !dbg !858
  %4 = bitcast %"std::thread::Builder"* %self to i8*, !dbg !858
  call void @llvm.memcpy.p0i8.p0i8.i64(i8* align 8 %3, i8* align 8 %4, i64 40, i1 false), !dbg !858
; call <std::thread::Builder>::spawn_unchecked::<<crossbeam_utils::thread::ScopedThreadBuilder>::spawn<crossbeam_scope::main::{closure#0}::{closure#0}, ()>::{closure#1}, ()>
  call void @_RINvMNtCs2bNvlddUlXM_3std6threadNtB3_7Builder15spawn_uncheckedNCINvMs1_NtCs48Yq53b35jF_15crossbeam_utils6threadNtB17_19ScopedThreadBuilder5spawnNCNCNvCseZ2WzEtypfB_15crossbeam_scope4main00uEs_0uEB2o_(%"std::result::Result<std::thread::JoinHandle<()>, std::io::Error>"* noalias nocapture sret dereferenceable(40) %0, %"std::thread::Builder"* noalias nocapture dereferenceable(40) %_3, i8* noalias nonnull align 1 %f.0, i64* noalias readonly align 8 dereferenceable(24) %f.1), !dbg !858
  br label %bb1, !dbg !858

bb1:                                              ; preds = %start
  ret void, !dbg !859
}

; <core::option::Option<&alloc::sync::Arc<std::sync::mutex::Mutex<core::option::Option<std::thread::JoinHandle<()>>>>>>::map::<alloc::sync::Arc<std::sync::mutex::Mutex<core::option::Option<std::thread::JoinHandle<()>>>>, <alloc::vec::drain::Drain<alloc::sync::Arc<std::sync::mutex::Mutex<core::option::Option<std::thread::JoinHandle<()>>>>> as core::iter::traits::iterator::Iterator>::next::{closure#0}>
; Function Attrs: inlinehint nonlazybind uwtable
define internal i64* @_RINvMNtCs3p84KrD9aKt_4core6optionINtB3_6OptionRINtNtCs8RW06R9lH2S_5alloc4sync3ArcINtNtNtCs2bNvlddUlXM_3std4sync5mutex5MutexIBw_INtNtB1o_6thread10JoinHandleuEEEEE3mapBJ_NCNvXs3_NtNtBO_3vec5drainINtB2O_5DrainBJ_ENtNtNtNtB5_4iter6traits8iterator8Iterator4next0ECseZ2WzEtypfB_15crossbeam_scope(i64* noalias readonly align 8 dereferenceable_or_null(8) %0) unnamed_addr #1 personality i32 (i32, i32, i64, %"unwind::libunwind::_Unwind_Exception"*, %"unwind::libunwind::_Unwind_Context"*)* @rust_eh_personality !dbg !860 {
start:
  %1 = alloca { i8*, i32 }, align 8
  %x.dbg.spill = alloca i64**, align 8
  %f.dbg.spill = alloca %"[closure@<std::vec::Drain<std::sync::Arc<std::sync::Mutex<std::option::Option<std::thread::JoinHandle<()>>>>> as std::iter::Iterator>::next::{closure#0}]", align 1
  %_9 = alloca i8, align 1
  %_7 = alloca i64*, align 8
  %2 = alloca i64*, align 8
  %self = alloca i64*, align 8
  store i64* %0, i64** %self, align 8
  call void @llvm.dbg.declare(metadata i64** %self, metadata !892, metadata !DIExpression()), !dbg !899
  call void @llvm.dbg.declare(metadata %"[closure@<std::vec::Drain<std::sync::Arc<std::sync::Mutex<std::option::Option<std::thread::JoinHandle<()>>>>> as std::iter::Iterator>::next::{closure#0}]"* %f.dbg.spill, metadata !893, metadata !DIExpression()), !dbg !900
  store i8 0, i8* %_9, align 1, !dbg !901
  store i8 1, i8* %_9, align 1, !dbg !901
  %3 = bitcast i64** %self to {}**, !dbg !901
  %4 = load {}*, {}** %3, align 8, !dbg !901
  %5 = icmp eq {}* %4, null, !dbg !901
  %_3 = select i1 %5, i64 0, i64 1, !dbg !901
  switch i64 %_3, label %bb2 [
    i64 0, label %bb1
    i64 1, label %bb3
  ], !dbg !901

bb1:                                              ; preds = %start
  %6 = bitcast i64** %2 to {}**, !dbg !902
  store {}* null, {}** %6, align 8, !dbg !902
  br label %bb9, !dbg !903

bb2:                                              ; preds = %start
  unreachable, !dbg !904

bb3:                                              ; preds = %start
  %7 = bitcast i64** %self to i64***, !dbg !905
  %x = load i64**, i64*** %7, align 8, !dbg !905, !nonnull !4
  store i64** %x, i64*** %x.dbg.spill, align 8, !dbg !905
  call void @llvm.dbg.declare(metadata i64*** %x.dbg.spill, metadata !894, metadata !DIExpression()), !dbg !906
  store i8 0, i8* %_9, align 1, !dbg !907
  %8 = bitcast i64** %_7 to i64***, !dbg !907
  store i64** %x, i64*** %8, align 8, !dbg !907
  %9 = load i64*, i64** %_7, align 8, !dbg !907, !nonnull !4
  %10 = bitcast i64* %9 to i64**, !dbg !907
; call <alloc::vec::drain::Drain<alloc::sync::Arc<std::sync::mutex::Mutex<core::option::Option<std::thread::JoinHandle<()>>>>> as core::iter::traits::iterator::Iterator>::next::{closure#0}
  %_5 = call nonnull i64* @_RNCNvXs3_NtNtCs8RW06R9lH2S_5alloc3vec5drainINtB7_5DrainINtNtBb_4sync3ArcINtNtNtCs2bNvlddUlXM_3std4sync5mutex5MutexINtNtCs3p84KrD9aKt_4core6option6OptionINtNtB1f_6thread10JoinHandleuEEEEENtNtNtNtB1T_4iter6traits8iterator8Iterator4next0CseZ2WzEtypfB_15crossbeam_scope(i64** noalias readonly align 8 dereferenceable(8) %10), !dbg !907
  br label %bb4, !dbg !907

bb4:                                              ; preds = %bb3
  store i64* %_5, i64** %2, align 8, !dbg !908
  br label %bb9, !dbg !909

bb5:                                              ; preds = %bb8, %bb9
  %11 = load i64*, i64** %2, align 8, !dbg !910
  ret i64* %11, !dbg !910

bb6:                                              ; No predecessors!
; call core::ptr::drop_in_place::<core::option::Option<alloc::sync::Arc<std::sync::mutex::Mutex<core::option::Option<std::thread::JoinHandle<()>>>>>>
  call void @_RINvNtCs3p84KrD9aKt_4core3ptr13drop_in_placeINtNtB4_6option6OptionINtNtCs8RW06R9lH2S_5alloc4sync3ArcINtNtNtCs2bNvlddUlXM_3std4sync5mutex5MutexIBH_INtNtB1H_6thread10JoinHandleuEEEEEECseZ2WzEtypfB_15crossbeam_scope(i64** %2) #15, !dbg !909
  br label %bb7, !dbg !909

bb7:                                              ; preds = %bb6
  %12 = bitcast { i8*, i32 }* %1 to i8**, !dbg !911
  %13 = load i8*, i8** %12, align 8, !dbg !911
  %14 = getelementptr inbounds { i8*, i32 }, { i8*, i32 }* %1, i32 0, i32 1, !dbg !911
  %15 = load i32, i32* %14, align 8, !dbg !911
  %16 = insertvalue { i8*, i32 } undef, i8* %13, 0, !dbg !911
  %17 = insertvalue { i8*, i32 } %16, i32 %15, 1, !dbg !911
  resume { i8*, i32 } %17, !dbg !911

bb8:                                              ; preds = %bb9
  br label %bb5, !dbg !909

bb9:                                              ; preds = %bb1, %bb4
  %18 = load i8, i8* %_9, align 1, !dbg !909, !range !850
  %19 = trunc i8 %18 to i1, !dbg !909
  br i1 %19, label %bb8, label %bb5, !dbg !909
}

; <core::option::Option<usize>>::unwrap_or_else::<<core::ops::range::RangeFull as core::ops::range::RangeBounds<usize>>::assert_len::{closure#0}>
; Function Attrs: inlinehint nonlazybind uwtable
define internal i64 @_RINvMNtCs3p84KrD9aKt_4core6optionINtB3_6OptionjE14unwrap_or_elseNCNvYNtNtNtB5_3ops5range9RangeFullINtB17_11RangeBoundsjE10assert_len0ECseZ2WzEtypfB_15crossbeam_scope(i64 %0, i64 %1) unnamed_addr #1 personality i32 (i32, i32, i64, %"unwind::libunwind::_Unwind_Exception"*, %"unwind::libunwind::_Unwind_Context"*)* @rust_eh_personality !dbg !912 {
start:
  %2 = alloca { i8*, i32 }, align 8
  %x.dbg.spill = alloca i64, align 8
  %f.dbg.spill = alloca %"[closure@<std::ops::RangeFull as std::ops::RangeBounds<usize>>::assert_len::{closure#0}]", align 1
  %_7 = alloca i8, align 1
  %_6 = alloca {}, align 1
  %3 = alloca i64, align 8
  %self = alloca { i64, i64 }, align 8
  %4 = getelementptr inbounds { i64, i64 }, { i64, i64 }* %self, i32 0, i32 0
  store i64 %0, i64* %4, align 8
  %5 = getelementptr inbounds { i64, i64 }, { i64, i64 }* %self, i32 0, i32 1
  store i64 %1, i64* %5, align 8
  call void @llvm.dbg.declare(metadata { i64, i64 }* %self, metadata !920, metadata !DIExpression()), !dbg !926
  call void @llvm.dbg.declare(metadata %"[closure@<std::ops::RangeFull as std::ops::RangeBounds<usize>>::assert_len::{closure#0}]"* %f.dbg.spill, metadata !921, metadata !DIExpression()), !dbg !927
  store i8 0, i8* %_7, align 1, !dbg !928
  store i8 1, i8* %_7, align 1, !dbg !928
  %6 = bitcast { i64, i64 }* %self to i64*, !dbg !928
  %_3 = load i64, i64* %6, align 8, !dbg !928, !range !793
  switch i64 %_3, label %bb2 [
    i64 0, label %bb1
    i64 1, label %bb3
  ], !dbg !928

bb1:                                              ; preds = %start
  store i8 0, i8* %_7, align 1, !dbg !929
; call <core::ops::range::RangeFull as core::ops::range::RangeBounds<usize>>::assert_len::{closure#0}
  %7 = call i64 @_RNCNvYNtNtNtCs3p84KrD9aKt_4core3ops5range9RangeFullINtB6_11RangeBoundsjE10assert_len0CseZ2WzEtypfB_15crossbeam_scope(), !dbg !929
  store i64 %7, i64* %3, align 8, !dbg !929
  br label %bb4, !dbg !929

bb2:                                              ; preds = %start
  unreachable, !dbg !930

bb3:                                              ; preds = %start
  %8 = bitcast { i64, i64 }* %self to %"std::option::Option<usize>::Some"*, !dbg !931
  %9 = getelementptr inbounds %"std::option::Option<usize>::Some", %"std::option::Option<usize>::Some"* %8, i32 0, i32 1, !dbg !931
  %x = load i64, i64* %9, align 8, !dbg !931
  store i64 %x, i64* %x.dbg.spill, align 8, !dbg !931
  call void @llvm.dbg.declare(metadata i64* %x.dbg.spill, metadata !922, metadata !DIExpression()), !dbg !932
  store i64 %x, i64* %3, align 8, !dbg !933
  br label %bb9, !dbg !934

bb4:                                              ; preds = %bb1
  br label %bb9, !dbg !934

bb5:                                              ; preds = %bb8, %bb9
  %10 = load i64, i64* %3, align 8, !dbg !935
  ret i64 %10, !dbg !935

bb6:                                              ; No predecessors!
  br label %bb7, !dbg !936

bb7:                                              ; preds = %bb6
  %11 = bitcast { i8*, i32 }* %2 to i8**, !dbg !937
  %12 = load i8*, i8** %11, align 8, !dbg !937
  %13 = getelementptr inbounds { i8*, i32 }, { i8*, i32 }* %2, i32 0, i32 1, !dbg !937
  %14 = load i32, i32* %13, align 8, !dbg !937
  %15 = insertvalue { i8*, i32 } undef, i8* %12, 0, !dbg !937
  %16 = insertvalue { i8*, i32 } %15, i32 %14, 1, !dbg !937
  resume { i8*, i32 } %16, !dbg !937

bb8:                                              ; preds = %bb9
  br label %bb5, !dbg !936

bb9:                                              ; preds = %bb4, %bb3
  %17 = load i8, i8* %_7, align 1, !dbg !936, !range !850
  %18 = trunc i8 %17 to i1, !dbg !936
  br i1 %18, label %bb8, label %bb5, !dbg !936
}

; <core::option::Option<usize>>::unwrap_or_else::<<core::ops::range::RangeFull as core::ops::range::RangeBounds<usize>>::assert_len::{closure#1}>
; Function Attrs: inlinehint nonlazybind uwtable
define internal i64 @_RINvMNtCs3p84KrD9aKt_4core6optionINtB3_6OptionjE14unwrap_or_elseNCNvYNtNtNtB5_3ops5range9RangeFullINtB17_11RangeBoundsjE10assert_lens_0ECseZ2WzEtypfB_15crossbeam_scope(i64 %0, i64 %1) unnamed_addr #1 personality i32 (i32, i32, i64, %"unwind::libunwind::_Unwind_Exception"*, %"unwind::libunwind::_Unwind_Context"*)* @rust_eh_personality !dbg !938 {
start:
  %2 = alloca { i8*, i32 }, align 8
  %x.dbg.spill = alloca i64, align 8
  %f.dbg.spill = alloca %"[closure@<std::ops::RangeFull as std::ops::RangeBounds<usize>>::assert_len::{closure#1}]", align 1
  %_7 = alloca i8, align 1
  %_6 = alloca {}, align 1
  %3 = alloca i64, align 8
  %self = alloca { i64, i64 }, align 8
  %4 = getelementptr inbounds { i64, i64 }, { i64, i64 }* %self, i32 0, i32 0
  store i64 %0, i64* %4, align 8
  %5 = getelementptr inbounds { i64, i64 }, { i64, i64 }* %self, i32 0, i32 1
  store i64 %1, i64* %5, align 8
  call void @llvm.dbg.declare(metadata { i64, i64 }* %self, metadata !943, metadata !DIExpression()), !dbg !949
  call void @llvm.dbg.declare(metadata %"[closure@<std::ops::RangeFull as std::ops::RangeBounds<usize>>::assert_len::{closure#1}]"* %f.dbg.spill, metadata !944, metadata !DIExpression()), !dbg !950
  store i8 0, i8* %_7, align 1, !dbg !951
  store i8 1, i8* %_7, align 1, !dbg !951
  %6 = bitcast { i64, i64 }* %self to i64*, !dbg !951
  %_3 = load i64, i64* %6, align 8, !dbg !951, !range !793
  switch i64 %_3, label %bb2 [
    i64 0, label %bb1
    i64 1, label %bb3
  ], !dbg !951

bb1:                                              ; preds = %start
  store i8 0, i8* %_7, align 1, !dbg !952
; call <core::ops::range::RangeFull as core::ops::range::RangeBounds<usize>>::assert_len::{closure#1}
  %7 = call i64 @_RNCNvYNtNtNtCs3p84KrD9aKt_4core3ops5range9RangeFullINtB6_11RangeBoundsjE10assert_lens_0CseZ2WzEtypfB_15crossbeam_scope(), !dbg !952
  store i64 %7, i64* %3, align 8, !dbg !952
  br label %bb4, !dbg !952

bb2:                                              ; preds = %start
  unreachable, !dbg !953

bb3:                                              ; preds = %start
  %8 = bitcast { i64, i64 }* %self to %"std::option::Option<usize>::Some"*, !dbg !954
  %9 = getelementptr inbounds %"std::option::Option<usize>::Some", %"std::option::Option<usize>::Some"* %8, i32 0, i32 1, !dbg !954
  %x = load i64, i64* %9, align 8, !dbg !954
  store i64 %x, i64* %x.dbg.spill, align 8, !dbg !954
  call void @llvm.dbg.declare(metadata i64* %x.dbg.spill, metadata !945, metadata !DIExpression()), !dbg !955
  store i64 %x, i64* %3, align 8, !dbg !956
  br label %bb9, !dbg !957

bb4:                                              ; preds = %bb1
  br label %bb9, !dbg !957

bb5:                                              ; preds = %bb8, %bb9
  %10 = load i64, i64* %3, align 8, !dbg !958
  ret i64 %10, !dbg !958

bb6:                                              ; No predecessors!
  br label %bb7, !dbg !959

bb7:                                              ; preds = %bb6
  %11 = bitcast { i8*, i32 }* %2 to i8**, !dbg !960
  %12 = load i8*, i8** %11, align 8, !dbg !960
  %13 = getelementptr inbounds { i8*, i32 }, { i8*, i32 }* %2, i32 0, i32 1, !dbg !960
  %14 = load i32, i32* %13, align 8, !dbg !960
  %15 = insertvalue { i8*, i32 } undef, i8* %12, 0, !dbg !960
  %16 = insertvalue { i8*, i32 } %15, i32 %14, 1, !dbg !960
  resume { i8*, i32 } %16, !dbg !960

bb8:                                              ; preds = %bb9
  br label %bb5, !dbg !959

bb9:                                              ; preds = %bb4, %bb3
  %17 = load i8, i8* %_7, align 1, !dbg !959, !range !850
  %18 = trunc i8 %17 to i1, !dbg !959
  br i1 %18, label %bb8, label %bb5, !dbg !959
}

; <core::option::Option<usize>>::unwrap_or_else::<std::sys_common::thread::min_stack>
; Function Attrs: inlinehint nonlazybind uwtable
define internal i64 @_RINvMNtCs3p84KrD9aKt_4core6optionINtB3_6OptionjE14unwrap_or_elseNvNtNtCs2bNvlddUlXM_3std10sys_common6thread9min_stackECseZ2WzEtypfB_15crossbeam_scope(i64 %0, i64 %1) unnamed_addr #1 personality i32 (i32, i32, i64, %"unwind::libunwind::_Unwind_Exception"*, %"unwind::libunwind::_Unwind_Context"*)* @rust_eh_personality !dbg !961 {
start:
  %2 = alloca { i8*, i32 }, align 8
  %x.dbg.spill = alloca i64, align 8
  %f.dbg.spill = alloca {}, align 1
  %_7 = alloca i8, align 1
  %_6 = alloca {}, align 1
  %3 = alloca i64, align 8
  %self = alloca { i64, i64 }, align 8
  %4 = getelementptr inbounds { i64, i64 }, { i64, i64 }* %self, i32 0, i32 0
  store i64 %0, i64* %4, align 8
  %5 = getelementptr inbounds { i64, i64 }, { i64, i64 }* %self, i32 0, i32 1
  store i64 %1, i64* %5, align 8
  call void @llvm.dbg.declare(metadata { i64, i64 }* %self, metadata !968, metadata !DIExpression()), !dbg !974
  call void @llvm.dbg.declare(metadata {}* %f.dbg.spill, metadata !969, metadata !DIExpression()), !dbg !975
  store i8 0, i8* %_7, align 1, !dbg !976
  store i8 1, i8* %_7, align 1, !dbg !976
  %6 = bitcast { i64, i64 }* %self to i64*, !dbg !976
  %_3 = load i64, i64* %6, align 8, !dbg !976, !range !793
  switch i64 %_3, label %bb2 [
    i64 0, label %bb1
    i64 1, label %bb3
  ], !dbg !976

bb1:                                              ; preds = %start
  store i8 0, i8* %_7, align 1, !dbg !977
; call <std::sys_common::thread::min_stack as core::ops::function::FnOnce<()>>::call_once
  %7 = call i64 @_RNvYNvNtNtCs2bNvlddUlXM_3std10sys_common6thread9min_stackINtNtNtCs3p84KrD9aKt_4core3ops8function6FnOnceuE9call_onceCseZ2WzEtypfB_15crossbeam_scope(), !dbg !977
  store i64 %7, i64* %3, align 8, !dbg !977
  br label %bb4, !dbg !977

bb2:                                              ; preds = %start
  unreachable, !dbg !978

bb3:                                              ; preds = %start
  %8 = bitcast { i64, i64 }* %self to %"std::option::Option<usize>::Some"*, !dbg !979
  %9 = getelementptr inbounds %"std::option::Option<usize>::Some", %"std::option::Option<usize>::Some"* %8, i32 0, i32 1, !dbg !979
  %x = load i64, i64* %9, align 8, !dbg !979
  store i64 %x, i64* %x.dbg.spill, align 8, !dbg !979
  call void @llvm.dbg.declare(metadata i64* %x.dbg.spill, metadata !970, metadata !DIExpression()), !dbg !980
  store i64 %x, i64* %3, align 8, !dbg !981
  br label %bb9, !dbg !982

bb4:                                              ; preds = %bb1
  br label %bb9, !dbg !982

bb5:                                              ; preds = %bb8, %bb9
  %10 = load i64, i64* %3, align 8, !dbg !983
  ret i64 %10, !dbg !983

bb6:                                              ; No predecessors!
  br label %bb7, !dbg !984

bb7:                                              ; preds = %bb6
  %11 = bitcast { i8*, i32 }* %2 to i8**, !dbg !985
  %12 = load i8*, i8** %11, align 8, !dbg !985
  %13 = getelementptr inbounds { i8*, i32 }, { i8*, i32 }* %2, i32 0, i32 1, !dbg !985
  %14 = load i32, i32* %13, align 8, !dbg !985
  %15 = insertvalue { i8*, i32 } undef, i8* %12, 0, !dbg !985
  %16 = insertvalue { i8*, i32 } %15, i32 %14, 1, !dbg !985
  resume { i8*, i32 } %16, !dbg !985

bb8:                                              ; preds = %bb9
  br label %bb5, !dbg !984

bb9:                                              ; preds = %bb4, %bb3
  %17 = load i8, i8* %_7, align 1, !dbg !984, !range !850
  %18 = trunc i8 %17 to i1, !dbg !984
  br i1 %18, label %bb8, label %bb5, !dbg !984
}

; <core::alloc::layout::Layout>::for_value_raw::<alloc::sync::ArcInner<core::cell::UnsafeCell<core::option::Option<core::result::Result<(), alloc::boxed::Box<dyn core::any::Any + core::marker::Send>>>>>>
; Function Attrs: nonlazybind uwtable
define internal { i64, i64 } @_RINvMNtNtCs3p84KrD9aKt_4core5alloc6layoutNtB3_6Layout13for_value_rawINtNtCs8RW06R9lH2S_5alloc4sync8ArcInnerINtNtB7_4cell10UnsafeCellINtNtB7_6option6OptionINtNtB7_6result6ResultuINtNtB19_5boxed3BoxDNtNtB7_3any3AnyNtNtB7_6marker4SendEL_EEEEEECseZ2WzEtypfB_15crossbeam_scope(%"alloc::sync::ArcInner<std::cell::UnsafeCell<std::option::Option<std::result::Result<(), std::boxed::Box<dyn std::any::Any + std::marker::Send>>>>>"* %t) unnamed_addr #0 !dbg !986 {
start:
  %align.dbg.spill = alloca i64, align 8
  %size.dbg.spill = alloca i64, align 8
  %t.dbg.spill = alloca %"alloc::sync::ArcInner<std::cell::UnsafeCell<std::option::Option<std::result::Result<(), std::boxed::Box<dyn std::any::Any + std::marker::Send>>>>>"*, align 8
  %_4 = alloca { i64, i64 }, align 8
  store %"alloc::sync::ArcInner<std::cell::UnsafeCell<std::option::Option<std::result::Result<(), std::boxed::Box<dyn std::any::Any + std::marker::Send>>>>>"* %t, %"alloc::sync::ArcInner<std::cell::UnsafeCell<std::option::Option<std::result::Result<(), std::boxed::Box<dyn std::any::Any + std::marker::Send>>>>>"** %t.dbg.spill, align 8
  call void @llvm.dbg.declare(metadata %"alloc::sync::ArcInner<std::cell::UnsafeCell<std::option::Option<std::result::Result<(), std::boxed::Box<dyn std::any::Any + std::marker::Send>>>>>"** %t.dbg.spill, metadata !1000, metadata !DIExpression()), !dbg !1004
; call core::mem::size_of_val_raw::<alloc::sync::ArcInner<core::cell::UnsafeCell<core::option::Option<core::result::Result<(), alloc::boxed::Box<dyn core::any::Any + core::marker::Send>>>>>>
  %_5 = call i64 @_RINvNtCs3p84KrD9aKt_4core3mem15size_of_val_rawINtNtCs8RW06R9lH2S_5alloc4sync8ArcInnerINtNtB4_4cell10UnsafeCellINtNtB4_6option6OptionINtNtB4_6result6ResultuINtNtBN_5boxed3BoxDNtNtB4_3any3AnyNtNtB4_6marker4SendEL_EEEEEECseZ2WzEtypfB_15crossbeam_scope(%"alloc::sync::ArcInner<std::cell::UnsafeCell<std::option::Option<std::result::Result<(), std::boxed::Box<dyn std::any::Any + std::marker::Send>>>>>"* %t), !dbg !1005
  br label %bb1, !dbg !1005

bb1:                                              ; preds = %start
; call core::mem::align_of_val_raw::<alloc::sync::ArcInner<core::cell::UnsafeCell<core::option::Option<core::result::Result<(), alloc::boxed::Box<dyn core::any::Any + core::marker::Send>>>>>>
  %_7 = call i64 @_RINvNtCs3p84KrD9aKt_4core3mem16align_of_val_rawINtNtCs8RW06R9lH2S_5alloc4sync8ArcInnerINtNtB4_4cell10UnsafeCellINtNtB4_6option6OptionINtNtB4_6result6ResultuINtNtBO_5boxed3BoxDNtNtB4_3any3AnyNtNtB4_6marker4SendEL_EEEEEECseZ2WzEtypfB_15crossbeam_scope(%"alloc::sync::ArcInner<std::cell::UnsafeCell<std::option::Option<std::result::Result<(), std::boxed::Box<dyn std::any::Any + std::marker::Send>>>>>"* %t), !dbg !1006
  br label %bb2, !dbg !1006

bb2:                                              ; preds = %bb1
  %0 = bitcast { i64, i64 }* %_4 to i64*, !dbg !1007
  store i64 %_5, i64* %0, align 8, !dbg !1007
  %1 = getelementptr inbounds { i64, i64 }, { i64, i64 }* %_4, i32 0, i32 1, !dbg !1007
  store i64 %_7, i64* %1, align 8, !dbg !1007
  %2 = bitcast { i64, i64 }* %_4 to i64*, !dbg !1008
  %size = load i64, i64* %2, align 8, !dbg !1008
  store i64 %size, i64* %size.dbg.spill, align 8, !dbg !1008
  call void @llvm.dbg.declare(metadata i64* %size.dbg.spill, metadata !1001, metadata !DIExpression()), !dbg !1009
  %3 = getelementptr inbounds { i64, i64 }, { i64, i64 }* %_4, i32 0, i32 1, !dbg !1010
  %align = load i64, i64* %3, align 8, !dbg !1010
  store i64 %align, i64* %align.dbg.spill, align 8, !dbg !1010
  call void @llvm.dbg.declare(metadata i64* %align.dbg.spill, metadata !1003, metadata !DIExpression()), !dbg !1011
; call <core::alloc::layout::Layout>::from_size_align_unchecked
  %4 = call { i64, i64 } @_RNvMNtNtCs3p84KrD9aKt_4core5alloc6layoutNtB2_6Layout25from_size_align_uncheckedCseZ2WzEtypfB_15crossbeam_scope(i64 %size, i64 %align), !dbg !1012
  %5 = extractvalue { i64, i64 } %4, 0, !dbg !1012
  %6 = extractvalue { i64, i64 } %4, 1, !dbg !1012
  br label %bb3, !dbg !1012

bb3:                                              ; preds = %bb2
  %7 = insertvalue { i64, i64 } undef, i64 %5, 0, !dbg !1013
  %8 = insertvalue { i64, i64 } %7, i64 %6, 1, !dbg !1013
  ret { i64, i64 } %8, !dbg !1013
}

; <core::alloc::layout::Layout>::for_value_raw::<alloc::sync::ArcInner<std::sync::mutex::Mutex<alloc::vec::Vec<alloc::sync::Arc<std::sync::mutex::Mutex<core::option::Option<std::thread::JoinHandle<()>>>>>>>>
; Function Attrs: nonlazybind uwtable
define internal { i64, i64 } @_RINvMNtNtCs3p84KrD9aKt_4core5alloc6layoutNtB3_6Layout13for_value_rawINtNtCs8RW06R9lH2S_5alloc4sync8ArcInnerINtNtNtCs2bNvlddUlXM_3std4sync5mutex5MutexINtNtB19_3vec3VecINtB17_3ArcIB1I_INtNtB7_6option6OptionINtNtB1O_6thread10JoinHandleuEEEEEEEECseZ2WzEtypfB_15crossbeam_scope(%"alloc::sync::ArcInner<std::sync::Mutex<std::vec::Vec<std::sync::Arc<std::sync::Mutex<std::option::Option<std::thread::JoinHandle<()>>>>>>>"* %t) unnamed_addr #0 !dbg !1014 {
start:
  %align.dbg.spill = alloca i64, align 8
  %size.dbg.spill = alloca i64, align 8
  %t.dbg.spill = alloca %"alloc::sync::ArcInner<std::sync::Mutex<std::vec::Vec<std::sync::Arc<std::sync::Mutex<std::option::Option<std::thread::JoinHandle<()>>>>>>>"*, align 8
  %_4 = alloca { i64, i64 }, align 8
  store %"alloc::sync::ArcInner<std::sync::Mutex<std::vec::Vec<std::sync::Arc<std::sync::Mutex<std::option::Option<std::thread::JoinHandle<()>>>>>>>"* %t, %"alloc::sync::ArcInner<std::sync::Mutex<std::vec::Vec<std::sync::Arc<std::sync::Mutex<std::option::Option<std::thread::JoinHandle<()>>>>>>>"** %t.dbg.spill, align 8
  call void @llvm.dbg.declare(metadata %"alloc::sync::ArcInner<std::sync::Mutex<std::vec::Vec<std::sync::Arc<std::sync::Mutex<std::option::Option<std::thread::JoinHandle<()>>>>>>>"** %t.dbg.spill, metadata !1018, metadata !DIExpression()), !dbg !1022
; call core::mem::size_of_val_raw::<alloc::sync::ArcInner<std::sync::mutex::Mutex<alloc::vec::Vec<alloc::sync::Arc<std::sync::mutex::Mutex<core::option::Option<std::thread::JoinHandle<()>>>>>>>>
  %_5 = call i64 @_RINvNtCs3p84KrD9aKt_4core3mem15size_of_val_rawINtNtCs8RW06R9lH2S_5alloc4sync8ArcInnerINtNtNtCs2bNvlddUlXM_3std4sync5mutex5MutexINtNtBN_3vec3VecINtBL_3ArcIB1m_INtNtB4_6option6OptionINtNtB1s_6thread10JoinHandleuEEEEEEEECseZ2WzEtypfB_15crossbeam_scope(%"alloc::sync::ArcInner<std::sync::Mutex<std::vec::Vec<std::sync::Arc<std::sync::Mutex<std::option::Option<std::thread::JoinHandle<()>>>>>>>"* %t), !dbg !1023
  br label %bb1, !dbg !1023

bb1:                                              ; preds = %start
; call core::mem::align_of_val_raw::<alloc::sync::ArcInner<std::sync::mutex::Mutex<alloc::vec::Vec<alloc::sync::Arc<std::sync::mutex::Mutex<core::option::Option<std::thread::JoinHandle<()>>>>>>>>
  %_7 = call i64 @_RINvNtCs3p84KrD9aKt_4core3mem16align_of_val_rawINtNtCs8RW06R9lH2S_5alloc4sync8ArcInnerINtNtNtCs2bNvlddUlXM_3std4sync5mutex5MutexINtNtBO_3vec3VecINtBM_3ArcIB1n_INtNtB4_6option6OptionINtNtB1t_6thread10JoinHandleuEEEEEEEECseZ2WzEtypfB_15crossbeam_scope(%"alloc::sync::ArcInner<std::sync::Mutex<std::vec::Vec<std::sync::Arc<std::sync::Mutex<std::option::Option<std::thread::JoinHandle<()>>>>>>>"* %t), !dbg !1024
  br label %bb2, !dbg !1024

bb2:                                              ; preds = %bb1
  %0 = bitcast { i64, i64 }* %_4 to i64*, !dbg !1025
  store i64 %_5, i64* %0, align 8, !dbg !1025
  %1 = getelementptr inbounds { i64, i64 }, { i64, i64 }* %_4, i32 0, i32 1, !dbg !1025
  store i64 %_7, i64* %1, align 8, !dbg !1025
  %2 = bitcast { i64, i64 }* %_4 to i64*, !dbg !1026
  %size = load i64, i64* %2, align 8, !dbg !1026
  store i64 %size, i64* %size.dbg.spill, align 8, !dbg !1026
  call void @llvm.dbg.declare(metadata i64* %size.dbg.spill, metadata !1019, metadata !DIExpression()), !dbg !1027
  %3 = getelementptr inbounds { i64, i64 }, { i64, i64 }* %_4, i32 0, i32 1, !dbg !1028
  %align = load i64, i64* %3, align 8, !dbg !1028
  store i64 %align, i64* %align.dbg.spill, align 8, !dbg !1028
  call void @llvm.dbg.declare(metadata i64* %align.dbg.spill, metadata !1021, metadata !DIExpression()), !dbg !1029
; call <core::alloc::layout::Layout>::from_size_align_unchecked
  %4 = call { i64, i64 } @_RNvMNtNtCs3p84KrD9aKt_4core5alloc6layoutNtB2_6Layout25from_size_align_uncheckedCseZ2WzEtypfB_15crossbeam_scope(i64 %size, i64 %align), !dbg !1030
  %5 = extractvalue { i64, i64 } %4, 0, !dbg !1030
  %6 = extractvalue { i64, i64 } %4, 1, !dbg !1030
  br label %bb3, !dbg !1030

bb3:                                              ; preds = %bb2
  %7 = insertvalue { i64, i64 } undef, i64 %5, 0, !dbg !1031
  %8 = insertvalue { i64, i64 } %7, i64 %6, 1, !dbg !1031
  ret { i64, i64 } %8, !dbg !1031
}

; <core::alloc::layout::Layout>::for_value_raw::<alloc::sync::ArcInner<std::sync::mutex::Mutex<alloc::vec::Vec<u8>>>>
; Function Attrs: nonlazybind uwtable
define internal { i64, i64 } @_RINvMNtNtCs3p84KrD9aKt_4core5alloc6layoutNtB3_6Layout13for_value_rawINtNtCs8RW06R9lH2S_5alloc4sync8ArcInnerINtNtNtCs2bNvlddUlXM_3std4sync5mutex5MutexINtNtB19_3vec3VechEEEECseZ2WzEtypfB_15crossbeam_scope(%"alloc::sync::ArcInner<std::sync::Mutex<std::vec::Vec<u8>>>"* %t) unnamed_addr #0 !dbg !1032 {
start:
  %align.dbg.spill = alloca i64, align 8
  %size.dbg.spill = alloca i64, align 8
  %t.dbg.spill = alloca %"alloc::sync::ArcInner<std::sync::Mutex<std::vec::Vec<u8>>>"*, align 8
  %_4 = alloca { i64, i64 }, align 8
  store %"alloc::sync::ArcInner<std::sync::Mutex<std::vec::Vec<u8>>>"* %t, %"alloc::sync::ArcInner<std::sync::Mutex<std::vec::Vec<u8>>>"** %t.dbg.spill, align 8
  call void @llvm.dbg.declare(metadata %"alloc::sync::ArcInner<std::sync::Mutex<std::vec::Vec<u8>>>"** %t.dbg.spill, metadata !1036, metadata !DIExpression()), !dbg !1040
; call core::mem::size_of_val_raw::<alloc::sync::ArcInner<std::sync::mutex::Mutex<alloc::vec::Vec<u8>>>>
  %_5 = call i64 @_RINvNtCs3p84KrD9aKt_4core3mem15size_of_val_rawINtNtCs8RW06R9lH2S_5alloc4sync8ArcInnerINtNtNtCs2bNvlddUlXM_3std4sync5mutex5MutexINtNtBN_3vec3VechEEEECseZ2WzEtypfB_15crossbeam_scope(%"alloc::sync::ArcInner<std::sync::Mutex<std::vec::Vec<u8>>>"* %t), !dbg !1041
  br label %bb1, !dbg !1041

bb1:                                              ; preds = %start
; call core::mem::align_of_val_raw::<alloc::sync::ArcInner<std::sync::mutex::Mutex<alloc::vec::Vec<u8>>>>
  %_7 = call i64 @_RINvNtCs3p84KrD9aKt_4core3mem16align_of_val_rawINtNtCs8RW06R9lH2S_5alloc4sync8ArcInnerINtNtNtCs2bNvlddUlXM_3std4sync5mutex5MutexINtNtBO_3vec3VechEEEECseZ2WzEtypfB_15crossbeam_scope(%"alloc::sync::ArcInner<std::sync::Mutex<std::vec::Vec<u8>>>"* %t), !dbg !1042
  br label %bb2, !dbg !1042

bb2:                                              ; preds = %bb1
  %0 = bitcast { i64, i64 }* %_4 to i64*, !dbg !1043
  store i64 %_5, i64* %0, align 8, !dbg !1043
  %1 = getelementptr inbounds { i64, i64 }, { i64, i64 }* %_4, i32 0, i32 1, !dbg !1043
  store i64 %_7, i64* %1, align 8, !dbg !1043
  %2 = bitcast { i64, i64 }* %_4 to i64*, !dbg !1044
  %size = load i64, i64* %2, align 8, !dbg !1044
  store i64 %size, i64* %size.dbg.spill, align 8, !dbg !1044
  call void @llvm.dbg.declare(metadata i64* %size.dbg.spill, metadata !1037, metadata !DIExpression()), !dbg !1045
  %3 = getelementptr inbounds { i64, i64 }, { i64, i64 }* %_4, i32 0, i32 1, !dbg !1046
  %align = load i64, i64* %3, align 8, !dbg !1046
  store i64 %align, i64* %align.dbg.spill, align 8, !dbg !1046
  call void @llvm.dbg.declare(metadata i64* %align.dbg.spill, metadata !1039, metadata !DIExpression()), !dbg !1047
; call <core::alloc::layout::Layout>::from_size_align_unchecked
  %4 = call { i64, i64 } @_RNvMNtNtCs3p84KrD9aKt_4core5alloc6layoutNtB2_6Layout25from_size_align_uncheckedCseZ2WzEtypfB_15crossbeam_scope(i64 %size, i64 %align), !dbg !1048
  %5 = extractvalue { i64, i64 } %4, 0, !dbg !1048
  %6 = extractvalue { i64, i64 } %4, 1, !dbg !1048
  br label %bb3, !dbg !1048

bb3:                                              ; preds = %bb2
  %7 = insertvalue { i64, i64 } undef, i64 %5, 0, !dbg !1049
  %8 = insertvalue { i64, i64 } %7, i64 %6, 1, !dbg !1049
  ret { i64, i64 } %8, !dbg !1049
}

; <core::alloc::layout::Layout>::for_value_raw::<alloc::sync::ArcInner<std::sync::mutex::Mutex<core::option::Option<std::thread::JoinHandle<()>>>>>
; Function Attrs: nonlazybind uwtable
define internal { i64, i64 } @_RINvMNtNtCs3p84KrD9aKt_4core5alloc6layoutNtB3_6Layout13for_value_rawINtNtCs8RW06R9lH2S_5alloc4sync8ArcInnerINtNtNtCs2bNvlddUlXM_3std4sync5mutex5MutexINtNtB7_6option6OptionINtNtB1O_6thread10JoinHandleuEEEEECseZ2WzEtypfB_15crossbeam_scope(%"alloc::sync::ArcInner<std::sync::Mutex<std::option::Option<std::thread::JoinHandle<()>>>>"* %t) unnamed_addr #0 !dbg !1050 {
start:
  %align.dbg.spill = alloca i64, align 8
  %size.dbg.spill = alloca i64, align 8
  %t.dbg.spill = alloca %"alloc::sync::ArcInner<std::sync::Mutex<std::option::Option<std::thread::JoinHandle<()>>>>"*, align 8
  %_4 = alloca { i64, i64 }, align 8
  store %"alloc::sync::ArcInner<std::sync::Mutex<std::option::Option<std::thread::JoinHandle<()>>>>"* %t, %"alloc::sync::ArcInner<std::sync::Mutex<std::option::Option<std::thread::JoinHandle<()>>>>"** %t.dbg.spill, align 8
  call void @llvm.dbg.declare(metadata %"alloc::sync::ArcInner<std::sync::Mutex<std::option::Option<std::thread::JoinHandle<()>>>>"** %t.dbg.spill, metadata !1054, metadata !DIExpression()), !dbg !1058
; call core::mem::size_of_val_raw::<alloc::sync::ArcInner<std::sync::mutex::Mutex<core::option::Option<std::thread::JoinHandle<()>>>>>
  %_5 = call i64 @_RINvNtCs3p84KrD9aKt_4core3mem15size_of_val_rawINtNtCs8RW06R9lH2S_5alloc4sync8ArcInnerINtNtNtCs2bNvlddUlXM_3std4sync5mutex5MutexINtNtB4_6option6OptionINtNtB1s_6thread10JoinHandleuEEEEECseZ2WzEtypfB_15crossbeam_scope(%"alloc::sync::ArcInner<std::sync::Mutex<std::option::Option<std::thread::JoinHandle<()>>>>"* %t), !dbg !1059
  br label %bb1, !dbg !1059

bb1:                                              ; preds = %start
; call core::mem::align_of_val_raw::<alloc::sync::ArcInner<std::sync::mutex::Mutex<core::option::Option<std::thread::JoinHandle<()>>>>>
  %_7 = call i64 @_RINvNtCs3p84KrD9aKt_4core3mem16align_of_val_rawINtNtCs8RW06R9lH2S_5alloc4sync8ArcInnerINtNtNtCs2bNvlddUlXM_3std4sync5mutex5MutexINtNtB4_6option6OptionINtNtB1t_6thread10JoinHandleuEEEEECseZ2WzEtypfB_15crossbeam_scope(%"alloc::sync::ArcInner<std::sync::Mutex<std::option::Option<std::thread::JoinHandle<()>>>>"* %t), !dbg !1060
  br label %bb2, !dbg !1060

bb2:                                              ; preds = %bb1
  %0 = bitcast { i64, i64 }* %_4 to i64*, !dbg !1061
  store i64 %_5, i64* %0, align 8, !dbg !1061
  %1 = getelementptr inbounds { i64, i64 }, { i64, i64 }* %_4, i32 0, i32 1, !dbg !1061
  store i64 %_7, i64* %1, align 8, !dbg !1061
  %2 = bitcast { i64, i64 }* %_4 to i64*, !dbg !1062
  %size = load i64, i64* %2, align 8, !dbg !1062
  store i64 %size, i64* %size.dbg.spill, align 8, !dbg !1062
  call void @llvm.dbg.declare(metadata i64* %size.dbg.spill, metadata !1055, metadata !DIExpression()), !dbg !1063
  %3 = getelementptr inbounds { i64, i64 }, { i64, i64 }* %_4, i32 0, i32 1, !dbg !1064
  %align = load i64, i64* %3, align 8, !dbg !1064
  store i64 %align, i64* %align.dbg.spill, align 8, !dbg !1064
  call void @llvm.dbg.declare(metadata i64* %align.dbg.spill, metadata !1057, metadata !DIExpression()), !dbg !1065
; call <core::alloc::layout::Layout>::from_size_align_unchecked
  %4 = call { i64, i64 } @_RNvMNtNtCs3p84KrD9aKt_4core5alloc6layoutNtB2_6Layout25from_size_align_uncheckedCseZ2WzEtypfB_15crossbeam_scope(i64 %size, i64 %align), !dbg !1066
  %5 = extractvalue { i64, i64 } %4, 0, !dbg !1066
  %6 = extractvalue { i64, i64 } %4, 1, !dbg !1066
  br label %bb3, !dbg !1066

bb3:                                              ; preds = %bb2
  %7 = insertvalue { i64, i64 } undef, i64 %5, 0, !dbg !1067
  %8 = insertvalue { i64, i64 } %7, i64 %6, 1, !dbg !1067
  ret { i64, i64 } %8, !dbg !1067
}

; <core::alloc::layout::Layout>::for_value_raw::<alloc::sync::ArcInner<std::sync::mutex::Mutex<core::option::Option<()>>>>
; Function Attrs: nonlazybind uwtable
define internal { i64, i64 } @_RINvMNtNtCs3p84KrD9aKt_4core5alloc6layoutNtB3_6Layout13for_value_rawINtNtCs8RW06R9lH2S_5alloc4sync8ArcInnerINtNtNtCs2bNvlddUlXM_3std4sync5mutex5MutexINtNtB7_6option6OptionuEEEECseZ2WzEtypfB_15crossbeam_scope(%"alloc::sync::ArcInner<std::sync::Mutex<std::option::Option<()>>>"* %t) unnamed_addr #0 !dbg !1068 {
start:
  %align.dbg.spill = alloca i64, align 8
  %size.dbg.spill = alloca i64, align 8
  %t.dbg.spill = alloca %"alloc::sync::ArcInner<std::sync::Mutex<std::option::Option<()>>>"*, align 8
  %_4 = alloca { i64, i64 }, align 8
  store %"alloc::sync::ArcInner<std::sync::Mutex<std::option::Option<()>>>"* %t, %"alloc::sync::ArcInner<std::sync::Mutex<std::option::Option<()>>>"** %t.dbg.spill, align 8
  call void @llvm.dbg.declare(metadata %"alloc::sync::ArcInner<std::sync::Mutex<std::option::Option<()>>>"** %t.dbg.spill, metadata !1072, metadata !DIExpression()), !dbg !1076
; call core::mem::size_of_val_raw::<alloc::sync::ArcInner<std::sync::mutex::Mutex<core::option::Option<()>>>>
  %_5 = call i64 @_RINvNtCs3p84KrD9aKt_4core3mem15size_of_val_rawINtNtCs8RW06R9lH2S_5alloc4sync8ArcInnerINtNtNtCs2bNvlddUlXM_3std4sync5mutex5MutexINtNtB4_6option6OptionuEEEECseZ2WzEtypfB_15crossbeam_scope(%"alloc::sync::ArcInner<std::sync::Mutex<std::option::Option<()>>>"* %t), !dbg !1077
  br label %bb1, !dbg !1077

bb1:                                              ; preds = %start
; call core::mem::align_of_val_raw::<alloc::sync::ArcInner<std::sync::mutex::Mutex<core::option::Option<()>>>>
  %_7 = call i64 @_RINvNtCs3p84KrD9aKt_4core3mem16align_of_val_rawINtNtCs8RW06R9lH2S_5alloc4sync8ArcInnerINtNtNtCs2bNvlddUlXM_3std4sync5mutex5MutexINtNtB4_6option6OptionuEEEECseZ2WzEtypfB_15crossbeam_scope(%"alloc::sync::ArcInner<std::sync::Mutex<std::option::Option<()>>>"* %t), !dbg !1078
  br label %bb2, !dbg !1078

bb2:                                              ; preds = %bb1
  %0 = bitcast { i64, i64 }* %_4 to i64*, !dbg !1079
  store i64 %_5, i64* %0, align 8, !dbg !1079
  %1 = getelementptr inbounds { i64, i64 }, { i64, i64 }* %_4, i32 0, i32 1, !dbg !1079
  store i64 %_7, i64* %1, align 8, !dbg !1079
  %2 = bitcast { i64, i64 }* %_4 to i64*, !dbg !1080
  %size = load i64, i64* %2, align 8, !dbg !1080
  store i64 %size, i64* %size.dbg.spill, align 8, !dbg !1080
  call void @llvm.dbg.declare(metadata i64* %size.dbg.spill, metadata !1073, metadata !DIExpression()), !dbg !1081
  %3 = getelementptr inbounds { i64, i64 }, { i64, i64 }* %_4, i32 0, i32 1, !dbg !1082
  %align = load i64, i64* %3, align 8, !dbg !1082
  store i64 %align, i64* %align.dbg.spill, align 8, !dbg !1082
  call void @llvm.dbg.declare(metadata i64* %align.dbg.spill, metadata !1075, metadata !DIExpression()), !dbg !1083
; call <core::alloc::layout::Layout>::from_size_align_unchecked
  %4 = call { i64, i64 } @_RNvMNtNtCs3p84KrD9aKt_4core5alloc6layoutNtB2_6Layout25from_size_align_uncheckedCseZ2WzEtypfB_15crossbeam_scope(i64 %size, i64 %align), !dbg !1084
  %5 = extractvalue { i64, i64 } %4, 0, !dbg !1084
  %6 = extractvalue { i64, i64 } %4, 1, !dbg !1084
  br label %bb3, !dbg !1084

bb3:                                              ; preds = %bb2
  %7 = insertvalue { i64, i64 } undef, i64 %5, 0, !dbg !1085
  %8 = insertvalue { i64, i64 } %7, i64 %6, 1, !dbg !1085
  ret { i64, i64 } %8, !dbg !1085
}

; <core::alloc::layout::Layout>::new::<alloc::sync::Arc<std::sync::mutex::Mutex<core::option::Option<std::thread::JoinHandle<()>>>>>
; Function Attrs: inlinehint nonlazybind uwtable
define internal { i64, i64 } @_RINvMNtNtCs3p84KrD9aKt_4core5alloc6layoutNtB3_6Layout3newINtNtCs8RW06R9lH2S_5alloc4sync3ArcINtNtNtCs2bNvlddUlXM_3std4sync5mutex5MutexINtNtB7_6option6OptionINtNtB1y_6thread10JoinHandleuEEEEECseZ2WzEtypfB_15crossbeam_scope() unnamed_addr #1 !dbg !1086 {
start:
  %align.dbg.spill = alloca i64, align 8, !dbg !1093
  %size.dbg.spill = alloca i64, align 8, !dbg !1093
; call core::alloc::layout::size_align::<alloc::sync::Arc<std::sync::mutex::Mutex<core::option::Option<std::thread::JoinHandle<()>>>>>
  %0 = call { i64, i64 } @_RINvNtNtCs3p84KrD9aKt_4core5alloc6layout10size_alignINtNtCs8RW06R9lH2S_5alloc4sync3ArcINtNtNtCs2bNvlddUlXM_3std4sync5mutex5MutexINtNtB6_6option6OptionINtNtB1t_6thread10JoinHandleuEEEEECseZ2WzEtypfB_15crossbeam_scope(), !dbg !1093
  %_3.0 = extractvalue { i64, i64 } %0, 0, !dbg !1093
  %_3.1 = extractvalue { i64, i64 } %0, 1, !dbg !1093
  br label %bb1, !dbg !1093

bb1:                                              ; preds = %start
  store i64 %_3.0, i64* %size.dbg.spill, align 8, !dbg !1094
  call void @llvm.dbg.declare(metadata i64* %size.dbg.spill, metadata !1090, metadata !DIExpression()), !dbg !1095
  store i64 %_3.1, i64* %align.dbg.spill, align 8, !dbg !1096
  call void @llvm.dbg.declare(metadata i64* %align.dbg.spill, metadata !1092, metadata !DIExpression()), !dbg !1097
; call <core::alloc::layout::Layout>::from_size_align_unchecked
  %1 = call { i64, i64 } @_RNvMNtNtCs3p84KrD9aKt_4core5alloc6layoutNtB2_6Layout25from_size_align_uncheckedCseZ2WzEtypfB_15crossbeam_scope(i64 %_3.0, i64 %_3.1), !dbg !1098
  %2 = extractvalue { i64, i64 } %1, 0, !dbg !1098
  %3 = extractvalue { i64, i64 } %1, 1, !dbg !1098
  br label %bb2, !dbg !1098

bb2:                                              ; preds = %bb1
  %4 = insertvalue { i64, i64 } undef, i64 %2, 0, !dbg !1099
  %5 = insertvalue { i64, i64 } %4, i64 %3, 1, !dbg !1099
  ret { i64, i64 } %5, !dbg !1099
}

; <core::alloc::layout::Layout>::new::<alloc::boxed::Box<dyn core::any::Any + core::marker::Send>>
; Function Attrs: inlinehint nonlazybind uwtable
define internal { i64, i64 } @_RINvMNtNtCs3p84KrD9aKt_4core5alloc6layoutNtB3_6Layout3newINtNtCs8RW06R9lH2S_5alloc5boxed3BoxDNtNtB7_3any3AnyNtNtB7_6marker4SendEL_EECseZ2WzEtypfB_15crossbeam_scope() unnamed_addr #1 !dbg !1100 {
start:
  %align.dbg.spill = alloca i64, align 8, !dbg !1105
  %size.dbg.spill = alloca i64, align 8, !dbg !1105
; call core::alloc::layout::size_align::<alloc::boxed::Box<dyn core::any::Any + core::marker::Send>>
  %0 = call { i64, i64 } @_RINvNtNtCs3p84KrD9aKt_4core5alloc6layout10size_alignINtNtCs8RW06R9lH2S_5alloc5boxed3BoxDNtNtB6_3any3AnyNtNtB6_6marker4SendEL_EECseZ2WzEtypfB_15crossbeam_scope(), !dbg !1105
  %_3.0 = extractvalue { i64, i64 } %0, 0, !dbg !1105
  %_3.1 = extractvalue { i64, i64 } %0, 1, !dbg !1105
  br label %bb1, !dbg !1105

bb1:                                              ; preds = %start
  store i64 %_3.0, i64* %size.dbg.spill, align 8, !dbg !1106
  call void @llvm.dbg.declare(metadata i64* %size.dbg.spill, metadata !1102, metadata !DIExpression()), !dbg !1107
  store i64 %_3.1, i64* %align.dbg.spill, align 8, !dbg !1108
  call void @llvm.dbg.declare(metadata i64* %align.dbg.spill, metadata !1104, metadata !DIExpression()), !dbg !1109
; call <core::alloc::layout::Layout>::from_size_align_unchecked
  %1 = call { i64, i64 } @_RNvMNtNtCs3p84KrD9aKt_4core5alloc6layoutNtB2_6Layout25from_size_align_uncheckedCseZ2WzEtypfB_15crossbeam_scope(i64 %_3.0, i64 %_3.1), !dbg !1110
  %2 = extractvalue { i64, i64 } %1, 0, !dbg !1110
  %3 = extractvalue { i64, i64 } %1, 1, !dbg !1110
  br label %bb2, !dbg !1110

bb2:                                              ; preds = %bb1
  %4 = insertvalue { i64, i64 } undef, i64 %2, 0, !dbg !1111
  %5 = insertvalue { i64, i64 } %4, i64 %3, 1, !dbg !1111
  ret { i64, i64 } %5, !dbg !1111
}

; <core::alloc::layout::Layout>::array::<alloc::sync::Arc<std::sync::mutex::Mutex<core::option::Option<std::thread::JoinHandle<()>>>>>
; Function Attrs: inlinehint nonlazybind uwtable
define internal { i64, i64 } @_RINvMNtNtCs3p84KrD9aKt_4core5alloc6layoutNtB3_6Layout5arrayINtNtCs8RW06R9lH2S_5alloc4sync3ArcINtNtNtCs2bNvlddUlXM_3std4sync5mutex5MutexINtNtB7_6option6OptionINtNtB1A_6thread10JoinHandleuEEEEECseZ2WzEtypfB_15crossbeam_scope(i64 %n) unnamed_addr #1 !dbg !1112 {
start:
  %offset.dbg.spill = alloca i64, align 8
  %err.dbg.spill = alloca %"std::alloc::LayoutError", align 1
  %n.dbg.spill = alloca i64, align 8
  %val = alloca { [0 x i64], { i64, i64 }, [0 x i64], i64, [0 x i64] }, align 8
  %_8 = alloca { i64, i64 }, align 8
  %_6 = alloca %"std::result::Result<(std::alloc::Layout, usize), std::alloc::LayoutError>", align 8
  %_5 = alloca %"std::result::Result<(std::alloc::Layout, usize), std::alloc::LayoutError>", align 8
  %_4 = alloca { [0 x i64], { i64, i64 }, [0 x i64], i64, [0 x i64] }, align 8
  %layout = alloca { i64, i64 }, align 8
  %0 = alloca { i64, i64 }, align 8
  store i64 %n, i64* %n.dbg.spill, align 8
  call void @llvm.dbg.declare(metadata i64* %n.dbg.spill, metadata !1135, metadata !DIExpression()), !dbg !1158
  call void @llvm.dbg.declare(metadata { i64, i64 }* %layout, metadata !1136, metadata !DIExpression()), !dbg !1159
  call void @llvm.dbg.declare(metadata %"std::alloc::LayoutError"* %err.dbg.spill, metadata !1139, metadata !DIExpression()), !dbg !1160
  call void @llvm.dbg.declare(metadata { [0 x i64], { i64, i64 }, [0 x i64], i64, [0 x i64] }* %val, metadata !1141, metadata !DIExpression()), !dbg !1161
; call <core::alloc::layout::Layout>::new::<alloc::sync::Arc<std::sync::mutex::Mutex<core::option::Option<std::thread::JoinHandle<()>>>>>
  %1 = call { i64, i64 } @_RINvMNtNtCs3p84KrD9aKt_4core5alloc6layoutNtB3_6Layout3newINtNtCs8RW06R9lH2S_5alloc4sync3ArcINtNtNtCs2bNvlddUlXM_3std4sync5mutex5MutexINtNtB7_6option6OptionINtNtB1y_6thread10JoinHandleuEEEEECseZ2WzEtypfB_15crossbeam_scope(), !dbg !1162
  store { i64, i64 } %1, { i64, i64 }* %_8, align 8, !dbg !1162
  br label %bb1, !dbg !1162

bb1:                                              ; preds = %start
; call <core::alloc::layout::Layout>::repeat
  call void @_RNvMNtNtCs3p84KrD9aKt_4core5alloc6layoutNtB2_6Layout6repeatCseZ2WzEtypfB_15crossbeam_scope(%"std::result::Result<(std::alloc::Layout, usize), std::alloc::LayoutError>"* noalias nocapture sret dereferenceable(24) %_6, { i64, i64 }* noalias readonly align 8 dereferenceable(16) %_8, i64 %n), !dbg !1162
  br label %bb2, !dbg !1162

bb2:                                              ; preds = %bb1
; call <core::result::Result<(core::alloc::layout::Layout, usize), core::alloc::layout::LayoutError> as core::ops::try::Try>::into_result
  call void @_RNvXsw_NtCs3p84KrD9aKt_4core6resultINtB5_6ResultTNtNtNtB7_5alloc6layout6LayoutjENtBN_11LayoutErrorENtNtNtB7_3ops3try3Try11into_resultCs48Yq53b35jF_15crossbeam_utils(%"std::result::Result<(std::alloc::Layout, usize), std::alloc::LayoutError>"* noalias nocapture sret dereferenceable(24) %_5, %"std::result::Result<(std::alloc::Layout, usize), std::alloc::LayoutError>"* noalias nocapture dereferenceable(24) %_6), !dbg !1162
  br label %bb3, !dbg !1162

bb3:                                              ; preds = %bb2
  %2 = getelementptr inbounds %"std::result::Result<(std::alloc::Layout, usize), std::alloc::LayoutError>", %"std::result::Result<(std::alloc::Layout, usize), std::alloc::LayoutError>"* %_5, i32 0, i32 1, !dbg !1163
  %3 = load i64, i64* %2, align 8, !dbg !1163
  %4 = icmp eq i64 %3, 0, !dbg !1163
  %_10 = select i1 %4, i64 1, i64 0, !dbg !1163
  switch i64 %_10, label %bb5 [
    i64 0, label %bb4
    i64 1, label %bb6
  ], !dbg !1163

bb4:                                              ; preds = %bb3
  %5 = bitcast %"std::result::Result<(std::alloc::Layout, usize), std::alloc::LayoutError>"* %_5 to %"std::result::Result<(std::alloc::Layout, usize), std::alloc::LayoutError>::Ok"*, !dbg !1162
  %6 = bitcast %"std::result::Result<(std::alloc::Layout, usize), std::alloc::LayoutError>::Ok"* %5 to { [0 x i64], { i64, i64 }, [0 x i64], i64, [0 x i64] }*, !dbg !1162
  %7 = bitcast { [0 x i64], { i64, i64 }, [0 x i64], i64, [0 x i64] }* %val to i8*, !dbg !1162
  %8 = bitcast { [0 x i64], { i64, i64 }, [0 x i64], i64, [0 x i64] }* %6 to i8*, !dbg !1162
  call void @llvm.memcpy.p0i8.p0i8.i64(i8* align 8 %7, i8* align 8 %8, i64 24, i1 false), !dbg !1162
  %9 = bitcast { [0 x i64], { i64, i64 }, [0 x i64], i64, [0 x i64] }* %_4 to i8*, !dbg !1161
  %10 = bitcast { [0 x i64], { i64, i64 }, [0 x i64], i64, [0 x i64] }* %val to i8*, !dbg !1161
  call void @llvm.memcpy.p0i8.p0i8.i64(i8* align 8 %9, i8* align 8 %10, i64 24, i1 false), !dbg !1161
  %11 = bitcast { [0 x i64], { i64, i64 }, [0 x i64], i64, [0 x i64] }* %_4 to { i64, i64 }*, !dbg !1164
  %12 = getelementptr inbounds { i64, i64 }, { i64, i64 }* %11, i32 0, i32 0, !dbg !1164
  %13 = load i64, i64* %12, align 8, !dbg !1164
  %14 = getelementptr inbounds { i64, i64 }, { i64, i64 }* %11, i32 0, i32 1, !dbg !1164
  %15 = load i64, i64* %14, align 8, !dbg !1164, !range !1165
  %16 = getelementptr inbounds { i64, i64 }, { i64, i64 }* %layout, i32 0, i32 0, !dbg !1164
  store i64 %13, i64* %16, align 8, !dbg !1164
  %17 = getelementptr inbounds { i64, i64 }, { i64, i64 }* %layout, i32 0, i32 1, !dbg !1164
  store i64 %15, i64* %17, align 8, !dbg !1164
  %18 = getelementptr inbounds { [0 x i64], { i64, i64 }, [0 x i64], i64, [0 x i64] }, { [0 x i64], { i64, i64 }, [0 x i64], i64, [0 x i64] }* %_4, i32 0, i32 3, !dbg !1166
  %offset = load i64, i64* %18, align 8, !dbg !1166
  store i64 %offset, i64* %offset.dbg.spill, align 8, !dbg !1166
  call void @llvm.dbg.declare(metadata i64* %offset.dbg.spill, metadata !1138, metadata !DIExpression()), !dbg !1167
; call <core::alloc::layout::Layout>::pad_to_align
  %19 = call { i64, i64 } @_RNvMNtNtCs3p84KrD9aKt_4core5alloc6layoutNtB2_6Layout12pad_to_alignCseZ2WzEtypfB_15crossbeam_scope({ i64, i64 }* noalias readonly align 8 dereferenceable(16) %layout), !dbg !1168
  %_19.0 = extractvalue { i64, i64 } %19, 0, !dbg !1168
  %_19.1 = extractvalue { i64, i64 } %19, 1, !dbg !1168
  br label %bb9, !dbg !1168

bb5:                                              ; preds = %bb3
  unreachable, !dbg !1162

bb6:                                              ; preds = %bb3
; call <core::alloc::layout::LayoutError as core::convert::From<core::alloc::layout::LayoutError>>::from
  call void @_RNvXs2_NtCs3p84KrD9aKt_4core7convertNtNtNtB7_5alloc6layout11LayoutErrorINtB5_4FromBy_E4fromCs48Yq53b35jF_15crossbeam_utils(), !dbg !1160
  br label %bb7, !dbg !1160

bb7:                                              ; preds = %bb6
; call <core::result::Result<core::alloc::layout::Layout, core::alloc::layout::LayoutError> as core::ops::try::Try>::from_error
  %20 = call { i64, i64 } @_RNvXsw_NtCs3p84KrD9aKt_4core6resultINtB5_6ResultNtNtNtB7_5alloc6layout6LayoutNtBM_11LayoutErrorENtNtNtB7_3ops3try3Try10from_errorCs48Yq53b35jF_15crossbeam_utils(), !dbg !1169
  store { i64, i64 } %20, { i64, i64 }* %0, align 8, !dbg !1169
  br label %bb8, !dbg !1169

bb8:                                              ; preds = %bb7
  br label %bb10, !dbg !1170

bb9:                                              ; preds = %bb4
  %21 = getelementptr inbounds { i64, i64 }, { i64, i64 }* %0, i32 0, i32 0, !dbg !1171
  store i64 %_19.0, i64* %21, align 8, !dbg !1171
  %22 = getelementptr inbounds { i64, i64 }, { i64, i64 }* %0, i32 0, i32 1, !dbg !1171
  store i64 %_19.1, i64* %22, align 8, !dbg !1171
  br label %bb10, !dbg !1170

bb10:                                             ; preds = %bb9, %bb8
  %23 = getelementptr inbounds { i64, i64 }, { i64, i64 }* %0, i32 0, i32 0, !dbg !1170
  %24 = load i64, i64* %23, align 8, !dbg !1170
  %25 = getelementptr inbounds { i64, i64 }, { i64, i64 }* %0, i32 0, i32 1, !dbg !1170
  %26 = load i64, i64* %25, align 8, !dbg !1170
  %27 = insertvalue { i64, i64 } undef, i64 %24, 0, !dbg !1170
  %28 = insertvalue { i64, i64 } %27, i64 %26, 1, !dbg !1170
  ret { i64, i64 } %28, !dbg !1170
}

; <core::alloc::layout::Layout>::array::<alloc::boxed::Box<dyn core::any::Any + core::marker::Send>>
; Function Attrs: inlinehint nonlazybind uwtable
define internal { i64, i64 } @_RINvMNtNtCs3p84KrD9aKt_4core5alloc6layoutNtB3_6Layout5arrayINtNtCs8RW06R9lH2S_5alloc5boxed3BoxDNtNtB7_3any3AnyNtNtB7_6marker4SendEL_EECseZ2WzEtypfB_15crossbeam_scope(i64 %n) unnamed_addr #1 !dbg !1172 {
start:
  %offset.dbg.spill = alloca i64, align 8
  %err.dbg.spill = alloca %"std::alloc::LayoutError", align 1
  %n.dbg.spill = alloca i64, align 8
  %val = alloca { [0 x i64], { i64, i64 }, [0 x i64], i64, [0 x i64] }, align 8
  %_8 = alloca { i64, i64 }, align 8
  %_6 = alloca %"std::result::Result<(std::alloc::Layout, usize), std::alloc::LayoutError>", align 8
  %_5 = alloca %"std::result::Result<(std::alloc::Layout, usize), std::alloc::LayoutError>", align 8
  %_4 = alloca { [0 x i64], { i64, i64 }, [0 x i64], i64, [0 x i64] }, align 8
  %layout = alloca { i64, i64 }, align 8
  %0 = alloca { i64, i64 }, align 8
  store i64 %n, i64* %n.dbg.spill, align 8
  call void @llvm.dbg.declare(metadata i64* %n.dbg.spill, metadata !1174, metadata !DIExpression()), !dbg !1190
  call void @llvm.dbg.declare(metadata { i64, i64 }* %layout, metadata !1175, metadata !DIExpression()), !dbg !1191
  call void @llvm.dbg.declare(metadata %"std::alloc::LayoutError"* %err.dbg.spill, metadata !1178, metadata !DIExpression()), !dbg !1192
  call void @llvm.dbg.declare(metadata { [0 x i64], { i64, i64 }, [0 x i64], i64, [0 x i64] }* %val, metadata !1180, metadata !DIExpression()), !dbg !1193
; call <core::alloc::layout::Layout>::new::<alloc::boxed::Box<dyn core::any::Any + core::marker::Send>>
  %1 = call { i64, i64 } @_RINvMNtNtCs3p84KrD9aKt_4core5alloc6layoutNtB3_6Layout3newINtNtCs8RW06R9lH2S_5alloc5boxed3BoxDNtNtB7_3any3AnyNtNtB7_6marker4SendEL_EECseZ2WzEtypfB_15crossbeam_scope(), !dbg !1194
  store { i64, i64 } %1, { i64, i64 }* %_8, align 8, !dbg !1194
  br label %bb1, !dbg !1194

bb1:                                              ; preds = %start
; call <core::alloc::layout::Layout>::repeat
  call void @_RNvMNtNtCs3p84KrD9aKt_4core5alloc6layoutNtB2_6Layout6repeatCseZ2WzEtypfB_15crossbeam_scope(%"std::result::Result<(std::alloc::Layout, usize), std::alloc::LayoutError>"* noalias nocapture sret dereferenceable(24) %_6, { i64, i64 }* noalias readonly align 8 dereferenceable(16) %_8, i64 %n), !dbg !1194
  br label %bb2, !dbg !1194

bb2:                                              ; preds = %bb1
; call <core::result::Result<(core::alloc::layout::Layout, usize), core::alloc::layout::LayoutError> as core::ops::try::Try>::into_result
  call void @_RNvXsw_NtCs3p84KrD9aKt_4core6resultINtB5_6ResultTNtNtNtB7_5alloc6layout6LayoutjENtBN_11LayoutErrorENtNtNtB7_3ops3try3Try11into_resultCs48Yq53b35jF_15crossbeam_utils(%"std::result::Result<(std::alloc::Layout, usize), std::alloc::LayoutError>"* noalias nocapture sret dereferenceable(24) %_5, %"std::result::Result<(std::alloc::Layout, usize), std::alloc::LayoutError>"* noalias nocapture dereferenceable(24) %_6), !dbg !1194
  br label %bb3, !dbg !1194

bb3:                                              ; preds = %bb2
  %2 = getelementptr inbounds %"std::result::Result<(std::alloc::Layout, usize), std::alloc::LayoutError>", %"std::result::Result<(std::alloc::Layout, usize), std::alloc::LayoutError>"* %_5, i32 0, i32 1, !dbg !1195
  %3 = load i64, i64* %2, align 8, !dbg !1195
  %4 = icmp eq i64 %3, 0, !dbg !1195
  %_10 = select i1 %4, i64 1, i64 0, !dbg !1195
  switch i64 %_10, label %bb5 [
    i64 0, label %bb4
    i64 1, label %bb6
  ], !dbg !1195

bb4:                                              ; preds = %bb3
  %5 = bitcast %"std::result::Result<(std::alloc::Layout, usize), std::alloc::LayoutError>"* %_5 to %"std::result::Result<(std::alloc::Layout, usize), std::alloc::LayoutError>::Ok"*, !dbg !1194
  %6 = bitcast %"std::result::Result<(std::alloc::Layout, usize), std::alloc::LayoutError>::Ok"* %5 to { [0 x i64], { i64, i64 }, [0 x i64], i64, [0 x i64] }*, !dbg !1194
  %7 = bitcast { [0 x i64], { i64, i64 }, [0 x i64], i64, [0 x i64] }* %val to i8*, !dbg !1194
  %8 = bitcast { [0 x i64], { i64, i64 }, [0 x i64], i64, [0 x i64] }* %6 to i8*, !dbg !1194
  call void @llvm.memcpy.p0i8.p0i8.i64(i8* align 8 %7, i8* align 8 %8, i64 24, i1 false), !dbg !1194
  %9 = bitcast { [0 x i64], { i64, i64 }, [0 x i64], i64, [0 x i64] }* %_4 to i8*, !dbg !1193
  %10 = bitcast { [0 x i64], { i64, i64 }, [0 x i64], i64, [0 x i64] }* %val to i8*, !dbg !1193
  call void @llvm.memcpy.p0i8.p0i8.i64(i8* align 8 %9, i8* align 8 %10, i64 24, i1 false), !dbg !1193
  %11 = bitcast { [0 x i64], { i64, i64 }, [0 x i64], i64, [0 x i64] }* %_4 to { i64, i64 }*, !dbg !1196
  %12 = getelementptr inbounds { i64, i64 }, { i64, i64 }* %11, i32 0, i32 0, !dbg !1196
  %13 = load i64, i64* %12, align 8, !dbg !1196
  %14 = getelementptr inbounds { i64, i64 }, { i64, i64 }* %11, i32 0, i32 1, !dbg !1196
  %15 = load i64, i64* %14, align 8, !dbg !1196, !range !1165
  %16 = getelementptr inbounds { i64, i64 }, { i64, i64 }* %layout, i32 0, i32 0, !dbg !1196
  store i64 %13, i64* %16, align 8, !dbg !1196
  %17 = getelementptr inbounds { i64, i64 }, { i64, i64 }* %layout, i32 0, i32 1, !dbg !1196
  store i64 %15, i64* %17, align 8, !dbg !1196
  %18 = getelementptr inbounds { [0 x i64], { i64, i64 }, [0 x i64], i64, [0 x i64] }, { [0 x i64], { i64, i64 }, [0 x i64], i64, [0 x i64] }* %_4, i32 0, i32 3, !dbg !1197
  %offset = load i64, i64* %18, align 8, !dbg !1197
  store i64 %offset, i64* %offset.dbg.spill, align 8, !dbg !1197
  call void @llvm.dbg.declare(metadata i64* %offset.dbg.spill, metadata !1177, metadata !DIExpression()), !dbg !1198
; call <core::alloc::layout::Layout>::pad_to_align
  %19 = call { i64, i64 } @_RNvMNtNtCs3p84KrD9aKt_4core5alloc6layoutNtB2_6Layout12pad_to_alignCseZ2WzEtypfB_15crossbeam_scope({ i64, i64 }* noalias readonly align 8 dereferenceable(16) %layout), !dbg !1199
  %_19.0 = extractvalue { i64, i64 } %19, 0, !dbg !1199
  %_19.1 = extractvalue { i64, i64 } %19, 1, !dbg !1199
  br label %bb9, !dbg !1199

bb5:                                              ; preds = %bb3
  unreachable, !dbg !1194

bb6:                                              ; preds = %bb3
; call <core::alloc::layout::LayoutError as core::convert::From<core::alloc::layout::LayoutError>>::from
  call void @_RNvXs2_NtCs3p84KrD9aKt_4core7convertNtNtNtB7_5alloc6layout11LayoutErrorINtB5_4FromBy_E4fromCs48Yq53b35jF_15crossbeam_utils(), !dbg !1192
  br label %bb7, !dbg !1192

bb7:                                              ; preds = %bb6
; call <core::result::Result<core::alloc::layout::Layout, core::alloc::layout::LayoutError> as core::ops::try::Try>::from_error
  %20 = call { i64, i64 } @_RNvXsw_NtCs3p84KrD9aKt_4core6resultINtB5_6ResultNtNtNtB7_5alloc6layout6LayoutNtBM_11LayoutErrorENtNtNtB7_3ops3try3Try10from_errorCs48Yq53b35jF_15crossbeam_utils(), !dbg !1200
  store { i64, i64 } %20, { i64, i64 }* %0, align 8, !dbg !1200
  br label %bb8, !dbg !1200

bb8:                                              ; preds = %bb7
  br label %bb10, !dbg !1201

bb9:                                              ; preds = %bb4
  %21 = getelementptr inbounds { i64, i64 }, { i64, i64 }* %0, i32 0, i32 0, !dbg !1202
  store i64 %_19.0, i64* %21, align 8, !dbg !1202
  %22 = getelementptr inbounds { i64, i64 }, { i64, i64 }* %0, i32 0, i32 1, !dbg !1202
  store i64 %_19.1, i64* %22, align 8, !dbg !1202
  br label %bb10, !dbg !1201

bb10:                                             ; preds = %bb9, %bb8
  %23 = getelementptr inbounds { i64, i64 }, { i64, i64 }* %0, i32 0, i32 0, !dbg !1201
  %24 = load i64, i64* %23, align 8, !dbg !1201
  %25 = getelementptr inbounds { i64, i64 }, { i64, i64 }* %0, i32 0, i32 1, !dbg !1201
  %26 = load i64, i64* %25, align 8, !dbg !1201
  %27 = insertvalue { i64, i64 } undef, i64 %24, 0, !dbg !1201
  %28 = insertvalue { i64, i64 } %27, i64 %26, 1, !dbg !1201
  ret { i64, i64 } %28, !dbg !1201
}

; <crossbeam_utils::thread::ScopedThreadBuilder>::spawn::<crossbeam_scope::main::{closure#0}::{closure#0}, ()>
; Function Attrs: nonlazybind uwtable
define internal void @_RINvMs1_NtCs48Yq53b35jF_15crossbeam_utils6threadNtB6_19ScopedThreadBuilder5spawnNCNCNvCseZ2WzEtypfB_15crossbeam_scope4main00uEB1m_(%"std::result::Result<crossbeam::thread::ScopedJoinHandle<()>, std::io::Error>"* noalias nocapture sret dereferenceable(32) %0, %"crossbeam::thread::ScopedThreadBuilder"* noalias nocapture dereferenceable(48) %self, %"[closure@src/main.rs:15:27: 20:4]"* noalias nocapture dereferenceable(24) %f) unnamed_addr #0 personality i32 (i32, i32, i64, %"unwind::libunwind::_Unwind_Exception"*, %"unwind::libunwind::_Unwind_Context"*)* @rust_eh_personality !dbg !1203 {
start:
  %handle.dbg.spill = alloca i64*, align 8
  %1 = alloca i128, align 8
  %closure.dbg.spill7 = alloca { {}*, [3 x i64]* }, align 8
  %2 = alloca { {}*, [3 x i64]* }, align 8
  %closure.dbg.spill = alloca { {}*, [3 x i64]* }, align 8
  %3 = alloca { i8*, i32 }, align 8
  %_62 = alloca i8, align 1
  %_61 = alloca i8, align 1
  %_60 = alloca i8, align 1
  %_59 = alloca i8, align 1
  %_55 = alloca %"crossbeam::thread::ScopedJoinHandle<()>", align 8
  %_48 = alloca %"std::result::Result<std::sync::MutexGuard<std::vec::Vec<std::sync::Arc<std::sync::Mutex<std::option::Option<std::thread::JoinHandle<()>>>>>>, std::sync::PoisonError<std::sync::MutexGuard<std::vec::Vec<std::sync::Arc<std::sync::Mutex<std::option::Option<std::thread::JoinHandle<()>>>>>>>>", align 8
  %_47 = alloca { i64*, i8 }, align 8
  %_40 = alloca %"std::thread::JoinHandle<()>", align 8
  %_39 = alloca %"std::option::Option<std::thread::JoinHandle<()>>", align 8
  %_38 = alloca %"std::sync::Mutex<std::option::Option<std::thread::JoinHandle<()>>>", align 8
  %thread3 = alloca i64*, align 8
  %val = alloca %"std::thread::JoinHandle<()>", align 8
  %_31 = alloca %"std::io::Error", align 8
  %_30 = alloca %"std::io::Error", align 8
  %err = alloca %"std::io::Error", align 8
  %_27 = alloca { i8*, i64* }, align 8
  %_26 = alloca %"std::thread::Builder", align 8
  %_25 = alloca %"std::result::Result<std::thread::JoinHandle<()>, std::io::Error>", align 8
  %_24 = alloca %"std::result::Result<std::thread::JoinHandle<()>, std::io::Error>", align 8
  %_20 = alloca %"[closure@crossbeam::thread::ScopedThreadBuilder::spawn<[closure@src/main.rs:15:27: 20:4], ()>::{closure#0}]", align 8
  %closure = alloca %"[closure@crossbeam::thread::ScopedThreadBuilder::spawn<[closure@src/main.rs:15:27: 20:4], ()>::{closure#0}]", align 8
  %handle2 = alloca %"std::thread::JoinHandle<()>", align 8
  %_11 = alloca i64*, align 8
  %scope = alloca { i64*, i64* }, align 8
  %result1 = alloca i64*, align 8
  %_6 = alloca { i64*, i64* }, align 8
  %thread = alloca i64*, align 8
  %handle = alloca i64*, align 8
  %result = alloca i64*, align 8
  call void @llvm.dbg.declare(metadata %"crossbeam::thread::ScopedThreadBuilder"* %self, metadata !1236, metadata !DIExpression()), !dbg !1265
  call void @llvm.dbg.declare(metadata %"[closure@src/main.rs:15:27: 20:4]"* %f, metadata !1237, metadata !DIExpression()), !dbg !1266
  call void @llvm.dbg.declare(metadata i64** %result, metadata !1238, metadata !DIExpression()), !dbg !1267
  call void @llvm.dbg.declare(metadata i64** %handle, metadata !1240, metadata !DIExpression()), !dbg !1268
  call void @llvm.dbg.declare(metadata i64** %thread, metadata !1242, metadata !DIExpression()), !dbg !1269
  call void @llvm.dbg.declare(metadata i64** %result1, metadata !1243, metadata !DIExpression()), !dbg !1270
  call void @llvm.dbg.declare(metadata { i64*, i64* }* %scope, metadata !1245, metadata !DIExpression()), !dbg !1271
  call void @llvm.dbg.declare(metadata %"std::thread::JoinHandle<()>"* %handle2, metadata !1247, metadata !DIExpression()), !dbg !1272
  call void @llvm.dbg.declare(metadata %"[closure@crossbeam::thread::ScopedThreadBuilder::spawn<[closure@src/main.rs:15:27: 20:4], ()>::{closure#0}]"* %closure, metadata !1249, metadata !DIExpression()), !dbg !1273
  call void @llvm.dbg.declare(metadata %"std::io::Error"* %err, metadata !1255, metadata !DIExpression()), !dbg !1274
  call void @llvm.dbg.declare(metadata %"std::thread::JoinHandle<()>"* %val, metadata !1257, metadata !DIExpression()), !dbg !1275
  call void @llvm.dbg.declare(metadata i64** %thread3, metadata !1259, metadata !DIExpression()), !dbg !1276
  store i8 0, i8* %_61, align 1, !dbg !1277
  store i8 0, i8* %_60, align 1, !dbg !1277
  store i8 0, i8* %_59, align 1, !dbg !1277
  store i8 0, i8* %_62, align 1, !dbg !1277
  store i8 1, i8* %_62, align 1, !dbg !1277
  store i8 1, i8* %_61, align 1, !dbg !1277
; invoke <alloc::sync::Arc<std::sync::mutex::Mutex<core::option::Option<()>>> as core::default::Default>::default
  %4 = invoke nonnull i64* @_RNvXsG_NtCs8RW06R9lH2S_5alloc4syncINtB5_3ArcINtNtNtCs2bNvlddUlXM_3std4sync5mutex5MutexINtNtCs3p84KrD9aKt_4core6option6OptionuEEENtNtB1r_7default7Default7defaultCseZ2WzEtypfB_15crossbeam_scope()
          to label %bb1 unwind label %cleanup, !dbg !1278

bb1:                                              ; preds = %start
  store i64* %4, i64** %result, align 8, !dbg !1278
; invoke <alloc::sync::Arc<std::sync::mutex::Mutex<core::option::Option<()>>> as core::clone::Clone>::clone
  %5 = invoke nonnull i64* @_RNvXsk_NtCs8RW06R9lH2S_5alloc4syncINtB5_3ArcINtNtNtCs2bNvlddUlXM_3std4sync5mutex5MutexINtNtCs3p84KrD9aKt_4core6option6OptionuEEENtNtB1r_5clone5Clone5cloneCseZ2WzEtypfB_15crossbeam_scope(i64** noalias readonly align 8 dereferenceable(8) %result)
          to label %bb2 unwind label %cleanup4, !dbg !1279

bb2:                                              ; preds = %bb1
  store i64* %5, i64** %result1, align 8, !dbg !1279
  store i8 1, i8* %_60, align 1, !dbg !1280
  %6 = bitcast %"crossbeam::thread::ScopedThreadBuilder"* %self to { i64*, i64* }**, !dbg !1281
  %7 = load { i64*, i64* }*, { i64*, i64* }** %6, align 8, !dbg !1281, !nonnull !4
  %_13 = bitcast { i64*, i64* }* %7 to i64**, !dbg !1281
; invoke <alloc::sync::Arc<std::sync::mutex::Mutex<alloc::vec::Vec<alloc::sync::Arc<std::sync::mutex::Mutex<core::option::Option<std::thread::JoinHandle<()>>>>>>> as core::clone::Clone>::clone
  %8 = invoke nonnull i64* @_RNvXsk_NtCs8RW06R9lH2S_5alloc4syncINtB5_3ArcINtNtNtCs2bNvlddUlXM_3std4sync5mutex5MutexINtNtB7_3vec3VecIBx_IBH_INtNtCs3p84KrD9aKt_4core6option6OptionINtNtBN_6thread10JoinHandleuEEEEEEENtNtB1P_5clone5Clone5cloneCseZ2WzEtypfB_15crossbeam_scope(i64** noalias readonly align 8 dereferenceable(8) %_13)
          to label %bb3 unwind label %cleanup5, !dbg !1282

bb3:                                              ; preds = %bb2
  store i64* %8, i64** %_11, align 8, !dbg !1282
  %9 = bitcast %"crossbeam::thread::ScopedThreadBuilder"* %self to { i64*, i64* }**, !dbg !1283
  %10 = load { i64*, i64* }*, { i64*, i64* }** %9, align 8, !dbg !1283, !nonnull !4
  %_15 = getelementptr inbounds { i64*, i64* }, { i64*, i64* }* %10, i32 0, i32 1, !dbg !1283
; invoke <crossbeam_utils::sync::wait_group::WaitGroup as core::clone::Clone>::clone
  %_14 = invoke nonnull i64* @_RNvXs1_NtNtCs48Yq53b35jF_15crossbeam_utils4sync10wait_groupNtB5_9WaitGroupNtNtCs3p84KrD9aKt_4core5clone5Clone5clone(i64** noalias readonly align 8 dereferenceable(8) %_15)
          to label %bb4 unwind label %cleanup6, !dbg !1283

bb4:                                              ; preds = %bb3
  %11 = bitcast { i64*, i64* }* %scope to i64**, !dbg !1284
  %12 = load i64*, i64** %_11, align 8, !dbg !1284, !nonnull !4
  store i64* %12, i64** %11, align 8, !dbg !1284
  %13 = getelementptr inbounds { i64*, i64* }, { i64*, i64* }* %scope, i32 0, i32 1, !dbg !1284
  store i64* %_14, i64** %13, align 8, !dbg !1284
  %14 = bitcast { i64*, i64* }* %scope to %"std::marker::PhantomData<&mut &()>"*, !dbg !1284
  store i8 0, i8* %_61, align 1, !dbg !1285
  store i8 0, i8* %_60, align 1, !dbg !1285
  %15 = bitcast %"[closure@crossbeam::thread::ScopedThreadBuilder::spawn<[closure@src/main.rs:15:27: 20:4], ()>::{closure#0}]"* %closure to { i64*, i64* }*, !dbg !1285
  %16 = getelementptr inbounds { i64*, i64* }, { i64*, i64* }* %scope, i32 0, i32 0, !dbg !1285
  %17 = load i64*, i64** %16, align 8, !dbg !1285, !nonnull !4
  %18 = getelementptr inbounds { i64*, i64* }, { i64*, i64* }* %scope, i32 0, i32 1, !dbg !1285
  %19 = load i64*, i64** %18, align 8, !dbg !1285, !nonnull !4
  %20 = getelementptr inbounds { i64*, i64* }, { i64*, i64* }* %15, i32 0, i32 0, !dbg !1285
  store i64* %17, i64** %20, align 8, !dbg !1285
  %21 = getelementptr inbounds { i64*, i64* }, { i64*, i64* }* %15, i32 0, i32 1, !dbg !1285
  store i64* %19, i64** %21, align 8, !dbg !1285
  %22 = getelementptr inbounds %"[closure@crossbeam::thread::ScopedThreadBuilder::spawn<[closure@src/main.rs:15:27: 20:4], ()>::{closure#0}]", %"[closure@crossbeam::thread::ScopedThreadBuilder::spawn<[closure@src/main.rs:15:27: 20:4], ()>::{closure#0}]"* %closure, i32 0, i32 3, !dbg !1285
  %23 = bitcast %"[closure@src/main.rs:15:27: 20:4]"* %22 to i8*, !dbg !1285
  %24 = bitcast %"[closure@src/main.rs:15:27: 20:4]"* %f to i8*, !dbg !1285
  call void @llvm.memcpy.p0i8.p0i8.i64(i8* align 8 %23, i8* align 8 %24, i64 24, i1 false), !dbg !1285
  %25 = getelementptr inbounds %"[closure@crossbeam::thread::ScopedThreadBuilder::spawn<[closure@src/main.rs:15:27: 20:4], ()>::{closure#0}]", %"[closure@crossbeam::thread::ScopedThreadBuilder::spawn<[closure@src/main.rs:15:27: 20:4], ()>::{closure#0}]"* %closure, i32 0, i32 5, !dbg !1285
  %26 = load i64*, i64** %result1, align 8, !dbg !1285, !nonnull !4
  store i64* %26, i64** %25, align 8, !dbg !1285
  %27 = bitcast %"[closure@crossbeam::thread::ScopedThreadBuilder::spawn<[closure@src/main.rs:15:27: 20:4], ()>::{closure#0}]"* %_20 to i8*, !dbg !1286
  %28 = bitcast %"[closure@crossbeam::thread::ScopedThreadBuilder::spawn<[closure@src/main.rs:15:27: 20:4], ()>::{closure#0}]"* %closure to i8*, !dbg !1286
  call void @llvm.memcpy.p0i8.p0i8.i64(i8* align 8 %27, i8* align 8 %28, i64 48, i1 false), !dbg !1286
  call void @llvm.dbg.declare(metadata %"[closure@crossbeam::thread::ScopedThreadBuilder::spawn<[closure@src/main.rs:15:27: 20:4], ()>::{closure#0}]"* %_20, metadata !1287, metadata !DIExpression()), !dbg !1295
; invoke alloc::alloc::exchange_malloc
  %29 = invoke i8* @_RNvNtCs8RW06R9lH2S_5alloc5alloc15exchange_mallocCseZ2WzEtypfB_15crossbeam_scope(i64 48, i64 8)
          to label %_RNvMNtCs8RW06R9lH2S_5alloc5boxedINtB2_3BoxNCINvMs1_NtCs48Yq53b35jF_15crossbeam_utils6threadNtBN_19ScopedThreadBuilder5spawnNCNCNvCseZ2WzEtypfB_15crossbeam_scope4main00uE0E3newB23_.exit unwind label %cleanup5, !dbg !1297

_RNvMNtCs8RW06R9lH2S_5alloc5boxedINtB2_3BoxNCINvMs1_NtCs48Yq53b35jF_15crossbeam_utils6threadNtBN_19ScopedThreadBuilder5spawnNCNCNvCseZ2WzEtypfB_15crossbeam_scope4main00uE0E3newB23_.exit: ; preds = %bb4
  %30 = bitcast i8* %29 to %"[closure@crossbeam::thread::ScopedThreadBuilder::spawn<[closure@src/main.rs:15:27: 20:4], ()>::{closure#0}]"*, !dbg !1297
  %31 = bitcast %"[closure@crossbeam::thread::ScopedThreadBuilder::spawn<[closure@src/main.rs:15:27: 20:4], ()>::{closure#0}]"* %_20 to i8*, !dbg !1298
  call void @llvm.memcpy.p0i8.p0i8.i64(i8* align 8 %29, i8* align 8 %31, i64 48, i1 false), !dbg !1298
  br label %bb5, !dbg !1299

bb5:                                              ; preds = %_RNvMNtCs8RW06R9lH2S_5alloc5boxedINtB2_3BoxNCINvMs1_NtCs48Yq53b35jF_15crossbeam_utils6threadNtBN_19ScopedThreadBuilder5spawnNCNCNvCseZ2WzEtypfB_15crossbeam_scope4main00uE0E3newB23_.exit
  %32 = bitcast %"[closure@crossbeam::thread::ScopedThreadBuilder::spawn<[closure@src/main.rs:15:27: 20:4], ()>::{closure#0}]"* %30 to {}*, !dbg !1300
  %33 = bitcast {}* %32 to i8*, !dbg !1300
  %closure.0 = bitcast i8* %33 to {}*, !dbg !1300
  %34 = getelementptr inbounds { {}*, [3 x i64]* }, { {}*, [3 x i64]* }* %closure.dbg.spill, i32 0, i32 0, !dbg !1300
  store {}* %closure.0, {}** %34, align 8, !dbg !1300
  %35 = getelementptr inbounds { {}*, [3 x i64]* }, { {}*, [3 x i64]* }* %closure.dbg.spill, i32 0, i32 1, !dbg !1300
  store [3 x i64]* bitcast ({ void (%"[closure@crossbeam::thread::ScopedThreadBuilder::spawn<[closure@src/main.rs:15:27: 20:4], ()>::{closure#0}]"*)*, i64, i64, void (%"[closure@crossbeam::thread::ScopedThreadBuilder::spawn<[closure@src/main.rs:15:27: 20:4], ()>::{closure#0}]"*)* }* @vtable.1 to [3 x i64]*), [3 x i64]** %35, align 8, !dbg !1300
  call void @llvm.dbg.declare(metadata { {}*, [3 x i64]* }* %closure.dbg.spill, metadata !1251, metadata !DIExpression()), !dbg !1301
  %36 = getelementptr inbounds { {}*, [3 x i64]* }, { {}*, [3 x i64]* }* %2, i32 0, i32 0, !dbg !1302
  store {}* %closure.0, {}** %36, align 8, !dbg !1302
  %37 = getelementptr inbounds { {}*, [3 x i64]* }, { {}*, [3 x i64]* }* %2, i32 0, i32 1, !dbg !1302
  store [3 x i64]* bitcast ({ void (%"[closure@crossbeam::thread::ScopedThreadBuilder::spawn<[closure@src/main.rs:15:27: 20:4], ()>::{closure#0}]"*)*, i64, i64, void (%"[closure@crossbeam::thread::ScopedThreadBuilder::spawn<[closure@src/main.rs:15:27: 20:4], ()>::{closure#0}]"*)* }* @vtable.1 to [3 x i64]*), [3 x i64]** %37, align 8, !dbg !1302
  %38 = getelementptr inbounds { {}*, [3 x i64]* }, { {}*, [3 x i64]* }* %2, i32 0, i32 0, !dbg !1302
  %_22.0 = load {}*, {}** %38, align 8, !dbg !1302, !nonnull !4
  %39 = getelementptr inbounds { {}*, [3 x i64]* }, { {}*, [3 x i64]* }* %2, i32 0, i32 1, !dbg !1302
  %_22.1 = load [3 x i64]*, [3 x i64]** %39, align 8, !dbg !1302, !nonnull !4
  br label %bb6, !dbg !1302

bb6:                                              ; preds = %bb5
  %40 = getelementptr inbounds { {}*, [3 x i64]* }, { {}*, [3 x i64]* }* %closure.dbg.spill7, i32 0, i32 0, !dbg !1302
  store {}* %_22.0, {}** %40, align 8, !dbg !1302
  %41 = getelementptr inbounds { {}*, [3 x i64]* }, { {}*, [3 x i64]* }* %closure.dbg.spill7, i32 0, i32 1, !dbg !1302
  store [3 x i64]* %_22.1, [3 x i64]** %41, align 8, !dbg !1302
  call void @llvm.dbg.declare(metadata { {}*, [3 x i64]* }* %closure.dbg.spill7, metadata !1253, metadata !DIExpression()), !dbg !1303
  store i8 0, i8* %_62, align 1, !dbg !1304
  %42 = getelementptr inbounds %"crossbeam::thread::ScopedThreadBuilder", %"crossbeam::thread::ScopedThreadBuilder"* %self, i32 0, i32 3, !dbg !1304
  %43 = bitcast %"std::thread::Builder"* %_26 to i8*, !dbg !1304
  %44 = bitcast %"std::thread::Builder"* %42 to i8*, !dbg !1304
  call void @llvm.memcpy.p0i8.p0i8.i64(i8* align 8 %43, i8* align 8 %44, i64 40, i1 false), !dbg !1304
  %45 = bitcast { i8*, i64* }* %_27 to { {}*, [3 x i64]* }*, !dbg !1305
  %46 = getelementptr inbounds { {}*, [3 x i64]* }, { {}*, [3 x i64]* }* %45, i32 0, i32 0, !dbg !1305
  store {}* %_22.0, {}** %46, align 8, !dbg !1305
  %47 = getelementptr inbounds { {}*, [3 x i64]* }, { {}*, [3 x i64]* }* %45, i32 0, i32 1, !dbg !1305
  store [3 x i64]* %_22.1, [3 x i64]** %47, align 8, !dbg !1305
  %48 = getelementptr inbounds { i8*, i64* }, { i8*, i64* }* %_27, i32 0, i32 0, !dbg !1304
  %49 = load i8*, i8** %48, align 8, !dbg !1304, !nonnull !4
  %50 = getelementptr inbounds { i8*, i64* }, { i8*, i64* }* %_27, i32 0, i32 1, !dbg !1304
  %51 = load i64*, i64** %50, align 8, !dbg !1304, !nonnull !4
; invoke <std::thread::Builder>::spawn::<<crossbeam_utils::thread::ScopedThreadBuilder>::spawn<crossbeam_scope::main::{closure#0}::{closure#0}, ()>::{closure#1}, ()>
  invoke void @_RINvMNtCs2bNvlddUlXM_3std6threadNtB3_7Builder5spawnNCINvMs1_NtCs48Yq53b35jF_15crossbeam_utils6threadNtBW_19ScopedThreadBuilder5spawnNCNCNvCseZ2WzEtypfB_15crossbeam_scope4main00uEs_0uEB2c_(%"std::result::Result<std::thread::JoinHandle<()>, std::io::Error>"* noalias nocapture sret dereferenceable(40) %_25, %"std::thread::Builder"* noalias nocapture dereferenceable(40) %_26, i8* noalias nonnull align 1 %49, i64* noalias readonly align 8 dereferenceable(24) %51)
          to label %bb7 unwind label %cleanup5, !dbg !1304

bb7:                                              ; preds = %bb6
; invoke <core::result::Result<std::thread::JoinHandle<()>, std::io::error::Error> as core::ops::try::Try>::into_result
  invoke void @_RNvXsw_NtCs3p84KrD9aKt_4core6resultINtB5_6ResultINtNtCs2bNvlddUlXM_3std6thread10JoinHandleuENtNtNtBP_2io5error5ErrorENtNtNtB7_3ops3try3Try11into_resultCseZ2WzEtypfB_15crossbeam_scope(%"std::result::Result<std::thread::JoinHandle<()>, std::io::Error>"* noalias nocapture sret dereferenceable(40) %_24, %"std::result::Result<std::thread::JoinHandle<()>, std::io::Error>"* noalias nocapture dereferenceable(40) %_25)
          to label %bb8 unwind label %cleanup5, !dbg !1304

bb8:                                              ; preds = %bb7
  %52 = bitcast %"std::result::Result<std::thread::JoinHandle<()>, std::io::Error>"* %_24 to i64*, !dbg !1306
  %_28 = load i64, i64* %52, align 8, !dbg !1306, !range !793
  switch i64 %_28, label %bb10 [
    i64 0, label %bb9
    i64 1, label %bb11
  ], !dbg !1306

bb9:                                              ; preds = %bb8
  %53 = bitcast %"std::result::Result<std::thread::JoinHandle<()>, std::io::Error>"* %_24 to %"std::result::Result<std::thread::JoinHandle<()>, std::io::Error>::Ok"*, !dbg !1304
  %54 = getelementptr inbounds %"std::result::Result<std::thread::JoinHandle<()>, std::io::Error>::Ok", %"std::result::Result<std::thread::JoinHandle<()>, std::io::Error>::Ok"* %53, i32 0, i32 1, !dbg !1304
  %55 = bitcast %"std::thread::JoinHandle<()>"* %val to i8*, !dbg !1304
  %56 = bitcast %"std::thread::JoinHandle<()>"* %54 to i8*, !dbg !1304
  call void @llvm.memcpy.p0i8.p0i8.i64(i8* align 8 %55, i8* align 8 %56, i64 32, i1 false), !dbg !1304
  store i8 1, i8* %_59, align 1, !dbg !1275
  %57 = bitcast %"std::thread::JoinHandle<()>"* %handle2 to i8*, !dbg !1275
  %58 = bitcast %"std::thread::JoinHandle<()>"* %val to i8*, !dbg !1275
  call void @llvm.memcpy.p0i8.p0i8.i64(i8* align 8 %57, i8* align 8 %58, i64 32, i1 false), !dbg !1275
; invoke <std::thread::JoinHandle<()>>::thread
  %_35 = invoke align 8 dereferenceable(8) i64** @_RNvMs7_NtCs2bNvlddUlXM_3std6threadINtB5_10JoinHandleuE6threadCseZ2WzEtypfB_15crossbeam_scope(%"std::thread::JoinHandle<()>"* noalias readonly align 8 dereferenceable(32) %handle2)
          to label %bb14 unwind label %cleanup10, !dbg !1307

bb10:                                             ; preds = %bb8
  unreachable, !dbg !1304

bb11:                                             ; preds = %bb8
  %59 = bitcast %"std::result::Result<std::thread::JoinHandle<()>, std::io::Error>"* %_24 to %"std::result::Result<std::thread::JoinHandle<()>, std::io::Error>::Err"*, !dbg !1306
  %60 = getelementptr inbounds %"std::result::Result<std::thread::JoinHandle<()>, std::io::Error>::Err", %"std::result::Result<std::thread::JoinHandle<()>, std::io::Error>::Err"* %59, i32 0, i32 1, !dbg !1306
  %61 = bitcast %"std::io::Error"* %err to i8*, !dbg !1306
  %62 = bitcast %"std::io::Error"* %60 to i8*, !dbg !1306
  call void @llvm.memcpy.p0i8.p0i8.i64(i8* align 8 %61, i8* align 8 %62, i64 16, i1 false), !dbg !1306
  %63 = bitcast %"std::io::Error"* %_31 to i8*, !dbg !1274
  %64 = bitcast %"std::io::Error"* %err to i8*, !dbg !1274
  call void @llvm.memcpy.p0i8.p0i8.i64(i8* align 8 %63, i8* align 8 %64, i64 16, i1 false), !dbg !1274
  %65 = bitcast %"std::io::Error"* %_31 to i128*, !dbg !1274
  %66 = load i128, i128* %65, align 8, !dbg !1274
; invoke <std::io::error::Error as core::convert::From<std::io::error::Error>>::from
  %67 = invoke i128 @_RNvXs2_NtCs3p84KrD9aKt_4core7convertNtNtNtCs2bNvlddUlXM_3std2io5error5ErrorINtB5_4FromBy_E4fromCseZ2WzEtypfB_15crossbeam_scope(i128 %66)
          to label %bb12 unwind label %cleanup8, !dbg !1274

bb12:                                             ; preds = %bb11
  store i128 %67, i128* %1, align 8, !dbg !1274
  %68 = bitcast %"std::io::Error"* %_30 to i8*, !dbg !1274
  %69 = bitcast i128* %1 to i8*, !dbg !1274
  call void @llvm.memcpy.p0i8.p0i8.i64(i8* align 8 %68, i8* align 8 %69, i64 16, i1 false), !dbg !1274
  %70 = bitcast %"std::io::Error"* %_30 to i128*, !dbg !1308
  %71 = load i128, i128* %70, align 8, !dbg !1308
; invoke <core::result::Result<crossbeam_utils::thread::ScopedJoinHandle<()>, std::io::error::Error> as core::ops::try::Try>::from_error
  invoke void @_RNvXsw_NtCs3p84KrD9aKt_4core6resultINtB5_6ResultINtNtCs48Yq53b35jF_15crossbeam_utils6thread16ScopedJoinHandleuENtNtNtCs2bNvlddUlXM_3std2io5error5ErrorENtNtNtB7_3ops3try3Try10from_errorCseZ2WzEtypfB_15crossbeam_scope(%"std::result::Result<crossbeam::thread::ScopedJoinHandle<()>, std::io::Error>"* noalias nocapture sret dereferenceable(32) %0, i128 %71)
          to label %bb13 unwind label %cleanup8, !dbg !1308

bb13:                                             ; preds = %bb12
  store i8 0, i8* %_59, align 1, !dbg !1309
  store i8 0, i8* %_60, align 1, !dbg !1310
; invoke core::ptr::drop_in_place::<alloc::sync::Arc<std::sync::mutex::Mutex<core::option::Option<()>>>>
  invoke void @_RINvNtCs3p84KrD9aKt_4core3ptr13drop_in_placeINtNtCs8RW06R9lH2S_5alloc4sync3ArcINtNtNtCs2bNvlddUlXM_3std4sync5mutex5MutexINtNtB4_6option6OptionuEEEECseZ2WzEtypfB_15crossbeam_scope(i64** %result)
          to label %bb25 unwind label %cleanup9, !dbg !1311

bb14:                                             ; preds = %bb9
; invoke <std::thread::Thread as core::clone::Clone>::clone
  %72 = invoke nonnull i64* @_RNvXsk_NtCs2bNvlddUlXM_3std6threadNtB5_6ThreadNtNtCs3p84KrD9aKt_4core5clone5Clone5cloneCseZ2WzEtypfB_15crossbeam_scope(i64** noalias readonly align 8 dereferenceable(8) %_35)
          to label %bb15 unwind label %cleanup10, !dbg !1307

bb15:                                             ; preds = %bb14
  store i64* %72, i64** %thread3, align 8, !dbg !1307
  store i8 0, i8* %_59, align 1, !dbg !1312
  %73 = bitcast %"std::thread::JoinHandle<()>"* %_40 to i8*, !dbg !1312
  %74 = bitcast %"std::thread::JoinHandle<()>"* %handle2 to i8*, !dbg !1312
  call void @llvm.memcpy.p0i8.p0i8.i64(i8* align 8 %73, i8* align 8 %74, i64 32, i1 false), !dbg !1312
  %75 = bitcast %"std::option::Option<std::thread::JoinHandle<()>>"* %_39 to %"std::option::Option<std::thread::JoinHandle<()>>::Some"*, !dbg !1313
  %76 = bitcast %"std::option::Option<std::thread::JoinHandle<()>>::Some"* %75 to %"std::thread::JoinHandle<()>"*, !dbg !1313
  %77 = bitcast %"std::thread::JoinHandle<()>"* %76 to i8*, !dbg !1313
  %78 = bitcast %"std::thread::JoinHandle<()>"* %_40 to i8*, !dbg !1313
  call void @llvm.memcpy.p0i8.p0i8.i64(i8* align 8 %77, i8* align 8 %78, i64 32, i1 false), !dbg !1313
; invoke <std::sync::mutex::Mutex<core::option::Option<std::thread::JoinHandle<()>>>>::new
  invoke void @_RNvMs2_NtNtCs2bNvlddUlXM_3std4sync5mutexINtB5_5MutexINtNtCs3p84KrD9aKt_4core6option6OptionINtNtB9_6thread10JoinHandleuEEE3newCseZ2WzEtypfB_15crossbeam_scope(%"std::sync::Mutex<std::option::Option<std::thread::JoinHandle<()>>>"* noalias nocapture sret dereferenceable(48) %_38, %"std::option::Option<std::thread::JoinHandle<()>>"* noalias nocapture dereferenceable(32) %_39)
          to label %bb16 unwind label %cleanup11, !dbg !1314

bb16:                                             ; preds = %bb15
; invoke <alloc::sync::Arc<std::sync::mutex::Mutex<core::option::Option<std::thread::JoinHandle<()>>>>>::new
  %handle12 = invoke nonnull i64* @_RNvMsa_NtCs8RW06R9lH2S_5alloc4syncINtB5_3ArcINtNtNtCs2bNvlddUlXM_3std4sync5mutex5MutexINtNtCs3p84KrD9aKt_4core6option6OptionINtNtBN_6thread10JoinHandleuEEEE3newCseZ2WzEtypfB_15crossbeam_scope(%"std::sync::Mutex<std::option::Option<std::thread::JoinHandle<()>>>"* noalias nocapture dereferenceable(48) %_38)
          to label %bb17 unwind label %cleanup11, !dbg !1315

bb17:                                             ; preds = %bb16
  store i64* %handle12, i64** %handle.dbg.spill, align 8, !dbg !1315
  call void @llvm.dbg.declare(metadata i64** %handle.dbg.spill, metadata !1261, metadata !DIExpression()), !dbg !1316
  %_42 = load i64*, i64** %thread3, align 8, !dbg !1317, !nonnull !4
  %79 = bitcast { i64*, i64* }* %_6 to i64**, !dbg !1318
  store i64* %handle12, i64** %79, align 8, !dbg !1318
  %80 = getelementptr inbounds { i64*, i64* }, { i64*, i64* }* %_6, i32 0, i32 1, !dbg !1318
  store i64* %_42, i64** %80, align 8, !dbg !1318
  store i8 0, i8* %_59, align 1, !dbg !1309
  store i8 0, i8* %_60, align 1, !dbg !1310
  %81 = bitcast { i64*, i64* }* %_6 to i64**, !dbg !1319
  %82 = load i64*, i64** %81, align 8, !dbg !1319, !nonnull !4
  store i64* %82, i64** %handle, align 8, !dbg !1319
  %83 = getelementptr inbounds { i64*, i64* }, { i64*, i64* }* %_6, i32 0, i32 1, !dbg !1320
  %84 = load i64*, i64** %83, align 8, !dbg !1320, !nonnull !4
  store i64* %84, i64** %thread, align 8, !dbg !1320
  %85 = bitcast %"crossbeam::thread::ScopedThreadBuilder"* %self to { i64*, i64* }**, !dbg !1321
  %86 = load { i64*, i64* }*, { i64*, i64* }** %85, align 8, !dbg !1321, !nonnull !4
  %_51 = bitcast { i64*, i64* }* %86 to i64**, !dbg !1321
; invoke <alloc::sync::Arc<std::sync::mutex::Mutex<alloc::vec::Vec<alloc::sync::Arc<std::sync::mutex::Mutex<core::option::Option<std::thread::JoinHandle<()>>>>>>> as core::ops::deref::Deref>::deref
  %_50 = invoke align 8 dereferenceable(40) %"std::sync::Mutex<std::vec::Vec<std::sync::Arc<std::sync::Mutex<std::option::Option<std::thread::JoinHandle<()>>>>>>"* @_RNvXsl_NtCs8RW06R9lH2S_5alloc4syncINtB5_3ArcINtNtNtCs2bNvlddUlXM_3std4sync5mutex5MutexINtNtB7_3vec3VecIBx_IBH_INtNtCs3p84KrD9aKt_4core6option6OptionINtNtBN_6thread10JoinHandleuEEEEEEENtNtNtB1P_3ops5deref5Deref5derefCseZ2WzEtypfB_15crossbeam_scope(i64** noalias readonly align 8 dereferenceable(8) %_51)
          to label %bb18 unwind label %cleanup13, !dbg !1321

bb18:                                             ; preds = %bb17
; invoke <std::sync::mutex::Mutex<alloc::vec::Vec<alloc::sync::Arc<std::sync::mutex::Mutex<core::option::Option<std::thread::JoinHandle<()>>>>>>>::lock
  invoke void @_RNvMs3_NtNtCs2bNvlddUlXM_3std4sync5mutexINtB5_5MutexINtNtCs8RW06R9lH2S_5alloc3vec3VecINtNtBT_4sync3ArcIBD_INtNtCs3p84KrD9aKt_4core6option6OptionINtNtB9_6thread10JoinHandleuEEEEEE4lockCseZ2WzEtypfB_15crossbeam_scope(%"std::result::Result<std::sync::MutexGuard<std::vec::Vec<std::sync::Arc<std::sync::Mutex<std::option::Option<std::thread::JoinHandle<()>>>>>>, std::sync::PoisonError<std::sync::MutexGuard<std::vec::Vec<std::sync::Arc<std::sync::Mutex<std::option::Option<std::thread::JoinHandle<()>>>>>>>>"* noalias nocapture sret dereferenceable(24) %_48, %"std::sync::Mutex<std::vec::Vec<std::sync::Arc<std::sync::Mutex<std::option::Option<std::thread::JoinHandle<()>>>>>>"* align 8 dereferenceable(40) %_50)
          to label %bb19 unwind label %cleanup13, !dbg !1321

bb19:                                             ; preds = %bb18
; invoke <core::result::Result<std::sync::mutex::MutexGuard<alloc::vec::Vec<alloc::sync::Arc<std::sync::mutex::Mutex<core::option::Option<std::thread::JoinHandle<()>>>>>>, std::sys_common::poison::PoisonError<std::sync::mutex::MutexGuard<alloc::vec::Vec<alloc::sync::Arc<std::sync::mutex::Mutex<core::option::Option<std::thread::JoinHandle<()>>>>>>>>>::unwrap
  %87 = invoke { i64*, i8 } @_RNvMs3_NtCs3p84KrD9aKt_4core6resultINtB5_6ResultINtNtNtCs2bNvlddUlXM_3std4sync5mutex10MutexGuardINtNtCs8RW06R9lH2S_5alloc3vec3VecINtNtB1B_4sync3ArcINtBN_5MutexINtNtB7_6option6OptionINtNtBR_6thread10JoinHandleuEEEEEEINtNtNtBR_10sys_common6poison11PoisonErrorBK_EE6unwrapCseZ2WzEtypfB_15crossbeam_scope(%"std::result::Result<std::sync::MutexGuard<std::vec::Vec<std::sync::Arc<std::sync::Mutex<std::option::Option<std::thread::JoinHandle<()>>>>>>, std::sync::PoisonError<std::sync::MutexGuard<std::vec::Vec<std::sync::Arc<std::sync::Mutex<std::option::Option<std::thread::JoinHandle<()>>>>>>>>"* noalias nocapture dereferenceable(24) %_48, %"std::panic::Location"* noalias readonly align 8 dereferenceable(24) bitcast (<{ i8*, [16 x i8] }>* @alloc63 to %"std::panic::Location"*))
          to label %bb20 unwind label %cleanup13, !dbg !1321

bb20:                                             ; preds = %bb19
  store { i64*, i8 } %87, { i64*, i8 }* %_47, align 8, !dbg !1321
; invoke <std::sync::mutex::MutexGuard<alloc::vec::Vec<alloc::sync::Arc<std::sync::mutex::Mutex<core::option::Option<std::thread::JoinHandle<()>>>>>> as core::ops::deref::DerefMut>::deref_mut
  %_45 = invoke align 8 dereferenceable(24) %"std::vec::Vec<std::sync::Arc<std::sync::Mutex<std::option::Option<std::thread::JoinHandle<()>>>>>"* @_RNvXs9_NtNtCs2bNvlddUlXM_3std4sync5mutexINtB5_10MutexGuardINtNtCs8RW06R9lH2S_5alloc3vec3VecINtNtBZ_4sync3ArcINtB5_5MutexINtNtCs3p84KrD9aKt_4core6option6OptionINtNtB9_6thread10JoinHandleuEEEEEENtNtNtB1Z_3ops5deref8DerefMut9deref_mutCseZ2WzEtypfB_15crossbeam_scope({ i64*, i8 }* align 8 dereferenceable(16) %_47)
          to label %bb21 unwind label %cleanup14, !dbg !1321

bb21:                                             ; preds = %bb20
; invoke <alloc::sync::Arc<std::sync::mutex::Mutex<core::option::Option<std::thread::JoinHandle<()>>>> as core::clone::Clone>::clone
  %_52 = invoke nonnull i64* @_RNvXsk_NtCs8RW06R9lH2S_5alloc4syncINtB5_3ArcINtNtNtCs2bNvlddUlXM_3std4sync5mutex5MutexINtNtCs3p84KrD9aKt_4core6option6OptionINtNtBN_6thread10JoinHandleuEEEENtNtB1r_5clone5Clone5cloneCseZ2WzEtypfB_15crossbeam_scope(i64** noalias readonly align 8 dereferenceable(8) %handle)
          to label %bb22 unwind label %cleanup14, !dbg !1322

bb22:                                             ; preds = %bb21
; invoke <alloc::vec::Vec<alloc::sync::Arc<std::sync::mutex::Mutex<core::option::Option<std::thread::JoinHandle<()>>>>>>::push
  invoke void @_RNvMs_NtCs8RW06R9lH2S_5alloc3vecINtB4_3VecINtNtB6_4sync3ArcINtNtNtCs2bNvlddUlXM_3std4sync5mutex5MutexINtNtCs3p84KrD9aKt_4core6option6OptionINtNtB12_6thread10JoinHandleuEEEEE4pushCseZ2WzEtypfB_15crossbeam_scope(%"std::vec::Vec<std::sync::Arc<std::sync::Mutex<std::option::Option<std::thread::JoinHandle<()>>>>>"* align 8 dereferenceable(24) %_45, i64* nonnull %_52)
          to label %bb23 unwind label %cleanup14, !dbg !1321

bb23:                                             ; preds = %bb22
; invoke core::ptr::drop_in_place::<std::sync::mutex::MutexGuard<alloc::vec::Vec<alloc::sync::Arc<std::sync::mutex::Mutex<core::option::Option<std::thread::JoinHandle<()>>>>>>>
  invoke void @_RINvNtCs3p84KrD9aKt_4core3ptr13drop_in_placeINtNtNtCs2bNvlddUlXM_3std4sync5mutex10MutexGuardINtNtCs8RW06R9lH2S_5alloc3vec3VecINtNtB1x_4sync3ArcINtBJ_5MutexINtNtB4_6option6OptionINtNtBN_6thread10JoinHandleuEEEEEEECseZ2WzEtypfB_15crossbeam_scope({ i64*, i8 }* %_47)
          to label %bb24 unwind label %cleanup13, !dbg !1323

bb24:                                             ; preds = %bb23
  %_56 = load i64*, i64** %handle, align 8, !dbg !1324, !nonnull !4
  %_57 = load i64*, i64** %result, align 8, !dbg !1325, !nonnull !4
  %_58 = load i64*, i64** %thread, align 8, !dbg !1326, !nonnull !4
  %88 = bitcast %"crossbeam::thread::ScopedJoinHandle<()>"* %_55 to i64**, !dbg !1327
  store i64* %_56, i64** %88, align 8, !dbg !1327
  %89 = getelementptr inbounds %"crossbeam::thread::ScopedJoinHandle<()>", %"crossbeam::thread::ScopedJoinHandle<()>"* %_55, i32 0, i32 5, !dbg !1327
  store i64* %_57, i64** %89, align 8, !dbg !1327
  %90 = getelementptr inbounds %"crossbeam::thread::ScopedJoinHandle<()>", %"crossbeam::thread::ScopedJoinHandle<()>"* %_55, i32 0, i32 7, !dbg !1327
  store i64* %_58, i64** %90, align 8, !dbg !1327
  %91 = bitcast %"crossbeam::thread::ScopedJoinHandle<()>"* %_55 to %"std::marker::PhantomData<&()>"*, !dbg !1327
  %92 = bitcast %"std::result::Result<crossbeam::thread::ScopedJoinHandle<()>, std::io::Error>"* %0 to %"std::result::Result<crossbeam::thread::ScopedJoinHandle<()>, std::io::Error>::Ok"*, !dbg !1328
  %93 = getelementptr inbounds %"std::result::Result<crossbeam::thread::ScopedJoinHandle<()>, std::io::Error>::Ok", %"std::result::Result<crossbeam::thread::ScopedJoinHandle<()>, std::io::Error>::Ok"* %92, i32 0, i32 1, !dbg !1328
  %94 = bitcast %"crossbeam::thread::ScopedJoinHandle<()>"* %93 to i8*, !dbg !1328
  %95 = bitcast %"crossbeam::thread::ScopedJoinHandle<()>"* %_55 to i8*, !dbg !1328
  call void @llvm.memcpy.p0i8.p0i8.i64(i8* align 8 %94, i8* align 8 %95, i64 24, i1 false), !dbg !1328
  %96 = bitcast %"std::result::Result<crossbeam::thread::ScopedJoinHandle<()>, std::io::Error>"* %0 to i64*, !dbg !1328
  store i64 0, i64* %96, align 8, !dbg !1328
  br label %bb26, !dbg !1311

bb25:                                             ; preds = %bb13
  br label %bb26, !dbg !1311

bb26:                                             ; preds = %bb24, %bb25
  ret void, !dbg !1329

bb27:                                             ; preds = %cleanup9
; call core::ptr::drop_in_place::<core::result::Result<crossbeam_utils::thread::ScopedJoinHandle<()>, std::io::error::Error>>
  call void @_RINvNtCs3p84KrD9aKt_4core3ptr13drop_in_placeINtNtB4_6result6ResultINtNtCs48Yq53b35jF_15crossbeam_utils6thread16ScopedJoinHandleuENtNtNtCs2bNvlddUlXM_3std2io5error5ErrorEECseZ2WzEtypfB_15crossbeam_scope(%"std::result::Result<crossbeam::thread::ScopedJoinHandle<()>, std::io::Error>"* %0) #15, !dbg !1311
  br label %bb35, !dbg !1311

bb28:                                             ; preds = %cleanup14
; call core::ptr::drop_in_place::<std::sync::mutex::MutexGuard<alloc::vec::Vec<alloc::sync::Arc<std::sync::mutex::Mutex<core::option::Option<std::thread::JoinHandle<()>>>>>>>
  call void @_RINvNtCs3p84KrD9aKt_4core3ptr13drop_in_placeINtNtNtCs2bNvlddUlXM_3std4sync5mutex10MutexGuardINtNtCs8RW06R9lH2S_5alloc3vec3VecINtNtB1x_4sync3ArcINtBJ_5MutexINtNtB4_6option6OptionINtNtBN_6thread10JoinHandleuEEEEEEECseZ2WzEtypfB_15crossbeam_scope({ i64*, i8 }* %_47) #15, !dbg !1323
  br label %bb29, !dbg !1323

bb29:                                             ; preds = %bb28, %cleanup13
; call core::ptr::drop_in_place::<std::thread::Thread>
  call void @_RINvNtCs3p84KrD9aKt_4core3ptr13drop_in_placeNtNtCs2bNvlddUlXM_3std6thread6ThreadECs48Yq53b35jF_15crossbeam_utils(i64** %thread) #15, !dbg !1330
  br label %bb30, !dbg !1330

bb30:                                             ; preds = %bb29
; call core::ptr::drop_in_place::<alloc::sync::Arc<std::sync::mutex::Mutex<core::option::Option<std::thread::JoinHandle<()>>>>>
  call void @_RINvNtCs3p84KrD9aKt_4core3ptr13drop_in_placeINtNtCs8RW06R9lH2S_5alloc4sync3ArcINtNtNtCs2bNvlddUlXM_3std4sync5mutex5MutexINtNtB4_6option6OptionINtNtB1l_6thread10JoinHandleuEEEEECseZ2WzEtypfB_15crossbeam_scope(i64** %handle) #15, !dbg !1330
  br label %bb33, !dbg !1330

bb31:                                             ; preds = %cleanup11
; call core::ptr::drop_in_place::<std::thread::Thread>
  call void @_RINvNtCs3p84KrD9aKt_4core3ptr13drop_in_placeNtNtCs2bNvlddUlXM_3std6thread6ThreadECs48Yq53b35jF_15crossbeam_utils(i64** %thread3) #15, !dbg !1331
  br label %bb37, !dbg !1331

bb32:                                             ; preds = %cleanup6
; call core::ptr::drop_in_place::<alloc::sync::Arc<std::sync::mutex::Mutex<alloc::vec::Vec<alloc::sync::Arc<std::sync::mutex::Mutex<core::option::Option<std::thread::JoinHandle<()>>>>>>>>
  call void @_RINvNtCs3p84KrD9aKt_4core3ptr13drop_in_placeINtNtCs8RW06R9lH2S_5alloc4sync3ArcINtNtNtCs2bNvlddUlXM_3std4sync5mutex5MutexINtNtBL_3vec3VecIBH_IB1f_INtNtB4_6option6OptionINtNtB1l_6thread10JoinHandleuEEEEEEEECseZ2WzEtypfB_15crossbeam_scope(i64** %_11) #15, !dbg !1332
  br label %bb40, !dbg !1332

bb33:                                             ; preds = %bb30, %bb39, %bb40, %cleanup4
; call core::ptr::drop_in_place::<alloc::sync::Arc<std::sync::mutex::Mutex<core::option::Option<()>>>>
  call void @_RINvNtCs3p84KrD9aKt_4core3ptr13drop_in_placeINtNtCs8RW06R9lH2S_5alloc4sync3ArcINtNtNtCs2bNvlddUlXM_3std4sync5mutex5MutexINtNtB4_6option6OptionuEEEECseZ2WzEtypfB_15crossbeam_scope(i64** %result) #15, !dbg !1311
  br label %bb42, !dbg !1311

bb34:                                             ; preds = %bb41, %bb42
  %97 = load i8, i8* %_62, align 1, !dbg !1311, !range !850
  %98 = trunc i8 %97 to i1, !dbg !1311
  br i1 %98, label %bb43, label %bb35, !dbg !1311

bb35:                                             ; preds = %bb43, %bb34, %bb27
  %99 = bitcast { i8*, i32 }* %3 to i8**, !dbg !1333
  %100 = load i8*, i8** %99, align 8, !dbg !1333
  %101 = getelementptr inbounds { i8*, i32 }, { i8*, i32 }* %3, i32 0, i32 1, !dbg !1333
  %102 = load i32, i32* %101, align 8, !dbg !1333
  %103 = insertvalue { i8*, i32 } undef, i8* %100, 0, !dbg !1333
  %104 = insertvalue { i8*, i32 } %103, i32 %102, 1, !dbg !1333
  resume { i8*, i32 } %104, !dbg !1333

bb36:                                             ; preds = %bb37
; call core::ptr::drop_in_place::<std::thread::JoinHandle<()>>
  call void @_RINvNtCs3p84KrD9aKt_4core3ptr13drop_in_placeINtNtCs2bNvlddUlXM_3std6thread10JoinHandleuEECseZ2WzEtypfB_15crossbeam_scope(%"std::thread::JoinHandle<()>"* %handle2) #15, !dbg !1309
  br label %bb40, !dbg !1309

bb37:                                             ; preds = %bb31, %cleanup10
  %105 = load i8, i8* %_59, align 1, !dbg !1309, !range !850
  %106 = trunc i8 %105 to i1, !dbg !1309
  br i1 %106, label %bb36, label %bb40, !dbg !1309

bb38:                                             ; preds = %cleanup8
  br label %bb40, !dbg !1334

bb39:                                             ; preds = %bb40
; call core::ptr::drop_in_place::<alloc::sync::Arc<std::sync::mutex::Mutex<core::option::Option<()>>>>
  call void @_RINvNtCs3p84KrD9aKt_4core3ptr13drop_in_placeINtNtCs8RW06R9lH2S_5alloc4sync3ArcINtNtNtCs2bNvlddUlXM_3std4sync5mutex5MutexINtNtB4_6option6OptionuEEEECseZ2WzEtypfB_15crossbeam_scope(i64** %result1) #15, !dbg !1310
  br label %bb33, !dbg !1310

bb40:                                             ; preds = %bb36, %bb37, %bb38, %bb32, %cleanup5
  %107 = load i8, i8* %_60, align 1, !dbg !1310, !range !850
  %108 = trunc i8 %107 to i1, !dbg !1310
  br i1 %108, label %bb39, label %bb33, !dbg !1310

bb41:                                             ; preds = %bb42
  br label %bb34, !dbg !1311

bb42:                                             ; preds = %bb33, %cleanup
  %109 = load i8, i8* %_61, align 1, !dbg !1311, !range !850
  %110 = trunc i8 %109 to i1, !dbg !1311
  br i1 %110, label %bb41, label %bb34, !dbg !1311

bb43:                                             ; preds = %bb34
  %111 = getelementptr inbounds %"crossbeam::thread::ScopedThreadBuilder", %"crossbeam::thread::ScopedThreadBuilder"* %self, i32 0, i32 3, !dbg !1311
; call core::ptr::drop_in_place::<std::thread::Builder>
  call void @_RINvNtCs3p84KrD9aKt_4core3ptr13drop_in_placeNtNtCs2bNvlddUlXM_3std6thread7BuilderECseZ2WzEtypfB_15crossbeam_scope(%"std::thread::Builder"* %111) #15, !dbg !1311
  br label %bb35, !dbg !1311

cleanup:                                          ; preds = %start
  %112 = landingpad { i8*, i32 }
          cleanup
  %113 = extractvalue { i8*, i32 } %112, 0
  %114 = extractvalue { i8*, i32 } %112, 1
  %115 = getelementptr inbounds { i8*, i32 }, { i8*, i32 }* %3, i32 0, i32 0
  store i8* %113, i8** %115, align 8
  %116 = getelementptr inbounds { i8*, i32 }, { i8*, i32 }* %3, i32 0, i32 1
  store i32 %114, i32* %116, align 8
  br label %bb42

cleanup4:                                         ; preds = %bb1
  %117 = landingpad { i8*, i32 }
          cleanup
  %118 = extractvalue { i8*, i32 } %117, 0
  %119 = extractvalue { i8*, i32 } %117, 1
  %120 = getelementptr inbounds { i8*, i32 }, { i8*, i32 }* %3, i32 0, i32 0
  store i8* %118, i8** %120, align 8
  %121 = getelementptr inbounds { i8*, i32 }, { i8*, i32 }* %3, i32 0, i32 1
  store i32 %119, i32* %121, align 8
  br label %bb33

cleanup5:                                         ; preds = %bb4, %bb7, %bb6, %bb2
  %122 = landingpad { i8*, i32 }
          cleanup
  %123 = extractvalue { i8*, i32 } %122, 0
  %124 = extractvalue { i8*, i32 } %122, 1
  %125 = getelementptr inbounds { i8*, i32 }, { i8*, i32 }* %3, i32 0, i32 0
  store i8* %123, i8** %125, align 8
  %126 = getelementptr inbounds { i8*, i32 }, { i8*, i32 }* %3, i32 0, i32 1
  store i32 %124, i32* %126, align 8
  br label %bb40

cleanup6:                                         ; preds = %bb3
  %127 = landingpad { i8*, i32 }
          cleanup
  %128 = extractvalue { i8*, i32 } %127, 0
  %129 = extractvalue { i8*, i32 } %127, 1
  %130 = getelementptr inbounds { i8*, i32 }, { i8*, i32 }* %3, i32 0, i32 0
  store i8* %128, i8** %130, align 8
  %131 = getelementptr inbounds { i8*, i32 }, { i8*, i32 }* %3, i32 0, i32 1
  store i32 %129, i32* %131, align 8
  br label %bb32

cleanup8:                                         ; preds = %bb12, %bb11
  %132 = landingpad { i8*, i32 }
          cleanup
  %133 = extractvalue { i8*, i32 } %132, 0
  %134 = extractvalue { i8*, i32 } %132, 1
  %135 = getelementptr inbounds { i8*, i32 }, { i8*, i32 }* %3, i32 0, i32 0
  store i8* %133, i8** %135, align 8
  %136 = getelementptr inbounds { i8*, i32 }, { i8*, i32 }* %3, i32 0, i32 1
  store i32 %134, i32* %136, align 8
  br label %bb38

cleanup9:                                         ; preds = %bb13
  %137 = landingpad { i8*, i32 }
          cleanup
  %138 = extractvalue { i8*, i32 } %137, 0
  %139 = extractvalue { i8*, i32 } %137, 1
  %140 = getelementptr inbounds { i8*, i32 }, { i8*, i32 }* %3, i32 0, i32 0
  store i8* %138, i8** %140, align 8
  %141 = getelementptr inbounds { i8*, i32 }, { i8*, i32 }* %3, i32 0, i32 1
  store i32 %139, i32* %141, align 8
  br label %bb27

cleanup10:                                        ; preds = %bb14, %bb9
  %142 = landingpad { i8*, i32 }
          cleanup
  %143 = extractvalue { i8*, i32 } %142, 0
  %144 = extractvalue { i8*, i32 } %142, 1
  %145 = getelementptr inbounds { i8*, i32 }, { i8*, i32 }* %3, i32 0, i32 0
  store i8* %143, i8** %145, align 8
  %146 = getelementptr inbounds { i8*, i32 }, { i8*, i32 }* %3, i32 0, i32 1
  store i32 %144, i32* %146, align 8
  br label %bb37

cleanup11:                                        ; preds = %bb16, %bb15
  %147 = landingpad { i8*, i32 }
          cleanup
  %148 = extractvalue { i8*, i32 } %147, 0
  %149 = extractvalue { i8*, i32 } %147, 1
  %150 = getelementptr inbounds { i8*, i32 }, { i8*, i32 }* %3, i32 0, i32 0
  store i8* %148, i8** %150, align 8
  %151 = getelementptr inbounds { i8*, i32 }, { i8*, i32 }* %3, i32 0, i32 1
  store i32 %149, i32* %151, align 8
  br label %bb31

cleanup13:                                        ; preds = %bb23, %bb19, %bb18, %bb17
  %152 = landingpad { i8*, i32 }
          cleanup
  %153 = extractvalue { i8*, i32 } %152, 0
  %154 = extractvalue { i8*, i32 } %152, 1
  %155 = getelementptr inbounds { i8*, i32 }, { i8*, i32 }* %3, i32 0, i32 0
  store i8* %153, i8** %155, align 8
  %156 = getelementptr inbounds { i8*, i32 }, { i8*, i32 }* %3, i32 0, i32 1
  store i32 %154, i32* %156, align 8
  br label %bb29

cleanup14:                                        ; preds = %bb22, %bb21, %bb20
  %157 = landingpad { i8*, i32 }
          cleanup
  %158 = extractvalue { i8*, i32 } %157, 0
  %159 = extractvalue { i8*, i32 } %157, 1
  %160 = getelementptr inbounds { i8*, i32 }, { i8*, i32 }* %3, i32 0, i32 0
  store i8* %158, i8** %160, align 8
  %161 = getelementptr inbounds { i8*, i32 }, { i8*, i32 }* %3, i32 0, i32 1
  store i32 %159, i32* %161, align 8
  br label %bb28
}

; <core::ptr::unique::Unique<dyn core::ops::function::FnOnce<(), Output = ()> + core::marker::Send>>::cast::<u8>
; Function Attrs: inlinehint nonlazybind uwtable
define internal nonnull i8* @_RINvMs1_NtNtCs3p84KrD9aKt_4core3ptr6uniqueINtB6_6UniqueDINtNtNtBa_3ops8function6FnOnceuEp6OutputuNtNtBa_6marker4SendEL_E4casthECseZ2WzEtypfB_15crossbeam_scope(i8* nonnull %self.0, i64* noalias readonly align 8 dereferenceable(24) %self.1) unnamed_addr #1 !dbg !1335 {
start:
  %self.dbg.spill = alloca { i8*, i64* }, align 8
  %0 = getelementptr inbounds { i8*, i64* }, { i8*, i64* }* %self.dbg.spill, i32 0, i32 0
  store i8* %self.0, i8** %0, align 8
  %1 = getelementptr inbounds { i8*, i64* }, { i8*, i64* }* %self.dbg.spill, i32 0, i32 1
  store i64* %self.1, i64** %1, align 8
  call void @llvm.dbg.declare(metadata { i8*, i64* }* %self.dbg.spill, metadata !1350, metadata !DIExpression()), !dbg !1353
; call <core::ptr::unique::Unique<dyn core::ops::function::FnOnce<(), Output = ()> + core::marker::Send>>::as_ptr
  %2 = call { {}*, [3 x i64]* } @_RNvMs1_NtNtCs3p84KrD9aKt_4core3ptr6uniqueINtB5_6UniqueDINtNtNtB9_3ops8function6FnOnceuEp6OutputuNtNtB9_6marker4SendEL_E6as_ptrCseZ2WzEtypfB_15crossbeam_scope(i8* nonnull %self.0, i64* noalias readonly align 8 dereferenceable(24) %self.1), !dbg !1354
  %_3.0 = extractvalue { {}*, [3 x i64]* } %2, 0, !dbg !1354
  %_3.1 = extractvalue { {}*, [3 x i64]* } %2, 1, !dbg !1354
  br label %bb1, !dbg !1354

bb1:                                              ; preds = %start
  %_2 = bitcast {}* %_3.0 to i8*, !dbg !1354
; call <core::ptr::unique::Unique<u8>>::new_unchecked
  %3 = call nonnull i8* @_RNvMs1_NtNtCs3p84KrD9aKt_4core3ptr6uniqueINtB5_6UniquehE13new_uncheckedCs48Yq53b35jF_15crossbeam_utils(i8* %_2), !dbg !1355
  br label %bb2, !dbg !1355

bb2:                                              ; preds = %bb1
  ret i8* %3, !dbg !1356
}

; <core::ptr::unique::Unique<dyn std::error::Error + core::marker::Send + core::marker::Sync>>::cast::<u8>
; Function Attrs: inlinehint nonlazybind uwtable
define internal nonnull i8* @_RINvMs1_NtNtCs3p84KrD9aKt_4core3ptr6uniqueINtB6_6UniqueDNtNtCs2bNvlddUlXM_3std5error5ErrorNtNtBa_6marker4SendNtB1s_4SyncEL_E4casthECseZ2WzEtypfB_15crossbeam_scope(i8* nonnull %self.0, i64* noalias readonly align 8 dereferenceable(24) %self.1) unnamed_addr #1 !dbg !1357 {
start:
  %self.dbg.spill = alloca { i8*, i64* }, align 8
  %0 = getelementptr inbounds { i8*, i64* }, { i8*, i64* }* %self.dbg.spill, i32 0, i32 0
  store i8* %self.0, i8** %0, align 8
  %1 = getelementptr inbounds { i8*, i64* }, { i8*, i64* }* %self.dbg.spill, i32 0, i32 1
  store i64* %self.1, i64** %1, align 8
  call void @llvm.dbg.declare(metadata { i8*, i64* }* %self.dbg.spill, metadata !1371, metadata !DIExpression()), !dbg !1373
; call <core::ptr::unique::Unique<dyn std::error::Error + core::marker::Send + core::marker::Sync>>::as_ptr
  %2 = call { {}*, [3 x i64]* } @_RNvMs1_NtNtCs3p84KrD9aKt_4core3ptr6uniqueINtB5_6UniqueDNtNtCs2bNvlddUlXM_3std5error5ErrorNtNtB9_6marker4SendNtB1r_4SyncEL_E6as_ptrCseZ2WzEtypfB_15crossbeam_scope(i8* nonnull %self.0, i64* noalias readonly align 8 dereferenceable(24) %self.1), !dbg !1374
  %_3.0 = extractvalue { {}*, [3 x i64]* } %2, 0, !dbg !1374
  %_3.1 = extractvalue { {}*, [3 x i64]* } %2, 1, !dbg !1374
  br label %bb1, !dbg !1374

bb1:                                              ; preds = %start
  %_2 = bitcast {}* %_3.0 to i8*, !dbg !1374
; call <core::ptr::unique::Unique<u8>>::new_unchecked
  %3 = call nonnull i8* @_RNvMs1_NtNtCs3p84KrD9aKt_4core3ptr6uniqueINtB5_6UniquehE13new_uncheckedCs48Yq53b35jF_15crossbeam_utils(i8* %_2), !dbg !1375
  br label %bb2, !dbg !1375

bb2:                                              ; preds = %bb1
  ret i8* %3, !dbg !1376
}

; <core::ptr::unique::Unique<alloc::sync::Arc<std::sync::mutex::Mutex<core::option::Option<std::thread::JoinHandle<()>>>>>>::cast::<u8>
; Function Attrs: inlinehint nonlazybind uwtable
define internal nonnull i8* @_RINvMs1_NtNtCs3p84KrD9aKt_4core3ptr6uniqueINtB6_6UniqueINtNtCs8RW06R9lH2S_5alloc4sync3ArcINtNtNtCs2bNvlddUlXM_3std4sync5mutex5MutexINtNtBa_6option6OptionINtNtB1w_6thread10JoinHandleuEEEEE4casthECseZ2WzEtypfB_15crossbeam_scope(i64* nonnull %self) unnamed_addr #1 !dbg !1377 {
start:
  %self.dbg.spill = alloca i64*, align 8
  store i64* %self, i64** %self.dbg.spill, align 8
  call void @llvm.dbg.declare(metadata i64** %self.dbg.spill, metadata !1381, metadata !DIExpression()), !dbg !1383
; call <core::ptr::unique::Unique<alloc::sync::Arc<std::sync::mutex::Mutex<core::option::Option<std::thread::JoinHandle<()>>>>>>::as_ptr
  %_3 = call i64** @_RNvMs1_NtNtCs3p84KrD9aKt_4core3ptr6uniqueINtB5_6UniqueINtNtCs8RW06R9lH2S_5alloc4sync3ArcINtNtNtCs2bNvlddUlXM_3std4sync5mutex5MutexINtNtB9_6option6OptionINtNtB1v_6thread10JoinHandleuEEEEE6as_ptrCseZ2WzEtypfB_15crossbeam_scope(i64* nonnull %self), !dbg !1384
  br label %bb1, !dbg !1384

bb1:                                              ; preds = %start
  %_2 = bitcast i64** %_3 to i8*, !dbg !1384
; call <core::ptr::unique::Unique<u8>>::new_unchecked
  %0 = call nonnull i8* @_RNvMs1_NtNtCs3p84KrD9aKt_4core3ptr6uniqueINtB5_6UniquehE13new_uncheckedCs48Yq53b35jF_15crossbeam_utils(i8* %_2), !dbg !1385
  br label %bb2, !dbg !1385

bb2:                                              ; preds = %bb1
  ret i8* %0, !dbg !1386
}

; <core::ptr::unique::Unique<alloc::sync::ArcInner<core::cell::UnsafeCell<core::option::Option<core::result::Result<(), alloc::boxed::Box<dyn core::any::Any + core::marker::Send>>>>>>>::cast::<u8>
; Function Attrs: inlinehint nonlazybind uwtable
define internal nonnull i8* @_RINvMs1_NtNtCs3p84KrD9aKt_4core3ptr6uniqueINtB6_6UniqueINtNtCs8RW06R9lH2S_5alloc4sync8ArcInnerINtNtBa_4cell10UnsafeCellINtNtBa_6option6OptionINtNtBa_6result6ResultuINtNtBW_5boxed3BoxDNtNtBa_3any3AnyNtNtBa_6marker4SendEL_EEEEEE4casthECseZ2WzEtypfB_15crossbeam_scope(i64* nonnull %self) unnamed_addr #1 !dbg !1387 {
start:
  %self.dbg.spill = alloca i64*, align 8
  store i64* %self, i64** %self.dbg.spill, align 8
  call void @llvm.dbg.declare(metadata i64** %self.dbg.spill, metadata !1395, metadata !DIExpression()), !dbg !1397
; call <core::ptr::unique::Unique<alloc::sync::ArcInner<core::cell::UnsafeCell<core::option::Option<core::result::Result<(), alloc::boxed::Box<dyn core::any::Any + core::marker::Send>>>>>>>::as_ptr
  %_3 = call %"alloc::sync::ArcInner<std::cell::UnsafeCell<std::option::Option<std::result::Result<(), std::boxed::Box<dyn std::any::Any + std::marker::Send>>>>>"* @_RNvMs1_NtNtCs3p84KrD9aKt_4core3ptr6uniqueINtB5_6UniqueINtNtCs8RW06R9lH2S_5alloc4sync8ArcInnerINtNtB9_4cell10UnsafeCellINtNtB9_6option6OptionINtNtB9_6result6ResultuINtNtBV_5boxed3BoxDNtNtB9_3any3AnyNtNtB9_6marker4SendEL_EEEEEE6as_ptrCseZ2WzEtypfB_15crossbeam_scope(i64* nonnull %self), !dbg !1398
  br label %bb1, !dbg !1398

bb1:                                              ; preds = %start
  %_2 = bitcast %"alloc::sync::ArcInner<std::cell::UnsafeCell<std::option::Option<std::result::Result<(), std::boxed::Box<dyn std::any::Any + std::marker::Send>>>>>"* %_3 to i8*, !dbg !1398
; call <core::ptr::unique::Unique<u8>>::new_unchecked
  %0 = call nonnull i8* @_RNvMs1_NtNtCs3p84KrD9aKt_4core3ptr6uniqueINtB5_6UniquehE13new_uncheckedCs48Yq53b35jF_15crossbeam_utils(i8* %_2), !dbg !1399
  br label %bb2, !dbg !1399

bb2:                                              ; preds = %bb1
  ret i8* %0, !dbg !1400
}

; <core::ptr::unique::Unique<alloc::sync::ArcInner<std::sync::mutex::Mutex<alloc::vec::Vec<alloc::sync::Arc<std::sync::mutex::Mutex<core::option::Option<std::thread::JoinHandle<()>>>>>>>>>::cast::<u8>
; Function Attrs: inlinehint nonlazybind uwtable
define internal nonnull i8* @_RINvMs1_NtNtCs3p84KrD9aKt_4core3ptr6uniqueINtB6_6UniqueINtNtCs8RW06R9lH2S_5alloc4sync8ArcInnerINtNtNtCs2bNvlddUlXM_3std4sync5mutex5MutexINtNtBW_3vec3VecINtBU_3ArcIB1v_INtNtBa_6option6OptionINtNtB1B_6thread10JoinHandleuEEEEEEEE4casthECseZ2WzEtypfB_15crossbeam_scope(i64* nonnull %self) unnamed_addr #1 !dbg !1401 {
start:
  %self.dbg.spill = alloca i64*, align 8
  store i64* %self, i64** %self.dbg.spill, align 8
  call void @llvm.dbg.declare(metadata i64** %self.dbg.spill, metadata !1409, metadata !DIExpression()), !dbg !1411
; call <core::ptr::unique::Unique<alloc::sync::ArcInner<std::sync::mutex::Mutex<alloc::vec::Vec<alloc::sync::Arc<std::sync::mutex::Mutex<core::option::Option<std::thread::JoinHandle<()>>>>>>>>>::as_ptr
  %_3 = call %"alloc::sync::ArcInner<std::sync::Mutex<std::vec::Vec<std::sync::Arc<std::sync::Mutex<std::option::Option<std::thread::JoinHandle<()>>>>>>>"* @_RNvMs1_NtNtCs3p84KrD9aKt_4core3ptr6uniqueINtB5_6UniqueINtNtCs8RW06R9lH2S_5alloc4sync8ArcInnerINtNtNtCs2bNvlddUlXM_3std4sync5mutex5MutexINtNtBV_3vec3VecINtBT_3ArcIB1u_INtNtB9_6option6OptionINtNtB1A_6thread10JoinHandleuEEEEEEEE6as_ptrCseZ2WzEtypfB_15crossbeam_scope(i64* nonnull %self), !dbg !1412
  br label %bb1, !dbg !1412

bb1:                                              ; preds = %start
  %_2 = bitcast %"alloc::sync::ArcInner<std::sync::Mutex<std::vec::Vec<std::sync::Arc<std::sync::Mutex<std::option::Option<std::thread::JoinHandle<()>>>>>>>"* %_3 to i8*, !dbg !1412
; call <core::ptr::unique::Unique<u8>>::new_unchecked
  %0 = call nonnull i8* @_RNvMs1_NtNtCs3p84KrD9aKt_4core3ptr6uniqueINtB5_6UniquehE13new_uncheckedCs48Yq53b35jF_15crossbeam_utils(i8* %_2), !dbg !1413
  br label %bb2, !dbg !1413

bb2:                                              ; preds = %bb1
  ret i8* %0, !dbg !1414
}

; <core::ptr::unique::Unique<alloc::sync::ArcInner<std::sync::mutex::Mutex<core::option::Option<std::thread::JoinHandle<()>>>>>>::cast::<u8>
; Function Attrs: inlinehint nonlazybind uwtable
define internal nonnull i8* @_RINvMs1_NtNtCs3p84KrD9aKt_4core3ptr6uniqueINtB6_6UniqueINtNtCs8RW06R9lH2S_5alloc4sync8ArcInnerINtNtNtCs2bNvlddUlXM_3std4sync5mutex5MutexINtNtBa_6option6OptionINtNtB1B_6thread10JoinHandleuEEEEE4casthECseZ2WzEtypfB_15crossbeam_scope(i64* nonnull %self) unnamed_addr #1 !dbg !1415 {
start:
  %self.dbg.spill = alloca i64*, align 8
  store i64* %self, i64** %self.dbg.spill, align 8
  call void @llvm.dbg.declare(metadata i64** %self.dbg.spill, metadata !1423, metadata !DIExpression()), !dbg !1425
; call <core::ptr::unique::Unique<alloc::sync::ArcInner<std::sync::mutex::Mutex<core::option::Option<std::thread::JoinHandle<()>>>>>>::as_ptr
  %_3 = call %"alloc::sync::ArcInner<std::sync::Mutex<std::option::Option<std::thread::JoinHandle<()>>>>"* @_RNvMs1_NtNtCs3p84KrD9aKt_4core3ptr6uniqueINtB5_6UniqueINtNtCs8RW06R9lH2S_5alloc4sync8ArcInnerINtNtNtCs2bNvlddUlXM_3std4sync5mutex5MutexINtNtB9_6option6OptionINtNtB1A_6thread10JoinHandleuEEEEE6as_ptrCseZ2WzEtypfB_15crossbeam_scope(i64* nonnull %self), !dbg !1426
  br label %bb1, !dbg !1426

bb1:                                              ; preds = %start
  %_2 = bitcast %"alloc::sync::ArcInner<std::sync::Mutex<std::option::Option<std::thread::JoinHandle<()>>>>"* %_3 to i8*, !dbg !1426
; call <core::ptr::unique::Unique<u8>>::new_unchecked
  %0 = call nonnull i8* @_RNvMs1_NtNtCs3p84KrD9aKt_4core3ptr6uniqueINtB5_6UniquehE13new_uncheckedCs48Yq53b35jF_15crossbeam_utils(i8* %_2), !dbg !1427
  br label %bb2, !dbg !1427

bb2:                                              ; preds = %bb1
  ret i8* %0, !dbg !1428
}

; <core::ptr::unique::Unique<alloc::sync::ArcInner<std::sync::mutex::Mutex<core::option::Option<()>>>>>::cast::<u8>
; Function Attrs: inlinehint nonlazybind uwtable
define internal nonnull i8* @_RINvMs1_NtNtCs3p84KrD9aKt_4core3ptr6uniqueINtB6_6UniqueINtNtCs8RW06R9lH2S_5alloc4sync8ArcInnerINtNtNtCs2bNvlddUlXM_3std4sync5mutex5MutexINtNtBa_6option6OptionuEEEE4casthECseZ2WzEtypfB_15crossbeam_scope(i64* nonnull %self) unnamed_addr #1 !dbg !1429 {
start:
  %self.dbg.spill = alloca i64*, align 8
  store i64* %self, i64** %self.dbg.spill, align 8
  call void @llvm.dbg.declare(metadata i64** %self.dbg.spill, metadata !1437, metadata !DIExpression()), !dbg !1439
; call <core::ptr::unique::Unique<alloc::sync::ArcInner<std::sync::mutex::Mutex<core::option::Option<()>>>>>::as_ptr
  %_3 = call %"alloc::sync::ArcInner<std::sync::Mutex<std::option::Option<()>>>"* @_RNvMs1_NtNtCs3p84KrD9aKt_4core3ptr6uniqueINtB5_6UniqueINtNtCs8RW06R9lH2S_5alloc4sync8ArcInnerINtNtNtCs2bNvlddUlXM_3std4sync5mutex5MutexINtNtB9_6option6OptionuEEEE6as_ptrCseZ2WzEtypfB_15crossbeam_scope(i64* nonnull %self), !dbg !1440
  br label %bb1, !dbg !1440

bb1:                                              ; preds = %start
  %_2 = bitcast %"alloc::sync::ArcInner<std::sync::Mutex<std::option::Option<()>>>"* %_3 to i8*, !dbg !1440
; call <core::ptr::unique::Unique<u8>>::new_unchecked
  %0 = call nonnull i8* @_RNvMs1_NtNtCs3p84KrD9aKt_4core3ptr6uniqueINtB5_6UniquehE13new_uncheckedCs48Yq53b35jF_15crossbeam_utils(i8* %_2), !dbg !1441
  br label %bb2, !dbg !1441

bb2:                                              ; preds = %bb1
  ret i8* %0, !dbg !1442
}

; <core::ptr::unique::Unique<alloc::boxed::Box<dyn core::any::Any + core::marker::Send>>>::cast::<u8>
; Function Attrs: inlinehint nonlazybind uwtable
define internal nonnull i8* @_RINvMs1_NtNtCs3p84KrD9aKt_4core3ptr6uniqueINtB6_6UniqueINtNtCs8RW06R9lH2S_5alloc5boxed3BoxDNtNtBa_3any3AnyNtNtBa_6marker4SendEL_EE4casthECseZ2WzEtypfB_15crossbeam_scope(i64* nonnull %self) unnamed_addr #1 !dbg !1443 {
start:
  %self.dbg.spill = alloca i64*, align 8
  store i64* %self, i64** %self.dbg.spill, align 8
  call void @llvm.dbg.declare(metadata i64** %self.dbg.spill, metadata !1447, metadata !DIExpression()), !dbg !1449
; call <core::ptr::unique::Unique<alloc::boxed::Box<dyn core::any::Any + core::marker::Send>>>::as_ptr
  %_3 = call { {}*, [3 x i64]* }* @_RNvMs1_NtNtCs3p84KrD9aKt_4core3ptr6uniqueINtB5_6UniqueINtNtCs8RW06R9lH2S_5alloc5boxed3BoxDNtNtB9_3any3AnyNtNtB9_6marker4SendEL_EE6as_ptrCseZ2WzEtypfB_15crossbeam_scope(i64* nonnull %self), !dbg !1450
  br label %bb1, !dbg !1450

bb1:                                              ; preds = %start
  %_2 = bitcast { {}*, [3 x i64]* }* %_3 to i8*, !dbg !1450
; call <core::ptr::unique::Unique<u8>>::new_unchecked
  %0 = call nonnull i8* @_RNvMs1_NtNtCs3p84KrD9aKt_4core3ptr6uniqueINtB5_6UniquehE13new_uncheckedCs48Yq53b35jF_15crossbeam_utils(i8* %_2), !dbg !1451
  br label %bb2, !dbg !1451

bb2:                                              ; preds = %bb1
  ret i8* %0, !dbg !1452
}

; <core::ptr::unique::Unique<std::io::error::Custom>>::cast::<u8>
; Function Attrs: inlinehint nonlazybind uwtable
define internal nonnull i8* @_RINvMs1_NtNtCs3p84KrD9aKt_4core3ptr6uniqueINtB6_6UniqueNtNtNtCs2bNvlddUlXM_3std2io5error6CustomE4casthECseZ2WzEtypfB_15crossbeam_scope(i64* nonnull %self) unnamed_addr #1 !dbg !1453 {
start:
  %self.dbg.spill = alloca i64*, align 8
  store i64* %self, i64** %self.dbg.spill, align 8
  call void @llvm.dbg.declare(metadata i64** %self.dbg.spill, metadata !1465, metadata !DIExpression()), !dbg !1467
; call <core::ptr::unique::Unique<std::io::error::Custom>>::as_ptr
  %_3 = call %"std::io::error::Custom"* @_RNvMs1_NtNtCs3p84KrD9aKt_4core3ptr6uniqueINtB5_6UniqueNtNtNtCs2bNvlddUlXM_3std2io5error6CustomE6as_ptrCseZ2WzEtypfB_15crossbeam_scope(i64* nonnull %self), !dbg !1468
  br label %bb1, !dbg !1468

bb1:                                              ; preds = %start
  %_2 = bitcast %"std::io::error::Custom"* %_3 to i8*, !dbg !1468
; call <core::ptr::unique::Unique<u8>>::new_unchecked
  %0 = call nonnull i8* @_RNvMs1_NtNtCs3p84KrD9aKt_4core3ptr6uniqueINtB5_6UniquehE13new_uncheckedCs48Yq53b35jF_15crossbeam_utils(i8* %_2), !dbg !1469
  br label %bb2, !dbg !1469

bb2:                                              ; preds = %bb1
  ret i8* %0, !dbg !1470
}

; <core::ptr::unique::Unique<u8>>::cast::<u8>
; Function Attrs: inlinehint nonlazybind uwtable
define internal nonnull i8* @_RINvMs1_NtNtCs3p84KrD9aKt_4core3ptr6uniqueINtB6_6UniquehE4casthECseZ2WzEtypfB_15crossbeam_scope(i8* nonnull %self) unnamed_addr #1 !dbg !1471 {
start:
  %self.dbg.spill = alloca i8*, align 8
  store i8* %self, i8** %self.dbg.spill, align 8
  call void @llvm.dbg.declare(metadata i8** %self.dbg.spill, metadata !1475, metadata !DIExpression()), !dbg !1477
; call <core::ptr::unique::Unique<u8>>::as_ptr
  %_3 = call i8* @_RNvMs1_NtNtCs3p84KrD9aKt_4core3ptr6uniqueINtB5_6UniquehE6as_ptrCs48Yq53b35jF_15crossbeam_utils(i8* nonnull %self), !dbg !1478
  br label %bb1, !dbg !1478

bb1:                                              ; preds = %start
; call <core::ptr::unique::Unique<u8>>::new_unchecked
  %0 = call nonnull i8* @_RNvMs1_NtNtCs3p84KrD9aKt_4core3ptr6uniqueINtB5_6UniquehE13new_uncheckedCs48Yq53b35jF_15crossbeam_utils(i8* %_3), !dbg !1479
  br label %bb2, !dbg !1479

bb2:                                              ; preds = %bb1
  ret i8* %0, !dbg !1480
}

; <core::ptr::non_null::NonNull<alloc::sync::ArcInner<core::cell::UnsafeCell<core::option::Option<core::result::Result<(), alloc::boxed::Box<dyn core::any::Any + core::marker::Send>>>>>>>::cast::<u8>
; Function Attrs: inlinehint nonlazybind uwtable
define internal nonnull i8* @_RINvMs1_NtNtCs3p84KrD9aKt_4core3ptr8non_nullINtB6_7NonNullINtNtCs8RW06R9lH2S_5alloc4sync8ArcInnerINtNtBa_4cell10UnsafeCellINtNtBa_6option6OptionINtNtBa_6result6ResultuINtNtBZ_5boxed3BoxDNtNtBa_3any3AnyNtNtBa_6marker4SendEL_EEEEEE4casthECseZ2WzEtypfB_15crossbeam_scope(i64* nonnull %self) unnamed_addr #1 !dbg !1481 {
start:
  %self.dbg.spill = alloca i64*, align 8
  store i64* %self, i64** %self.dbg.spill, align 8
  call void @llvm.dbg.declare(metadata i64** %self.dbg.spill, metadata !1489, metadata !DIExpression()), !dbg !1490
; call <core::ptr::non_null::NonNull<alloc::sync::ArcInner<core::cell::UnsafeCell<core::option::Option<core::result::Result<(), alloc::boxed::Box<dyn core::any::Any + core::marker::Send>>>>>>>::as_ptr
  %_3 = call %"alloc::sync::ArcInner<std::cell::UnsafeCell<std::option::Option<std::result::Result<(), std::boxed::Box<dyn std::any::Any + std::marker::Send>>>>>"* @_RNvMs1_NtNtCs3p84KrD9aKt_4core3ptr8non_nullINtB5_7NonNullINtNtCs8RW06R9lH2S_5alloc4sync8ArcInnerINtNtB9_4cell10UnsafeCellINtNtB9_6option6OptionINtNtB9_6result6ResultuINtNtBY_5boxed3BoxDNtNtB9_3any3AnyNtNtB9_6marker4SendEL_EEEEEE6as_ptrCseZ2WzEtypfB_15crossbeam_scope(i64* nonnull %self), !dbg !1491
  br label %bb1, !dbg !1491

bb1:                                              ; preds = %start
  %_2 = bitcast %"alloc::sync::ArcInner<std::cell::UnsafeCell<std::option::Option<std::result::Result<(), std::boxed::Box<dyn std::any::Any + std::marker::Send>>>>>"* %_3 to i8*, !dbg !1491
; call <core::ptr::non_null::NonNull<u8>>::new_unchecked
  %0 = call nonnull i8* @_RNvMs1_NtNtCs3p84KrD9aKt_4core3ptr8non_nullINtB5_7NonNullhE13new_uncheckedCs48Yq53b35jF_15crossbeam_utils(i8* %_2), !dbg !1492
  br label %bb2, !dbg !1492

bb2:                                              ; preds = %bb1
  ret i8* %0, !dbg !1493
}

; <core::ptr::non_null::NonNull<alloc::sync::ArcInner<std::sync::mutex::Mutex<alloc::vec::Vec<alloc::sync::Arc<std::sync::mutex::Mutex<core::option::Option<std::thread::JoinHandle<()>>>>>>>>>::cast::<u8>
; Function Attrs: inlinehint nonlazybind uwtable
define internal nonnull i8* @_RINvMs1_NtNtCs3p84KrD9aKt_4core3ptr8non_nullINtB6_7NonNullINtNtCs8RW06R9lH2S_5alloc4sync8ArcInnerINtNtNtCs2bNvlddUlXM_3std4sync5mutex5MutexINtNtBZ_3vec3VecINtBX_3ArcIB1y_INtNtBa_6option6OptionINtNtB1E_6thread10JoinHandleuEEEEEEEE4casthECseZ2WzEtypfB_15crossbeam_scope(i64* nonnull %self) unnamed_addr #1 !dbg !1494 {
start:
  %self.dbg.spill = alloca i64*, align 8
  store i64* %self, i64** %self.dbg.spill, align 8
  call void @llvm.dbg.declare(metadata i64** %self.dbg.spill, metadata !1498, metadata !DIExpression()), !dbg !1499
; call <core::ptr::non_null::NonNull<alloc::sync::ArcInner<std::sync::mutex::Mutex<alloc::vec::Vec<alloc::sync::Arc<std::sync::mutex::Mutex<core::option::Option<std::thread::JoinHandle<()>>>>>>>>>::as_ptr
  %_3 = call %"alloc::sync::ArcInner<std::sync::Mutex<std::vec::Vec<std::sync::Arc<std::sync::Mutex<std::option::Option<std::thread::JoinHandle<()>>>>>>>"* @_RNvMs1_NtNtCs3p84KrD9aKt_4core3ptr8non_nullINtB5_7NonNullINtNtCs8RW06R9lH2S_5alloc4sync8ArcInnerINtNtNtCs2bNvlddUlXM_3std4sync5mutex5MutexINtNtBY_3vec3VecINtBW_3ArcIB1x_INtNtB9_6option6OptionINtNtB1D_6thread10JoinHandleuEEEEEEEE6as_ptrCseZ2WzEtypfB_15crossbeam_scope(i64* nonnull %self), !dbg !1500
  br label %bb1, !dbg !1500

bb1:                                              ; preds = %start
  %_2 = bitcast %"alloc::sync::ArcInner<std::sync::Mutex<std::vec::Vec<std::sync::Arc<std::sync::Mutex<std::option::Option<std::thread::JoinHandle<()>>>>>>>"* %_3 to i8*, !dbg !1500
; call <core::ptr::non_null::NonNull<u8>>::new_unchecked
  %0 = call nonnull i8* @_RNvMs1_NtNtCs3p84KrD9aKt_4core3ptr8non_nullINtB5_7NonNullhE13new_uncheckedCs48Yq53b35jF_15crossbeam_utils(i8* %_2), !dbg !1501
  br label %bb2, !dbg !1501

bb2:                                              ; preds = %bb1
  ret i8* %0, !dbg !1502
}

; <core::ptr::non_null::NonNull<alloc::sync::ArcInner<std::sync::mutex::Mutex<alloc::vec::Vec<u8>>>>>::cast::<u8>
; Function Attrs: inlinehint nonlazybind uwtable
define internal nonnull i8* @_RINvMs1_NtNtCs3p84KrD9aKt_4core3ptr8non_nullINtB6_7NonNullINtNtCs8RW06R9lH2S_5alloc4sync8ArcInnerINtNtNtCs2bNvlddUlXM_3std4sync5mutex5MutexINtNtBZ_3vec3VechEEEE4casthECseZ2WzEtypfB_15crossbeam_scope(i64* nonnull %self) unnamed_addr #1 !dbg !1503 {
start:
  %self.dbg.spill = alloca i64*, align 8
  store i64* %self, i64** %self.dbg.spill, align 8
  call void @llvm.dbg.declare(metadata i64** %self.dbg.spill, metadata !1507, metadata !DIExpression()), !dbg !1509
; call <core::ptr::non_null::NonNull<alloc::sync::ArcInner<std::sync::mutex::Mutex<alloc::vec::Vec<u8>>>>>::as_ptr
  %_3 = call %"alloc::sync::ArcInner<std::sync::Mutex<std::vec::Vec<u8>>>"* @_RNvMs1_NtNtCs3p84KrD9aKt_4core3ptr8non_nullINtB5_7NonNullINtNtCs8RW06R9lH2S_5alloc4sync8ArcInnerINtNtNtCs2bNvlddUlXM_3std4sync5mutex5MutexINtNtBY_3vec3VechEEEE6as_ptrCseZ2WzEtypfB_15crossbeam_scope(i64* nonnull %self), !dbg !1510
  br label %bb1, !dbg !1510

bb1:                                              ; preds = %start
  %_2 = bitcast %"alloc::sync::ArcInner<std::sync::Mutex<std::vec::Vec<u8>>>"* %_3 to i8*, !dbg !1510
; call <core::ptr::non_null::NonNull<u8>>::new_unchecked
  %0 = call nonnull i8* @_RNvMs1_NtNtCs3p84KrD9aKt_4core3ptr8non_nullINtB5_7NonNullhE13new_uncheckedCs48Yq53b35jF_15crossbeam_utils(i8* %_2), !dbg !1511
  br label %bb2, !dbg !1511

bb2:                                              ; preds = %bb1
  ret i8* %0, !dbg !1512
}

; <core::ptr::non_null::NonNull<alloc::sync::ArcInner<std::sync::mutex::Mutex<core::option::Option<std::thread::JoinHandle<()>>>>>>::cast::<u8>
; Function Attrs: inlinehint nonlazybind uwtable
define internal nonnull i8* @_RINvMs1_NtNtCs3p84KrD9aKt_4core3ptr8non_nullINtB6_7NonNullINtNtCs8RW06R9lH2S_5alloc4sync8ArcInnerINtNtNtCs2bNvlddUlXM_3std4sync5mutex5MutexINtNtBa_6option6OptionINtNtB1E_6thread10JoinHandleuEEEEE4casthECseZ2WzEtypfB_15crossbeam_scope(i64* nonnull %self) unnamed_addr #1 !dbg !1513 {
start:
  %self.dbg.spill = alloca i64*, align 8
  store i64* %self, i64** %self.dbg.spill, align 8
  call void @llvm.dbg.declare(metadata i64** %self.dbg.spill, metadata !1517, metadata !DIExpression()), !dbg !1518
; call <core::ptr::non_null::NonNull<alloc::sync::ArcInner<std::sync::mutex::Mutex<core::option::Option<std::thread::JoinHandle<()>>>>>>::as_ptr
  %_3 = call %"alloc::sync::ArcInner<std::sync::Mutex<std::option::Option<std::thread::JoinHandle<()>>>>"* @_RNvMs1_NtNtCs3p84KrD9aKt_4core3ptr8non_nullINtB5_7NonNullINtNtCs8RW06R9lH2S_5alloc4sync8ArcInnerINtNtNtCs2bNvlddUlXM_3std4sync5mutex5MutexINtNtB9_6option6OptionINtNtB1D_6thread10JoinHandleuEEEEE6as_ptrCseZ2WzEtypfB_15crossbeam_scope(i64* nonnull %self), !dbg !1519
  br label %bb1, !dbg !1519

bb1:                                              ; preds = %start
  %_2 = bitcast %"alloc::sync::ArcInner<std::sync::Mutex<std::option::Option<std::thread::JoinHandle<()>>>>"* %_3 to i8*, !dbg !1519
; call <core::ptr::non_null::NonNull<u8>>::new_unchecked
  %0 = call nonnull i8* @_RNvMs1_NtNtCs3p84KrD9aKt_4core3ptr8non_nullINtB5_7NonNullhE13new_uncheckedCs48Yq53b35jF_15crossbeam_utils(i8* %_2), !dbg !1520
  br label %bb2, !dbg !1520

bb2:                                              ; preds = %bb1
  ret i8* %0, !dbg !1521
}

; <core::ptr::non_null::NonNull<alloc::sync::ArcInner<std::sync::mutex::Mutex<core::option::Option<()>>>>>::cast::<u8>
; Function Attrs: inlinehint nonlazybind uwtable
define internal nonnull i8* @_RINvMs1_NtNtCs3p84KrD9aKt_4core3ptr8non_nullINtB6_7NonNullINtNtCs8RW06R9lH2S_5alloc4sync8ArcInnerINtNtNtCs2bNvlddUlXM_3std4sync5mutex5MutexINtNtBa_6option6OptionuEEEE4casthECseZ2WzEtypfB_15crossbeam_scope(i64* nonnull %self) unnamed_addr #1 !dbg !1522 {
start:
  %self.dbg.spill = alloca i64*, align 8
  store i64* %self, i64** %self.dbg.spill, align 8
  call void @llvm.dbg.declare(metadata i64** %self.dbg.spill, metadata !1526, metadata !DIExpression()), !dbg !1527
; call <core::ptr::non_null::NonNull<alloc::sync::ArcInner<std::sync::mutex::Mutex<core::option::Option<()>>>>>::as_ptr
  %_3 = call %"alloc::sync::ArcInner<std::sync::Mutex<std::option::Option<()>>>"* @_RNvMs1_NtNtCs3p84KrD9aKt_4core3ptr8non_nullINtB5_7NonNullINtNtCs8RW06R9lH2S_5alloc4sync8ArcInnerINtNtNtCs2bNvlddUlXM_3std4sync5mutex5MutexINtNtB9_6option6OptionuEEEE6as_ptrCseZ2WzEtypfB_15crossbeam_scope(i64* nonnull %self), !dbg !1528
  br label %bb1, !dbg !1528

bb1:                                              ; preds = %start
  %_2 = bitcast %"alloc::sync::ArcInner<std::sync::Mutex<std::option::Option<()>>>"* %_3 to i8*, !dbg !1528
; call <core::ptr::non_null::NonNull<u8>>::new_unchecked
  %0 = call nonnull i8* @_RNvMs1_NtNtCs3p84KrD9aKt_4core3ptr8non_nullINtB5_7NonNullhE13new_uncheckedCs48Yq53b35jF_15crossbeam_utils(i8* %_2), !dbg !1529
  br label %bb2, !dbg !1529

bb2:                                              ; preds = %bb1
  ret i8* %0, !dbg !1530
}

; <core::ptr::non_null::NonNull<[u8]>>::cast::<alloc::sync::Arc<std::sync::mutex::Mutex<core::option::Option<std::thread::JoinHandle<()>>>>>
; Function Attrs: inlinehint nonlazybind uwtable
define internal nonnull i64* @_RINvMs1_NtNtCs3p84KrD9aKt_4core3ptr8non_nullINtB6_7NonNullShE4castINtNtCs8RW06R9lH2S_5alloc4sync3ArcINtNtNtCs2bNvlddUlXM_3std4sync5mutex5MutexINtNtBa_6option6OptionINtNtB1H_6thread10JoinHandleuEEEEECseZ2WzEtypfB_15crossbeam_scope(i8* nonnull %self.0, i64 %self.1) unnamed_addr #1 !dbg !1531 {
start:
  %self.dbg.spill = alloca { i8*, i64 }, align 8
  %0 = getelementptr inbounds { i8*, i64 }, { i8*, i64 }* %self.dbg.spill, i32 0, i32 0
  store i8* %self.0, i8** %0, align 8
  %1 = getelementptr inbounds { i8*, i64 }, { i8*, i64 }* %self.dbg.spill, i32 0, i32 1
  store i64 %self.1, i64* %1, align 8
  call void @llvm.dbg.declare(metadata { i8*, i64 }* %self.dbg.spill, metadata !1546, metadata !DIExpression()), !dbg !1548
; call <core::ptr::non_null::NonNull<[u8]>>::as_ptr
  %2 = call { [0 x i8]*, i64 } @_RNvMs1_NtNtCs3p84KrD9aKt_4core3ptr8non_nullINtB5_7NonNullShE6as_ptrCs48Yq53b35jF_15crossbeam_utils(i8* nonnull %self.0, i64 %self.1), !dbg !1549
  %_3.0 = extractvalue { [0 x i8]*, i64 } %2, 0, !dbg !1549
  %_3.1 = extractvalue { [0 x i8]*, i64 } %2, 1, !dbg !1549
  br label %bb1, !dbg !1549

bb1:                                              ; preds = %start
  %_2 = bitcast [0 x i8]* %_3.0 to i64**, !dbg !1549
; call <core::ptr::non_null::NonNull<alloc::sync::Arc<std::sync::mutex::Mutex<core::option::Option<std::thread::JoinHandle<()>>>>>>::new_unchecked
  %3 = call nonnull i64* @_RNvMs1_NtNtCs3p84KrD9aKt_4core3ptr8non_nullINtB5_7NonNullINtNtCs8RW06R9lH2S_5alloc4sync3ArcINtNtNtCs2bNvlddUlXM_3std4sync5mutex5MutexINtNtB9_6option6OptionINtNtB1y_6thread10JoinHandleuEEEEE13new_uncheckedCseZ2WzEtypfB_15crossbeam_scope(i64** %_2), !dbg !1550
  br label %bb2, !dbg !1550

bb2:                                              ; preds = %bb1
  ret i64* %3, !dbg !1551
}

; <core::ptr::non_null::NonNull<[u8]>>::cast::<alloc::boxed::Box<dyn core::any::Any + core::marker::Send>>
; Function Attrs: inlinehint nonlazybind uwtable
define internal nonnull i64* @_RINvMs1_NtNtCs3p84KrD9aKt_4core3ptr8non_nullINtB6_7NonNullShE4castINtNtCs8RW06R9lH2S_5alloc5boxed3BoxDNtNtBa_3any3AnyNtNtBa_6marker4SendEL_EECseZ2WzEtypfB_15crossbeam_scope(i8* nonnull %self.0, i64 %self.1) unnamed_addr #1 !dbg !1552 {
start:
  %self.dbg.spill = alloca { i8*, i64 }, align 8
  %0 = getelementptr inbounds { i8*, i64 }, { i8*, i64 }* %self.dbg.spill, i32 0, i32 0
  store i8* %self.0, i8** %0, align 8
  %1 = getelementptr inbounds { i8*, i64 }, { i8*, i64 }* %self.dbg.spill, i32 0, i32 1
  store i64 %self.1, i64* %1, align 8
  call void @llvm.dbg.declare(metadata { i8*, i64 }* %self.dbg.spill, metadata !1559, metadata !DIExpression()), !dbg !1562
; call <core::ptr::non_null::NonNull<[u8]>>::as_ptr
  %2 = call { [0 x i8]*, i64 } @_RNvMs1_NtNtCs3p84KrD9aKt_4core3ptr8non_nullINtB5_7NonNullShE6as_ptrCs48Yq53b35jF_15crossbeam_utils(i8* nonnull %self.0, i64 %self.1), !dbg !1563
  %_3.0 = extractvalue { [0 x i8]*, i64 } %2, 0, !dbg !1563
  %_3.1 = extractvalue { [0 x i8]*, i64 } %2, 1, !dbg !1563
  br label %bb1, !dbg !1563

bb1:                                              ; preds = %start
  %_2 = bitcast [0 x i8]* %_3.0 to { {}*, [3 x i64]* }*, !dbg !1563
; call <core::ptr::non_null::NonNull<alloc::boxed::Box<dyn core::any::Any + core::marker::Send>>>::new_unchecked
  %3 = call nonnull i64* @_RNvMs1_NtNtCs3p84KrD9aKt_4core3ptr8non_nullINtB5_7NonNullINtNtCs8RW06R9lH2S_5alloc5boxed3BoxDNtNtB9_3any3AnyNtNtB9_6marker4SendEL_EE13new_uncheckedCseZ2WzEtypfB_15crossbeam_scope({ {}*, [3 x i64]* }* %_2), !dbg !1564
  br label %bb2, !dbg !1564

bb2:                                              ; preds = %bb1
  ret i64* %3, !dbg !1565
}

; <core::any::TypeId>::of::<alloc::vec::Vec<alloc::boxed::Box<dyn core::any::Any + core::marker::Send>>>
; Function Attrs: nonlazybind uwtable
define internal i64 @_RINvMs5_NtCs3p84KrD9aKt_4core3anyNtB6_6TypeId2ofINtNtCs8RW06R9lH2S_5alloc3vec3VecINtNtBP_5boxed3BoxDNtB6_3AnyNtNtB8_6marker4SendEL_EEECseZ2WzEtypfB_15crossbeam_scope() unnamed_addr #0 !dbg !1566 {
start:
  %0 = alloca i64, align 8
  %1 = alloca i64, align 8
  store i64 -5396571885951573336, i64* %0, align 8, !dbg !1575
  %_1 = load i64, i64* %0, align 8, !dbg !1575
  br label %bb1, !dbg !1575

bb1:                                              ; preds = %start
  store i64 %_1, i64* %1, align 8, !dbg !1576
  %2 = load i64, i64* %1, align 8, !dbg !1577
  ret i64 %2, !dbg !1577
}

; <crossbeam_utils::thread::Scope>::spawn::<crossbeam_scope::main::{closure#0}::{closure#0}, ()>
; Function Attrs: nonlazybind uwtable
define internal void @_RINvMs_NtCs48Yq53b35jF_15crossbeam_utils6threadNtB5_5Scope5spawnNCNCNvCseZ2WzEtypfB_15crossbeam_scope4main00uEB16_(%"crossbeam::thread::ScopedJoinHandle<()>"* noalias nocapture sret dereferenceable(24) %0, { i64*, i64* }* noalias readonly align 8 dereferenceable(16) %self, %"[closure@src/main.rs:15:27: 20:4]"* noalias nocapture dereferenceable(24) %f) unnamed_addr #0 personality i32 (i32, i32, i64, %"unwind::libunwind::_Unwind_Exception"*, %"unwind::libunwind::_Unwind_Context"*)* @rust_eh_personality !dbg !1578 {
start:
  %1 = alloca { i8*, i32 }, align 8
  %self.dbg.spill = alloca { i64*, i64* }*, align 8
  %_9 = alloca i8, align 1
  %_6 = alloca %"[closure@src/main.rs:15:27: 20:4]", align 8
  %_4 = alloca %"crossbeam::thread::ScopedThreadBuilder", align 8
  %_3 = alloca %"std::result::Result<crossbeam::thread::ScopedJoinHandle<()>, std::io::Error>", align 8
  store { i64*, i64* }* %self, { i64*, i64* }** %self.dbg.spill, align 8
  call void @llvm.dbg.declare(metadata { i64*, i64* }** %self.dbg.spill, metadata !1582, metadata !DIExpression()), !dbg !1584
  call void @llvm.dbg.declare(metadata %"[closure@src/main.rs:15:27: 20:4]"* %f, metadata !1583, metadata !DIExpression()), !dbg !1585
  store i8 0, i8* %_9, align 1, !dbg !1586
  store i8 1, i8* %_9, align 1, !dbg !1586
; invoke <crossbeam_utils::thread::Scope>::builder
  invoke void @_RNvMs_NtCs48Yq53b35jF_15crossbeam_utils6threadNtB4_5Scope7builder(%"crossbeam::thread::ScopedThreadBuilder"* noalias nocapture sret dereferenceable(48) %_4, { i64*, i64* }* noalias readonly align 8 dereferenceable(16) %self)
          to label %bb1 unwind label %cleanup, !dbg !1586

bb1:                                              ; preds = %start
  store i8 0, i8* %_9, align 1, !dbg !1587
  %2 = bitcast %"[closure@src/main.rs:15:27: 20:4]"* %_6 to i8*, !dbg !1587
  %3 = bitcast %"[closure@src/main.rs:15:27: 20:4]"* %f to i8*, !dbg !1587
  call void @llvm.memcpy.p0i8.p0i8.i64(i8* align 8 %2, i8* align 8 %3, i64 24, i1 false), !dbg !1587
; invoke <crossbeam_utils::thread::ScopedThreadBuilder>::spawn::<crossbeam_scope::main::{closure#0}::{closure#0}, ()>
  invoke void @_RINvMs1_NtCs48Yq53b35jF_15crossbeam_utils6threadNtB6_19ScopedThreadBuilder5spawnNCNCNvCseZ2WzEtypfB_15crossbeam_scope4main00uEB1m_(%"std::result::Result<crossbeam::thread::ScopedJoinHandle<()>, std::io::Error>"* noalias nocapture sret dereferenceable(32) %_3, %"crossbeam::thread::ScopedThreadBuilder"* noalias nocapture dereferenceable(48) %_4, %"[closure@src/main.rs:15:27: 20:4]"* noalias nocapture dereferenceable(24) %_6)
          to label %bb2 unwind label %cleanup, !dbg !1586

bb2:                                              ; preds = %bb1
; invoke <core::result::Result<crossbeam_utils::thread::ScopedJoinHandle<()>, std::io::error::Error>>::expect
  invoke void @_RNvMs3_NtCs3p84KrD9aKt_4core6resultINtB5_6ResultINtNtCs48Yq53b35jF_15crossbeam_utils6thread16ScopedJoinHandleuENtNtNtCs2bNvlddUlXM_3std2io5error5ErrorE6expectCseZ2WzEtypfB_15crossbeam_scope(%"crossbeam::thread::ScopedJoinHandle<()>"* noalias nocapture sret dereferenceable(24) %0, %"std::result::Result<crossbeam::thread::ScopedJoinHandle<()>, std::io::Error>"* noalias nocapture dereferenceable(32) %_3, [0 x i8]* noalias nonnull readonly align 1 bitcast (<{ [29 x i8] }>* @alloc64 to [0 x i8]*), i64 29, %"std::panic::Location"* noalias readonly align 8 dereferenceable(24) bitcast (<{ i8*, [16 x i8] }>* @alloc66 to %"std::panic::Location"*))
          to label %bb3 unwind label %cleanup, !dbg !1586

bb3:                                              ; preds = %bb2
  ret void, !dbg !1588

bb4:                                              ; preds = %bb5, %bb6
  %4 = bitcast { i8*, i32 }* %1 to i8**, !dbg !1589
  %5 = load i8*, i8** %4, align 8, !dbg !1589
  %6 = getelementptr inbounds { i8*, i32 }, { i8*, i32 }* %1, i32 0, i32 1, !dbg !1589
  %7 = load i32, i32* %6, align 8, !dbg !1589
  %8 = insertvalue { i8*, i32 } undef, i8* %5, 0, !dbg !1589
  %9 = insertvalue { i8*, i32 } %8, i32 %7, 1, !dbg !1589
  resume { i8*, i32 } %9, !dbg !1589

bb5:                                              ; preds = %bb6
  br label %bb4, !dbg !1590

bb6:                                              ; preds = %cleanup
  %10 = load i8, i8* %_9, align 1, !dbg !1590, !range !850
  %11 = trunc i8 %10 to i1, !dbg !1590
  br i1 %11, label %bb5, label %bb4, !dbg !1590

cleanup:                                          ; preds = %bb2, %bb1, %start
  %12 = landingpad { i8*, i32 }
          cleanup
  %13 = extractvalue { i8*, i32 } %12, 0
  %14 = extractvalue { i8*, i32 } %12, 1
  %15 = getelementptr inbounds { i8*, i32 }, { i8*, i32 }* %1, i32 0, i32 0
  store i8* %13, i8** %15, align 8
  %16 = getelementptr inbounds { i8*, i32 }, { i8*, i32 }* %1, i32 0, i32 1
  store i32 %14, i32* %16, align 8
  br label %bb6
}

; <alloc::vec::Vec<alloc::sync::Arc<std::sync::mutex::Mutex<core::option::Option<std::thread::JoinHandle<()>>>>>>::drain::<core::ops::range::RangeFull>
; Function Attrs: nonlazybind uwtable
define internal void @_RINvMs_NtCs8RW06R9lH2S_5alloc3vecINtB5_3VecINtNtB7_4sync3ArcINtNtNtCs2bNvlddUlXM_3std4sync5mutex5MutexINtNtCs3p84KrD9aKt_4core6option6OptionINtNtB13_6thread10JoinHandleuEEEEE5drainNtNtNtB1H_3ops5range9RangeFullECseZ2WzEtypfB_15crossbeam_scope(%"std::vec::Drain<std::sync::Arc<std::sync::Mutex<std::option::Option<std::thread::JoinHandle<()>>>>>"* noalias nocapture sret dereferenceable(40) %0, %"std::vec::Vec<std::sync::Arc<std::sync::Mutex<std::option::Option<std::thread::JoinHandle<()>>>>>"* align 8 dereferenceable(24) %self) unnamed_addr #0 personality i32 (i32, i32, i64, %"unwind::libunwind::_Unwind_Exception"*, %"unwind::libunwind::_Unwind_Context"*)* @rust_eh_personality !dbg !1591 {
start:
  %range_slice.dbg.spill = alloca { [0 x i64*]*, i64 }, align 8
  %end.dbg.spill = alloca i64, align 8
  %start.dbg.spill = alloca i64, align 8
  %len.dbg.spill = alloca i64, align 8
  %1 = alloca { i8*, i32 }, align 8
  %range.dbg.spill = alloca %"std::ops::RangeFull", align 1
  %self.dbg.spill = alloca %"std::vec::Vec<std::sync::Arc<std::sync::Mutex<std::option::Option<std::thread::JoinHandle<()>>>>>"*, align 8
  %_29 = alloca i8, align 1
  store %"std::vec::Vec<std::sync::Arc<std::sync::Mutex<std::option::Option<std::thread::JoinHandle<()>>>>>"* %self, %"std::vec::Vec<std::sync::Arc<std::sync::Mutex<std::option::Option<std::thread::JoinHandle<()>>>>>"** %self.dbg.spill, align 8
  call void @llvm.dbg.declare(metadata %"std::vec::Vec<std::sync::Arc<std::sync::Mutex<std::option::Option<std::thread::JoinHandle<()>>>>>"** %self.dbg.spill, metadata !1616, metadata !DIExpression()), !dbg !1631
  call void @llvm.dbg.declare(metadata %"std::ops::RangeFull"* %range.dbg.spill, metadata !1617, metadata !DIExpression()), !dbg !1632
  store i8 0, i8* %_29, align 1, !dbg !1633
  store i8 1, i8* %_29, align 1, !dbg !1633
; invoke <alloc::vec::Vec<alloc::sync::Arc<std::sync::mutex::Mutex<core::option::Option<std::thread::JoinHandle<()>>>>>>::len
  %len = invoke i64 @_RNvMs_NtCs8RW06R9lH2S_5alloc3vecINtB4_3VecINtNtB6_4sync3ArcINtNtNtCs2bNvlddUlXM_3std4sync5mutex5MutexINtNtCs3p84KrD9aKt_4core6option6OptionINtNtB12_6thread10JoinHandleuEEEEE3lenCseZ2WzEtypfB_15crossbeam_scope(%"std::vec::Vec<std::sync::Arc<std::sync::Mutex<std::option::Option<std::thread::JoinHandle<()>>>>>"* noalias readonly align 8 dereferenceable(24) %self)
          to label %bb1 unwind label %cleanup, !dbg !1634

bb1:                                              ; preds = %start
  store i64 %len, i64* %len.dbg.spill, align 8, !dbg !1634
  call void @llvm.dbg.declare(metadata i64* %len.dbg.spill, metadata !1618, metadata !DIExpression()), !dbg !1635
  store i8 0, i8* %_29, align 1, !dbg !1636
; invoke <core::ops::range::RangeFull as core::ops::range::RangeBounds<usize>>::assert_len
  %2 = invoke { i64, i64 } @_RNvYNtNtNtCs3p84KrD9aKt_4core3ops5range9RangeFullINtB4_11RangeBoundsjE10assert_lenCseZ2WzEtypfB_15crossbeam_scope(i64 %len, %"std::panic::Location"* noalias readonly align 8 dereferenceable(24) bitcast (<{ i8*, [16 x i8] }>* @alloc68 to %"std::panic::Location"*))
          to label %bb2 unwind label %cleanup, !dbg !1636

bb2:                                              ; preds = %bb1
  %_7.0 = extractvalue { i64, i64 } %2, 0, !dbg !1636
  %_7.1 = extractvalue { i64, i64 } %2, 1, !dbg !1636
  store i64 %_7.0, i64* %start.dbg.spill, align 8, !dbg !1637
  call void @llvm.dbg.declare(metadata i64* %start.dbg.spill, metadata !1620, metadata !DIExpression()), !dbg !1638
  store i64 %_7.1, i64* %end.dbg.spill, align 8, !dbg !1639
  call void @llvm.dbg.declare(metadata i64* %end.dbg.spill, metadata !1622, metadata !DIExpression()), !dbg !1640
; invoke <alloc::vec::Vec<alloc::sync::Arc<std::sync::mutex::Mutex<core::option::Option<std::thread::JoinHandle<()>>>>>>::set_len
  invoke void @_RNvMs_NtCs8RW06R9lH2S_5alloc3vecINtB4_3VecINtNtB6_4sync3ArcINtNtNtCs2bNvlddUlXM_3std4sync5mutex5MutexINtNtCs3p84KrD9aKt_4core6option6OptionINtNtB12_6thread10JoinHandleuEEEEE7set_lenCseZ2WzEtypfB_15crossbeam_scope(%"std::vec::Vec<std::sync::Arc<std::sync::Mutex<std::option::Option<std::thread::JoinHandle<()>>>>>"* align 8 dereferenceable(24) %self, i64 %_7.0)
          to label %bb3 unwind label %cleanup, !dbg !1641

bb3:                                              ; preds = %bb2
; invoke <alloc::vec::Vec<alloc::sync::Arc<std::sync::mutex::Mutex<core::option::Option<std::thread::JoinHandle<()>>>>>>::as_mut_ptr
  %_15 = invoke i64** @_RNvMs_NtCs8RW06R9lH2S_5alloc3vecINtB4_3VecINtNtB6_4sync3ArcINtNtNtCs2bNvlddUlXM_3std4sync5mutex5MutexINtNtCs3p84KrD9aKt_4core6option6OptionINtNtB12_6thread10JoinHandleuEEEEE10as_mut_ptrCseZ2WzEtypfB_15crossbeam_scope(%"std::vec::Vec<std::sync::Arc<std::sync::Mutex<std::option::Option<std::thread::JoinHandle<()>>>>>"* align 8 dereferenceable(24) %self)
          to label %bb4 unwind label %cleanup, !dbg !1642

bb4:                                              ; preds = %bb3
; invoke <*mut alloc::sync::Arc<std::sync::mutex::Mutex<core::option::Option<std::thread::JoinHandle<()>>>>>::add
  %_14 = invoke i64** @_RNvMNtNtCs3p84KrD9aKt_4core3ptr7mut_ptrOINtNtCs8RW06R9lH2S_5alloc4sync3ArcINtNtNtCs2bNvlddUlXM_3std4sync5mutex5MutexINtNtB6_6option6OptionINtNtB1h_6thread10JoinHandleuEEEE3addCseZ2WzEtypfB_15crossbeam_scope(i64** %_15, i64 %_7.0)
          to label %bb5 unwind label %cleanup, !dbg !1642

bb5:                                              ; preds = %bb4
  %_18 = sub i64 %_7.1, %_7.0, !dbg !1643
; invoke core::slice::raw::from_raw_parts_mut::<alloc::sync::Arc<std::sync::mutex::Mutex<core::option::Option<std::thread::JoinHandle<()>>>>>
  %3 = invoke { [0 x i64*]*, i64 } @_RINvNtNtCs3p84KrD9aKt_4core5slice3raw18from_raw_parts_mutINtNtCs8RW06R9lH2S_5alloc4sync3ArcINtNtNtCs2bNvlddUlXM_3std4sync5mutex5MutexINtNtB6_6option6OptionINtNtB1y_6thread10JoinHandleuEEEEECseZ2WzEtypfB_15crossbeam_scope(i64** %_14, i64 %_18)
          to label %bb6 unwind label %cleanup, !dbg !1644

bb6:                                              ; preds = %bb5
  %range_slice.0 = extractvalue { [0 x i64*]*, i64 } %3, 0, !dbg !1644
  %range_slice.1 = extractvalue { [0 x i64*]*, i64 } %3, 1, !dbg !1644
  %4 = getelementptr inbounds { [0 x i64*]*, i64 }, { [0 x i64*]*, i64 }* %range_slice.dbg.spill, i32 0, i32 0, !dbg !1644
  store [0 x i64*]* %range_slice.0, [0 x i64*]** %4, align 8, !dbg !1644
  %5 = getelementptr inbounds { [0 x i64*]*, i64 }, { [0 x i64*]*, i64 }* %range_slice.dbg.spill, i32 0, i32 1, !dbg !1644
  store i64 %range_slice.1, i64* %5, align 8, !dbg !1644
  call void @llvm.dbg.declare(metadata { [0 x i64*]*, i64 }* %range_slice.dbg.spill, metadata !1623, metadata !DIExpression()), !dbg !1645
  %_22 = sub i64 %len, %_7.1, !dbg !1646
; invoke <[alloc::sync::Arc<std::sync::mutex::Mutex<core::option::Option<std::thread::JoinHandle<()>>>>]>::iter
  %6 = invoke { i64*, i64* } @_RNvMNtCs3p84KrD9aKt_4core5sliceSINtNtCs8RW06R9lH2S_5alloc4sync3ArcINtNtNtCs2bNvlddUlXM_3std4sync5mutex5MutexINtNtB4_6option6OptionINtNtB19_6thread10JoinHandleuEEEE4iterCseZ2WzEtypfB_15crossbeam_scope([0 x i64*]* noalias nonnull readonly align 8 %range_slice.0, i64 %range_slice.1)
          to label %bb7 unwind label %cleanup, !dbg !1647

bb7:                                              ; preds = %bb6
  %_25.0 = extractvalue { i64*, i64* } %6, 0, !dbg !1647
  %_25.1 = extractvalue { i64*, i64* } %6, 1, !dbg !1647
; invoke <core::ptr::non_null::NonNull<alloc::vec::Vec<alloc::sync::Arc<std::sync::mutex::Mutex<core::option::Option<std::thread::JoinHandle<()>>>>>> as core::convert::From<&mut alloc::vec::Vec<alloc::sync::Arc<std::sync::mutex::Mutex<core::option::Option<std::thread::JoinHandle<()>>>>>>>::from
  %_27 = invoke nonnull i64* @_RNvXsf_NtNtCs3p84KrD9aKt_4core3ptr8non_nullINtB5_7NonNullINtNtCs8RW06R9lH2S_5alloc3vec3VecINtNtBY_4sync3ArcINtNtNtCs2bNvlddUlXM_3std4sync5mutex5MutexINtNtB9_6option6OptionINtNtB1O_6thread10JoinHandleuEEEEEEINtNtB9_7convert4FromQBT_E4fromCseZ2WzEtypfB_15crossbeam_scope(%"std::vec::Vec<std::sync::Arc<std::sync::Mutex<std::option::Option<std::thread::JoinHandle<()>>>>>"* align 8 dereferenceable(24) %self)
          to label %bb8 unwind label %cleanup, !dbg !1648

bb8:                                              ; preds = %bb7
  %7 = bitcast %"std::vec::Drain<std::sync::Arc<std::sync::Mutex<std::option::Option<std::thread::JoinHandle<()>>>>>"* %0 to i64*, !dbg !1649
  store i64 %_7.1, i64* %7, align 8, !dbg !1649
  %8 = getelementptr inbounds %"std::vec::Drain<std::sync::Arc<std::sync::Mutex<std::option::Option<std::thread::JoinHandle<()>>>>>", %"std::vec::Drain<std::sync::Arc<std::sync::Mutex<std::option::Option<std::thread::JoinHandle<()>>>>>"* %0, i32 0, i32 3, !dbg !1649
  store i64 %_22, i64* %8, align 8, !dbg !1649
  %9 = getelementptr inbounds %"std::vec::Drain<std::sync::Arc<std::sync::Mutex<std::option::Option<std::thread::JoinHandle<()>>>>>", %"std::vec::Drain<std::sync::Arc<std::sync::Mutex<std::option::Option<std::thread::JoinHandle<()>>>>>"* %0, i32 0, i32 5, !dbg !1649
  %10 = getelementptr inbounds { i64*, i64* }, { i64*, i64* }* %9, i32 0, i32 0, !dbg !1649
  store i64* %_25.0, i64** %10, align 8, !dbg !1649
  %11 = getelementptr inbounds { i64*, i64* }, { i64*, i64* }* %9, i32 0, i32 1, !dbg !1649
  store i64* %_25.1, i64** %11, align 8, !dbg !1649
  %12 = getelementptr inbounds %"std::vec::Drain<std::sync::Arc<std::sync::Mutex<std::option::Option<std::thread::JoinHandle<()>>>>>", %"std::vec::Drain<std::sync::Arc<std::sync::Mutex<std::option::Option<std::thread::JoinHandle<()>>>>>"* %0, i32 0, i32 7, !dbg !1649
  store i64* %_27, i64** %12, align 8, !dbg !1649
  ret void, !dbg !1650

bb9:                                              ; preds = %bb10, %bb11
  %13 = bitcast { i8*, i32 }* %1 to i8**, !dbg !1651
  %14 = load i8*, i8** %13, align 8, !dbg !1651
  %15 = getelementptr inbounds { i8*, i32 }, { i8*, i32 }* %1, i32 0, i32 1, !dbg !1651
  %16 = load i32, i32* %15, align 8, !dbg !1651
  %17 = insertvalue { i8*, i32 } undef, i8* %14, 0, !dbg !1651
  %18 = insertvalue { i8*, i32 } %17, i32 %16, 1, !dbg !1651
  resume { i8*, i32 } %18, !dbg !1651

bb10:                                             ; preds = %bb11
  br label %bb9, !dbg !1652

bb11:                                             ; preds = %cleanup
  %19 = load i8, i8* %_29, align 1, !dbg !1652, !range !850
  %20 = trunc i8 %19 to i1, !dbg !1652
  br i1 %20, label %bb10, label %bb9, !dbg !1652

cleanup:                                          ; preds = %bb7, %bb6, %bb5, %bb4, %bb3, %bb2, %bb1, %start
  %21 = landingpad { i8*, i32 }
          cleanup
  %22 = extractvalue { i8*, i32 } %21, 0
  %23 = extractvalue { i8*, i32 } %21, 1
  %24 = getelementptr inbounds { i8*, i32 }, { i8*, i32 }* %1, i32 0, i32 0
  store i8* %22, i8** %24, align 8
  %25 = getelementptr inbounds { i8*, i32 }, { i8*, i32 }* %1, i32 0, i32 1
  store i32 %23, i32* %25, align 8
  br label %bb11
}

; <alloc::vec::Vec<alloc::boxed::Box<dyn core::any::Any + core::marker::Send>>>::extend_desugared::<core::iter::adapters::filter_map::FilterMap<core::iter::adapters::filter_map::FilterMap<alloc::vec::drain::Drain<alloc::sync::Arc<std::sync::mutex::Mutex<core::option::Option<std::thread::JoinHandle<()>>>>>, crossbeam_utils::thread::scope<crossbeam_scope::main::{closure#0}, ()>::{closure#1}>, crossbeam_utils::thread::scope<crossbeam_scope::main::{closure#0}, ()>::{closure#2}>>
; Function Attrs: nonlazybind uwtable
define internal void @_RINvMsh_NtCs8RW06R9lH2S_5alloc3vecINtB6_3VecINtNtB8_5boxed3BoxDNtNtCs3p84KrD9aKt_4core3any3AnyNtNtB13_6marker4SendEL_EE16extend_desugaredINtNtNtNtB13_4iter8adapters10filter_map9FilterMapIB2c_INtNtB6_5drain5DrainINtNtB8_4sync3ArcINtNtNtCs2bNvlddUlXM_3std4sync5mutex5MutexINtNtB13_6option6OptionINtNtB3L_6thread10JoinHandleuEEEEENCINvNtCs48Yq53b35jF_15crossbeam_utils6thread5scopeNCNvCseZ2WzEtypfB_15crossbeam_scope4main0uEs_0ENCB5h_s0_0EEB68_(%"std::vec::Vec<std::boxed::Box<dyn std::any::Any + std::marker::Send>>"* align 8 dereferenceable(24) %self, %"std::iter::FilterMap<std::iter::FilterMap<std::vec::Drain<std::sync::Arc<std::sync::Mutex<std::option::Option<std::thread::JoinHandle<()>>>>>, [closure@crossbeam::scope<[closure@src/main.rs:14:16: 22:3], ()>::{closure#1}]>, [closure@crossbeam::scope<[closure@src/main.rs:14:16: 22:3], ()>::{closure#2}]>"* noalias nocapture dereferenceable(40) %iterator) unnamed_addr #0 personality i32 (i32, i32, i64, %"unwind::libunwind::_Unwind_Exception"*, %"unwind::libunwind::_Unwind_Context"*)* @rust_eh_personality !dbg !1653 {
start:
  %lower.dbg.spill = alloca i64, align 8
  %len.dbg.spill = alloca i64, align 8
  %0 = alloca { i8*, i32 }, align 8
  %self.dbg.spill = alloca %"std::vec::Vec<std::boxed::Box<dyn std::any::Any + std::marker::Send>>"*, align 8
  %_30 = alloca i8, align 1
  %_14 = alloca { [0 x i64], i64, [0 x i64], { i64, i64 }, [0 x i64] }, align 8
  %element = alloca { {}*, [3 x i64]* }, align 8
  %_3 = alloca { i8*, i8* }, align 8
  store %"std::vec::Vec<std::boxed::Box<dyn std::any::Any + std::marker::Send>>"* %self, %"std::vec::Vec<std::boxed::Box<dyn std::any::Any + std::marker::Send>>"** %self.dbg.spill, align 8
  call void @llvm.dbg.declare(metadata %"std::vec::Vec<std::boxed::Box<dyn std::any::Any + std::marker::Send>>"** %self.dbg.spill, metadata !1678, metadata !DIExpression()), !dbg !1688
  call void @llvm.dbg.declare(metadata %"std::iter::FilterMap<std::iter::FilterMap<std::vec::Drain<std::sync::Arc<std::sync::Mutex<std::option::Option<std::thread::JoinHandle<()>>>>>, [closure@crossbeam::scope<[closure@src/main.rs:14:16: 22:3], ()>::{closure#1}]>, [closure@crossbeam::scope<[closure@src/main.rs:14:16: 22:3], ()>::{closure#2}]>"* %iterator, metadata !1679, metadata !DIExpression()), !dbg !1689
  call void @llvm.dbg.declare(metadata { {}*, [3 x i64]* }* %element, metadata !1680, metadata !DIExpression()), !dbg !1690
  br label %bb0

bb0:                                              ; preds = %bb15, %start
  store i8 0, i8* %_30, align 1, !dbg !1691
; invoke <core::iter::adapters::filter_map::FilterMap<core::iter::adapters::filter_map::FilterMap<alloc::vec::drain::Drain<alloc::sync::Arc<std::sync::mutex::Mutex<core::option::Option<std::thread::JoinHandle<()>>>>>, crossbeam_utils::thread::scope<crossbeam_scope::main::{closure#0}, ()>::{closure#1}>, crossbeam_utils::thread::scope<crossbeam_scope::main::{closure#0}, ()>::{closure#2}> as core::iter::traits::iterator::Iterator>::next
  %1 = invoke { i8*, i8* } @_RNvXs0_NtNtNtCs3p84KrD9aKt_4core4iter8adapters10filter_mapINtB5_9FilterMapIBV_INtNtNtCs8RW06R9lH2S_5alloc3vec5drain5DrainINtNtB1l_4sync3ArcINtNtNtCs2bNvlddUlXM_3std4sync5mutex5MutexINtNtBb_6option6OptionINtNtB2k_6thread10JoinHandleuEEEEENCINvNtCs48Yq53b35jF_15crossbeam_utils6thread5scopeNCNvCseZ2WzEtypfB_15crossbeam_scope4main0uEs_0ENCB3P_s0_0ENtNtNtB9_6traits8iterator8Iterator4nextB4G_(%"std::iter::FilterMap<std::iter::FilterMap<std::vec::Drain<std::sync::Arc<std::sync::Mutex<std::option::Option<std::thread::JoinHandle<()>>>>>, [closure@crossbeam::scope<[closure@src/main.rs:14:16: 22:3], ()>::{closure#1}]>, [closure@crossbeam::scope<[closure@src/main.rs:14:16: 22:3], ()>::{closure#2}]>"* align 8 dereferenceable(40) %iterator)
          to label %bb1 unwind label %cleanup, !dbg !1691

bb1:                                              ; preds = %bb0
  store { i8*, i8* } %1, { i8*, i8* }* %_3, align 8, !dbg !1691
  %2 = bitcast { i8*, i8* }* %_3 to {}**, !dbg !1692
  %3 = load {}*, {}** %2, align 8, !dbg !1692
  %4 = icmp eq {}* %3, null, !dbg !1692
  %_5 = select i1 %4, i64 0, i64 1, !dbg !1692
  %5 = icmp eq i64 %_5, 1, !dbg !1692
  br i1 %5, label %bb3, label %bb2, !dbg !1692

bb2:                                              ; preds = %bb1
; invoke core::ptr::drop_in_place::<core::option::Option<alloc::boxed::Box<dyn core::any::Any + core::marker::Send>>>
  invoke void @_RINvNtCs3p84KrD9aKt_4core3ptr13drop_in_placeINtNtB4_6option6OptionINtNtCs8RW06R9lH2S_5alloc5boxed3BoxDNtNtB4_3any3AnyNtNtB4_6marker4SendEL_EEECseZ2WzEtypfB_15crossbeam_scope({ i8*, i8* }* %_3)
          to label %bb16 unwind label %cleanup, !dbg !1693

bb3:                                              ; preds = %bb1
  store i8 1, i8* %_30, align 1, !dbg !1694
  %6 = bitcast { i8*, i8* }* %_3 to { {}*, [3 x i64]* }*, !dbg !1694
  %7 = getelementptr inbounds { {}*, [3 x i64]* }, { {}*, [3 x i64]* }* %6, i32 0, i32 0, !dbg !1694
  %8 = load {}*, {}** %7, align 8, !dbg !1694, !nonnull !4
  %9 = getelementptr inbounds { {}*, [3 x i64]* }, { {}*, [3 x i64]* }* %6, i32 0, i32 1, !dbg !1694
  %10 = load [3 x i64]*, [3 x i64]** %9, align 8, !dbg !1694, !nonnull !4
  %11 = getelementptr inbounds { {}*, [3 x i64]* }, { {}*, [3 x i64]* }* %element, i32 0, i32 0, !dbg !1694
  store {}* %8, {}** %11, align 8, !dbg !1694
  %12 = getelementptr inbounds { {}*, [3 x i64]* }, { {}*, [3 x i64]* }* %element, i32 0, i32 1, !dbg !1694
  store [3 x i64]* %10, [3 x i64]** %12, align 8, !dbg !1694
; invoke <alloc::vec::Vec<alloc::boxed::Box<dyn core::any::Any + core::marker::Send>>>::len
  %len = invoke i64 @_RNvMs_NtCs8RW06R9lH2S_5alloc3vecINtB4_3VecINtNtB6_5boxed3BoxDNtNtCs3p84KrD9aKt_4core3any3AnyNtNtB11_6marker4SendEL_EE3lenCseZ2WzEtypfB_15crossbeam_scope(%"std::vec::Vec<std::boxed::Box<dyn std::any::Any + std::marker::Send>>"* noalias readonly align 8 dereferenceable(24) %self)
          to label %bb4 unwind label %cleanup1, !dbg !1695

bb4:                                              ; preds = %bb3
  store i64 %len, i64* %len.dbg.spill, align 8, !dbg !1695
  call void @llvm.dbg.declare(metadata i64* %len.dbg.spill, metadata !1682, metadata !DIExpression()), !dbg !1696
; invoke <alloc::vec::Vec<alloc::boxed::Box<dyn core::any::Any + core::marker::Send>>>::capacity
  %_11 = invoke i64 @_RNvMs_NtCs8RW06R9lH2S_5alloc3vecINtB4_3VecINtNtB6_5boxed3BoxDNtNtCs3p84KrD9aKt_4core3any3AnyNtNtB11_6marker4SendEL_EE8capacityCseZ2WzEtypfB_15crossbeam_scope(%"std::vec::Vec<std::boxed::Box<dyn std::any::Any + std::marker::Send>>"* noalias readonly align 8 dereferenceable(24) %self)
          to label %bb5 unwind label %cleanup1, !dbg !1697

bb5:                                              ; preds = %bb4
  %_9 = icmp eq i64 %len, %_11, !dbg !1698
  br i1 %_9, label %bb6, label %bb7, !dbg !1699

bb6:                                              ; preds = %bb5
; invoke <core::iter::adapters::filter_map::FilterMap<core::iter::adapters::filter_map::FilterMap<alloc::vec::drain::Drain<alloc::sync::Arc<std::sync::mutex::Mutex<core::option::Option<std::thread::JoinHandle<()>>>>>, crossbeam_utils::thread::scope<crossbeam_scope::main::{closure#0}, ()>::{closure#1}>, crossbeam_utils::thread::scope<crossbeam_scope::main::{closure#0}, ()>::{closure#2}> as core::iter::traits::iterator::Iterator>::size_hint
  invoke void @_RNvXs0_NtNtNtCs3p84KrD9aKt_4core4iter8adapters10filter_mapINtB5_9FilterMapIBV_INtNtNtCs8RW06R9lH2S_5alloc3vec5drain5DrainINtNtB1l_4sync3ArcINtNtNtCs2bNvlddUlXM_3std4sync5mutex5MutexINtNtBb_6option6OptionINtNtB2k_6thread10JoinHandleuEEEEENCINvNtCs48Yq53b35jF_15crossbeam_utils6thread5scopeNCNvCseZ2WzEtypfB_15crossbeam_scope4main0uEs_0ENCB3P_s0_0ENtNtNtB9_6traits8iterator8Iterator9size_hintB4G_({ [0 x i64], i64, [0 x i64], { i64, i64 }, [0 x i64] }* noalias nocapture sret dereferenceable(24) %_14, %"std::iter::FilterMap<std::iter::FilterMap<std::vec::Drain<std::sync::Arc<std::sync::Mutex<std::option::Option<std::thread::JoinHandle<()>>>>>, [closure@crossbeam::scope<[closure@src/main.rs:14:16: 22:3], ()>::{closure#1}]>, [closure@crossbeam::scope<[closure@src/main.rs:14:16: 22:3], ()>::{closure#2}]>"* noalias readonly align 8 dereferenceable(40) %iterator)
          to label %bb8 unwind label %cleanup1, !dbg !1700

bb7:                                              ; preds = %bb5
  br label %bb11, !dbg !1699

bb8:                                              ; preds = %bb6
  %13 = bitcast { [0 x i64], i64, [0 x i64], { i64, i64 }, [0 x i64] }* %_14 to i64*, !dbg !1701
  %lower = load i64, i64* %13, align 8, !dbg !1701
  store i64 %lower, i64* %lower.dbg.spill, align 8, !dbg !1701
  call void @llvm.dbg.declare(metadata i64* %lower.dbg.spill, metadata !1684, metadata !DIExpression()), !dbg !1702
; invoke <usize>::saturating_add
  %_18 = invoke i64 @_RNvMs9_NtCs3p84KrD9aKt_4core3numj14saturating_addCseZ2WzEtypfB_15crossbeam_scope(i64 %lower, i64 1)
          to label %bb9 unwind label %cleanup1, !dbg !1703

bb9:                                              ; preds = %bb8
; invoke <alloc::vec::Vec<alloc::boxed::Box<dyn core::any::Any + core::marker::Send>>>::reserve
  invoke void @_RNvMs_NtCs8RW06R9lH2S_5alloc3vecINtB4_3VecINtNtB6_5boxed3BoxDNtNtCs3p84KrD9aKt_4core3any3AnyNtNtB11_6marker4SendEL_EE7reserveCseZ2WzEtypfB_15crossbeam_scope(%"std::vec::Vec<std::boxed::Box<dyn std::any::Any + std::marker::Send>>"* align 8 dereferenceable(24) %self, i64 %_18)
          to label %bb10 unwind label %cleanup1, !dbg !1704

bb10:                                             ; preds = %bb9
  br label %bb11, !dbg !1699

bb11:                                             ; preds = %bb7, %bb10
; invoke <alloc::vec::Vec<alloc::boxed::Box<dyn core::any::Any + core::marker::Send>>>::as_mut_ptr
  %_22 = invoke { {}*, [3 x i64]* }* @_RNvMs_NtCs8RW06R9lH2S_5alloc3vecINtB4_3VecINtNtB6_5boxed3BoxDNtNtCs3p84KrD9aKt_4core3any3AnyNtNtB11_6marker4SendEL_EE10as_mut_ptrCseZ2WzEtypfB_15crossbeam_scope(%"std::vec::Vec<std::boxed::Box<dyn std::any::Any + std::marker::Send>>"* align 8 dereferenceable(24) %self)
          to label %bb12 unwind label %cleanup1, !dbg !1705

bb12:                                             ; preds = %bb11
; invoke <*mut alloc::boxed::Box<dyn core::any::Any + core::marker::Send>>::add
  %_21 = invoke { {}*, [3 x i64]* }* @_RNvMNtNtCs3p84KrD9aKt_4core3ptr7mut_ptrOINtNtCs8RW06R9lH2S_5alloc5boxed3BoxDNtNtB6_3any3AnyNtNtB6_6marker4SendEL_E3addCseZ2WzEtypfB_15crossbeam_scope({ {}*, [3 x i64]* }* %_22, i64 %len)
          to label %bb13 unwind label %cleanup1, !dbg !1705

bb13:                                             ; preds = %bb12
  store i8 0, i8* %_30, align 1, !dbg !1706
  %14 = getelementptr inbounds { {}*, [3 x i64]* }, { {}*, [3 x i64]* }* %element, i32 0, i32 0, !dbg !1706
  %_25.0 = load {}*, {}** %14, align 8, !dbg !1706, !nonnull !4
  %15 = getelementptr inbounds { {}*, [3 x i64]* }, { {}*, [3 x i64]* }* %element, i32 0, i32 1, !dbg !1706
  %_25.1 = load [3 x i64]*, [3 x i64]** %15, align 8, !dbg !1706, !nonnull !4
; invoke core::ptr::write::<alloc::boxed::Box<dyn core::any::Any + core::marker::Send>>
  invoke void @_RINvNtCs3p84KrD9aKt_4core3ptr5writeINtNtCs8RW06R9lH2S_5alloc5boxed3BoxDNtNtB4_3any3AnyNtNtB4_6marker4SendEL_EECseZ2WzEtypfB_15crossbeam_scope({ {}*, [3 x i64]* }* %_21, {}* noalias nonnull align 1 %_25.0, [3 x i64]* noalias readonly align 8 dereferenceable(24) %_25.1)
          to label %bb14 unwind label %cleanup1, !dbg !1707

bb14:                                             ; preds = %bb13
  %_28 = add i64 %len, 1, !dbg !1708
; invoke <alloc::vec::Vec<alloc::boxed::Box<dyn core::any::Any + core::marker::Send>>>::set_len
  invoke void @_RNvMs_NtCs8RW06R9lH2S_5alloc3vecINtB4_3VecINtNtB6_5boxed3BoxDNtNtCs3p84KrD9aKt_4core3any3AnyNtNtB11_6marker4SendEL_EE7set_lenCseZ2WzEtypfB_15crossbeam_scope(%"std::vec::Vec<std::boxed::Box<dyn std::any::Any + std::marker::Send>>"* align 8 dereferenceable(24) %self, i64 %_28)
          to label %bb15 unwind label %cleanup1, !dbg !1709

bb15:                                             ; preds = %bb14
  store i8 0, i8* %_30, align 1, !dbg !1693
  br label %bb0, !dbg !1710

bb16:                                             ; preds = %bb2
; call core::ptr::drop_in_place::<core::iter::adapters::filter_map::FilterMap<core::iter::adapters::filter_map::FilterMap<alloc::vec::drain::Drain<alloc::sync::Arc<std::sync::mutex::Mutex<core::option::Option<std::thread::JoinHandle<()>>>>>, crossbeam_utils::thread::scope<crossbeam_scope::main::{closure#0}, ()>::{closure#1}>, crossbeam_utils::thread::scope<crossbeam_scope::main::{closure#0}, ()>::{closure#2}>>
  call void @_RINvNtCs3p84KrD9aKt_4core3ptr13drop_in_placeINtNtNtNtB4_4iter8adapters10filter_map9FilterMapIBH_INtNtNtCs8RW06R9lH2S_5alloc3vec5drain5DrainINtNtB1D_4sync3ArcINtNtNtCs2bNvlddUlXM_3std4sync5mutex5MutexINtNtB4_6option6OptionINtNtB2C_6thread10JoinHandleuEEEEENCINvNtCs48Yq53b35jF_15crossbeam_utils6thread5scopeNCNvCseZ2WzEtypfB_15crossbeam_scope4main0uEs_0ENCB47_s0_0EEB4Y_(%"std::iter::FilterMap<std::iter::FilterMap<std::vec::Drain<std::sync::Arc<std::sync::Mutex<std::option::Option<std::thread::JoinHandle<()>>>>>, [closure@crossbeam::scope<[closure@src/main.rs:14:16: 22:3], ()>::{closure#1}]>, [closure@crossbeam::scope<[closure@src/main.rs:14:16: 22:3], ()>::{closure#2}]>"* %iterator), !dbg !1711
  br label %bb17, !dbg !1711

bb17:                                             ; preds = %bb16
  ret void, !dbg !1712

bb18:                                             ; preds = %bb21, %bb22
  br label %bb19, !dbg !1693

bb19:                                             ; preds = %bb18, %cleanup
; call core::ptr::drop_in_place::<core::iter::adapters::filter_map::FilterMap<core::iter::adapters::filter_map::FilterMap<alloc::vec::drain::Drain<alloc::sync::Arc<std::sync::mutex::Mutex<core::option::Option<std::thread::JoinHandle<()>>>>>, crossbeam_utils::thread::scope<crossbeam_scope::main::{closure#0}, ()>::{closure#1}>, crossbeam_utils::thread::scope<crossbeam_scope::main::{closure#0}, ()>::{closure#2}>>
  call void @_RINvNtCs3p84KrD9aKt_4core3ptr13drop_in_placeINtNtNtNtB4_4iter8adapters10filter_map9FilterMapIBH_INtNtNtCs8RW06R9lH2S_5alloc3vec5drain5DrainINtNtB1D_4sync3ArcINtNtNtCs2bNvlddUlXM_3std4sync5mutex5MutexINtNtB4_6option6OptionINtNtB2C_6thread10JoinHandleuEEEEENCINvNtCs48Yq53b35jF_15crossbeam_utils6thread5scopeNCNvCseZ2WzEtypfB_15crossbeam_scope4main0uEs_0ENCB47_s0_0EEB4Y_(%"std::iter::FilterMap<std::iter::FilterMap<std::vec::Drain<std::sync::Arc<std::sync::Mutex<std::option::Option<std::thread::JoinHandle<()>>>>>, [closure@crossbeam::scope<[closure@src/main.rs:14:16: 22:3], ()>::{closure#1}]>, [closure@crossbeam::scope<[closure@src/main.rs:14:16: 22:3], ()>::{closure#2}]>"* %iterator) #15, !dbg !1711
  br label %bb20, !dbg !1711

bb20:                                             ; preds = %bb19
  %16 = bitcast { i8*, i32 }* %0 to i8**, !dbg !1713
  %17 = load i8*, i8** %16, align 8, !dbg !1713
  %18 = getelementptr inbounds { i8*, i32 }, { i8*, i32 }* %0, i32 0, i32 1, !dbg !1713
  %19 = load i32, i32* %18, align 8, !dbg !1713
  %20 = insertvalue { i8*, i32 } undef, i8* %17, 0, !dbg !1713
  %21 = insertvalue { i8*, i32 } %20, i32 %19, 1, !dbg !1713
  resume { i8*, i32 } %21, !dbg !1713

bb21:                                             ; preds = %bb22
; call core::ptr::drop_in_place::<alloc::boxed::Box<dyn core::any::Any + core::marker::Send>>
  call void @_RINvNtCs3p84KrD9aKt_4core3ptr13drop_in_placeINtNtCs8RW06R9lH2S_5alloc5boxed3BoxDNtNtB4_3any3AnyNtNtB4_6marker4SendEL_EECs48Yq53b35jF_15crossbeam_utils({ {}*, [3 x i64]* }* %element) #15, !dbg !1693
  br label %bb18, !dbg !1693

bb22:                                             ; preds = %cleanup1
  %22 = load i8, i8* %_30, align 1, !dbg !1693, !range !850
  %23 = trunc i8 %22 to i1, !dbg !1693
  br i1 %23, label %bb21, label %bb18, !dbg !1693

cleanup:                                          ; preds = %bb2, %bb0
  %24 = landingpad { i8*, i32 }
          cleanup
  %25 = extractvalue { i8*, i32 } %24, 0
  %26 = extractvalue { i8*, i32 } %24, 1
  %27 = getelementptr inbounds { i8*, i32 }, { i8*, i32 }* %0, i32 0, i32 0
  store i8* %25, i8** %27, align 8
  %28 = getelementptr inbounds { i8*, i32 }, { i8*, i32 }* %0, i32 0, i32 1
  store i32 %26, i32* %28, align 8
  br label %bb19

cleanup1:                                         ; preds = %bb14, %bb13, %bb12, %bb11, %bb9, %bb8, %bb6, %bb4, %bb3
  %29 = landingpad { i8*, i32 }
          cleanup
  %30 = extractvalue { i8*, i32 } %29, 0
  %31 = extractvalue { i8*, i32 } %29, 1
  %32 = getelementptr inbounds { i8*, i32 }, { i8*, i32 }* %0, i32 0, i32 0
  store i8* %30, i8** %32, align 8
  %33 = getelementptr inbounds { i8*, i32 }, { i8*, i32 }* %0, i32 0, i32 1
  store i32 %31, i32* %33, align 8
  br label %bb22
}

; std::rt::lang_start::<()>
; Function Attrs: nonlazybind uwtable
define hidden i64 @_RINvNtCs2bNvlddUlXM_3std2rt10lang_startuECseZ2WzEtypfB_15crossbeam_scope(void ()* nonnull %main, i64 %argc, i8** %argv) unnamed_addr #0 !dbg !1714 {
start:
  %argv.dbg.spill = alloca i8**, align 8
  %argc.dbg.spill = alloca i64, align 8
  %main.dbg.spill = alloca void ()*, align 8
  %_7 = alloca i64*, align 8
  store void ()* %main, void ()** %main.dbg.spill, align 8
  call void @llvm.dbg.declare(metadata void ()** %main.dbg.spill, metadata !1721, metadata !DIExpression()), !dbg !1724
  store i64 %argc, i64* %argc.dbg.spill, align 8
  call void @llvm.dbg.declare(metadata i64* %argc.dbg.spill, metadata !1722, metadata !DIExpression()), !dbg !1725
  store i8** %argv, i8*** %argv.dbg.spill, align 8
  call void @llvm.dbg.declare(metadata i8*** %argv.dbg.spill, metadata !1723, metadata !DIExpression()), !dbg !1726
  %0 = bitcast i64** %_7 to void ()**, !dbg !1727
  store void ()* %main, void ()** %0, align 8, !dbg !1727
  %_4.0 = bitcast i64** %_7 to {}*, !dbg !1728
; call std::rt::lang_start_internal
  %1 = call i64 @_ZN3std2rt19lang_start_internal17he4958117ec6901fdE({}* nonnull align 1 %_4.0, [3 x i64]* noalias readonly align 8 dereferenceable(24) bitcast ({ void (i64**)*, i64, i64, i32 (i64**)*, i32 (i64**)*, i32 (i64**)* }* @vtable.2 to [3 x i64]*), i64 %argc, i8** %argv), !dbg !1729
  br label %bb1, !dbg !1729

bb1:                                              ; preds = %start
  ret i64 %1, !dbg !1730
}

; std::panic::catch_unwind::<std::panic::AssertUnwindSafe<crossbeam_utils::thread::scope<crossbeam_scope::main::{closure#0}, ()>::{closure#0}>, ()>
; Function Attrs: nonlazybind uwtable
define internal { i8*, i8* } @_RINvNtCs2bNvlddUlXM_3std5panic12catch_unwindINtB2_16AssertUnwindSafeNCINvNtCs48Yq53b35jF_15crossbeam_utils6thread5scopeNCNvCseZ2WzEtypfB_15crossbeam_scope4main0uE0EuEB1X_(%"std::panic::AssertUnwindSafe<[closure@crossbeam::scope<[closure@src/main.rs:14:16: 22:3], ()>::{closure#0}]>"* noalias nocapture dereferenceable(32) %f) unnamed_addr #0 !dbg !1731 {
start:
  %_2 = alloca %"std::panic::AssertUnwindSafe<[closure@crossbeam::scope<[closure@src/main.rs:14:16: 22:3], ()>::{closure#0}]>", align 8
  call void @llvm.dbg.declare(metadata %"std::panic::AssertUnwindSafe<[closure@crossbeam::scope<[closure@src/main.rs:14:16: 22:3], ()>::{closure#0}]>"* %f, metadata !1751, metadata !DIExpression()), !dbg !1755
  %0 = bitcast %"std::panic::AssertUnwindSafe<[closure@crossbeam::scope<[closure@src/main.rs:14:16: 22:3], ()>::{closure#0}]>"* %_2 to i8*, !dbg !1756
  %1 = bitcast %"std::panic::AssertUnwindSafe<[closure@crossbeam::scope<[closure@src/main.rs:14:16: 22:3], ()>::{closure#0}]>"* %f to i8*, !dbg !1756
  call void @llvm.memcpy.p0i8.p0i8.i64(i8* align 8 %0, i8* align 8 %1, i64 32, i1 false), !dbg !1756
; call std::panicking::try::<(), std::panic::AssertUnwindSafe<crossbeam_utils::thread::scope<crossbeam_scope::main::{closure#0}, ()>::{closure#0}>>
  %2 = call { i8*, i8* } @_RINvNtCs2bNvlddUlXM_3std9panicking3tryuINtNtB4_5panic16AssertUnwindSafeNCINvNtCs48Yq53b35jF_15crossbeam_utils6thread5scopeNCNvCseZ2WzEtypfB_15crossbeam_scope4main0uE0EEB20_(%"std::panic::AssertUnwindSafe<[closure@crossbeam::scope<[closure@src/main.rs:14:16: 22:3], ()>::{closure#0}]>"* noalias nocapture dereferenceable(32) %_2), !dbg !1757
  %3 = extractvalue { i8*, i8* } %2, 0, !dbg !1757
  %4 = extractvalue { i8*, i8* } %2, 1, !dbg !1757
  br label %bb1, !dbg !1757

bb1:                                              ; preds = %start
  %5 = insertvalue { i8*, i8* } undef, i8* %3, 0, !dbg !1758
  %6 = insertvalue { i8*, i8* } %5, i8* %4, 1, !dbg !1758
  ret { i8*, i8* } %6, !dbg !1758
}

; std::panic::catch_unwind::<std::panic::AssertUnwindSafe<<std::thread::Builder>::spawn_unchecked<<crossbeam_utils::thread::ScopedThreadBuilder>::spawn<crossbeam_scope::main::{closure#0}::{closure#0}, ()>::{closure#1}, ()>::{closure#0}::{closure#0}>, ()>
; Function Attrs: nonlazybind uwtable
define internal { i8*, i8* } @_RINvNtCs2bNvlddUlXM_3std5panic12catch_unwindINtB2_16AssertUnwindSafeNCNCINvMNtB4_6threadNtB1c_7Builder15spawn_uncheckedNCINvMs1_NtCs48Yq53b35jF_15crossbeam_utils6threadNtB22_19ScopedThreadBuilder5spawnNCNCNvCseZ2WzEtypfB_15crossbeam_scope4main00uEs_0uE00EuEB3j_(i8* noalias nonnull align 1 %f.0, i64* noalias readonly align 8 dereferenceable(24) %f.1) unnamed_addr #0 !dbg !1759 {
start:
  %f.dbg.spill = alloca { i8*, i64* }, align 8
  %0 = getelementptr inbounds { i8*, i64* }, { i8*, i64* }* %f.dbg.spill, i32 0, i32 0
  store i8* %f.0, i8** %0, align 8
  %1 = getelementptr inbounds { i8*, i64* }, { i8*, i64* }* %f.dbg.spill, i32 0, i32 1
  store i64* %f.1, i64** %1, align 8
  call void @llvm.dbg.declare(metadata { i8*, i64* }* %f.dbg.spill, metadata !1772, metadata !DIExpression()), !dbg !1775
; call std::panicking::try::<(), std::panic::AssertUnwindSafe<<std::thread::Builder>::spawn_unchecked<<crossbeam_utils::thread::ScopedThreadBuilder>::spawn<crossbeam_scope::main::{closure#0}::{closure#0}, ()>::{closure#1}, ()>::{closure#0}::{closure#0}>>
  %2 = call { i8*, i8* } @_RINvNtCs2bNvlddUlXM_3std9panicking3tryuINtNtB4_5panic16AssertUnwindSafeNCNCINvMNtB4_6threadNtB1f_7Builder15spawn_uncheckedNCINvMs1_NtCs48Yq53b35jF_15crossbeam_utils6threadNtB25_19ScopedThreadBuilder5spawnNCNCNvCseZ2WzEtypfB_15crossbeam_scope4main00uEs_0uE00EEB3m_(i8* noalias nonnull align 1 %f.0, i64* noalias readonly align 8 dereferenceable(24) %f.1), !dbg !1776
  %3 = extractvalue { i8*, i8* } %2, 0, !dbg !1776
  %4 = extractvalue { i8*, i8* } %2, 1, !dbg !1776
  br label %bb1, !dbg !1776

bb1:                                              ; preds = %start
  %5 = insertvalue { i8*, i8* } undef, i8* %3, 0, !dbg !1777
  %6 = insertvalue { i8*, i8* } %5, i8* %4, 1, !dbg !1777
  ret { i8*, i8* } %6, !dbg !1777
}

; std::panicking::try::<(), std::panic::AssertUnwindSafe<crossbeam_utils::thread::scope<crossbeam_scope::main::{closure#0}, ()>::{closure#0}>>
; Function Attrs: nonlazybind uwtable
define internal { i8*, i8* } @_RINvNtCs2bNvlddUlXM_3std9panicking3tryuINtNtB4_5panic16AssertUnwindSafeNCINvNtCs48Yq53b35jF_15crossbeam_utils6thread5scopeNCNvCseZ2WzEtypfB_15crossbeam_scope4main0uE0EEB20_(%"std::panic::AssertUnwindSafe<[closure@crossbeam::scope<[closure@src/main.rs:14:16: 22:3], ()>::{closure#0}]>"* noalias nocapture dereferenceable(32) %f) unnamed_addr #0 !dbg !1778 {
start:
  %slot.dbg.spill.i = alloca { i8*, i64* }, align 8
  %_2.i = alloca %"std::panic::AssertUnwindSafe<[closure@crossbeam::scope<[closure@src/main.rs:14:16: 22:3], ()>::{closure#0}]>", align 8
  %0 = alloca i32, align 4
  %data_ptr.dbg.spill = alloca i8*, align 8
  %_4 = alloca %"std::panic::AssertUnwindSafe<[closure@crossbeam::scope<[closure@src/main.rs:14:16: 22:3], ()>::{closure#0}]>", align 8
  %_3 = alloca %"std::mem::ManuallyDrop<std::panic::AssertUnwindSafe<[closure@crossbeam::scope<[closure@src/main.rs:14:16: 22:3], ()>::{closure#0}]>>", align 8
  %data = alloca %"std::panicking::r#try::Data<std::panic::AssertUnwindSafe<[closure@crossbeam::scope<[closure@src/main.rs:14:16: 22:3], ()>::{closure#0}]>, ()>", align 8
  %1 = alloca { i8*, i8* }, align 8
  call void @llvm.dbg.declare(metadata %"std::panic::AssertUnwindSafe<[closure@crossbeam::scope<[closure@src/main.rs:14:16: 22:3], ()>::{closure#0}]>"* %f, metadata !1782, metadata !DIExpression()), !dbg !1807
  call void @llvm.dbg.declare(metadata %"std::panicking::r#try::Data<std::panic::AssertUnwindSafe<[closure@crossbeam::scope<[closure@src/main.rs:14:16: 22:3], ()>::{closure#0}]>, ()>"* %data, metadata !1783, metadata !DIExpression()), !dbg !1808
  %2 = bitcast %"std::panic::AssertUnwindSafe<[closure@crossbeam::scope<[closure@src/main.rs:14:16: 22:3], ()>::{closure#0}]>"* %_4 to i8*, !dbg !1809
  %3 = bitcast %"std::panic::AssertUnwindSafe<[closure@crossbeam::scope<[closure@src/main.rs:14:16: 22:3], ()>::{closure#0}]>"* %f to i8*, !dbg !1809
  call void @llvm.memcpy.p0i8.p0i8.i64(i8* align 8 %2, i8* align 8 %3, i64 32, i1 false), !dbg !1809
  call void @llvm.dbg.declare(metadata %"std::panic::AssertUnwindSafe<[closure@crossbeam::scope<[closure@src/main.rs:14:16: 22:3], ()>::{closure#0}]>"* %_4, metadata !1810, metadata !DIExpression()), !dbg !1816
  %4 = bitcast %"std::panic::AssertUnwindSafe<[closure@crossbeam::scope<[closure@src/main.rs:14:16: 22:3], ()>::{closure#0}]>"* %_2.i to i8*, !dbg !1818
  %5 = bitcast %"std::panic::AssertUnwindSafe<[closure@crossbeam::scope<[closure@src/main.rs:14:16: 22:3], ()>::{closure#0}]>"* %_4 to i8*, !dbg !1818
  call void @llvm.memcpy.p0i8.p0i8.i64(i8* align 8 %4, i8* align 8 %5, i64 32, i1 false), !dbg !1818, !noalias !1819
  %6 = bitcast %"std::mem::ManuallyDrop<std::panic::AssertUnwindSafe<[closure@crossbeam::scope<[closure@src/main.rs:14:16: 22:3], ()>::{closure#0}]>>"* %_3 to %"std::panic::AssertUnwindSafe<[closure@crossbeam::scope<[closure@src/main.rs:14:16: 22:3], ()>::{closure#0}]>"*, !dbg !1822
  %7 = bitcast %"std::panic::AssertUnwindSafe<[closure@crossbeam::scope<[closure@src/main.rs:14:16: 22:3], ()>::{closure#0}]>"* %6 to i8*, !dbg !1822
  %8 = bitcast %"std::panic::AssertUnwindSafe<[closure@crossbeam::scope<[closure@src/main.rs:14:16: 22:3], ()>::{closure#0}]>"* %_2.i to i8*, !dbg !1822
  call void @llvm.memcpy.p0i8.p0i8.i64(i8* align 8 %7, i8* align 8 %8, i64 32, i1 false), !dbg !1822, !noalias !1823
  br label %bb1, !dbg !1825

bb1:                                              ; preds = %start
  %9 = bitcast %"std::panicking::r#try::Data<std::panic::AssertUnwindSafe<[closure@crossbeam::scope<[closure@src/main.rs:14:16: 22:3], ()>::{closure#0}]>, ()>"* %data to %"std::mem::ManuallyDrop<std::panic::AssertUnwindSafe<[closure@crossbeam::scope<[closure@src/main.rs:14:16: 22:3], ()>::{closure#0}]>>"*, !dbg !1826
  %10 = bitcast %"std::mem::ManuallyDrop<std::panic::AssertUnwindSafe<[closure@crossbeam::scope<[closure@src/main.rs:14:16: 22:3], ()>::{closure#0}]>>"* %9 to i8*, !dbg !1826
  %11 = bitcast %"std::mem::ManuallyDrop<std::panic::AssertUnwindSafe<[closure@crossbeam::scope<[closure@src/main.rs:14:16: 22:3], ()>::{closure#0}]>>"* %_3 to i8*, !dbg !1826
  call void @llvm.memcpy.p0i8.p0i8.i64(i8* align 8 %10, i8* align 8 %11, i64 32, i1 false), !dbg !1826
  %data_ptr = bitcast %"std::panicking::r#try::Data<std::panic::AssertUnwindSafe<[closure@crossbeam::scope<[closure@src/main.rs:14:16: 22:3], ()>::{closure#0}]>, ()>"* %data to i8*, !dbg !1827
  store i8* %data_ptr, i8** %data_ptr.dbg.spill, align 8, !dbg !1827
  call void @llvm.dbg.declare(metadata i8** %data_ptr.dbg.spill, metadata !1804, metadata !DIExpression()), !dbg !1828
  %12 = call i32 @__rust_try(void (i8*)* @_RINvNvNtCs2bNvlddUlXM_3std9panicking3try7do_callINtNtB6_5panic16AssertUnwindSafeNCINvNtCs48Yq53b35jF_15crossbeam_utils6thread5scopeNCNvCseZ2WzEtypfB_15crossbeam_scope4main0uE0EuEB29_, i8* %data_ptr, void (i8*, i8*)* @_RINvNvNtCs2bNvlddUlXM_3std9panicking3try8do_catchINtNtB6_5panic16AssertUnwindSafeNCINvNtCs48Yq53b35jF_15crossbeam_utils6thread5scopeNCNvCseZ2WzEtypfB_15crossbeam_scope4main0uE0EuEB2a_), !dbg !1829
  store i32 %12, i32* %0, align 4, !dbg !1829
  %_9 = load i32, i32* %0, align 4, !dbg !1829
  br label %bb2, !dbg !1829

bb2:                                              ; preds = %bb1
  %13 = icmp eq i32 %_9, 0, !dbg !1830
  br i1 %13, label %bb3, label %bb4, !dbg !1830

bb3:                                              ; preds = %bb2
  call void @llvm.dbg.declare(metadata %"std::mem::ManuallyDrop<()>"* undef, metadata !1831, metadata !DIExpression()), !dbg !1836
  br label %bb5, !dbg !1838

bb4:                                              ; preds = %bb2
  %14 = bitcast %"std::panicking::r#try::Data<std::panic::AssertUnwindSafe<[closure@crossbeam::scope<[closure@src/main.rs:14:16: 22:3], ()>::{closure#0}]>, ()>"* %data to { i8*, i64* }*, !dbg !1839
  %15 = getelementptr inbounds { i8*, i64* }, { i8*, i64* }* %14, i32 0, i32 0, !dbg !1839
  %_17.0 = load i8*, i8** %15, align 8, !dbg !1839, !nonnull !4
  %16 = getelementptr inbounds { i8*, i64* }, { i8*, i64* }* %14, i32 0, i32 1, !dbg !1839
  %_17.1 = load i64*, i64** %16, align 8, !dbg !1839, !nonnull !4
  %17 = getelementptr inbounds { i8*, i64* }, { i8*, i64* }* %slot.dbg.spill.i, i32 0, i32 0
  store i8* %_17.0, i8** %17, align 8, !noalias !1840
  %18 = getelementptr inbounds { i8*, i64* }, { i8*, i64* }* %slot.dbg.spill.i, i32 0, i32 1
  store i64* %_17.1, i64** %18, align 8, !noalias !1840
  call void @llvm.dbg.declare(metadata { i8*, i64* }* %slot.dbg.spill.i, metadata !1844, metadata !DIExpression()), !dbg !1849
  %19 = bitcast i8* %_17.0 to {}*, !dbg !1851
  %20 = bitcast i64* %_17.1 to [3 x i64]*, !dbg !1851
