; ModuleID = '2oy6z962nqkqsqhl'
source_filename = "2oy6z962nqkqsqhl"
target datalayout = "e-m:e-p270:32:32-p271:32:32-p272:64:64-i64:64-f80:128-n8:16:32:64-S128"
target triple = "x86_64-unknown-linux-gnu"

%"[closure@std::thread::Builder::spawn_unchecked<[closure@src/main.rs:15:17: 19:4], ()>::{closure#0}]" = type { [0 x i64], i64*, [0 x i64], i64*, [0 x i64], i64*, [0 x i64], i64*, [0 x i64] }
%"std::io::Error" = type { [0 x i64], %"std::io::error::Repr", [0 x i64] }
%"std::io::error::Repr" = type { [0 x i8], i8, [15 x i8] }
%"std::fmt::Formatter" = type { [0 x i64], { i64, i64 }, [0 x i64], { i64, i64 }, [0 x i64], { {}*, [3 x i64]* }, [0 x i32], i32, [0 x i32], i32, [0 x i8], i8, [7 x i8] }
%"std::result::Result<std::thread::JoinHandle<()>, std::io::Error>" = type { [0 x i64], i64, [4 x i64] }
%"std::thread::Builder" = type { [0 x i64], %"std::option::Option<std::string::String>", [0 x i64], { i64, i64 }, [0 x i64] }
%"std::option::Option<std::string::String>" = type { [0 x i64], {}*, [2 x i64] }
%"std::result::Result<std::sys::unix::thread::Thread, std::io::Error>" = type { [0 x i64], i64, [2 x i64] }
%"std::thread::JoinInner<()>" = type { [0 x i64], { i64, i64 }, [0 x i64], i64*, [0 x i64], i64*, [0 x i64] }
%"std::thread::JoinHandle<()>" = type { [0 x i64], %"std::thread::JoinInner<()>", [0 x i64] }
%"std::option::Option<std::result::Result<(), std::boxed::Box<dyn std::any::Any + std::marker::Send>>>" = type { [0 x i64], i64, [2 x i64] }
%"std::cell::UnsafeCell<std::option::Option<std::result::Result<(), std::boxed::Box<dyn std::any::Any + std::marker::Send>>>>" = type { [0 x i64], %"std::option::Option<std::result::Result<(), std::boxed::Box<dyn std::any::Any + std::marker::Send>>>", [0 x i64] }
%"std::result::Result<std::sys::unix::thread::Thread, std::io::Error>::Ok" = type { [1 x i64], i64, [0 x i64] }
%"std::option::Option<std::sys::unix::thread::Thread>::Some" = type { [1 x i64], i64, [0 x i64] }
%"std::result::Result<std::thread::JoinHandle<()>, std::io::Error>::Ok" = type { [1 x i64], %"std::thread::JoinHandle<()>", [0 x i64] }
%"std::result::Result<std::sys::unix::thread::Thread, std::io::Error>::Err" = type { [1 x i64], %"std::io::Error", [0 x i64] }
%"std::option::Option<usize>::Some" = type { [1 x i64], i64, [0 x i64] }
%"std::option::Option<crossbeam::crossbeam_queue::array_queue::Slot<i32>>" = type { [0 x i64], i64, [2 x i64] }
%"[closure@crossbeam::crossbeam_queue::ArrayQueue<i32>::new::{closure#0}]" = type {}
%"crossbeam::crossbeam_queue::array_queue::Slot<i32>" = type { [0 x i64], %"std::sync::atomic::AtomicUsize", [0 x i32], i32, [1 x i32] }
%"std::sync::atomic::AtomicUsize" = type { [0 x i64], i64, [0 x i64] }
%"std::option::Option<crossbeam::crossbeam_queue::array_queue::Slot<i32>>::Some" = type { [1 x i64], %"crossbeam::crossbeam_queue::array_queue::Slot<i32>", [0 x i64] }
%"std::option::Option<std::thread::JoinHandle<()>>" = type { [0 x i64], i64, [3 x i64] }
%"std::option::Option<i32>::Some" = type { [1 x i32], i32, [0 x i32] }
%"std::option::Option<std::thread::JoinHandle<()>>::Some" = type { [0 x i64], %"std::thread::JoinHandle<()>", [0 x i64] }
%"std::result::Result<std::ptr::NonNull<[u8]>, std::collections::TryReserveError>" = type { [0 x i64], i64, [2 x i64] }
%"std::alloc::AllocError" = type {}
%"std::result::Result<std::ptr::NonNull<[u8]>, std::collections::TryReserveError>::Ok" = type { [1 x i64], { i8*, i64 }, [0 x i64] }
%"std::result::Result<std::ptr::NonNull<[u8]>, std::collections::TryReserveError>::Err" = type { [1 x i64], { i64, i64 }, [0 x i64] }
%"alloc::sync::ArcInner<std::cell::UnsafeCell<std::option::Option<std::result::Result<(), std::boxed::Box<dyn std::any::Any + std::marker::Send>>>>>" = type { [0 x i64], %"std::sync::atomic::AtomicUsize", [0 x i64], %"std::sync::atomic::AtomicUsize", [0 x i64], %"std::cell::UnsafeCell<std::option::Option<std::result::Result<(), std::boxed::Box<dyn std::any::Any + std::marker::Send>>>>", [0 x i64] }
%"alloc::sync::ArcInner<crossbeam::crossbeam_queue::ArrayQueue<i32>>" = type { [0 x i64], %"std::sync::atomic::AtomicUsize", [0 x i64], %"std::sync::atomic::AtomicUsize", [14 x i64], %"crossbeam::crossbeam_queue::ArrayQueue<i32>", [0 x i64] }
%"crossbeam::crossbeam_queue::ArrayQueue<i32>" = type { [0 x i8], %"std::marker::PhantomData<i32>", [0 x i8], %"crossbeam::utils::CachePadded<std::sync::atomic::AtomicUsize>", [0 x i64], %"crossbeam::utils::CachePadded<std::sync::atomic::AtomicUsize>", [0 x i64], %"crossbeam::crossbeam_queue::array_queue::Slot<i32>"*, [0 x i64], i64, [0 x i64], i64, [13 x i64] }
%"std::marker::PhantomData<i32>" = type {}
%"crossbeam::utils::CachePadded<std::sync::atomic::AtomicUsize>" = type { [0 x i64], %"std::sync::atomic::AtomicUsize", [15 x i64] }
%"alloc::sync::ArcInner<std::sync::Mutex<std::vec::Vec<u8>>>" = type { [0 x i64], %"std::sync::atomic::AtomicUsize", [0 x i64], %"std::sync::atomic::AtomicUsize", [0 x i64], %"std::sync::Mutex<std::vec::Vec<u8>>", [0 x i64] }
%"std::sync::Mutex<std::vec::Vec<u8>>" = type { [0 x i64], i64*, [0 x i8], %"std::sys_common::poison::Flag", [7 x i8], %"std::cell::UnsafeCell<std::vec::Vec<u8>>", [0 x i64] }
%"std::sys_common::poison::Flag" = type { [0 x i8], %"std::sync::atomic::AtomicBool", [0 x i8] }
%"std::sync::atomic::AtomicBool" = type { [0 x i8], i8, [0 x i8] }
%"std::cell::UnsafeCell<std::vec::Vec<u8>>" = type { [0 x i64], %"std::vec::Vec<u8>", [0 x i64] }
%"std::vec::Vec<u8>" = type { [0 x i64], { i8*, i64 }, [0 x i64], i64, [0 x i64] }
%"std::alloc::LayoutError" = type { [0 x i8], {}, [0 x i8] }
%"std::result::Result<(std::alloc::Layout, usize), std::alloc::LayoutError>" = type { [1 x i64], i64, [1 x i64] }
%"std::result::Result<(std::alloc::Layout, usize), std::alloc::LayoutError>::Ok" = type { [0 x i64], { [0 x i64], { i64, i64 }, [0 x i64], i64, [0 x i64] }, [0 x i64] }
%"std::io::error::Custom" = type { [0 x i64], { {}*, [3 x i64]* }, [0 x i8], i8, [7 x i8] }
%"std::mem::MaybeUninit<crossbeam::crossbeam_queue::array_queue::Slot<i32>>" = type { [2 x i64] }
%"core::fmt::Opaque" = type {}
%"std::vec::Vec<std::thread::JoinHandle<()>>" = type { [0 x i64], { i64*, i64 }, [0 x i64], i64, [0 x i64] }
%"std::iter::Map<std::ops::Range<i32>, [closure@src/main.rs:13:7: 20:3]>" = type { [0 x i64], i64*, [0 x i32], { i32, i32 }, [0 x i32] }
%"std::vec::Vec<crossbeam::crossbeam_queue::array_queue::Slot<i32>>" = type { [0 x i64], { i64*, i64 }, [0 x i64], i64, [0 x i64] }
%"std::panic::Location" = type { [0 x i64], { [0 x i8]*, i64 }, [0 x i32], i32, [0 x i32], i32, [0 x i32] }
%"std::panicking::r#try::Data<std::panic::AssertUnwindSafe<[closure@std::thread::Builder::spawn_unchecked<[closure@src/main.rs:15:17: 19:4], ()>::{closure#0}::{closure#0}]>, ()>" = type { [2 x i64] }
%"std::mem::ManuallyDrop<()>" = type { [0 x i8], {}, [0 x i8] }
%"std::result::Result<(), std::boxed::Box<dyn std::any::Any + std::marker::Send>>::Ok" = type { [0 x i8], {}, [0 x i8] }
%"std::option::Option<std::result::Result<(), std::boxed::Box<dyn std::any::Any + std::marker::Send>>>::Some" = type { [1 x i64], { i8*, i8* }, [0 x i64] }
%"std::option::Option<std::string::String>::Some" = type { [0 x i64], %"std::string::String", [0 x i64] }
%"std::string::String" = type { [0 x i64], %"std::vec::Vec<u8>", [0 x i64] }
%"std::result::Result<std::thread::JoinHandle<()>, std::io::Error>::Err" = type { [1 x i64], %"std::io::Error", [0 x i64] }
%"std::result::Result<crossbeam::crossbeam_queue::ArrayQueue<i32>, std::sync::Arc<crossbeam::crossbeam_queue::ArrayQueue<i32>>>" = type { [0 x i64], i64, [63 x i64] }
%"std::result::Result<crossbeam::crossbeam_queue::ArrayQueue<i32>, std::sync::Arc<crossbeam::crossbeam_queue::ArrayQueue<i32>>>::Ok" = type { [16 x i64], %"crossbeam::crossbeam_queue::ArrayQueue<i32>", [0 x i64] }
%"std::result::Result<crossbeam::crossbeam_queue::ArrayQueue<i32>, std::sync::Arc<crossbeam::crossbeam_queue::ArrayQueue<i32>>>::Err" = type { [1 x i64], i64*, [0 x i64] }
%"std::vec::IntoIter<std::thread::JoinHandle<()>>" = type { [0 x i8], %"std::marker::PhantomData<std::thread::JoinHandle<()>>", [0 x i8], %"std::alloc::Global", [0 x i8], i64*, [0 x i64], i64, [0 x i64], %"std::thread::JoinHandle<()>"*, [0 x i64], %"std::thread::JoinHandle<()>"*, [0 x i64] }
%"std::marker::PhantomData<std::thread::JoinHandle<()>>" = type {}
%"std::alloc::Global" = type {}
%"[closure@std::iter::adapters::map::map_fold<usize, crossbeam::crossbeam_queue::array_queue::Slot<i32>, (), [closure@crossbeam::crossbeam_queue::ArrayQueue<i32>::new::{closure#0}], [closure@std::iter::Iterator::for_each::call<crossbeam::crossbeam_queue::array_queue::Slot<i32>, [closure@<std::vec::Vec<crossbeam::crossbeam_queue::array_queue::Slot<i32>> as std::vec::spec_extend::SpecExtend<crossbeam::crossbeam_queue::array_queue::Slot<i32>, std::iter::Map<std::ops::Range<usize>, [closure@crossbeam::crossbeam_queue::ArrayQueue<i32>::new::{closure#0}]>>>::spec_extend::{closure#0}]>::{closure#0}]>::{closure#0}]" = type { [0 x i8], %"[closure@crossbeam::crossbeam_queue::ArrayQueue<i32>::new::{closure#0}]", [0 x i8], %"[closure@std::iter::Iterator::for_each::call<crossbeam::crossbeam_queue::array_queue::Slot<i32>, [closure@<std::vec::Vec<crossbeam::crossbeam_queue::array_queue::Slot<i32>> as std::vec::spec_extend::SpecExtend<crossbeam::crossbeam_queue::array_queue::Slot<i32>, std::iter::Map<std::ops::Range<usize>, [closure@crossbeam::crossbeam_queue::ArrayQueue<i32>::new::{closure#0}]>>>::spec_extend::{closure#0}]>::{closure#0}]", [0 x i64] }
%"[closure@std::iter::Iterator::for_each::call<crossbeam::crossbeam_queue::array_queue::Slot<i32>, [closure@<std::vec::Vec<crossbeam::crossbeam_queue::array_queue::Slot<i32>> as std::vec::spec_extend::SpecExtend<crossbeam::crossbeam_queue::array_queue::Slot<i32>, std::iter::Map<std::ops::Range<usize>, [closure@crossbeam::crossbeam_queue::ArrayQueue<i32>::new::{closure#0}]>>>::spec_extend::{closure#0}]>::{closure#0}]" = type { [0 x i64], %"[closure@<std::vec::Vec<crossbeam::crossbeam_queue::array_queue::Slot<i32>> as std::vec::spec_extend::SpecExtend<crossbeam::crossbeam_queue::array_queue::Slot<i32>, std::iter::Map<std::ops::Range<usize>, [closure@crossbeam::crossbeam_queue::ArrayQueue<i32>::new::{closure#0}]>>>::spec_extend::{closure#0}]", [0 x i64] }
%"[closure@<std::vec::Vec<crossbeam::crossbeam_queue::array_queue::Slot<i32>> as std::vec::spec_extend::SpecExtend<crossbeam::crossbeam_queue::array_queue::Slot<i32>, std::iter::Map<std::ops::Range<usize>, [closure@crossbeam::crossbeam_queue::ArrayQueue<i32>::new::{closure#0}]>>>::spec_extend::{closure#0}]" = type { [0 x i64], %"crossbeam::crossbeam_queue::array_queue::Slot<i32>"*, [0 x i64], { i64*, i64 }, [0 x i64] }
%"[closure@std::iter::adapters::map::map_fold<i32, std::thread::JoinHandle<()>, (), [closure@src/main.rs:13:7: 20:3], [closure@std::iter::Iterator::for_each::call<std::thread::JoinHandle<()>, [closure@<std::vec::Vec<std::thread::JoinHandle<()>> as std::vec::spec_extend::SpecExtend<std::thread::JoinHandle<()>, std::iter::Map<std::ops::Range<i32>, [closure@src/main.rs:13:7: 20:3]>>>::spec_extend::{closure#0}]>::{closure#0}]>::{closure#0}]" = type { [0 x i64], %"[closure@std::iter::Iterator::for_each::call<std::thread::JoinHandle<()>, [closure@<std::vec::Vec<std::thread::JoinHandle<()>> as std::vec::spec_extend::SpecExtend<std::thread::JoinHandle<()>, std::iter::Map<std::ops::Range<i32>, [closure@src/main.rs:13:7: 20:3]>>>::spec_extend::{closure#0}]>::{closure#0}]", [0 x i64], i64*, [0 x i64] }
%"[closure@std::iter::Iterator::for_each::call<std::thread::JoinHandle<()>, [closure@<std::vec::Vec<std::thread::JoinHandle<()>> as std::vec::spec_extend::SpecExtend<std::thread::JoinHandle<()>, std::iter::Map<std::ops::Range<i32>, [closure@src/main.rs:13:7: 20:3]>>>::spec_extend::{closure#0}]>::{closure#0}]" = type { [0 x i64], %"[closure@<std::vec::Vec<std::thread::JoinHandle<()>> as std::vec::spec_extend::SpecExtend<std::thread::JoinHandle<()>, std::iter::Map<std::ops::Range<i32>, [closure@src/main.rs:13:7: 20:3]>>>::spec_extend::{closure#0}]", [0 x i64] }
%"[closure@<std::vec::Vec<std::thread::JoinHandle<()>> as std::vec::spec_extend::SpecExtend<std::thread::JoinHandle<()>, std::iter::Map<std::ops::Range<i32>, [closure@src/main.rs:13:7: 20:3]>>>::spec_extend::{closure#0}]" = type { [0 x i64], %"std::thread::JoinHandle<()>"*, [0 x i64], { i64*, i64 }, [0 x i64] }
%"std::io::error::Repr::Custom" = type { [1 x i64], %"std::io::error::Custom"*, [0 x i64] }
%"std::ptr::Repr<std::thread::JoinHandle<()>>" = type { [2 x i64] }
%"std::ptr::Repr<crossbeam::crossbeam_queue::array_queue::Slot<i32>>" = type { [2 x i64] }
%"std::ptr::Repr<std::mem::MaybeUninit<crossbeam::crossbeam_queue::array_queue::Slot<i32>>>" = type { [2 x i64] }
%"std::mem::MaybeUninit<std::option::Option<std::result::Result<(), std::boxed::Box<dyn std::any::Any + std::marker::Send>>>>" = type { [3 x i64] }
%"std::mem::ManuallyDrop<std::option::Option<std::result::Result<(), std::boxed::Box<dyn std::any::Any + std::marker::Send>>>>" = type { [0 x i64], %"std::option::Option<std::result::Result<(), std::boxed::Box<dyn std::any::Any + std::marker::Send>>>", [0 x i64] }
%"std::mem::MaybeUninit<std::thread::JoinHandle<()>>" = type { [4 x i64] }
%"std::mem::ManuallyDrop<std::thread::JoinHandle<()>>" = type { [0 x i64], %"std::thread::JoinHandle<()>", [0 x i64] }
%"std::mem::MaybeUninit<crossbeam::crossbeam_queue::ArrayQueue<i32>>" = type { [48 x i64] }
%"std::mem::ManuallyDrop<crossbeam::crossbeam_queue::ArrayQueue<i32>>" = type { [0 x i64], %"crossbeam::crossbeam_queue::ArrayQueue<i32>", [0 x i64] }
%"std::ffi::CStr" = type { [0 x i8], [0 x i8] }
%"std::option::Option<std::ops::Range<usize>>" = type { [0 x i64], i64, [2 x i64] }
%"std::result::Result<std::alloc::Layout, std::alloc::LayoutError>::Err" = type { [0 x i8], %"std::alloc::LayoutError", [0 x i8] }
%"std::result::Result<usize, std::alloc::LayoutError>::Ok" = type { [1 x i64], i64, [0 x i64] }
%"std::fmt::Arguments" = type { [0 x i64], { [0 x { [0 x i8]*, i64 }]*, i64 }, [0 x i64], { i64*, i64 }, [0 x i64], { [0 x { i8*, i64* }]*, i64 }, [0 x i64] }
%"std::result::Result<(), std::collections::TryReserveError>" = type { [0 x i64], i64, [2 x i64] }
%"std::option::Option<(std::ptr::NonNull<u8>, std::alloc::Layout)>" = type { [0 x i64], {}*, [2 x i64] }
%"std::result::Result<usize, std::collections::TryReserveError>" = type { [0 x i64], i64, [2 x i64] }
%"std::result::Result<(), std::collections::TryReserveError>::Err" = type { [1 x i64], { i64, i64 }, [0 x i64] }
%"std::result::Result<usize, std::collections::TryReserveError>::Ok" = type { [1 x i64], i64, [0 x i64] }
%"std::result::Result<usize, std::collections::TryReserveError>::Err" = type { [1 x i64], { i64, i64 }, [0 x i64] }
%"std::result::Result<(), std::collections::TryReserveError>::Ok" = type { [8 x i8], {}, [0 x i8] }
%"std::option::Option<(std::ptr::NonNull<u8>, std::alloc::Layout)>::Some" = type { [0 x i64], { [0 x i64], i8*, [0 x i64], { i64, i64 }, [0 x i64] }, [0 x i64] }
%"std::result::Result<usize, usize>::Err" = type { [1 x i64], i64, [0 x i64] }
%"std::result::Result<(), i32>::Ok" = type { [4 x i8], {}, [0 x i8] }
%"std::result::Result<(), i32>::Err" = type { [1 x i32], i32, [0 x i32] }
%"std::marker::PhantomData<crossbeam::crossbeam_queue::array_queue::Slot<i32>>" = type {}
%"std::marker::PhantomData<[crossbeam::crossbeam_queue::array_queue::Slot<i32>]>" = type {}
%"std::marker::PhantomData<[std::mem::MaybeUninit<crossbeam::crossbeam_queue::array_queue::Slot<i32>>]>" = type {}
%"std::marker::PhantomData<alloc::sync::ArcInner<std::cell::UnsafeCell<std::option::Option<std::result::Result<(), std::boxed::Box<dyn std::any::Any + std::marker::Send>>>>>>" = type {}
%"std::marker::PhantomData<alloc::sync::ArcInner<crossbeam::crossbeam_queue::ArrayQueue<i32>>>" = type {}
%"std::marker::PhantomData<alloc::sync::ArcInner<std::sync::Mutex<std::vec::Vec<u8>>>>" = type {}
%"std::marker::PhantomData<alloc::sync::ArcInner<std::thread::Inner>>" = type {}
%"std::mem::ManuallyDrop<std::vec::Vec<crossbeam::crossbeam_queue::array_queue::Slot<i32>>>" = type { [0 x i64], %"std::vec::Vec<crossbeam::crossbeam_queue::array_queue::Slot<i32>>", [0 x i64] }
%"std::mem::MaybeUninit<std::ptr::swap_nonoverlapping_bytes::UnalignedBlock>" = type { [4 x i64] }
%"std::ptr::swap_nonoverlapping_bytes::UnalignedBlock" = type { [0 x i64], i64, [0 x i64], i64, [0 x i64], i64, [0 x i64], i64, [0 x i64] }
%"std::fmt::DebugTuple" = type { [0 x i64], %"std::fmt::Formatter"*, [0 x i64], i64, [0 x i8], i8, [0 x i8], i8, [6 x i8] }
%"std::mem::ManuallyDrop<std::vec::Vec<std::thread::JoinHandle<()>>>" = type { [0 x i64], %"std::vec::Vec<std::thread::JoinHandle<()>>", [0 x i64] }
%"alloc::sync::ArcInner<std::thread::Inner>" = type { [0 x i64], %"std::sync::atomic::AtomicUsize", [0 x i64], %"std::sync::atomic::AtomicUsize", [0 x i64], %"std::thread::Inner", [0 x i64] }
%"std::thread::Inner" = type { [0 x i64], { i8*, i64 }, [0 x i64], i64, [0 x i32], %"std::sys_common::thread_parker::futex::Parker", [1 x i32] }
%"std::sys_common::thread_parker::futex::Parker" = type { [0 x i32], %"std::sync::atomic::AtomicI32", [0 x i32] }
%"std::sync::atomic::AtomicI32" = type { [0 x i32], i32, [0 x i32] }
%"unwind::libunwind::_Unwind_Exception" = type { [0 x i64], i64, [0 x i64], void (i32, %"unwind::libunwind::_Unwind_Exception"*)*, [0 x i64], [6 x i64], [0 x i64] }
%"unwind::libunwind::_Unwind_Context" = type { [0 x i8] }

@vtable.0 = private unnamed_addr constant { void (%"[closure@std::thread::Builder::spawn_unchecked<[closure@src/main.rs:15:17: 19:4], ()>::{closure#0}]"*)*, i64, i64, void (%"[closure@std::thread::Builder::spawn_unchecked<[closure@src/main.rs:15:17: 19:4], ()>::{closure#0}]"*)* } { void (%"[closure@std::thread::Builder::spawn_unchecked<[closure@src/main.rs:15:17: 19:4], ()>::{closure#0}]"*)* @_RINvNtCs3p84KrD9aKt_4core3ptr13drop_in_placeNCINvMNtCs2bNvlddUlXM_3std6threadNtBM_7Builder15spawn_uncheckedNCNCNvCsgXJhLyQVBY8_14crossbeam_test4main00uE0EB1N_, i64 32, i64 8, void (%"[closure@std::thread::Builder::spawn_unchecked<[closure@src/main.rs:15:17: 19:4], ()>::{closure#0}]"*)* @_RNSNvYNCINvMNtCs2bNvlddUlXM_3std6threadNtBa_7Builder15spawn_uncheckedNCNCNvCsgXJhLyQVBY8_14crossbeam_test4main00uE0INtNtNtCs3p84KrD9aKt_4core3ops8function6FnOnceuE9call_once6vtableB1b_ }, align 8, !dbg !0
@vtable.1 = private unnamed_addr constant { void (i64**)*, i64, i64, i32 (i64**)*, i32 (i64**)*, i32 (i64**)* } { void (i64**)* @_RINvNtCs3p84KrD9aKt_4core3ptr13drop_in_placeNCINvNtCs2bNvlddUlXM_3std2rt10lang_startuE0ECsgXJhLyQVBY8_14crossbeam_test, i64 8, i64 8, i32 (i64**)* @_RNCINvNtCs2bNvlddUlXM_3std2rt10lang_startuE0CsgXJhLyQVBY8_14crossbeam_test, i32 (i64**)* @_RNCINvNtCs2bNvlddUlXM_3std2rt10lang_startuE0CsgXJhLyQVBY8_14crossbeam_test, i32 (i64**)* @_RNSNvYNCINvNtCs2bNvlddUlXM_3std2rt10lang_startuE0INtNtNtCs3p84KrD9aKt_4core3ops8function6FnOnceuE9call_once6vtableCsgXJhLyQVBY8_14crossbeam_test }, align 8, !dbg !345
@alloc65 = private unnamed_addr constant <{ [22 x i8] }> <{ [22 x i8] c"failed to spawn thread" }>, align 1
@alloc129 = private unnamed_addr constant <{ [77 x i8] }> <{ [77 x i8] c"/rustc/e38fb306b7f5e65cca34df2dab1f0db15e1defb4/library/std/src/thread/mod.rs" }>, align 1
@alloc67 = private unnamed_addr constant <{ i8*, [16 x i8] }> <{ i8* getelementptr inbounds (<{ [77 x i8] }>, <{ [77 x i8] }>* @alloc129, i32 0, i32 0, i32 0), [16 x i8] c"M\00\00\00\00\00\00\00l\02\00\00\1D\00\00\00" }>, align 8
@str.2 = internal constant [81 x i8] c"attempted to zero-initialize type `std::thread::JoinHandle<()>`, which is invalid"
@alloc68 = private unnamed_addr constant <{ [75 x i8] }> <{ [75 x i8] c"/rustc/e38fb306b7f5e65cca34df2dab1f0db15e1defb4/library/core/src/mem/mod.rs" }>, align 1
@alloc69 = private unnamed_addr constant <{ i8*, [16 x i8] }> <{ i8* getelementptr inbounds (<{ [75 x i8] }>, <{ [75 x i8] }>* @alloc68, i32 0, i32 0, i32 0), [16 x i8] c"K\00\00\00\00\00\00\00|\02\00\00\09\00\00\00" }>, align 8
@alloc71 = private unnamed_addr constant <{ [43 x i8] }> <{ [43 x i8] c"called `Option::unwrap()` on a `None` value" }>, align 1
@alloc78 = private unnamed_addr constant <{ [96 x i8] }> <{ [96 x i8] c"/home/skeet/.cargo/registry/src/github.com-1ecc6299db9ec823/crossbeam-utils-0.8.1/src/backoff.rs" }>, align 1
@alloc73 = private unnamed_addr constant <{ i8*, [16 x i8] }> <{ i8* getelementptr inbounds (<{ [96 x i8] }>, <{ [96 x i8] }>* @alloc78, i32 0, i32 0, i32 0), [16 x i8] c"`\00\00\00\00\00\00\00\93\00\00\00\15\00\00\00" }>, align 8
@str.3 = internal constant [35 x i8] c"attempt to shift left with overflow"
@alloc75 = private unnamed_addr constant <{ i8*, [16 x i8] }> <{ i8* getelementptr inbounds (<{ [96 x i8] }>, <{ [96 x i8] }>* @alloc78, i32 0, i32 0, i32 0), [16 x i8] c"`\00\00\00\00\00\00\00\98\00\00\00\1B\00\00\00" }>, align 8
@str.4 = internal constant [28 x i8] c"attempt to add with overflow"
@alloc77 = private unnamed_addr constant <{ i8*, [16 x i8] }> <{ i8* getelementptr inbounds (<{ [96 x i8] }>, <{ [96 x i8] }>* @alloc78, i32 0, i32 0, i32 0), [16 x i8] c"`\00\00\00\00\00\00\00\CF\00\00\00\19\00\00\00" }>, align 8
@alloc79 = private unnamed_addr constant <{ i8*, [16 x i8] }> <{ i8* getelementptr inbounds (<{ [96 x i8] }>, <{ [96 x i8] }>* @alloc78, i32 0, i32 0, i32 0), [16 x i8] c"`\00\00\00\00\00\00\00\DD\00\00\00\1B\00\00\00" }>, align 8
@0 = private unnamed_addr constant <{ [16 x i8] }> <{ [16 x i8] c"\08\00\00\00\00\00\00\00\00\00\00\00\00\00\00\00" }>, align 8
@alloc80 = private unnamed_addr constant <{ [73 x i8] }> <{ [73 x i8] c"assertion failed: 0 < pointee_size && pointee_size <= isize::MAX as usize" }>, align 1
@alloc81 = private unnamed_addr constant <{ [81 x i8] }> <{ [81 x i8] c"/rustc/e38fb306b7f5e65cca34df2dab1f0db15e1defb4/library/core/src/ptr/const_ptr.rs" }>, align 1
@alloc82 = private unnamed_addr constant <{ i8*, [16 x i8] }> <{ i8* getelementptr inbounds (<{ [81 x i8] }>, <{ [81 x i8] }>* @alloc81, i32 0, i32 0, i32 0), [16 x i8] c"Q\00\00\00\00\00\00\00x\01\00\00\09\00\00\00" }>, align 8
@alloc83 = private unnamed_addr constant <{ [80 x i8] }> <{ [80 x i8] c"/rustc/e38fb306b7f5e65cca34df2dab1f0db15e1defb4/library/core/src/alloc/layout.rs" }>, align 1
@alloc84 = private unnamed_addr constant <{ i8*, [16 x i8] }> <{ i8* getelementptr inbounds (<{ [80 x i8] }>, <{ [80 x i8] }>* @alloc83, i32 0, i32 0, i32 0), [16 x i8] c"P\00\00\00\00\00\00\00\11\01\00\009\00\00\00" }>, align 8
@alloc88 = private unnamed_addr constant <{ [76 x i8] }> <{ [76 x i8] c"/rustc/e38fb306b7f5e65cca34df2dab1f0db15e1defb4/library/alloc/src/raw_vec.rs" }>, align 1
@alloc86 = private unnamed_addr constant <{ i8*, [16 x i8] }> <{ i8* getelementptr inbounds (<{ [76 x i8] }>, <{ [76 x i8] }>* @alloc88, i32 0, i32 0, i32 0), [16 x i8] c"L\00\00\00\00\00\00\00s\01\00\00\09\00\00\00" }>, align 8
@str.5 = internal constant [25 x i8] c"attempt to divide by zero"
@alloc87 = private unnamed_addr constant <{ [36 x i8] }> <{ [36 x i8] c"Tried to shrink to a larger capacity" }>, align 1
@alloc89 = private unnamed_addr constant <{ i8*, [16 x i8] }> <{ i8* getelementptr inbounds (<{ [76 x i8] }>, <{ [76 x i8] }>* @alloc88, i32 0, i32 0, i32 0), [16 x i8] c"L\00\00\00\00\00\00\00\BF\01\00\00\09\00\00\00" }>, align 8
@alloc142 = private unnamed_addr constant <{ [100 x i8] }> <{ [100 x i8] c"/home/skeet/.cargo/registry/src/github.com-1ecc6299db9ec823/crossbeam-queue-0.3.1/src/array_queue.rs" }>, align 1
@alloc91 = private unnamed_addr constant <{ i8*, [16 x i8] }> <{ i8* getelementptr inbounds (<{ [100 x i8] }>, <{ [100 x i8] }>* @alloc142, i32 0, i32 0, i32 0), [16 x i8] c"d\00\00\00\00\00\00\00\7F\01\00\00\22\00\00\00" }>, align 8
@str.6 = internal constant [33 x i8] c"attempt to subtract with overflow"
@alloc93 = private unnamed_addr constant <{ i8*, [16 x i8] }> <{ i8* getelementptr inbounds (<{ [100 x i8] }>, <{ [100 x i8] }>* @alloc142, i32 0, i32 0, i32 0), [16 x i8] c"d\00\00\00\00\00\00\00\80\01\00\00\22\00\00\00" }>, align 8
@alloc95 = private unnamed_addr constant <{ i8*, [16 x i8] }> <{ i8* getelementptr inbounds (<{ [100 x i8] }>, <{ [100 x i8] }>* @alloc142, i32 0, i32 0, i32 0), [16 x i8] c"d\00\00\00\00\00\00\00\83\01\00\00\15\00\00\00" }>, align 8
@alloc97 = private unnamed_addr constant <{ i8*, [16 x i8] }> <{ i8* getelementptr inbounds (<{ [100 x i8] }>, <{ [100 x i8] }>* @alloc142, i32 0, i32 0, i32 0), [16 x i8] c"d\00\00\00\00\00\00\00\85\01\00\00\15\00\00\00" }>, align 8
@alloc98 = private unnamed_addr constant <{ [25 x i8] }> <{ [25 x i8] c"capacity must be non-zero" }>, align 1
@alloc100 = private unnamed_addr constant <{ i8*, [16 x i8] }> <{ i8* getelementptr inbounds (<{ [100 x i8] }>, <{ [100 x i8] }>* @alloc142, i32 0, i32 0, i32 0), [16 x i8] c"d\00\00\00\00\00\00\00e\00\00\00\09\00\00\00" }>, align 8
@alloc102 = private unnamed_addr constant <{ i8*, [16 x i8] }> <{ i8* getelementptr inbounds (<{ [100 x i8] }>, <{ [100 x i8] }>* @alloc142, i32 0, i32 0, i32 0), [16 x i8] c"d\00\00\00\00\00\00\00~\00\00\00\17\00\00\00" }>, align 8
@alloc104 = private unnamed_addr constant <{ i8*, [16 x i8] }> <{ i8* getelementptr inbounds (<{ [100 x i8] }>, <{ [100 x i8] }>* @alloc142, i32 0, i32 0, i32 0), [16 x i8] c"d\00\00\00\00\00\00\00\EE\00\00\00 \00\00\00" }>, align 8
@alloc106 = private unnamed_addr constant <{ i8*, [16 x i8] }> <{ i8* getelementptr inbounds (<{ [100 x i8] }>, <{ [100 x i8] }>* @alloc142, i32 0, i32 0, i32 0), [16 x i8] c"d\00\00\00\00\00\00\00\EF\00\00\00\1F\00\00\00" }>, align 8
@alloc108 = private unnamed_addr constant <{ i8*, [16 x i8] }> <{ i8* getelementptr inbounds (<{ [100 x i8] }>, <{ [100 x i8] }>* @alloc142, i32 0, i32 0, i32 0), [16 x i8] c"d\00\00\00\00\00\00\00\F6\00\00\00\10\00\00\00" }>, align 8
@alloc110 = private unnamed_addr constant <{ i8*, [16 x i8] }> <{ i8* getelementptr inbounds (<{ [100 x i8] }>, <{ [100 x i8] }>* @alloc142, i32 0, i32 0, i32 0), [16 x i8] c"d\00\00\00\00\00\00\00\F7\00\00\00\1E\00\00\00" }>, align 8
@alloc112 = private unnamed_addr constant <{ i8*, [16 x i8] }> <{ i8* getelementptr inbounds (<{ [100 x i8] }>, <{ [100 x i8] }>* @alloc142, i32 0, i32 0, i32 0), [16 x i8] c"d\00\00\00\00\00\00\00\FA\00\00\00\15\00\00\00" }>, align 8
@alloc114 = private unnamed_addr constant <{ i8*, [16 x i8] }> <{ i8* getelementptr inbounds (<{ [100 x i8] }>, <{ [100 x i8] }>* @alloc142, i32 0, i32 0, i32 0), [16 x i8] c"d\00\00\00\00\00\00\00\9E\00\00\00 \00\00\00" }>, align 8
@alloc116 = private unnamed_addr constant <{ i8*, [16 x i8] }> <{ i8* getelementptr inbounds (<{ [100 x i8] }>, <{ [100 x i8] }>* @alloc142, i32 0, i32 0, i32 0), [16 x i8] c"d\00\00\00\00\00\00\00\9F\00\00\00\1F\00\00\00" }>, align 8
@alloc118 = private unnamed_addr constant <{ i8*, [16 x i8] }> <{ i8* getelementptr inbounds (<{ [100 x i8] }>, <{ [100 x i8] }>* @alloc142, i32 0, i32 0, i32 0), [16 x i8] c"d\00\00\00\00\00\00\00\A7\00\00\00#\00\00\00" }>, align 8
@alloc120 = private unnamed_addr constant <{ i8*, [16 x i8] }> <{ i8* getelementptr inbounds (<{ [100 x i8] }>, <{ [100 x i8] }>* @alloc142, i32 0, i32 0, i32 0), [16 x i8] c"d\00\00\00\00\00\00\00\AA\00\00\00\15\00\00\00" }>, align 8
@alloc122 = private unnamed_addr constant <{ i8*, [16 x i8] }> <{ i8* getelementptr inbounds (<{ [100 x i8] }>, <{ [100 x i8] }>* @alloc142, i32 0, i32 0, i32 0), [16 x i8] c"d\00\00\00\00\00\00\00\BD\00\00\00*\00\00\00" }>, align 8
@alloc124 = private unnamed_addr constant <{ i8*, [16 x i8] }> <{ i8* getelementptr inbounds (<{ [100 x i8] }>, <{ [100 x i8] }>* @alloc142, i32 0, i32 0, i32 0), [16 x i8] c"d\00\00\00\00\00\00\00\C5\00\00\00;\00\00\00" }>, align 8
@vtable.7 = private unnamed_addr constant { void (%"std::io::Error"*)*, i64, i64, i1 (%"std::io::Error"*, %"std::fmt::Formatter"*)* } { void (%"std::io::Error"*)* @_RINvNtCs3p84KrD9aKt_4core3ptr13drop_in_placeNtNtNtCs2bNvlddUlXM_3std2io5error5ErrorECsgXJhLyQVBY8_14crossbeam_test, i64 16, i64 8, i1 (%"std::io::Error"*, %"std::fmt::Formatter"*)* @"_ZN58_$LT$std..io..error..Error$u20$as$u20$core..fmt..Debug$GT$3fmt17h9846d30f97792c23E" }, align 8, !dbg !356
@alloc126 = private unnamed_addr constant <{ [43 x i8] }> <{ [43 x i8] c"called `Result::unwrap()` on an `Err` value" }>, align 1
@vtable.8 = private unnamed_addr constant { void (i64**)*, i64, i64, i1 (i64**, %"std::fmt::Formatter"*)* } { void (i64**)* @_RINvNtCs3p84KrD9aKt_4core3ptr13drop_in_placeINtNtCs8RW06R9lH2S_5alloc4sync3ArcINtNtCsl4s60bRVA8d_15crossbeam_queue11array_queue10ArrayQueuelEEECsgXJhLyQVBY8_14crossbeam_test, i64 8, i64 8, i1 (i64**, %"std::fmt::Formatter"*)* @_RNvXsE_NtCs8RW06R9lH2S_5alloc4syncINtB5_3ArcINtNtCsl4s60bRVA8d_15crossbeam_queue11array_queue10ArrayQueuelEENtNtCs3p84KrD9aKt_4core3fmt5Debug3fmtCsgXJhLyQVBY8_14crossbeam_test }, align 8, !dbg !417
@vtable.9 = private unnamed_addr constant { void ({ {}*, [3 x i64]* }*)*, i64, i64, i1 ({ {}*, [3 x i64]* }*, %"std::fmt::Formatter"*)* } { void ({ {}*, [3 x i64]* }*)* @_RINvNtCs3p84KrD9aKt_4core3ptr13drop_in_placeINtNtCs8RW06R9lH2S_5alloc5boxed3BoxDNtNtB4_3any3AnyNtNtB4_6marker4SendEL_EECs48Yq53b35jF_15crossbeam_utils, i64 16, i64 8, i1 ({ {}*, [3 x i64]* }*, %"std::fmt::Formatter"*)* @_RNvXsu_NtCs8RW06R9lH2S_5alloc5boxedINtB5_3BoxDNtNtCs3p84KrD9aKt_4core3any3AnyNtNtBM_6marker4SendEL_ENtNtBM_3fmt5Debug3fmtCsgXJhLyQVBY8_14crossbeam_test }, align 8, !dbg !420
@alloc128 = private unnamed_addr constant <{ i8*, [16 x i8] }> <{ i8* getelementptr inbounds (<{ [77 x i8] }>, <{ [77 x i8] }>* @alloc129, i32 0, i32 0, i32 0), [16 x i8] c"M\00\00\00\00\00\00\00\E1\04\00\00\1C\00\00\00" }>, align 8
@alloc130 = private unnamed_addr constant <{ i8*, [16 x i8] }> <{ i8* getelementptr inbounds (<{ [77 x i8] }>, <{ [77 x i8] }>* @alloc129, i32 0, i32 0, i32 0), [16 x i8] c"M\00\00\00\00\00\00\00\E2\04\00\000\00\00\00" }>, align 8
@alloc131 = private unnamed_addr constant <{ [75 x i8] }> <{ [75 x i8] c"/rustc/e38fb306b7f5e65cca34df2dab1f0db15e1defb4/library/core/src/num/mod.rs" }>, align 1
@alloc132 = private unnamed_addr constant <{ i8*, [16 x i8] }> <{ i8* getelementptr inbounds (<{ [75 x i8] }>, <{ [75 x i8] }>* @alloc131, i32 0, i32 0, i32 0), [16 x i8] c"K\00\00\00\00\00\00\00\C1\02\00\00\05\00\00\00" }>, align 8
@alloc25 = private unnamed_addr constant <{ [0 x i8] }> zeroinitializer, align 1
@alloc133 = private unnamed_addr constant <{ [41 x i8] }> <{ [41 x i8] c"there is no such thing as a relaxed fence" }>, align 1
@alloc134 = private unnamed_addr constant <{ [79 x i8] }> <{ [79 x i8] c"/rustc/e38fb306b7f5e65cca34df2dab1f0db15e1defb4/library/core/src/sync/atomic.rs" }>, align 1
@alloc135 = private unnamed_addr constant <{ i8*, [16 x i8] }> <{ i8* getelementptr inbounds (<{ [79 x i8] }>, <{ [79 x i8] }>* @alloc134, i32 0, i32 0, i32 0), [16 x i8] c"O\00\00\00\00\00\00\00n\0A\00\00\18\00\00\00" }>, align 8
@alloc137 = private unnamed_addr constant <{ i8*, [16 x i8] }> <{ i8* getelementptr inbounds (<{ [100 x i8] }>, <{ [100 x i8] }>* @alloc142, i32 0, i32 0, i32 0), [16 x i8] c"d\00\00\00\00\00\00\00\93\01\00\007\00\00\00" }>, align 8
@alloc139 = private unnamed_addr constant <{ i8*, [16 x i8] }> <{ i8* getelementptr inbounds (<{ [100 x i8] }>, <{ [100 x i8] }>* @alloc142, i32 0, i32 0, i32 0), [16 x i8] c"d\00\00\00\00\00\00\00\98\01\00\00\1C\00\00\00" }>, align 8
@alloc141 = private unnamed_addr constant <{ i8*, [16 x i8] }> <{ i8* getelementptr inbounds (<{ [100 x i8] }>, <{ [100 x i8] }>* @alloc142, i32 0, i32 0, i32 0), [16 x i8] c"d\00\00\00\00\00\00\00\99\01\00\00\11\00\00\00" }>, align 8
@alloc143 = private unnamed_addr constant <{ i8*, [16 x i8] }> <{ i8* getelementptr inbounds (<{ [100 x i8] }>, <{ [100 x i8] }>* @alloc142, i32 0, i32 0, i32 0), [16 x i8] c"d\00\00\00\00\00\00\00\9B\01\00\00\11\00\00\00" }>, align 8
@alloc144 = private unnamed_addr constant <{ [17 x i8] }> <{ [17 x i8] c"ArrayQueue { .. }" }>, align 1
@alloc145 = private unnamed_addr constant <{ [4 x i8] }> <{ [4 x i8] c"Some" }>, align 1
@vtable.a = private unnamed_addr constant { void (i64**)*, i64, i64, i1 (i64**, %"std::fmt::Formatter"*)* } { void (i64**)* @_RINvNtCs3p84KrD9aKt_4core3ptr13drop_in_placeRjECsgXJhLyQVBY8_14crossbeam_test, i64 8, i64 8, i1 (i64**, %"std::fmt::Formatter"*)* @_RNvXsM_NtCs3p84KrD9aKt_4core3fmtRjNtB5_5Debug3fmtCs48Yq53b35jF_15crossbeam_utils }, align 8, !dbg !423
@alloc146 = private unnamed_addr constant <{ [4 x i8] }> <{ [4 x i8] c"None" }>, align 1
@alloc34 = private unnamed_addr constant <{ [45 x i8] }> <{ [45 x i8] c"assertion failed: `(left == right)`\0A  left: `" }>, align 1
@alloc36 = private unnamed_addr constant <{ [12 x i8] }> <{ [12 x i8] c"`,\0A right: `" }>, align 1
@alloc37 = private unnamed_addr constant <{ [1 x i8] }> <{ [1 x i8] c"`" }>, align 1
@alloc35 = private unnamed_addr constant <{ i8*, [8 x i8], i8*, [8 x i8], i8*, [8 x i8] }> <{ i8* getelementptr inbounds (<{ [45 x i8] }>, <{ [45 x i8] }>* @alloc34, i32 0, i32 0, i32 0), [8 x i8] c"-\00\00\00\00\00\00\00", i8* getelementptr inbounds (<{ [12 x i8] }>, <{ [12 x i8] }>* @alloc36, i32 0, i32 0, i32 0), [8 x i8] c"\0C\00\00\00\00\00\00\00", i8* getelementptr inbounds (<{ [1 x i8] }>, <{ [1 x i8] }>* @alloc37, i32 0, i32 0, i32 0), [8 x i8] c"\01\00\00\00\00\00\00\00" }>, align 8
@alloc147 = private unnamed_addr constant <{ [90 x i8] }> <{ [90 x i8] c"/rustc/e38fb306b7f5e65cca34df2dab1f0db15e1defb4/library/core/src/iter/traits/exact_size.rs" }>, align 1
@alloc148 = private unnamed_addr constant <{ i8*, [16 x i8] }> <{ i8* getelementptr inbounds (<{ [90 x i8] }>, <{ [90 x i8] }>* @alloc147, i32 0, i32 0, i32 0), [16 x i8] c"Z\00\00\00\00\00\00\00g\00\00\00\09\00\00\00" }>, align 8
@alloc153 = private unnamed_addr constant <{ [11 x i8] }> <{ [11 x i8] c"src/main.rs" }>, align 1
@alloc150 = private unnamed_addr constant <{ i8*, [16 x i8] }> <{ i8* getelementptr inbounds (<{ [11 x i8] }>, <{ [11 x i8] }>* @alloc153, i32 0, i32 0, i32 0), [16 x i8] c"\0B\00\00\00\00\00\00\00\19\00\00\00\17\00\00\00" }>, align 8
@alloc152 = private unnamed_addr constant <{ i8*, [16 x i8] }> <{ i8* getelementptr inbounds (<{ [11 x i8] }>, <{ [11 x i8] }>* @alloc153, i32 0, i32 0, i32 0), [16 x i8] c"\0B\00\00\00\00\00\00\00\1D\00\00\00.\00\00\00" }>, align 8
@alloc3 = private unnamed_addr constant <{ [11 x i8] }> <{ [11 x i8] c"Final sum: " }>, align 1
@alloc5 = private unnamed_addr constant <{ [1 x i8] }> <{ [1 x i8] c"\0A" }>, align 1
@alloc4 = private unnamed_addr constant <{ i8*, [8 x i8], i8*, [8 x i8] }> <{ i8* getelementptr inbounds (<{ [11 x i8] }>, <{ [11 x i8] }>* @alloc3, i32 0, i32 0, i32 0), [8 x i8] c"\0B\00\00\00\00\00\00\00", i8* getelementptr inbounds (<{ [1 x i8] }>, <{ [1 x i8] }>* @alloc5, i32 0, i32 0, i32 0), [8 x i8] c"\01\00\00\00\00\00\00\00" }>, align 8
@alloc154 = private unnamed_addr constant <{ i8*, [16 x i8] }> <{ i8* getelementptr inbounds (<{ [11 x i8] }>, <{ [11 x i8] }>* @alloc153, i32 0, i32 0, i32 0), [16 x i8] c"\0B\00\00\00\00\00\00\00#\00\00\00\09\00\00\00" }>, align 8
@__rustc_debug_gdb_scripts_section__ = linkonce_odr unnamed_addr constant [34 x i8] c"\01gdb_load_rust_pretty_printers.py\00", section ".debug_gdb_scripts", align 1

; <std::thread::Builder>::spawn_unchecked::<crossbeam_test::main::{closure#0}::{closure#0}, ()>
; Function Attrs: nonlazybind uwtable
define internal void @_RINvMNtCs2bNvlddUlXM_3std6threadNtB3_7Builder15spawn_uncheckedNCNCNvCsgXJhLyQVBY8_14crossbeam_test4main00uEB14_(%"std::result::Result<std::thread::JoinHandle<()>, std::io::Error>"* noalias nocapture sret dereferenceable(40) %0, %"std::thread::Builder"* noalias nocapture dereferenceable(40) %self, i64* nonnull %1) unnamed_addr #0 personality i32 (i32, i32, i64, %"unwind::libunwind::_Unwind_Exception"*, %"unwind::libunwind::_Unwind_Context"*)* @rust_eh_personality !dbg !466 {
start:
  %val.dbg.spill = alloca i64, align 8
  %2 = alloca i128, align 8
  %3 = alloca { {}*, [3 x i64]* }, align 8
  %stack_size.dbg.spill1 = alloca i64, align 8
  %4 = alloca { i8*, i32 }, align 8
  %stack_size.dbg.spill = alloca { i64, i64 }, align 8
  %_46 = alloca i8, align 1
  %_45 = alloca i8, align 1
  %_44 = alloca i8, align 1
  %_43 = alloca i8, align 1
  %_42 = alloca i8, align 1
  %_40 = alloca i64*, align 8
  %_37 = alloca %"std::io::Error", align 8
  %_36 = alloca %"std::io::Error", align 8
  %err = alloca %"std::io::Error", align 8
  %_33 = alloca %"[closure@std::thread::Builder::spawn_unchecked<[closure@src/main.rs:15:17: 19:4], ()>::{closure#0}]", align 8
  %_27 = alloca %"std::result::Result<std::sys::unix::thread::Thread, std::io::Error>", align 8
  %_26 = alloca %"std::result::Result<std::sys::unix::thread::Thread, std::io::Error>", align 8
  %_24 = alloca { i64, i64 }, align 8
  %_23 = alloca %"std::thread::JoinInner<()>", align 8
  %_22 = alloca %"std::thread::JoinHandle<()>", align 8
  %main = alloca %"[closure@std::thread::Builder::spawn_unchecked<[closure@src/main.rs:15:17: 19:4], ()>::{closure#0}]", align 8
  %_18 = alloca i64*, align 8
  %_17 = alloca i64*, align 8
  %output_capture = alloca i64*, align 8
  %their_packet = alloca i64*, align 8
  %_13 = alloca %"std::option::Option<std::result::Result<(), std::boxed::Box<dyn std::any::Any + std::marker::Send>>>", align 8
  %_12 = alloca %"std::cell::UnsafeCell<std::option::Option<std::result::Result<(), std::boxed::Box<dyn std::any::Any + std::marker::Send>>>>", align 8
  %my_packet = alloca i64*, align 8
  %their_thread = alloca i64*, align 8
  %_8 = alloca %"std::option::Option<std::string::String>", align 8
  %my_thread = alloca i64*, align 8
  %name = alloca %"std::option::Option<std::string::String>", align 8
  %f = alloca i64*, align 8
  store i64* %1, i64** %f, align 8
  call void @llvm.dbg.declare(metadata %"std::thread::Builder"* %self, metadata !544, metadata !DIExpression()), !dbg !569
  call void @llvm.dbg.declare(metadata i64** %f, metadata !545, metadata !DIExpression()), !dbg !570
  call void @llvm.dbg.declare(metadata %"std::option::Option<std::string::String>"* %name, metadata !546, metadata !DIExpression()), !dbg !571
  call void @llvm.dbg.declare(metadata i64** %my_thread, metadata !551, metadata !DIExpression()), !dbg !572
  call void @llvm.dbg.declare(metadata i64** %their_thread, metadata !553, metadata !DIExpression()), !dbg !573
  call void @llvm.dbg.declare(metadata i64** %my_packet, metadata !555, metadata !DIExpression()), !dbg !574
  call void @llvm.dbg.declare(metadata i64** %their_packet, metadata !557, metadata !DIExpression()), !dbg !575
  call void @llvm.dbg.declare(metadata i64** %output_capture, metadata !559, metadata !DIExpression()), !dbg !576
  call void @llvm.dbg.declare(metadata %"[closure@std::thread::Builder::spawn_unchecked<[closure@src/main.rs:15:17: 19:4], ()>::{closure#0}]"* %main, metadata !561, metadata !DIExpression()), !dbg !577
  call void @llvm.dbg.declare(metadata %"std::io::Error"* %err, metadata !563, metadata !DIExpression()), !dbg !578
  store i8 0, i8* %_42, align 1, !dbg !579
  store i8 0, i8* %_46, align 1, !dbg !579
  store i8 0, i8* %_44, align 1, !dbg !579
  store i8 0, i8* %_43, align 1, !dbg !579
  store i8 0, i8* %_45, align 1, !dbg !579
  store i8 1, i8* %_46, align 1, !dbg !579
  store i8 1, i8* %_45, align 1, !dbg !579
  %5 = bitcast %"std::thread::Builder"* %self to %"std::option::Option<std::string::String>"*, !dbg !579
  %6 = bitcast %"std::option::Option<std::string::String>"* %name to i8*, !dbg !579
  %7 = bitcast %"std::option::Option<std::string::String>"* %5 to i8*, !dbg !579
  call void @llvm.memcpy.p0i8.p0i8.i64(i8* align 8 %6, i8* align 8 %7, i64 24, i1 false), !dbg !579
  %8 = getelementptr inbounds %"std::thread::Builder", %"std::thread::Builder"* %self, i32 0, i32 3, !dbg !580
  %9 = getelementptr inbounds { i64, i64 }, { i64, i64 }* %8, i32 0, i32 0, !dbg !580
  %stack_size.0 = load i64, i64* %9, align 8, !dbg !580, !range !581
  %10 = getelementptr inbounds { i64, i64 }, { i64, i64 }* %8, i32 0, i32 1, !dbg !580
  %stack_size.1 = load i64, i64* %10, align 8, !dbg !580
  %11 = getelementptr inbounds { i64, i64 }, { i64, i64 }* %stack_size.dbg.spill, i32 0, i32 0, !dbg !580
  store i64 %stack_size.0, i64* %11, align 8, !dbg !580
  %12 = getelementptr inbounds { i64, i64 }, { i64, i64 }* %stack_size.dbg.spill, i32 0, i32 1, !dbg !580
  store i64 %stack_size.1, i64* %12, align 8, !dbg !580
  call void @llvm.dbg.declare(metadata { i64, i64 }* %stack_size.dbg.spill, metadata !548, metadata !DIExpression()), !dbg !582
; invoke <core::option::Option<usize>>::unwrap_or_else::<std::sys_common::thread::min_stack>
  %stack_size = invoke i64 @_RINvMNtCs3p84KrD9aKt_4core6optionINtB3_6OptionjE14unwrap_or_elseNvNtNtCs2bNvlddUlXM_3std10sys_common6thread9min_stackECsgXJhLyQVBY8_14crossbeam_test(i64 %stack_size.0, i64 %stack_size.1)
          to label %bb1 unwind label %cleanup, !dbg !583

bb1:                                              ; preds = %start
  store i64 %stack_size, i64* %stack_size.dbg.spill1, align 8, !dbg !583
  call void @llvm.dbg.declare(metadata i64* %stack_size.dbg.spill1, metadata !549, metadata !DIExpression()), !dbg !584
  store i8 0, i8* %_45, align 1, !dbg !585
  %13 = bitcast %"std::option::Option<std::string::String>"* %_8 to i8*, !dbg !585
  %14 = bitcast %"std::option::Option<std::string::String>"* %name to i8*, !dbg !585
  call void @llvm.memcpy.p0i8.p0i8.i64(i8* align 8 %13, i8* align 8 %14, i64 24, i1 false), !dbg !585
; invoke std::thread::Thread::new
  %15 = invoke nonnull i64* @_ZN3std6thread6Thread3new17hb6f98794e2c3d412E(%"std::option::Option<std::string::String>"* noalias nocapture dereferenceable(24) %_8)
          to label %bb2 unwind label %cleanup, !dbg !586

bb2:                                              ; preds = %bb1
  store i64* %15, i64** %my_thread, align 8, !dbg !586
; invoke <std::thread::Thread as core::clone::Clone>::clone
  %16 = invoke nonnull i64* @_RNvXsk_NtCs2bNvlddUlXM_3std6threadNtB5_6ThreadNtNtCs3p84KrD9aKt_4core5clone5Clone5cloneCsgXJhLyQVBY8_14crossbeam_test(i64** noalias readonly align 8 dereferenceable(8) %my_thread)
          to label %bb3 unwind label %cleanup2, !dbg !587

bb3:                                              ; preds = %bb2
  store i64* %16, i64** %their_thread, align 8, !dbg !587
  store i8 1, i8* %_44, align 1, !dbg !588
  %17 = bitcast %"std::option::Option<std::result::Result<(), std::boxed::Box<dyn std::any::Any + std::marker::Send>>>"* %_13 to i64*, !dbg !589
  store i64 0, i64* %17, align 8, !dbg !589
; invoke <core::cell::UnsafeCell<core::option::Option<core::result::Result<(), alloc::boxed::Box<dyn core::any::Any + core::marker::Send>>>>>::new
  invoke void @_RNvMsJ_NtCs3p84KrD9aKt_4core4cellINtB5_10UnsafeCellINtNtB7_6option6OptionINtNtB7_6result6ResultuINtNtCs8RW06R9lH2S_5alloc5boxed3BoxDNtNtB7_3any3AnyNtNtB7_6marker4SendEL_EEEE3newCsgXJhLyQVBY8_14crossbeam_test(%"std::cell::UnsafeCell<std::option::Option<std::result::Result<(), std::boxed::Box<dyn std::any::Any + std::marker::Send>>>>"* noalias nocapture sret dereferenceable(24) %_12, %"std::option::Option<std::result::Result<(), std::boxed::Box<dyn std::any::Any + std::marker::Send>>>"* noalias nocapture dereferenceable(24) %_13)
          to label %bb4 unwind label %cleanup3, !dbg !590

bb4:                                              ; preds = %bb3
; invoke <alloc::sync::Arc<core::cell::UnsafeCell<core::option::Option<core::result::Result<(), alloc::boxed::Box<dyn core::any::Any + core::marker::Send>>>>>>::new
  %18 = invoke nonnull i64* @_RNvMsa_NtCs8RW06R9lH2S_5alloc4syncINtB5_3ArcINtNtCs3p84KrD9aKt_4core4cell10UnsafeCellINtNtBL_6option6OptionINtNtBL_6result6ResultuINtNtB7_5boxed3BoxDNtNtBL_3any3AnyNtNtBL_6marker4SendEL_EEEEE3newCsgXJhLyQVBY8_14crossbeam_test(%"std::cell::UnsafeCell<std::option::Option<std::result::Result<(), std::boxed::Box<dyn std::any::Any + std::marker::Send>>>>"* noalias nocapture dereferenceable(24) %_12)
          to label %bb5 unwind label %cleanup3, !dbg !591

bb5:                                              ; preds = %bb4
  store i64* %18, i64** %my_packet, align 8, !dbg !591
; invoke <alloc::sync::Arc<core::cell::UnsafeCell<core::option::Option<core::result::Result<(), alloc::boxed::Box<dyn core::any::Any + core::marker::Send>>>>> as core::clone::Clone>::clone
  %19 = invoke nonnull i64* @_RNvXsk_NtCs8RW06R9lH2S_5alloc4syncINtB5_3ArcINtNtCs3p84KrD9aKt_4core4cell10UnsafeCellINtNtBL_6option6OptionINtNtBL_6result6ResultuINtNtB7_5boxed3BoxDNtNtBL_3any3AnyNtNtBL_6marker4SendEL_EEEEENtNtBL_5clone5Clone5cloneCsgXJhLyQVBY8_14crossbeam_test(i64** noalias readonly align 8 dereferenceable(8) %my_packet)
          to label %bb6 unwind label %cleanup4, !dbg !592

bb6:                                              ; preds = %bb5
  store i64* %19, i64** %their_packet, align 8, !dbg !592
  store i8 1, i8* %_43, align 1, !dbg !593
  %20 = bitcast i64** %_17 to {}**, !dbg !594
  store {}* null, {}** %20, align 8, !dbg !594
  %21 = load i64*, i64** %_17, align 8, !dbg !595
; invoke std::io::stdio::set_output_capture
  %22 = invoke i64* @_ZN3std2io5stdio18set_output_capture17he178fcaf92baad96E(i64* %21)
          to label %bb7 unwind label %cleanup5, !dbg !595

bb7:                                              ; preds = %bb6
  store i64* %22, i64** %output_capture, align 8, !dbg !595
  store i8 1, i8* %_42, align 1, !dbg !596
; invoke <core::option::Option<alloc::sync::Arc<std::sync::mutex::Mutex<alloc::vec::Vec<u8>>>> as core::clone::Clone>::clone
  %_19 = invoke i64* @_RNvXs8_NtCs3p84KrD9aKt_4core6optionINtB5_6OptionINtNtCs8RW06R9lH2S_5alloc4sync3ArcINtNtNtCs2bNvlddUlXM_3std4sync5mutex5MutexINtNtBP_3vec3VechEEEENtNtB7_5clone5Clone5cloneCsgXJhLyQVBY8_14crossbeam_test(i64** noalias readonly align 8 dereferenceable(8) %output_capture)
          to label %bb8 unwind label %cleanup6, !dbg !597

bb8:                                              ; preds = %bb7
; invoke std::io::stdio::set_output_capture
  %23 = invoke i64* @_ZN3std2io5stdio18set_output_capture17he178fcaf92baad96E(i64* %_19)
          to label %bb9 unwind label %cleanup6, !dbg !598

bb9:                                              ; preds = %bb8
  store i64* %23, i64** %_18, align 8, !dbg !598
; invoke core::ptr::drop_in_place::<core::option::Option<alloc::sync::Arc<std::sync::mutex::Mutex<alloc::vec::Vec<u8>>>>>
  invoke void @_RINvNtCs3p84KrD9aKt_4core3ptr13drop_in_placeINtNtB4_6option6OptionINtNtCs8RW06R9lH2S_5alloc4sync3ArcINtNtNtCs2bNvlddUlXM_3std4sync5mutex5MutexINtNtB17_3vec3VechEEEEECsgXJhLyQVBY8_14crossbeam_test(i64** %_18)
          to label %bb10 unwind label %cleanup6, !dbg !599

bb10:                                             ; preds = %bb9
  store i8 0, i8* %_44, align 1, !dbg !600
  store i8 0, i8* %_42, align 1, !dbg !600
  store i8 0, i8* %_46, align 1, !dbg !600
  store i8 0, i8* %_43, align 1, !dbg !600
  %24 = bitcast %"[closure@std::thread::Builder::spawn_unchecked<[closure@src/main.rs:15:17: 19:4], ()>::{closure#0}]"* %main to i64**, !dbg !600
  %25 = load i64*, i64** %their_thread, align 8, !dbg !600, !nonnull !4
  store i64* %25, i64** %24, align 8, !dbg !600
  %26 = getelementptr inbounds %"[closure@std::thread::Builder::spawn_unchecked<[closure@src/main.rs:15:17: 19:4], ()>::{closure#0}]", %"[closure@std::thread::Builder::spawn_unchecked<[closure@src/main.rs:15:17: 19:4], ()>::{closure#0}]"* %main, i32 0, i32 3, !dbg !600
  %27 = load i64*, i64** %output_capture, align 8, !dbg !600
  store i64* %27, i64** %26, align 8, !dbg !600
  %28 = getelementptr inbounds %"[closure@std::thread::Builder::spawn_unchecked<[closure@src/main.rs:15:17: 19:4], ()>::{closure#0}]", %"[closure@std::thread::Builder::spawn_unchecked<[closure@src/main.rs:15:17: 19:4], ()>::{closure#0}]"* %main, i32 0, i32 5, !dbg !600
  %29 = load i64*, i64** %f, align 8, !dbg !600, !nonnull !4
  store i64* %29, i64** %28, align 8, !dbg !600
  %30 = getelementptr inbounds %"[closure@std::thread::Builder::spawn_unchecked<[closure@src/main.rs:15:17: 19:4], ()>::{closure#0}]", %"[closure@std::thread::Builder::spawn_unchecked<[closure@src/main.rs:15:17: 19:4], ()>::{closure#0}]"* %main, i32 0, i32 7, !dbg !600
  %31 = load i64*, i64** %their_packet, align 8, !dbg !600, !nonnull !4
  store i64* %31, i64** %30, align 8, !dbg !600
  %32 = bitcast %"[closure@std::thread::Builder::spawn_unchecked<[closure@src/main.rs:15:17: 19:4], ()>::{closure#0}]"* %_33 to i8*, !dbg !601
  %33 = bitcast %"[closure@std::thread::Builder::spawn_unchecked<[closure@src/main.rs:15:17: 19:4], ()>::{closure#0}]"* %main to i8*, !dbg !601
  call void @llvm.memcpy.p0i8.p0i8.i64(i8* align 8 %32, i8* align 8 %33, i64 32, i1 false), !dbg !601
  call void @llvm.dbg.declare(metadata %"[closure@std::thread::Builder::spawn_unchecked<[closure@src/main.rs:15:17: 19:4], ()>::{closure#0}]"* %_33, metadata !602, metadata !DIExpression()), !dbg !613
; invoke alloc::alloc::exchange_malloc
  %34 = invoke i8* @_RNvNtCs8RW06R9lH2S_5alloc5alloc15exchange_mallocCsgXJhLyQVBY8_14crossbeam_test(i64 32, i64 8)
          to label %_RNvMNtCs8RW06R9lH2S_5alloc5boxedINtB2_3BoxNCINvMNtCs2bNvlddUlXM_3std6threadNtBK_7Builder15spawn_uncheckedNCNCNvCsgXJhLyQVBY8_14crossbeam_test4main00uE0E3newB1L_.exit unwind label %cleanup6, !dbg !615

_RNvMNtCs8RW06R9lH2S_5alloc5boxedINtB2_3BoxNCINvMNtCs2bNvlddUlXM_3std6threadNtBK_7Builder15spawn_uncheckedNCNCNvCsgXJhLyQVBY8_14crossbeam_test4main00uE0E3newB1L_.exit: ; preds = %bb10
  %35 = bitcast i8* %34 to %"[closure@std::thread::Builder::spawn_unchecked<[closure@src/main.rs:15:17: 19:4], ()>::{closure#0}]"*, !dbg !615
  %36 = bitcast %"[closure@std::thread::Builder::spawn_unchecked<[closure@src/main.rs:15:17: 19:4], ()>::{closure#0}]"* %_33 to i8*, !dbg !616
  call void @llvm.memcpy.p0i8.p0i8.i64(i8* align 8 %34, i8* align 8 %36, i64 32, i1 false), !dbg !616
  br label %bb11, !dbg !617

bb11:                                             ; preds = %_RNvMNtCs8RW06R9lH2S_5alloc5boxedINtB2_3BoxNCINvMNtCs2bNvlddUlXM_3std6threadNtBK_7Builder15spawn_uncheckedNCNCNvCsgXJhLyQVBY8_14crossbeam_test4main00uE0E3newB1L_.exit
  %37 = bitcast %"[closure@std::thread::Builder::spawn_unchecked<[closure@src/main.rs:15:17: 19:4], ()>::{closure#0}]"* %35 to {}*, !dbg !618
  %38 = bitcast {}* %37 to i8*, !dbg !618
  %_31.0 = bitcast i8* %38 to {}*, !dbg !618
  %39 = getelementptr inbounds { {}*, [3 x i64]* }, { {}*, [3 x i64]* }* %3, i32 0, i32 0, !dbg !619
  store {}* %_31.0, {}** %39, align 8, !dbg !619
  %40 = getelementptr inbounds { {}*, [3 x i64]* }, { {}*, [3 x i64]* }* %3, i32 0, i32 1, !dbg !619
  store [3 x i64]* bitcast ({ void (%"[closure@std::thread::Builder::spawn_unchecked<[closure@src/main.rs:15:17: 19:4], ()>::{closure#0}]"*)*, i64, i64, void (%"[closure@std::thread::Builder::spawn_unchecked<[closure@src/main.rs:15:17: 19:4], ()>::{closure#0}]"*)* }* @vtable.0 to [3 x i64]*), [3 x i64]** %40, align 8, !dbg !619
  %41 = getelementptr inbounds { {}*, [3 x i64]* }, { {}*, [3 x i64]* }* %3, i32 0, i32 0, !dbg !619
  %_30.0 = load {}*, {}** %41, align 8, !dbg !619, !nonnull !4
  %42 = getelementptr inbounds { {}*, [3 x i64]* }, { {}*, [3 x i64]* }* %3, i32 0, i32 1, !dbg !619
  %_30.1 = load [3 x i64]*, [3 x i64]** %42, align 8, !dbg !619, !nonnull !4
  br label %bb12, !dbg !619

bb12:                                             ; preds = %bb11
; invoke std::sys::unix::thread::Thread::new
  invoke void @_ZN3std3sys4unix6thread6Thread3new17h3bc268f2aed68233E(%"std::result::Result<std::sys::unix::thread::Thread, std::io::Error>"* noalias nocapture sret dereferenceable(24) %_27, i64 %stack_size, {}* noalias nonnull align 1 %_30.0, [3 x i64]* noalias readonly align 8 dereferenceable(24) %_30.1)
          to label %bb13 unwind label %cleanup6, !dbg !620

bb13:                                             ; preds = %bb12
; invoke <core::result::Result<std::sys::unix::thread::Thread, std::io::error::Error> as core::ops::try::Try>::into_result
  invoke void @_RNvXsw_NtCs3p84KrD9aKt_4core6resultINtB5_6ResultNtNtNtNtCs2bNvlddUlXM_3std3sys4unix6thread6ThreadNtNtNtBS_2io5error5ErrorENtNtNtB7_3ops3try3Try11into_resultCsgXJhLyQVBY8_14crossbeam_test(%"std::result::Result<std::sys::unix::thread::Thread, std::io::Error>"* noalias nocapture sret dereferenceable(24) %_26, %"std::result::Result<std::sys::unix::thread::Thread, std::io::Error>"* noalias nocapture dereferenceable(24) %_27)
          to label %bb14 unwind label %cleanup6, !dbg !620

bb14:                                             ; preds = %bb13
  %43 = bitcast %"std::result::Result<std::sys::unix::thread::Thread, std::io::Error>"* %_26 to i64*, !dbg !621
  %_34 = load i64, i64* %43, align 8, !dbg !621, !range !581
  switch i64 %_34, label %bb16 [
    i64 0, label %bb15
    i64 1, label %bb17
  ], !dbg !621

bb15:                                             ; preds = %bb14
  %44 = bitcast %"std::result::Result<std::sys::unix::thread::Thread, std::io::Error>"* %_26 to %"std::result::Result<std::sys::unix::thread::Thread, std::io::Error>::Ok"*, !dbg !620
  %45 = getelementptr inbounds %"std::result::Result<std::sys::unix::thread::Thread, std::io::Error>::Ok", %"std::result::Result<std::sys::unix::thread::Thread, std::io::Error>::Ok"* %44, i32 0, i32 1, !dbg !620
  %val = load i64, i64* %45, align 8, !dbg !620
  store i64 %val, i64* %val.dbg.spill, align 8, !dbg !620
  call void @llvm.dbg.declare(metadata i64* %val.dbg.spill, metadata !565, metadata !DIExpression()), !dbg !622
  %46 = bitcast { i64, i64 }* %_24 to %"std::option::Option<std::sys::unix::thread::Thread>::Some"*, !dbg !623
  %47 = getelementptr inbounds %"std::option::Option<std::sys::unix::thread::Thread>::Some", %"std::option::Option<std::sys::unix::thread::Thread>::Some"* %46, i32 0, i32 1, !dbg !623
  store i64 %val, i64* %47, align 8, !dbg !623
  %48 = bitcast { i64, i64 }* %_24 to i64*, !dbg !623
  store i64 1, i64* %48, align 8, !dbg !623
  %_39 = load i64*, i64** %my_thread, align 8, !dbg !624, !nonnull !4
  %_41 = load i64*, i64** %my_packet, align 8, !dbg !625, !nonnull !4
  store i64* %_41, i64** %_40, align 8, !dbg !626
  %49 = bitcast %"std::thread::JoinInner<()>"* %_23 to { i64, i64 }*, !dbg !627
  %50 = getelementptr inbounds { i64, i64 }, { i64, i64 }* %_24, i32 0, i32 0, !dbg !627
  %51 = load i64, i64* %50, align 8, !dbg !627, !range !581
  %52 = getelementptr inbounds { i64, i64 }, { i64, i64 }* %_24, i32 0, i32 1, !dbg !627
  %53 = load i64, i64* %52, align 8, !dbg !627
  %54 = getelementptr inbounds { i64, i64 }, { i64, i64 }* %49, i32 0, i32 0, !dbg !627
  store i64 %51, i64* %54, align 8, !dbg !627
  %55 = getelementptr inbounds { i64, i64 }, { i64, i64 }* %49, i32 0, i32 1, !dbg !627
  store i64 %53, i64* %55, align 8, !dbg !627
  %56 = getelementptr inbounds %"std::thread::JoinInner<()>", %"std::thread::JoinInner<()>"* %_23, i32 0, i32 3, !dbg !627
  store i64* %_39, i64** %56, align 8, !dbg !627
  %57 = getelementptr inbounds %"std::thread::JoinInner<()>", %"std::thread::JoinInner<()>"* %_23, i32 0, i32 5, !dbg !627
  %58 = load i64*, i64** %_40, align 8, !dbg !627, !nonnull !4
  store i64* %58, i64** %57, align 8, !dbg !627
  %59 = bitcast %"std::thread::JoinHandle<()>"* %_22 to %"std::thread::JoinInner<()>"*, !dbg !628
  %60 = bitcast %"std::thread::JoinInner<()>"* %59 to i8*, !dbg !628
  %61 = bitcast %"std::thread::JoinInner<()>"* %_23 to i8*, !dbg !628
  call void @llvm.memcpy.p0i8.p0i8.i64(i8* align 8 %60, i8* align 8 %61, i64 32, i1 false), !dbg !628
  %62 = bitcast %"std::result::Result<std::thread::JoinHandle<()>, std::io::Error>"* %0 to %"std::result::Result<std::thread::JoinHandle<()>, std::io::Error>::Ok"*, !dbg !629
  %63 = getelementptr inbounds %"std::result::Result<std::thread::JoinHandle<()>, std::io::Error>::Ok", %"std::result::Result<std::thread::JoinHandle<()>, std::io::Error>::Ok"* %62, i32 0, i32 1, !dbg !629
  %64 = bitcast %"std::thread::JoinHandle<()>"* %63 to i8*, !dbg !629
  %65 = bitcast %"std::thread::JoinHandle<()>"* %_22 to i8*, !dbg !629
  call void @llvm.memcpy.p0i8.p0i8.i64(i8* align 8 %64, i8* align 8 %65, i64 32, i1 false), !dbg !629
  %66 = bitcast %"std::result::Result<std::thread::JoinHandle<()>, std::io::Error>"* %0 to i64*, !dbg !629
  store i64 0, i64* %66, align 8, !dbg !629
  store i8 0, i8* %_42, align 1, !dbg !630
  store i8 0, i8* %_43, align 1, !dbg !631
  store i8 0, i8* %_44, align 1, !dbg !632
  store i8 0, i8* %_45, align 1, !dbg !633
  br label %bb22, !dbg !633

bb16:                                             ; preds = %bb14
  unreachable, !dbg !620

bb17:                                             ; preds = %bb14
  %67 = bitcast %"std::result::Result<std::sys::unix::thread::Thread, std::io::Error>"* %_26 to %"std::result::Result<std::sys::unix::thread::Thread, std::io::Error>::Err"*, !dbg !621
  %68 = getelementptr inbounds %"std::result::Result<std::sys::unix::thread::Thread, std::io::Error>::Err", %"std::result::Result<std::sys::unix::thread::Thread, std::io::Error>::Err"* %67, i32 0, i32 1, !dbg !621
  %69 = bitcast %"std::io::Error"* %err to i8*, !dbg !621
  %70 = bitcast %"std::io::Error"* %68 to i8*, !dbg !621
  call void @llvm.memcpy.p0i8.p0i8.i64(i8* align 8 %69, i8* align 8 %70, i64 16, i1 false), !dbg !621
  %71 = bitcast %"std::io::Error"* %_37 to i8*, !dbg !578
  %72 = bitcast %"std::io::Error"* %err to i8*, !dbg !578
  call void @llvm.memcpy.p0i8.p0i8.i64(i8* align 8 %71, i8* align 8 %72, i64 16, i1 false), !dbg !578
  %73 = bitcast %"std::io::Error"* %_37 to i128*, !dbg !578
  %74 = load i128, i128* %73, align 8, !dbg !578
; invoke <std::io::error::Error as core::convert::From<std::io::error::Error>>::from
  %75 = invoke i128 @_RNvXs2_NtCs3p84KrD9aKt_4core7convertNtNtNtCs2bNvlddUlXM_3std2io5error5ErrorINtB5_4FromBy_E4fromCsgXJhLyQVBY8_14crossbeam_test(i128 %74)
          to label %bb18 unwind label %cleanup7, !dbg !578

bb18:                                             ; preds = %bb17
  store i128 %75, i128* %2, align 8, !dbg !578
  %76 = bitcast %"std::io::Error"* %_36 to i8*, !dbg !578
  %77 = bitcast i128* %2 to i8*, !dbg !578
  call void @llvm.memcpy.p0i8.p0i8.i64(i8* align 8 %76, i8* align 8 %77, i64 16, i1 false), !dbg !578
  %78 = bitcast %"std::io::Error"* %_36 to i128*, !dbg !634
  %79 = load i128, i128* %78, align 8, !dbg !634
; invoke <core::result::Result<std::thread::JoinHandle<()>, std::io::error::Error> as core::ops::try::Try>::from_error
  invoke void @_RNvXsw_NtCs3p84KrD9aKt_4core6resultINtB5_6ResultINtNtCs2bNvlddUlXM_3std6thread10JoinHandleuENtNtNtBP_2io5error5ErrorENtNtNtB7_3ops3try3Try10from_errorCsgXJhLyQVBY8_14crossbeam_test(%"std::result::Result<std::thread::JoinHandle<()>, std::io::Error>"* noalias nocapture sret dereferenceable(40) %0, i128 %79)
          to label %bb19 unwind label %cleanup7, !dbg !634

bb19:                                             ; preds = %bb18
  store i8 0, i8* %_42, align 1, !dbg !630
  store i8 0, i8* %_43, align 1, !dbg !631
; invoke core::ptr::drop_in_place::<alloc::sync::Arc<core::cell::UnsafeCell<core::option::Option<core::result::Result<(), alloc::boxed::Box<dyn core::any::Any + core::marker::Send>>>>>>
  invoke void @_RINvNtCs3p84KrD9aKt_4core3ptr13drop_in_placeINtNtCs8RW06R9lH2S_5alloc4sync3ArcINtNtB4_4cell10UnsafeCellINtNtB4_6option6OptionINtNtB4_6result6ResultuINtNtBL_5boxed3BoxDNtNtB4_3any3AnyNtNtB4_6marker4SendEL_EEEEEECsgXJhLyQVBY8_14crossbeam_test(i64** %my_packet)
          to label %bb20 unwind label %cleanup8, !dbg !635

bb20:                                             ; preds = %bb19
  store i8 0, i8* %_44, align 1, !dbg !632
; invoke core::ptr::drop_in_place::<std::thread::Thread>
  invoke void @_RINvNtCs3p84KrD9aKt_4core3ptr13drop_in_placeNtNtCs2bNvlddUlXM_3std6thread6ThreadECs48Yq53b35jF_15crossbeam_utils(i64** %my_thread)
          to label %bb21 unwind label %cleanup9, !dbg !636

bb21:                                             ; preds = %bb20
  store i8 0, i8* %_45, align 1, !dbg !633
  br label %bb22, !dbg !633

bb22:                                             ; preds = %bb15, %bb21
  ret void, !dbg !637

bb23:                                             ; preds = %cleanup8
; call core::ptr::drop_in_place::<std::thread::Thread>
  call void @_RINvNtCs3p84KrD9aKt_4core3ptr13drop_in_placeNtNtCs2bNvlddUlXM_3std6thread6ThreadECs48Yq53b35jF_15crossbeam_utils(i64** %my_thread) #16, !dbg !636
  br label %bb24, !dbg !636

bb24:                                             ; preds = %cleanup9, %bb23
; call core::ptr::drop_in_place::<core::result::Result<std::thread::JoinHandle<()>, std::io::error::Error>>
  call void @_RINvNtCs3p84KrD9aKt_4core3ptr13drop_in_placeINtNtB4_6result6ResultINtNtCs2bNvlddUlXM_3std6thread10JoinHandleuENtNtNtB17_2io5error5ErrorEECsgXJhLyQVBY8_14crossbeam_test(%"std::result::Result<std::thread::JoinHandle<()>, std::io::Error>"* %0) #16, !dbg !633
  br label %bb30, !dbg !633

bb25:                                             ; preds = %cleanup7
; call core::ptr::drop_in_place::<alloc::sync::Arc<core::cell::UnsafeCell<core::option::Option<core::result::Result<(), alloc::boxed::Box<dyn core::any::Any + core::marker::Send>>>>>>
  call void @_RINvNtCs3p84KrD9aKt_4core3ptr13drop_in_placeINtNtCs8RW06R9lH2S_5alloc4sync3ArcINtNtB4_4cell10UnsafeCellINtNtB4_6option6OptionINtNtB4_6result6ResultuINtNtBL_5boxed3BoxDNtNtB4_3any3AnyNtNtB4_6marker4SendEL_EEEEEECsgXJhLyQVBY8_14crossbeam_test(i64** %my_packet) #16, !dbg !635
  br label %bb26, !dbg !635

bb26:                                             ; preds = %bb25
; call core::ptr::drop_in_place::<std::thread::Thread>
  call void @_RINvNtCs3p84KrD9aKt_4core3ptr13drop_in_placeNtNtCs2bNvlddUlXM_3std6thread6ThreadECs48Yq53b35jF_15crossbeam_utils(i64** %my_thread) #16, !dbg !636
  br label %bb31, !dbg !636

bb27:                                             ; preds = %bb34, %bb35, %cleanup4
; call core::ptr::drop_in_place::<alloc::sync::Arc<core::cell::UnsafeCell<core::option::Option<core::result::Result<(), alloc::boxed::Box<dyn core::any::Any + core::marker::Send>>>>>>
  call void @_RINvNtCs3p84KrD9aKt_4core3ptr13drop_in_placeINtNtCs8RW06R9lH2S_5alloc4sync3ArcINtNtB4_4cell10UnsafeCellINtNtB4_6option6OptionINtNtB4_6result6ResultuINtNtBL_5boxed3BoxDNtNtB4_3any3AnyNtNtB4_6marker4SendEL_EEEEEECsgXJhLyQVBY8_14crossbeam_test(i64** %my_packet) #16, !dbg !635
  br label %bb37, !dbg !635

bb28:                                             ; preds = %bb36, %bb37, %cleanup2
; call core::ptr::drop_in_place::<std::thread::Thread>
  call void @_RINvNtCs3p84KrD9aKt_4core3ptr13drop_in_placeNtNtCs2bNvlddUlXM_3std6thread6ThreadECs48Yq53b35jF_15crossbeam_utils(i64** %my_thread) #16, !dbg !636
  br label %bb39, !dbg !636

bb29:                                             ; preds = %bb31, %bb38, %bb39
  %80 = load i8, i8* %_46, align 1, !dbg !633, !range !638
  %81 = trunc i8 %80 to i1, !dbg !633
  br i1 %81, label %bb40, label %bb30, !dbg !633

bb30:                                             ; preds = %bb24, %bb40, %bb29
  %82 = bitcast { i8*, i32 }* %4 to i8**, !dbg !639
  %83 = load i8*, i8** %82, align 8, !dbg !639
  %84 = getelementptr inbounds { i8*, i32 }, { i8*, i32 }* %4, i32 0, i32 1, !dbg !639
  %85 = load i32, i32* %84, align 8, !dbg !639
  %86 = insertvalue { i8*, i32 } undef, i8* %83, 0, !dbg !639
  %87 = insertvalue { i8*, i32 } %86, i32 %85, 1, !dbg !639
  resume { i8*, i32 } %87, !dbg !639

bb31:                                             ; preds = %bb26
  br label %bb29, !dbg !633

bb32:                                             ; preds = %bb33
; call core::ptr::drop_in_place::<core::option::Option<alloc::sync::Arc<std::sync::mutex::Mutex<alloc::vec::Vec<u8>>>>>
  call void @_RINvNtCs3p84KrD9aKt_4core3ptr13drop_in_placeINtNtB4_6option6OptionINtNtCs8RW06R9lH2S_5alloc4sync3ArcINtNtNtCs2bNvlddUlXM_3std4sync5mutex5MutexINtNtB17_3vec3VechEEEEECsgXJhLyQVBY8_14crossbeam_test(i64** %output_capture) #16, !dbg !630
  br label %bb35, !dbg !630

bb33:                                             ; preds = %cleanup6
  %88 = load i8, i8* %_42, align 1, !dbg !630, !range !638
  %89 = trunc i8 %88 to i1, !dbg !630
  br i1 %89, label %bb32, label %bb35, !dbg !630

bb34:                                             ; preds = %bb35
; call core::ptr::drop_in_place::<alloc::sync::Arc<core::cell::UnsafeCell<core::option::Option<core::result::Result<(), alloc::boxed::Box<dyn core::any::Any + core::marker::Send>>>>>>
  call void @_RINvNtCs3p84KrD9aKt_4core3ptr13drop_in_placeINtNtCs8RW06R9lH2S_5alloc4sync3ArcINtNtB4_4cell10UnsafeCellINtNtB4_6option6OptionINtNtB4_6result6ResultuINtNtBL_5boxed3BoxDNtNtB4_3any3AnyNtNtB4_6marker4SendEL_EEEEEECsgXJhLyQVBY8_14crossbeam_test(i64** %their_packet) #16, !dbg !631
  br label %bb27, !dbg !631

bb35:                                             ; preds = %bb32, %bb33, %cleanup5
  %90 = load i8, i8* %_43, align 1, !dbg !631, !range !638
  %91 = trunc i8 %90 to i1, !dbg !631
  br i1 %91, label %bb34, label %bb27, !dbg !631

bb36:                                             ; preds = %bb37
; call core::ptr::drop_in_place::<std::thread::Thread>
  call void @_RINvNtCs3p84KrD9aKt_4core3ptr13drop_in_placeNtNtCs2bNvlddUlXM_3std6thread6ThreadECs48Yq53b35jF_15crossbeam_utils(i64** %their_thread) #16, !dbg !632
  br label %bb28, !dbg !632

bb37:                                             ; preds = %bb27, %cleanup3
  %92 = load i8, i8* %_44, align 1, !dbg !632, !range !638
  %93 = trunc i8 %92 to i1, !dbg !632
  br i1 %93, label %bb36, label %bb28, !dbg !632

bb38:                                             ; preds = %bb39
; call core::ptr::drop_in_place::<core::option::Option<alloc::string::String>>
  call void @_RINvNtCs3p84KrD9aKt_4core3ptr13drop_in_placeINtNtB4_6option6OptionNtNtCs8RW06R9lH2S_5alloc6string6StringEECsgXJhLyQVBY8_14crossbeam_test(%"std::option::Option<std::string::String>"* %name) #16, !dbg !633
  br label %bb29, !dbg !633

bb39:                                             ; preds = %bb28, %cleanup
  %94 = load i8, i8* %_45, align 1, !dbg !633, !range !638
  %95 = trunc i8 %94 to i1, !dbg !633
  br i1 %95, label %bb38, label %bb29, !dbg !633

bb40:                                             ; preds = %bb29
; call core::ptr::drop_in_place::<crossbeam_test::main::{closure#0}::{closure#0}>
  call void @_RINvNtCs3p84KrD9aKt_4core3ptr13drop_in_placeNCNCNvCsgXJhLyQVBY8_14crossbeam_test4main00EBM_(i64** %f) #16, !dbg !633
  br label %bb30, !dbg !633

cleanup:                                          ; preds = %bb1, %start
  %96 = landingpad { i8*, i32 }
          cleanup
  %97 = extractvalue { i8*, i32 } %96, 0
  %98 = extractvalue { i8*, i32 } %96, 1
  %99 = getelementptr inbounds { i8*, i32 }, { i8*, i32 }* %4, i32 0, i32 0
  store i8* %97, i8** %99, align 8
  %100 = getelementptr inbounds { i8*, i32 }, { i8*, i32 }* %4, i32 0, i32 1
  store i32 %98, i32* %100, align 8
  br label %bb39

cleanup2:                                         ; preds = %bb2
  %101 = landingpad { i8*, i32 }
          cleanup
  %102 = extractvalue { i8*, i32 } %101, 0
  %103 = extractvalue { i8*, i32 } %101, 1
  %104 = getelementptr inbounds { i8*, i32 }, { i8*, i32 }* %4, i32 0, i32 0
  store i8* %102, i8** %104, align 8
  %105 = getelementptr inbounds { i8*, i32 }, { i8*, i32 }* %4, i32 0, i32 1
  store i32 %103, i32* %105, align 8
  br label %bb28

cleanup3:                                         ; preds = %bb4, %bb3
  %106 = landingpad { i8*, i32 }
          cleanup
  %107 = extractvalue { i8*, i32 } %106, 0
  %108 = extractvalue { i8*, i32 } %106, 1
  %109 = getelementptr inbounds { i8*, i32 }, { i8*, i32 }* %4, i32 0, i32 0
  store i8* %107, i8** %109, align 8
  %110 = getelementptr inbounds { i8*, i32 }, { i8*, i32 }* %4, i32 0, i32 1
  store i32 %108, i32* %110, align 8
  br label %bb37

cleanup4:                                         ; preds = %bb5
  %111 = landingpad { i8*, i32 }
          cleanup
  %112 = extractvalue { i8*, i32 } %111, 0
  %113 = extractvalue { i8*, i32 } %111, 1
  %114 = getelementptr inbounds { i8*, i32 }, { i8*, i32 }* %4, i32 0, i32 0
  store i8* %112, i8** %114, align 8
  %115 = getelementptr inbounds { i8*, i32 }, { i8*, i32 }* %4, i32 0, i32 1
  store i32 %113, i32* %115, align 8
  br label %bb27

cleanup5:                                         ; preds = %bb6
  %116 = landingpad { i8*, i32 }
          cleanup
  %117 = extractvalue { i8*, i32 } %116, 0
  %118 = extractvalue { i8*, i32 } %116, 1
  %119 = getelementptr inbounds { i8*, i32 }, { i8*, i32 }* %4, i32 0, i32 0
  store i8* %117, i8** %119, align 8
  %120 = getelementptr inbounds { i8*, i32 }, { i8*, i32 }* %4, i32 0, i32 1
  store i32 %118, i32* %120, align 8
  br label %bb35

cleanup6:                                         ; preds = %bb10, %bb13, %bb12, %bb9, %bb8, %bb7
  %121 = landingpad { i8*, i32 }
          cleanup
  %122 = extractvalue { i8*, i32 } %121, 0
  %123 = extractvalue { i8*, i32 } %121, 1
  %124 = getelementptr inbounds { i8*, i32 }, { i8*, i32 }* %4, i32 0, i32 0
  store i8* %122, i8** %124, align 8
  %125 = getelementptr inbounds { i8*, i32 }, { i8*, i32 }* %4, i32 0, i32 1
  store i32 %123, i32* %125, align 8
  br label %bb33

cleanup7:                                         ; preds = %bb18, %bb17
  %126 = landingpad { i8*, i32 }
          cleanup
  %127 = extractvalue { i8*, i32 } %126, 0
  %128 = extractvalue { i8*, i32 } %126, 1
  %129 = getelementptr inbounds { i8*, i32 }, { i8*, i32 }* %4, i32 0, i32 0
  store i8* %127, i8** %129, align 8
  %130 = getelementptr inbounds { i8*, i32 }, { i8*, i32 }* %4, i32 0, i32 1
  store i32 %128, i32* %130, align 8
  br label %bb25

cleanup8:                                         ; preds = %bb19
  %131 = landingpad { i8*, i32 }
          cleanup
  %132 = extractvalue { i8*, i32 } %131, 0
  %133 = extractvalue { i8*, i32 } %131, 1
  %134 = getelementptr inbounds { i8*, i32 }, { i8*, i32 }* %4, i32 0, i32 0
  store i8* %132, i8** %134, align 8
  %135 = getelementptr inbounds { i8*, i32 }, { i8*, i32 }* %4, i32 0, i32 1
  store i32 %133, i32* %135, align 8
  br label %bb23

cleanup9:                                         ; preds = %bb20
  %136 = landingpad { i8*, i32 }
          cleanup
  %137 = extractvalue { i8*, i32 } %136, 0
  %138 = extractvalue { i8*, i32 } %136, 1
  %139 = getelementptr inbounds { i8*, i32 }, { i8*, i32 }* %4, i32 0, i32 0
  store i8* %137, i8** %139, align 8
  %140 = getelementptr inbounds { i8*, i32 }, { i8*, i32 }* %4, i32 0, i32 1
  store i32 %138, i32* %140, align 8
  br label %bb24
}

; <std::thread::Builder>::spawn::<crossbeam_test::main::{closure#0}::{closure#0}, ()>
; Function Attrs: nonlazybind uwtable
define internal void @_RINvMNtCs2bNvlddUlXM_3std6threadNtB3_7Builder5spawnNCNCNvCsgXJhLyQVBY8_14crossbeam_test4main00uEBT_(%"std::result::Result<std::thread::JoinHandle<()>, std::io::Error>"* noalias nocapture sret dereferenceable(40) %0, %"std::thread::Builder"* noalias nocapture dereferenceable(40) %self, i64* nonnull %f) unnamed_addr #0 !dbg !640 {
start:
  %f.dbg.spill = alloca i64*, align 8
  %_3 = alloca %"std::thread::Builder", align 8
  call void @llvm.dbg.declare(metadata %"std::thread::Builder"* %self, metadata !642, metadata !DIExpression()), !dbg !644
  store i64* %f, i64** %f.dbg.spill, align 8
  call void @llvm.dbg.declare(metadata i64** %f.dbg.spill, metadata !643, metadata !DIExpression()), !dbg !645
  %1 = bitcast %"std::thread::Builder"* %_3 to i8*, !dbg !646
  %2 = bitcast %"std::thread::Builder"* %self to i8*, !dbg !646
  call void @llvm.memcpy.p0i8.p0i8.i64(i8* align 8 %1, i8* align 8 %2, i64 40, i1 false), !dbg !646
; call <std::thread::Builder>::spawn_unchecked::<crossbeam_test::main::{closure#0}::{closure#0}, ()>
  call void @_RINvMNtCs2bNvlddUlXM_3std6threadNtB3_7Builder15spawn_uncheckedNCNCNvCsgXJhLyQVBY8_14crossbeam_test4main00uEB14_(%"std::result::Result<std::thread::JoinHandle<()>, std::io::Error>"* noalias nocapture sret dereferenceable(40) %0, %"std::thread::Builder"* noalias nocapture dereferenceable(40) %_3, i64* nonnull %f), !dbg !646
  br label %bb1, !dbg !646

bb1:                                              ; preds = %start
  ret void, !dbg !647
}

; <core::option::Option<usize>>::unwrap_or_else::<std::sys_common::thread::min_stack>
; Function Attrs: inlinehint nonlazybind uwtable
define internal i64 @_RINvMNtCs3p84KrD9aKt_4core6optionINtB3_6OptionjE14unwrap_or_elseNvNtNtCs2bNvlddUlXM_3std10sys_common6thread9min_stackECsgXJhLyQVBY8_14crossbeam_test(i64 %0, i64 %1) unnamed_addr #1 personality i32 (i32, i32, i64, %"unwind::libunwind::_Unwind_Exception"*, %"unwind::libunwind::_Unwind_Context"*)* @rust_eh_personality !dbg !648 {
start:
  %2 = alloca { i8*, i32 }, align 8
  %x.dbg.spill = alloca i64, align 8
  %f.dbg.spill = alloca {}, align 1
  %_7 = alloca i8, align 1
  %_6 = alloca {}, align 1
  %3 = alloca i64, align 8
  %self = alloca { i64, i64 }, align 8
  %4 = getelementptr inbounds { i64, i64 }, { i64, i64 }* %self, i32 0, i32 0
  store i64 %0, i64* %4, align 8
  %5 = getelementptr inbounds { i64, i64 }, { i64, i64 }* %self, i32 0, i32 1
  store i64 %1, i64* %5, align 8
  call void @llvm.dbg.declare(metadata { i64, i64 }* %self, metadata !656, metadata !DIExpression()), !dbg !662
  call void @llvm.dbg.declare(metadata {}* %f.dbg.spill, metadata !657, metadata !DIExpression()), !dbg !663
  store i8 0, i8* %_7, align 1, !dbg !664
  store i8 1, i8* %_7, align 1, !dbg !664
  %6 = bitcast { i64, i64 }* %self to i64*, !dbg !664
  %_3 = load i64, i64* %6, align 8, !dbg !664, !range !581
  switch i64 %_3, label %bb2 [
    i64 0, label %bb1
    i64 1, label %bb3
  ], !dbg !664

bb1:                                              ; preds = %start
  store i8 0, i8* %_7, align 1, !dbg !665
; call <std::sys_common::thread::min_stack as core::ops::function::FnOnce<()>>::call_once
  %7 = call i64 @_RNvYNvNtNtCs2bNvlddUlXM_3std10sys_common6thread9min_stackINtNtNtCs3p84KrD9aKt_4core3ops8function6FnOnceuE9call_onceCsgXJhLyQVBY8_14crossbeam_test(), !dbg !665
  store i64 %7, i64* %3, align 8, !dbg !665
  br label %bb4, !dbg !665

bb2:                                              ; preds = %start
  unreachable, !dbg !666

bb3:                                              ; preds = %start
  %8 = bitcast { i64, i64 }* %self to %"std::option::Option<usize>::Some"*, !dbg !667
  %9 = getelementptr inbounds %"std::option::Option<usize>::Some", %"std::option::Option<usize>::Some"* %8, i32 0, i32 1, !dbg !667
  %x = load i64, i64* %9, align 8, !dbg !667
  store i64 %x, i64* %x.dbg.spill, align 8, !dbg !667
  call void @llvm.dbg.declare(metadata i64* %x.dbg.spill, metadata !658, metadata !DIExpression()), !dbg !668
  store i64 %x, i64* %3, align 8, !dbg !669
  br label %bb9, !dbg !670

bb4:                                              ; preds = %bb1
  br label %bb9, !dbg !670

bb5:                                              ; preds = %bb8, %bb9
  %10 = load i64, i64* %3, align 8, !dbg !671
  ret i64 %10, !dbg !671

bb6:                                              ; No predecessors!
  br label %bb7, !dbg !672

bb7:                                              ; preds = %bb6
  %11 = bitcast { i8*, i32 }* %2 to i8**, !dbg !673
  %12 = load i8*, i8** %11, align 8, !dbg !673
  %13 = getelementptr inbounds { i8*, i32 }, { i8*, i32 }* %2, i32 0, i32 1, !dbg !673
  %14 = load i32, i32* %13, align 8, !dbg !673
  %15 = insertvalue { i8*, i32 } undef, i8* %12, 0, !dbg !673
  %16 = insertvalue { i8*, i32 } %15, i32 %14, 1, !dbg !673
  resume { i8*, i32 } %16, !dbg !673

bb8:                                              ; preds = %bb9
  br label %bb5, !dbg !672

bb9:                                              ; preds = %bb4, %bb3
  %17 = load i8, i8* %_7, align 1, !dbg !672, !range !638
  %18 = trunc i8 %17 to i1, !dbg !672
  br i1 %18, label %bb8, label %bb5, !dbg !672
}

; <core::option::Option<usize>>::map::<crossbeam_queue::array_queue::Slot<i32>, &mut <crossbeam_queue::array_queue::ArrayQueue<i32>>::new::{closure#0}>
; Function Attrs: inlinehint nonlazybind uwtable
define internal void @_RINvMNtCs3p84KrD9aKt_4core6optionINtB3_6OptionjE3mapINtNtCsl4s60bRVA8d_15crossbeam_queue11array_queue4SlotlEQNCNvMs0_BR_INtBR_10ArrayQueuelE3new0ECsgXJhLyQVBY8_14crossbeam_test(%"std::option::Option<crossbeam::crossbeam_queue::array_queue::Slot<i32>>"* noalias nocapture sret dereferenceable(24) %0, i64 %1, i64 %2, %"[closure@crossbeam::crossbeam_queue::ArrayQueue<i32>::new::{closure#0}]"* nonnull align 1 %f) unnamed_addr #1 personality i32 (i32, i32, i64, %"unwind::libunwind::_Unwind_Exception"*, %"unwind::libunwind::_Unwind_Context"*)* @rust_eh_personality !dbg !674 {
start:
  %3 = alloca { i8*, i32 }, align 8
  %4 = alloca i128, align 8
  %x.dbg.spill = alloca i64, align 8
  %f.dbg.spill = alloca %"[closure@crossbeam::crossbeam_queue::ArrayQueue<i32>::new::{closure#0}]"*, align 8
  %_9 = alloca i8, align 1
  %_7 = alloca i64, align 8
  %_5 = alloca %"crossbeam::crossbeam_queue::array_queue::Slot<i32>", align 8
  %self = alloca { i64, i64 }, align 8
  %5 = getelementptr inbounds { i64, i64 }, { i64, i64 }* %self, i32 0, i32 0
  store i64 %1, i64* %5, align 8
  %6 = getelementptr inbounds { i64, i64 }, { i64, i64 }* %self, i32 0, i32 1
  store i64 %2, i64* %6, align 8
  call void @llvm.dbg.declare(metadata { i64, i64 }* %self, metadata !694, metadata !DIExpression()), !dbg !701
  store %"[closure@crossbeam::crossbeam_queue::ArrayQueue<i32>::new::{closure#0}]"* %f, %"[closure@crossbeam::crossbeam_queue::ArrayQueue<i32>::new::{closure#0}]"** %f.dbg.spill, align 8
  call void @llvm.dbg.declare(metadata %"[closure@crossbeam::crossbeam_queue::ArrayQueue<i32>::new::{closure#0}]"** %f.dbg.spill, metadata !695, metadata !DIExpression()), !dbg !702
  store i8 0, i8* %_9, align 1, !dbg !703
  store i8 1, i8* %_9, align 1, !dbg !703
  %7 = bitcast { i64, i64 }* %self to i64*, !dbg !703
  %_3 = load i64, i64* %7, align 8, !dbg !703, !range !581
  switch i64 %_3, label %bb2 [
    i64 0, label %bb1
    i64 1, label %bb3
  ], !dbg !703

bb1:                                              ; preds = %start
  %8 = bitcast %"std::option::Option<crossbeam::crossbeam_queue::array_queue::Slot<i32>>"* %0 to i64*, !dbg !704
  store i64 0, i64* %8, align 8, !dbg !704
  br label %bb9, !dbg !705

bb2:                                              ; preds = %start
  unreachable, !dbg !706

bb3:                                              ; preds = %start
  %9 = bitcast { i64, i64 }* %self to %"std::option::Option<usize>::Some"*, !dbg !707
  %10 = getelementptr inbounds %"std::option::Option<usize>::Some", %"std::option::Option<usize>::Some"* %9, i32 0, i32 1, !dbg !707
  %x = load i64, i64* %10, align 8, !dbg !707
  store i64 %x, i64* %x.dbg.spill, align 8, !dbg !707
  call void @llvm.dbg.declare(metadata i64* %x.dbg.spill, metadata !696, metadata !DIExpression()), !dbg !708
  store i8 0, i8* %_9, align 1, !dbg !709
  store i64 %x, i64* %_7, align 8, !dbg !709
  %11 = load i64, i64* %_7, align 8, !dbg !709
; call <&mut <crossbeam_queue::array_queue::ArrayQueue<i32>>::new::{closure#0} as core::ops::function::FnOnce<(usize,)>>::call_once
  %12 = call i128 @_RNvXs2_NtNtNtCs3p84KrD9aKt_4core3ops8function5implsQNCNvMs0_NtCsl4s60bRVA8d_15crossbeam_queue11array_queueINtBW_10ArrayQueuelE3new0INtB7_6FnOnceTjEE9call_onceCsgXJhLyQVBY8_14crossbeam_test(%"[closure@crossbeam::crossbeam_queue::ArrayQueue<i32>::new::{closure#0}]"* nonnull align 1 %f, i64 %11), !dbg !709
  store i128 %12, i128* %4, align 8, !dbg !709
  %13 = bitcast %"crossbeam::crossbeam_queue::array_queue::Slot<i32>"* %_5 to i8*, !dbg !709
  %14 = bitcast i128* %4 to i8*, !dbg !709
  call void @llvm.memcpy.p0i8.p0i8.i64(i8* align 8 %13, i8* align 8 %14, i64 16, i1 false), !dbg !709
  br label %bb4, !dbg !709

bb4:                                              ; preds = %bb3
  %15 = bitcast %"std::option::Option<crossbeam::crossbeam_queue::array_queue::Slot<i32>>"* %0 to %"std::option::Option<crossbeam::crossbeam_queue::array_queue::Slot<i32>>::Some"*, !dbg !710
  %16 = getelementptr inbounds %"std::option::Option<crossbeam::crossbeam_queue::array_queue::Slot<i32>>::Some", %"std::option::Option<crossbeam::crossbeam_queue::array_queue::Slot<i32>>::Some"* %15, i32 0, i32 1, !dbg !710
  %17 = bitcast %"crossbeam::crossbeam_queue::array_queue::Slot<i32>"* %16 to i8*, !dbg !710
  %18 = bitcast %"crossbeam::crossbeam_queue::array_queue::Slot<i32>"* %_5 to i8*, !dbg !710
  call void @llvm.memcpy.p0i8.p0i8.i64(i8* align 8 %17, i8* align 8 %18, i64 16, i1 false), !dbg !710
  %19 = bitcast %"std::option::Option<crossbeam::crossbeam_queue::array_queue::Slot<i32>>"* %0 to i64*, !dbg !710
  store i64 1, i64* %19, align 8, !dbg !710
  br label %bb9, !dbg !711

bb5:                                              ; preds = %bb8, %bb9
  ret void, !dbg !712

bb6:                                              ; No predecessors!
  br label %bb7, !dbg !711

bb7:                                              ; preds = %bb6
  %20 = bitcast { i8*, i32 }* %3 to i8**, !dbg !713
  %21 = load i8*, i8** %20, align 8, !dbg !713
  %22 = getelementptr inbounds { i8*, i32 }, { i8*, i32 }* %3, i32 0, i32 1, !dbg !713
  %23 = load i32, i32* %22, align 8, !dbg !713
  %24 = insertvalue { i8*, i32 } undef, i8* %21, 0, !dbg !713
  %25 = insertvalue { i8*, i32 } %24, i32 %23, 1, !dbg !713
  resume { i8*, i32 } %25, !dbg !713

bb8:                                              ; preds = %bb9
  br label %bb5, !dbg !711

bb9:                                              ; preds = %bb1, %bb4
  %26 = load i8, i8* %_9, align 1, !dbg !711, !range !638
  %27 = trunc i8 %26 to i1, !dbg !711
  br i1 %27, label %bb8, label %bb5, !dbg !711
}

; <core::option::Option<i32>>::map::<std::thread::JoinHandle<()>, &mut crossbeam_test::main::{closure#0}>
; Function Attrs: inlinehint nonlazybind uwtable
define internal void @_RINvMNtCs3p84KrD9aKt_4core6optionINtB3_6OptionlE3mapINtNtCs2bNvlddUlXM_3std6thread10JoinHandleuEQNCNvCsgXJhLyQVBY8_14crossbeam_test4main0EB1B_(%"std::option::Option<std::thread::JoinHandle<()>>"* noalias nocapture sret dereferenceable(32) %0, i32 %1, i32 %2, i64** align 8 dereferenceable(8) %f) unnamed_addr #1 personality i32 (i32, i32, i64, %"unwind::libunwind::_Unwind_Exception"*, %"unwind::libunwind::_Unwind_Context"*)* @rust_eh_personality !dbg !714 {
start:
  %3 = alloca { i8*, i32 }, align 8
  %x.dbg.spill = alloca i32, align 4
  %f.dbg.spill = alloca i64**, align 8
  %_9 = alloca i8, align 1
  %_7 = alloca i32, align 4
  %_5 = alloca %"std::thread::JoinHandle<()>", align 8
  %self = alloca { i32, i32 }, align 4
  %4 = getelementptr inbounds { i32, i32 }, { i32, i32 }* %self, i32 0, i32 0
  store i32 %1, i32* %4, align 4
  %5 = getelementptr inbounds { i32, i32 }, { i32, i32 }* %self, i32 0, i32 1
  store i32 %2, i32* %5, align 4
  call void @llvm.dbg.declare(metadata { i32, i32 }* %self, metadata !746, metadata !DIExpression()), !dbg !753
  store i64** %f, i64*** %f.dbg.spill, align 8
  call void @llvm.dbg.declare(metadata i64*** %f.dbg.spill, metadata !747, metadata !DIExpression()), !dbg !754
  store i8 0, i8* %_9, align 1, !dbg !755
  store i8 1, i8* %_9, align 1, !dbg !755
  %6 = bitcast { i32, i32 }* %self to i32*, !dbg !755
  %7 = load i32, i32* %6, align 4, !dbg !755, !range !756
  %_3 = zext i32 %7 to i64, !dbg !755
  switch i64 %_3, label %bb2 [
    i64 0, label %bb1
    i64 1, label %bb3
  ], !dbg !755

bb1:                                              ; preds = %start
  %8 = bitcast %"std::option::Option<std::thread::JoinHandle<()>>"* %0 to i64*, !dbg !757
  store i64 2, i64* %8, align 8, !dbg !757
  br label %bb9, !dbg !758

bb2:                                              ; preds = %start
  unreachable, !dbg !759

bb3:                                              ; preds = %start
  %9 = bitcast { i32, i32 }* %self to %"std::option::Option<i32>::Some"*, !dbg !760
  %10 = getelementptr inbounds %"std::option::Option<i32>::Some", %"std::option::Option<i32>::Some"* %9, i32 0, i32 1, !dbg !760
  %x = load i32, i32* %10, align 4, !dbg !760
  store i32 %x, i32* %x.dbg.spill, align 4, !dbg !760
  call void @llvm.dbg.declare(metadata i32* %x.dbg.spill, metadata !748, metadata !DIExpression()), !dbg !761
  store i8 0, i8* %_9, align 1, !dbg !762
  store i32 %x, i32* %_7, align 4, !dbg !762
  %11 = load i32, i32* %_7, align 4, !dbg !762
; call <&mut crossbeam_test::main::{closure#0} as core::ops::function::FnOnce<(i32,)>>::call_once
  call void @_RNvXs2_NtNtNtCs3p84KrD9aKt_4core3ops8function5implsQNCNvCsgXJhLyQVBY8_14crossbeam_test4main0INtB7_6FnOnceTlEE9call_onceBS_(%"std::thread::JoinHandle<()>"* noalias nocapture sret dereferenceable(32) %_5, i64** align 8 dereferenceable(8) %f, i32 %11), !dbg !762
  br label %bb4, !dbg !762

bb4:                                              ; preds = %bb3
  %12 = bitcast %"std::option::Option<std::thread::JoinHandle<()>>"* %0 to %"std::option::Option<std::thread::JoinHandle<()>>::Some"*, !dbg !763
  %13 = bitcast %"std::option::Option<std::thread::JoinHandle<()>>::Some"* %12 to %"std::thread::JoinHandle<()>"*, !dbg !763
  %14 = bitcast %"std::thread::JoinHandle<()>"* %13 to i8*, !dbg !763
  %15 = bitcast %"std::thread::JoinHandle<()>"* %_5 to i8*, !dbg !763
  call void @llvm.memcpy.p0i8.p0i8.i64(i8* align 8 %14, i8* align 8 %15, i64 32, i1 false), !dbg !763
  br label %bb9, !dbg !764

bb5:                                              ; preds = %bb8, %bb9
  ret void, !dbg !765

bb6:                                              ; No predecessors!
; call core::ptr::drop_in_place::<core::option::Option<std::thread::JoinHandle<()>>>
  call void @_RINvNtCs3p84KrD9aKt_4core3ptr13drop_in_placeINtNtB4_6option6OptionINtNtCs2bNvlddUlXM_3std6thread10JoinHandleuEEECsgXJhLyQVBY8_14crossbeam_test(%"std::option::Option<std::thread::JoinHandle<()>>"* %0) #16, !dbg !764
  br label %bb7, !dbg !764

bb7:                                              ; preds = %bb6
  %16 = bitcast { i8*, i32 }* %3 to i8**, !dbg !766
  %17 = load i8*, i8** %16, align 8, !dbg !766
  %18 = getelementptr inbounds { i8*, i32 }, { i8*, i32 }* %3, i32 0, i32 1, !dbg !766
  %19 = load i32, i32* %18, align 8, !dbg !766
  %20 = insertvalue { i8*, i32 } undef, i8* %17, 0, !dbg !766
  %21 = insertvalue { i8*, i32 } %20, i32 %19, 1, !dbg !766
  resume { i8*, i32 } %21, !dbg !766

bb8:                                              ; preds = %bb9
  br label %bb5, !dbg !764

bb9:                                              ; preds = %bb1, %bb4
  %22 = load i8, i8* %_9, align 1, !dbg !764, !range !638
  %23 = trunc i8 %22 to i1, !dbg !764
  br i1 %23, label %bb8, label %bb5, !dbg !764
}

; <core::result::Result<core::ptr::non_null::NonNull<[u8]>, core::alloc::AllocError>>::map_err::<alloc::collections::TryReserveError, <alloc::raw_vec::RawVec<crossbeam_queue::array_queue::Slot<i32>>>::shrink::{closure#0}>
; Function Attrs: inlinehint nonlazybind uwtable
define internal void @_RINvMNtCs3p84KrD9aKt_4core6resultINtB3_6ResultINtNtNtB5_3ptr8non_null7NonNullShENtNtB5_5alloc10AllocErrorE7map_errNtNtCs8RW06R9lH2S_5alloc11collections15TryReserveErrorNCNvMs0_NtB1S_7raw_vecINtB2O_6RawVecINtNtCsl4s60bRVA8d_15crossbeam_queue11array_queue4SlotlEE6shrink0ECsgXJhLyQVBY8_14crossbeam_test(%"std::result::Result<std::ptr::NonNull<[u8]>, std::collections::TryReserveError>"* noalias nocapture sret dereferenceable(24) %0, i8* %1, i64 %2, i64* noalias readonly align 8 dereferenceable(16) %op) unnamed_addr #1 personality i32 (i32, i32, i64, %"unwind::libunwind::_Unwind_Exception"*, %"unwind::libunwind::_Unwind_Context"*)* @rust_eh_personality !dbg !767 {
start:
  %3 = alloca { i8*, i32 }, align 8
  %t.dbg.spill = alloca { i8*, i64 }, align 8
  %e.dbg.spill = alloca %"std::alloc::AllocError", align 1
  %op.dbg.spill = alloca i64*, align 8
  %_11 = alloca i8, align 1
  %_9 = alloca { [0 x i8], %"std::alloc::AllocError", [0 x i8] }, align 1
  %self = alloca { i8*, i64 }, align 8
  %4 = getelementptr inbounds { i8*, i64 }, { i8*, i64 }* %self, i32 0, i32 0
  store i8* %1, i8** %4, align 8
  %5 = getelementptr inbounds { i8*, i64 }, { i8*, i64 }* %self, i32 0, i32 1
  store i64 %2, i64* %5, align 8
  call void @llvm.dbg.declare(metadata { i8*, i64 }* %self, metadata !838, metadata !DIExpression()), !dbg !847
  store i64* %op, i64** %op.dbg.spill, align 8
  call void @llvm.dbg.declare(metadata i64** %op.dbg.spill, metadata !839, metadata !DIExpression()), !dbg !848
  call void @llvm.dbg.declare(metadata %"std::alloc::AllocError"* %e.dbg.spill, metadata !842, metadata !DIExpression()), !dbg !849
  store i8 0, i8* %_11, align 1, !dbg !850
  store i8 1, i8* %_11, align 1, !dbg !850
  %6 = bitcast { i8*, i64 }* %self to {}**, !dbg !850
  %7 = load {}*, {}** %6, align 8, !dbg !850
  %8 = icmp eq {}* %7, null, !dbg !850
  %_3 = select i1 %8, i64 1, i64 0, !dbg !850
  switch i64 %_3, label %bb2 [
    i64 0, label %bb3
    i64 1, label %bb1
  ], !dbg !850

bb1:                                              ; preds = %start
  store i8 0, i8* %_11, align 1, !dbg !851
  %9 = bitcast { [0 x i8], %"std::alloc::AllocError", [0 x i8] }* %_9 to %"std::alloc::AllocError"*, !dbg !851
; call <alloc::raw_vec::RawVec<crossbeam_queue::array_queue::Slot<i32>>>::shrink::{closure#0}
  %10 = call { i64, i64 } @_RNCNvMs0_NtCs8RW06R9lH2S_5alloc7raw_vecINtB7_6RawVecINtNtCsl4s60bRVA8d_15crossbeam_queue11array_queue4SlotlEE6shrink0CsgXJhLyQVBY8_14crossbeam_test(i64* noalias readonly align 8 dereferenceable(16) %op), !dbg !851
  %_7.0 = extractvalue { i64, i64 } %10, 0, !dbg !851
  %_7.1 = extractvalue { i64, i64 } %10, 1, !dbg !851
  br label %bb4, !dbg !851

bb2:                                              ; preds = %start
  unreachable, !dbg !852

bb3:                                              ; preds = %start
  %11 = getelementptr inbounds { i8*, i64 }, { i8*, i64 }* %self, i32 0, i32 0, !dbg !853
  %t.0 = load i8*, i8** %11, align 8, !dbg !853, !nonnull !4
  %12 = getelementptr inbounds { i8*, i64 }, { i8*, i64 }* %self, i32 0, i32 1, !dbg !853
  %t.1 = load i64, i64* %12, align 8, !dbg !853
  %13 = getelementptr inbounds { i8*, i64 }, { i8*, i64 }* %t.dbg.spill, i32 0, i32 0, !dbg !853
  store i8* %t.0, i8** %13, align 8, !dbg !853
  %14 = getelementptr inbounds { i8*, i64 }, { i8*, i64 }* %t.dbg.spill, i32 0, i32 1, !dbg !853
  store i64 %t.1, i64* %14, align 8, !dbg !853
  call void @llvm.dbg.declare(metadata { i8*, i64 }* %t.dbg.spill, metadata !840, metadata !DIExpression()), !dbg !854
  %15 = bitcast %"std::result::Result<std::ptr::NonNull<[u8]>, std::collections::TryReserveError>"* %0 to %"std::result::Result<std::ptr::NonNull<[u8]>, std::collections::TryReserveError>::Ok"*, !dbg !855
  %16 = getelementptr inbounds %"std::result::Result<std::ptr::NonNull<[u8]>, std::collections::TryReserveError>::Ok", %"std::result::Result<std::ptr::NonNull<[u8]>, std::collections::TryReserveError>::Ok"* %15, i32 0, i32 1, !dbg !855
  %17 = getelementptr inbounds { i8*, i64 }, { i8*, i64 }* %16, i32 0, i32 0, !dbg !855
  store i8* %t.0, i8** %17, align 8, !dbg !855
  %18 = getelementptr inbounds { i8*, i64 }, { i8*, i64 }* %16, i32 0, i32 1, !dbg !855
  store i64 %t.1, i64* %18, align 8, !dbg !855
  %19 = bitcast %"std::result::Result<std::ptr::NonNull<[u8]>, std::collections::TryReserveError>"* %0 to i64*, !dbg !855
  store i64 0, i64* %19, align 8, !dbg !855
  br label %bb5, !dbg !856

bb4:                                              ; preds = %bb1
  %20 = bitcast %"std::result::Result<std::ptr::NonNull<[u8]>, std::collections::TryReserveError>"* %0 to %"std::result::Result<std::ptr::NonNull<[u8]>, std::collections::TryReserveError>::Err"*, !dbg !857
  %21 = getelementptr inbounds %"std::result::Result<std::ptr::NonNull<[u8]>, std::collections::TryReserveError>::Err", %"std::result::Result<std::ptr::NonNull<[u8]>, std::collections::TryReserveError>::Err"* %20, i32 0, i32 1, !dbg !857
  %22 = getelementptr inbounds { i64, i64 }, { i64, i64 }* %21, i32 0, i32 0, !dbg !857
  store i64 %_7.0, i64* %22, align 8, !dbg !857
  %23 = getelementptr inbounds { i64, i64 }, { i64, i64 }* %21, i32 0, i32 1, !dbg !857
  store i64 %_7.1, i64* %23, align 8, !dbg !857
  %24 = bitcast %"std::result::Result<std::ptr::NonNull<[u8]>, std::collections::TryReserveError>"* %0 to i64*, !dbg !857
  store i64 1, i64* %24, align 8, !dbg !857
  br label %bb5, !dbg !856

bb5:                                              ; preds = %bb3, %bb4
  %25 = load i8, i8* %_11, align 1, !dbg !858, !range !638
  %26 = trunc i8 %25 to i1, !dbg !858
  br i1 %26, label %bb9, label %bb6, !dbg !858

bb6:                                              ; preds = %bb9, %bb5
  ret void, !dbg !859

bb7:                                              ; No predecessors!
  br label %bb8, !dbg !858

bb8:                                              ; preds = %bb7
  %27 = bitcast { i8*, i32 }* %3 to i8**, !dbg !860
  %28 = load i8*, i8** %27, align 8, !dbg !860
  %29 = getelementptr inbounds { i8*, i32 }, { i8*, i32 }* %3, i32 0, i32 1, !dbg !860
  %30 = load i32, i32* %29, align 8, !dbg !860
  %31 = insertvalue { i8*, i32 } undef, i8* %28, 0, !dbg !860
  %32 = insertvalue { i8*, i32 } %31, i32 %30, 1, !dbg !860
  resume { i8*, i32 } %32, !dbg !860

bb9:                                              ; preds = %bb5
  br label %bb6, !dbg !858
}

; <core::alloc::layout::Layout>::for_value_raw::<alloc::sync::ArcInner<core::cell::UnsafeCell<core::option::Option<core::result::Result<(), alloc::boxed::Box<dyn core::any::Any + core::marker::Send>>>>>>
; Function Attrs: nonlazybind uwtable
define internal { i64, i64 } @_RINvMNtNtCs3p84KrD9aKt_4core5alloc6layoutNtB3_6Layout13for_value_rawINtNtCs8RW06R9lH2S_5alloc4sync8ArcInnerINtNtB7_4cell10UnsafeCellINtNtB7_6option6OptionINtNtB7_6result6ResultuINtNtB19_5boxed3BoxDNtNtB7_3any3AnyNtNtB7_6marker4SendEL_EEEEEECsgXJhLyQVBY8_14crossbeam_test(%"alloc::sync::ArcInner<std::cell::UnsafeCell<std::option::Option<std::result::Result<(), std::boxed::Box<dyn std::any::Any + std::marker::Send>>>>>"* %t) unnamed_addr #0 !dbg !861 {
start:
  %align.dbg.spill = alloca i64, align 8
  %size.dbg.spill = alloca i64, align 8
  %t.dbg.spill = alloca %"alloc::sync::ArcInner<std::cell::UnsafeCell<std::option::Option<std::result::Result<(), std::boxed::Box<dyn std::any::Any + std::marker::Send>>>>>"*, align 8
  %_4 = alloca { i64, i64 }, align 8
  store %"alloc::sync::ArcInner<std::cell::UnsafeCell<std::option::Option<std::result::Result<(), std::boxed::Box<dyn std::any::Any + std::marker::Send>>>>>"* %t, %"alloc::sync::ArcInner<std::cell::UnsafeCell<std::option::Option<std::result::Result<(), std::boxed::Box<dyn std::any::Any + std::marker::Send>>>>>"** %t.dbg.spill, align 8
  call void @llvm.dbg.declare(metadata %"alloc::sync::ArcInner<std::cell::UnsafeCell<std::option::Option<std::result::Result<(), std::boxed::Box<dyn std::any::Any + std::marker::Send>>>>>"** %t.dbg.spill, metadata !866, metadata !DIExpression()), !dbg !870
; call core::mem::size_of_val_raw::<alloc::sync::ArcInner<core::cell::UnsafeCell<core::option::Option<core::result::Result<(), alloc::boxed::Box<dyn core::any::Any + core::marker::Send>>>>>>
  %_5 = call i64 @_RINvNtCs3p84KrD9aKt_4core3mem15size_of_val_rawINtNtCs8RW06R9lH2S_5alloc4sync8ArcInnerINtNtB4_4cell10UnsafeCellINtNtB4_6option6OptionINtNtB4_6result6ResultuINtNtBN_5boxed3BoxDNtNtB4_3any3AnyNtNtB4_6marker4SendEL_EEEEEECsgXJhLyQVBY8_14crossbeam_test(%"alloc::sync::ArcInner<std::cell::UnsafeCell<std::option::Option<std::result::Result<(), std::boxed::Box<dyn std::any::Any + std::marker::Send>>>>>"* %t), !dbg !871
  br label %bb1, !dbg !871

bb1:                                              ; preds = %start
; call core::mem::align_of_val_raw::<alloc::sync::ArcInner<core::cell::UnsafeCell<core::option::Option<core::result::Result<(), alloc::boxed::Box<dyn core::any::Any + core::marker::Send>>>>>>
  %_7 = call i64 @_RINvNtCs3p84KrD9aKt_4core3mem16align_of_val_rawINtNtCs8RW06R9lH2S_5alloc4sync8ArcInnerINtNtB4_4cell10UnsafeCellINtNtB4_6option6OptionINtNtB4_6result6ResultuINtNtBO_5boxed3BoxDNtNtB4_3any3AnyNtNtB4_6marker4SendEL_EEEEEECsgXJhLyQVBY8_14crossbeam_test(%"alloc::sync::ArcInner<std::cell::UnsafeCell<std::option::Option<std::result::Result<(), std::boxed::Box<dyn std::any::Any + std::marker::Send>>>>>"* %t), !dbg !872
  br label %bb2, !dbg !872

bb2:                                              ; preds = %bb1
  %0 = bitcast { i64, i64 }* %_4 to i64*, !dbg !873
  store i64 %_5, i64* %0, align 8, !dbg !873
  %1 = getelementptr inbounds { i64, i64 }, { i64, i64 }* %_4, i32 0, i32 1, !dbg !873
  store i64 %_7, i64* %1, align 8, !dbg !873
  %2 = bitcast { i64, i64 }* %_4 to i64*, !dbg !874
  %size = load i64, i64* %2, align 8, !dbg !874
  store i64 %size, i64* %size.dbg.spill, align 8, !dbg !874
  call void @llvm.dbg.declare(metadata i64* %size.dbg.spill, metadata !867, metadata !DIExpression()), !dbg !875
  %3 = getelementptr inbounds { i64, i64 }, { i64, i64 }* %_4, i32 0, i32 1, !dbg !876
  %align = load i64, i64* %3, align 8, !dbg !876
  store i64 %align, i64* %align.dbg.spill, align 8, !dbg !876
  call void @llvm.dbg.declare(metadata i64* %align.dbg.spill, metadata !869, metadata !DIExpression()), !dbg !877
; call <core::alloc::layout::Layout>::from_size_align_unchecked
  %4 = call { i64, i64 } @_RNvMNtNtCs3p84KrD9aKt_4core5alloc6layoutNtB2_6Layout25from_size_align_uncheckedCsgXJhLyQVBY8_14crossbeam_test(i64 %size, i64 %align), !dbg !878
  %5 = extractvalue { i64, i64 } %4, 0, !dbg !878
  %6 = extractvalue { i64, i64 } %4, 1, !dbg !878
  br label %bb3, !dbg !878

bb3:                                              ; preds = %bb2
  %7 = insertvalue { i64, i64 } undef, i64 %5, 0, !dbg !879
  %8 = insertvalue { i64, i64 } %7, i64 %6, 1, !dbg !879
  ret { i64, i64 } %8, !dbg !879
}

; <core::alloc::layout::Layout>::for_value_raw::<alloc::sync::ArcInner<crossbeam_queue::array_queue::ArrayQueue<i32>>>
; Function Attrs: nonlazybind uwtable
define internal { i64, i64 } @_RINvMNtNtCs3p84KrD9aKt_4core5alloc6layoutNtB3_6Layout13for_value_rawINtNtCs8RW06R9lH2S_5alloc4sync8ArcInnerINtNtCsl4s60bRVA8d_15crossbeam_queue11array_queue10ArrayQueuelEEECsgXJhLyQVBY8_14crossbeam_test(%"alloc::sync::ArcInner<crossbeam::crossbeam_queue::ArrayQueue<i32>>"* %t) unnamed_addr #0 !dbg !880 {
start:
  %align.dbg.spill = alloca i64, align 8
  %size.dbg.spill = alloca i64, align 8
  %t.dbg.spill = alloca %"alloc::sync::ArcInner<crossbeam::crossbeam_queue::ArrayQueue<i32>>"*, align 8
  %_4 = alloca { i64, i64 }, align 8
  store %"alloc::sync::ArcInner<crossbeam::crossbeam_queue::ArrayQueue<i32>>"* %t, %"alloc::sync::ArcInner<crossbeam::crossbeam_queue::ArrayQueue<i32>>"** %t.dbg.spill, align 8
  call void @llvm.dbg.declare(metadata %"alloc::sync::ArcInner<crossbeam::crossbeam_queue::ArrayQueue<i32>>"** %t.dbg.spill, metadata !884, metadata !DIExpression()), !dbg !888
; call core::mem::size_of_val_raw::<alloc::sync::ArcInner<crossbeam_queue::array_queue::ArrayQueue<i32>>>
  %_5 = call i64 @_RINvNtCs3p84KrD9aKt_4core3mem15size_of_val_rawINtNtCs8RW06R9lH2S_5alloc4sync8ArcInnerINtNtCsl4s60bRVA8d_15crossbeam_queue11array_queue10ArrayQueuelEEECsgXJhLyQVBY8_14crossbeam_test(%"alloc::sync::ArcInner<crossbeam::crossbeam_queue::ArrayQueue<i32>>"* %t), !dbg !889
  br label %bb1, !dbg !889

bb1:                                              ; preds = %start
; call core::mem::align_of_val_raw::<alloc::sync::ArcInner<crossbeam_queue::array_queue::ArrayQueue<i32>>>
  %_7 = call i64 @_RINvNtCs3p84KrD9aKt_4core3mem16align_of_val_rawINtNtCs8RW06R9lH2S_5alloc4sync8ArcInnerINtNtCsl4s60bRVA8d_15crossbeam_queue11array_queue10ArrayQueuelEEECsgXJhLyQVBY8_14crossbeam_test(%"alloc::sync::ArcInner<crossbeam::crossbeam_queue::ArrayQueue<i32>>"* %t), !dbg !890
  br label %bb2, !dbg !890

bb2:                                              ; preds = %bb1
  %0 = bitcast { i64, i64 }* %_4 to i64*, !dbg !891
  store i64 %_5, i64* %0, align 8, !dbg !891
  %1 = getelementptr inbounds { i64, i64 }, { i64, i64 }* %_4, i32 0, i32 1, !dbg !891
  store i64 %_7, i64* %1, align 8, !dbg !891
  %2 = bitcast { i64, i64 }* %_4 to i64*, !dbg !892
  %size = load i64, i64* %2, align 8, !dbg !892
  store i64 %size, i64* %size.dbg.spill, align 8, !dbg !892
  call void @llvm.dbg.declare(metadata i64* %size.dbg.spill, metadata !885, metadata !DIExpression()), !dbg !893
  %3 = getelementptr inbounds { i64, i64 }, { i64, i64 }* %_4, i32 0, i32 1, !dbg !894
  %align = load i64, i64* %3, align 8, !dbg !894
  store i64 %align, i64* %align.dbg.spill, align 8, !dbg !894
  call void @llvm.dbg.declare(metadata i64* %align.dbg.spill, metadata !887, metadata !DIExpression()), !dbg !895
; call <core::alloc::layout::Layout>::from_size_align_unchecked
  %4 = call { i64, i64 } @_RNvMNtNtCs3p84KrD9aKt_4core5alloc6layoutNtB2_6Layout25from_size_align_uncheckedCsgXJhLyQVBY8_14crossbeam_test(i64 %size, i64 %align), !dbg !896
  %5 = extractvalue { i64, i64 } %4, 0, !dbg !896
  %6 = extractvalue { i64, i64 } %4, 1, !dbg !896
  br label %bb3, !dbg !896

bb3:                                              ; preds = %bb2
  %7 = insertvalue { i64, i64 } undef, i64 %5, 0, !dbg !897
  %8 = insertvalue { i64, i64 } %7, i64 %6, 1, !dbg !897
  ret { i64, i64 } %8, !dbg !897
}

; <core::alloc::layout::Layout>::for_value_raw::<alloc::sync::ArcInner<std::sync::mutex::Mutex<alloc::vec::Vec<u8>>>>
; Function Attrs: nonlazybind uwtable
define internal { i64, i64 } @_RINvMNtNtCs3p84KrD9aKt_4core5alloc6layoutNtB3_6Layout13for_value_rawINtNtCs8RW06R9lH2S_5alloc4sync8ArcInnerINtNtNtCs2bNvlddUlXM_3std4sync5mutex5MutexINtNtB19_3vec3VechEEEECsgXJhLyQVBY8_14crossbeam_test(%"alloc::sync::ArcInner<std::sync::Mutex<std::vec::Vec<u8>>>"* %t) unnamed_addr #0 !dbg !898 {
start:
  %align.dbg.spill = alloca i64, align 8
  %size.dbg.spill = alloca i64, align 8
  %t.dbg.spill = alloca %"alloc::sync::ArcInner<std::sync::Mutex<std::vec::Vec<u8>>>"*, align 8
  %_4 = alloca { i64, i64 }, align 8
  store %"alloc::sync::ArcInner<std::sync::Mutex<std::vec::Vec<u8>>>"* %t, %"alloc::sync::ArcInner<std::sync::Mutex<std::vec::Vec<u8>>>"** %t.dbg.spill, align 8
  call void @llvm.dbg.declare(metadata %"alloc::sync::ArcInner<std::sync::Mutex<std::vec::Vec<u8>>>"** %t.dbg.spill, metadata !902, metadata !DIExpression()), !dbg !906
; call core::mem::size_of_val_raw::<alloc::sync::ArcInner<std::sync::mutex::Mutex<alloc::vec::Vec<u8>>>>
  %_5 = call i64 @_RINvNtCs3p84KrD9aKt_4core3mem15size_of_val_rawINtNtCs8RW06R9lH2S_5alloc4sync8ArcInnerINtNtNtCs2bNvlddUlXM_3std4sync5mutex5MutexINtNtBN_3vec3VechEEEECsgXJhLyQVBY8_14crossbeam_test(%"alloc::sync::ArcInner<std::sync::Mutex<std::vec::Vec<u8>>>"* %t), !dbg !907
  br label %bb1, !dbg !907

bb1:                                              ; preds = %start
; call core::mem::align_of_val_raw::<alloc::sync::ArcInner<std::sync::mutex::Mutex<alloc::vec::Vec<u8>>>>
  %_7 = call i64 @_RINvNtCs3p84KrD9aKt_4core3mem16align_of_val_rawINtNtCs8RW06R9lH2S_5alloc4sync8ArcInnerINtNtNtCs2bNvlddUlXM_3std4sync5mutex5MutexINtNtBO_3vec3VechEEEECsgXJhLyQVBY8_14crossbeam_test(%"alloc::sync::ArcInner<std::sync::Mutex<std::vec::Vec<u8>>>"* %t), !dbg !908
  br label %bb2, !dbg !908

bb2:                                              ; preds = %bb1
  %0 = bitcast { i64, i64 }* %_4 to i64*, !dbg !909
  store i64 %_5, i64* %0, align 8, !dbg !909
  %1 = getelementptr inbounds { i64, i64 }, { i64, i64 }* %_4, i32 0, i32 1, !dbg !909
  store i64 %_7, i64* %1, align 8, !dbg !909
  %2 = bitcast { i64, i64 }* %_4 to i64*, !dbg !910
  %size = load i64, i64* %2, align 8, !dbg !910
  store i64 %size, i64* %size.dbg.spill, align 8, !dbg !910
  call void @llvm.dbg.declare(metadata i64* %size.dbg.spill, metadata !903, metadata !DIExpression()), !dbg !911
  %3 = getelementptr inbounds { i64, i64 }, { i64, i64 }* %_4, i32 0, i32 1, !dbg !912
  %align = load i64, i64* %3, align 8, !dbg !912
  store i64 %align, i64* %align.dbg.spill, align 8, !dbg !912
  call void @llvm.dbg.declare(metadata i64* %align.dbg.spill, metadata !905, metadata !DIExpression()), !dbg !913
; call <core::alloc::layout::Layout>::from_size_align_unchecked
  %4 = call { i64, i64 } @_RNvMNtNtCs3p84KrD9aKt_4core5alloc6layoutNtB2_6Layout25from_size_align_uncheckedCsgXJhLyQVBY8_14crossbeam_test(i64 %size, i64 %align), !dbg !914
  %5 = extractvalue { i64, i64 } %4, 0, !dbg !914
  %6 = extractvalue { i64, i64 } %4, 1, !dbg !914
  br label %bb3, !dbg !914

bb3:                                              ; preds = %bb2
  %7 = insertvalue { i64, i64 } undef, i64 %5, 0, !dbg !915
  %8 = insertvalue { i64, i64 } %7, i64 %6, 1, !dbg !915
  ret { i64, i64 } %8, !dbg !915
}

; <core::alloc::layout::Layout>::new::<std::thread::JoinHandle<()>>
; Function Attrs: inlinehint nonlazybind uwtable
define internal { i64, i64 } @_RINvMNtNtCs3p84KrD9aKt_4core5alloc6layoutNtB3_6Layout3newINtNtCs2bNvlddUlXM_3std6thread10JoinHandleuEECsgXJhLyQVBY8_14crossbeam_test() unnamed_addr #1 !dbg !916 {
start:
  %align.dbg.spill = alloca i64, align 8, !dbg !923
  %size.dbg.spill = alloca i64, align 8, !dbg !923
; call core::alloc::layout::size_align::<std::thread::JoinHandle<()>>
  %0 = call { i64, i64 } @_RINvNtNtCs3p84KrD9aKt_4core5alloc6layout10size_alignINtNtCs2bNvlddUlXM_3std6thread10JoinHandleuEECsgXJhLyQVBY8_14crossbeam_test(), !dbg !923
  %_3.0 = extractvalue { i64, i64 } %0, 0, !dbg !923
  %_3.1 = extractvalue { i64, i64 } %0, 1, !dbg !923
  br label %bb1, !dbg !923

bb1:                                              ; preds = %start
  store i64 %_3.0, i64* %size.dbg.spill, align 8, !dbg !924
  call void @llvm.dbg.declare(metadata i64* %size.dbg.spill, metadata !920, metadata !DIExpression()), !dbg !925
  store i64 %_3.1, i64* %align.dbg.spill, align 8, !dbg !926
  call void @llvm.dbg.declare(metadata i64* %align.dbg.spill, metadata !922, metadata !DIExpression()), !dbg !927
; call <core::alloc::layout::Layout>::from_size_align_unchecked
  %1 = call { i64, i64 } @_RNvMNtNtCs3p84KrD9aKt_4core5alloc6layoutNtB2_6Layout25from_size_align_uncheckedCsgXJhLyQVBY8_14crossbeam_test(i64 %_3.0, i64 %_3.1), !dbg !928
  %2 = extractvalue { i64, i64 } %1, 0, !dbg !928
  %3 = extractvalue { i64, i64 } %1, 1, !dbg !928
  br label %bb2, !dbg !928

bb2:                                              ; preds = %bb1
  %4 = insertvalue { i64, i64 } undef, i64 %2, 0, !dbg !929
  %5 = insertvalue { i64, i64 } %4, i64 %3, 1, !dbg !929
  ret { i64, i64 } %5, !dbg !929
}

; <core::alloc::layout::Layout>::new::<crossbeam_queue::array_queue::Slot<i32>>
; Function Attrs: inlinehint nonlazybind uwtable
define internal { i64, i64 } @_RINvMNtNtCs3p84KrD9aKt_4core5alloc6layoutNtB3_6Layout3newINtNtCsl4s60bRVA8d_15crossbeam_queue11array_queue4SlotlEECsgXJhLyQVBY8_14crossbeam_test() unnamed_addr #1 !dbg !930 {
start:
  %align.dbg.spill = alloca i64, align 8, !dbg !935
  %size.dbg.spill = alloca i64, align 8, !dbg !935
; call core::alloc::layout::size_align::<crossbeam_queue::array_queue::Slot<i32>>
  %0 = call { i64, i64 } @_RINvNtNtCs3p84KrD9aKt_4core5alloc6layout10size_alignINtNtCsl4s60bRVA8d_15crossbeam_queue11array_queue4SlotlEECsgXJhLyQVBY8_14crossbeam_test(), !dbg !935
  %_3.0 = extractvalue { i64, i64 } %0, 0, !dbg !935
  %_3.1 = extractvalue { i64, i64 } %0, 1, !dbg !935
  br label %bb1, !dbg !935

bb1:                                              ; preds = %start
  store i64 %_3.0, i64* %size.dbg.spill, align 8, !dbg !936
  call void @llvm.dbg.declare(metadata i64* %size.dbg.spill, metadata !932, metadata !DIExpression()), !dbg !937
  store i64 %_3.1, i64* %align.dbg.spill, align 8, !dbg !938
  call void @llvm.dbg.declare(metadata i64* %align.dbg.spill, metadata !934, metadata !DIExpression()), !dbg !939
; call <core::alloc::layout::Layout>::from_size_align_unchecked
  %1 = call { i64, i64 } @_RNvMNtNtCs3p84KrD9aKt_4core5alloc6layoutNtB2_6Layout25from_size_align_uncheckedCsgXJhLyQVBY8_14crossbeam_test(i64 %_3.0, i64 %_3.1), !dbg !940
  %2 = extractvalue { i64, i64 } %1, 0, !dbg !940
  %3 = extractvalue { i64, i64 } %1, 1, !dbg !940
  br label %bb2, !dbg !940

bb2:                                              ; preds = %bb1
  %4 = insertvalue { i64, i64 } undef, i64 %2, 0, !dbg !941
  %5 = insertvalue { i64, i64 } %4, i64 %3, 1, !dbg !941
  ret { i64, i64 } %5, !dbg !941
}

; <core::alloc::layout::Layout>::array::<std::thread::JoinHandle<()>>
; Function Attrs: inlinehint nonlazybind uwtable
define internal { i64, i64 } @_RINvMNtNtCs3p84KrD9aKt_4core5alloc6layoutNtB3_6Layout5arrayINtNtCs2bNvlddUlXM_3std6thread10JoinHandleuEECsgXJhLyQVBY8_14crossbeam_test(i64 %n) unnamed_addr #1 !dbg !942 {
start:
  %offset.dbg.spill = alloca i64, align 8
  %err.dbg.spill = alloca %"std::alloc::LayoutError", align 1
  %n.dbg.spill = alloca i64, align 8
  %val = alloca { [0 x i64], { i64, i64 }, [0 x i64], i64, [0 x i64] }, align 8
  %_8 = alloca { i64, i64 }, align 8
  %_6 = alloca %"std::result::Result<(std::alloc::Layout, usize), std::alloc::LayoutError>", align 8
  %_5 = alloca %"std::result::Result<(std::alloc::Layout, usize), std::alloc::LayoutError>", align 8
  %_4 = alloca { [0 x i64], { i64, i64 }, [0 x i64], i64, [0 x i64] }, align 8
  %layout = alloca { i64, i64 }, align 8
  %0 = alloca { i64, i64 }, align 8
  store i64 %n, i64* %n.dbg.spill, align 8
  call void @llvm.dbg.declare(metadata i64* %n.dbg.spill, metadata !965, metadata !DIExpression()), !dbg !987
  call void @llvm.dbg.declare(metadata { i64, i64 }* %layout, metadata !966, metadata !DIExpression()), !dbg !988
  call void @llvm.dbg.declare(metadata %"std::alloc::LayoutError"* %err.dbg.spill, metadata !969, metadata !DIExpression()), !dbg !989
  call void @llvm.dbg.declare(metadata { [0 x i64], { i64, i64 }, [0 x i64], i64, [0 x i64] }* %val, metadata !971, metadata !DIExpression()), !dbg !990
; call <core::alloc::layout::Layout>::new::<std::thread::JoinHandle<()>>
  %1 = call { i64, i64 } @_RINvMNtNtCs3p84KrD9aKt_4core5alloc6layoutNtB3_6Layout3newINtNtCs2bNvlddUlXM_3std6thread10JoinHandleuEECsgXJhLyQVBY8_14crossbeam_test(), !dbg !991
  store { i64, i64 } %1, { i64, i64 }* %_8, align 8, !dbg !991
  br label %bb1, !dbg !991

bb1:                                              ; preds = %start
; call <core::alloc::layout::Layout>::repeat
  call void @_RNvMNtNtCs3p84KrD9aKt_4core5alloc6layoutNtB2_6Layout6repeatCsgXJhLyQVBY8_14crossbeam_test(%"std::result::Result<(std::alloc::Layout, usize), std::alloc::LayoutError>"* noalias nocapture sret dereferenceable(24) %_6, { i64, i64 }* noalias readonly align 8 dereferenceable(16) %_8, i64 %n), !dbg !991
  br label %bb2, !dbg !991

bb2:                                              ; preds = %bb1
; call <core::result::Result<(core::alloc::layout::Layout, usize), core::alloc::layout::LayoutError> as core::ops::try::Try>::into_result
  call void @_RNvXsw_NtCs3p84KrD9aKt_4core6resultINtB5_6ResultTNtNtNtB7_5alloc6layout6LayoutjENtBN_11LayoutErrorENtNtNtB7_3ops3try3Try11into_resultCs48Yq53b35jF_15crossbeam_utils(%"std::result::Result<(std::alloc::Layout, usize), std::alloc::LayoutError>"* noalias nocapture sret dereferenceable(24) %_5, %"std::result::Result<(std::alloc::Layout, usize), std::alloc::LayoutError>"* noalias nocapture dereferenceable(24) %_6), !dbg !991
  br label %bb3, !dbg !991

bb3:                                              ; preds = %bb2
  %2 = getelementptr inbounds %"std::result::Result<(std::alloc::Layout, usize), std::alloc::LayoutError>", %"std::result::Result<(std::alloc::Layout, usize), std::alloc::LayoutError>"* %_5, i32 0, i32 1, !dbg !992
  %3 = load i64, i64* %2, align 8, !dbg !992
  %4 = icmp eq i64 %3, 0, !dbg !992
  %_10 = select i1 %4, i64 1, i64 0, !dbg !992
  switch i64 %_10, label %bb5 [
    i64 0, label %bb4
    i64 1, label %bb6
  ], !dbg !992

bb4:                                              ; preds = %bb3
  %5 = bitcast %"std::result::Result<(std::alloc::Layout, usize), std::alloc::LayoutError>"* %_5 to %"std::result::Result<(std::alloc::Layout, usize), std::alloc::LayoutError>::Ok"*, !dbg !991
  %6 = bitcast %"std::result::Result<(std::alloc::Layout, usize), std::alloc::LayoutError>::Ok"* %5 to { [0 x i64], { i64, i64 }, [0 x i64], i64, [0 x i64] }*, !dbg !991
  %7 = bitcast { [0 x i64], { i64, i64 }, [0 x i64], i64, [0 x i64] }* %val to i8*, !dbg !991
  %8 = bitcast { [0 x i64], { i64, i64 }, [0 x i64], i64, [0 x i64] }* %6 to i8*, !dbg !991
  call void @llvm.memcpy.p0i8.p0i8.i64(i8* align 8 %7, i8* align 8 %8, i64 24, i1 false), !dbg !991
  %9 = bitcast { [0 x i64], { i64, i64 }, [0 x i64], i64, [0 x i64] }* %_4 to i8*, !dbg !990
  %10 = bitcast { [0 x i64], { i64, i64 }, [0 x i64], i64, [0 x i64] }* %val to i8*, !dbg !990
  call void @llvm.memcpy.p0i8.p0i8.i64(i8* align 8 %9, i8* align 8 %10, i64 24, i1 false), !dbg !990
  %11 = bitcast { [0 x i64], { i64, i64 }, [0 x i64], i64, [0 x i64] }* %_4 to { i64, i64 }*, !dbg !993
  %12 = getelementptr inbounds { i64, i64 }, { i64, i64 }* %11, i32 0, i32 0, !dbg !993
  %13 = load i64, i64* %12, align 8, !dbg !993
  %14 = getelementptr inbounds { i64, i64 }, { i64, i64 }* %11, i32 0, i32 1, !dbg !993
  %15 = load i64, i64* %14, align 8, !dbg !993, !range !994
  %16 = getelementptr inbounds { i64, i64 }, { i64, i64 }* %layout, i32 0, i32 0, !dbg !993
  store i64 %13, i64* %16, align 8, !dbg !993
  %17 = getelementptr inbounds { i64, i64 }, { i64, i64 }* %layout, i32 0, i32 1, !dbg !993
  store i64 %15, i64* %17, align 8, !dbg !993
  %18 = getelementptr inbounds { [0 x i64], { i64, i64 }, [0 x i64], i64, [0 x i64] }, { [0 x i64], { i64, i64 }, [0 x i64], i64, [0 x i64] }* %_4, i32 0, i32 3, !dbg !995
  %offset = load i64, i64* %18, align 8, !dbg !995
  store i64 %offset, i64* %offset.dbg.spill, align 8, !dbg !995
  call void @llvm.dbg.declare(metadata i64* %offset.dbg.spill, metadata !968, metadata !DIExpression()), !dbg !996
; call <core::alloc::layout::Layout>::pad_to_align
  %19 = call { i64, i64 } @_RNvMNtNtCs3p84KrD9aKt_4core5alloc6layoutNtB2_6Layout12pad_to_alignCsgXJhLyQVBY8_14crossbeam_test({ i64, i64 }* noalias readonly align 8 dereferenceable(16) %layout), !dbg !997
  %_19.0 = extractvalue { i64, i64 } %19, 0, !dbg !997
  %_19.1 = extractvalue { i64, i64 } %19, 1, !dbg !997
  br label %bb9, !dbg !997

bb5:                                              ; preds = %bb3
  unreachable, !dbg !991

bb6:                                              ; preds = %bb3
; call <core::alloc::layout::LayoutError as core::convert::From<core::alloc::layout::LayoutError>>::from
  call void @_RNvXs2_NtCs3p84KrD9aKt_4core7convertNtNtNtB7_5alloc6layout11LayoutErrorINtB5_4FromBy_E4fromCs48Yq53b35jF_15crossbeam_utils(), !dbg !989
  br label %bb7, !dbg !989

bb7:                                              ; preds = %bb6
; call <core::result::Result<core::alloc::layout::Layout, core::alloc::layout::LayoutError> as core::ops::try::Try>::from_error
  %20 = call { i64, i64 } @_RNvXsw_NtCs3p84KrD9aKt_4core6resultINtB5_6ResultNtNtNtB7_5alloc6layout6LayoutNtBM_11LayoutErrorENtNtNtB7_3ops3try3Try10from_errorCs48Yq53b35jF_15crossbeam_utils(), !dbg !998
  store { i64, i64 } %20, { i64, i64 }* %0, align 8, !dbg !998
  br label %bb8, !dbg !998

bb8:                                              ; preds = %bb7
  br label %bb10, !dbg !999

bb9:                                              ; preds = %bb4
  %21 = getelementptr inbounds { i64, i64 }, { i64, i64 }* %0, i32 0, i32 0, !dbg !1000
  store i64 %_19.0, i64* %21, align 8, !dbg !1000
  %22 = getelementptr inbounds { i64, i64 }, { i64, i64 }* %0, i32 0, i32 1, !dbg !1000
  store i64 %_19.1, i64* %22, align 8, !dbg !1000
  br label %bb10, !dbg !999

bb10:                                             ; preds = %bb9, %bb8
  %23 = getelementptr inbounds { i64, i64 }, { i64, i64 }* %0, i32 0, i32 0, !dbg !999
  %24 = load i64, i64* %23, align 8, !dbg !999
  %25 = getelementptr inbounds { i64, i64 }, { i64, i64 }* %0, i32 0, i32 1, !dbg !999
  %26 = load i64, i64* %25, align 8, !dbg !999
  %27 = insertvalue { i64, i64 } undef, i64 %24, 0, !dbg !999
  %28 = insertvalue { i64, i64 } %27, i64 %26, 1, !dbg !999
  ret { i64, i64 } %28, !dbg !999
}

; <core::alloc::layout::Layout>::array::<crossbeam_queue::array_queue::Slot<i32>>
; Function Attrs: inlinehint nonlazybind uwtable
define internal { i64, i64 } @_RINvMNtNtCs3p84KrD9aKt_4core5alloc6layoutNtB3_6Layout5arrayINtNtCsl4s60bRVA8d_15crossbeam_queue11array_queue4SlotlEECsgXJhLyQVBY8_14crossbeam_test(i64 %n) unnamed_addr #1 !dbg !1001 {
start:
  %offset.dbg.spill = alloca i64, align 8
  %err.dbg.spill = alloca %"std::alloc::LayoutError", align 1
  %n.dbg.spill = alloca i64, align 8
  %val = alloca { [0 x i64], { i64, i64 }, [0 x i64], i64, [0 x i64] }, align 8
  %_8 = alloca { i64, i64 }, align 8
  %_6 = alloca %"std::result::Result<(std::alloc::Layout, usize), std::alloc::LayoutError>", align 8
  %_5 = alloca %"std::result::Result<(std::alloc::Layout, usize), std::alloc::LayoutError>", align 8
  %_4 = alloca { [0 x i64], { i64, i64 }, [0 x i64], i64, [0 x i64] }, align 8
  %layout = alloca { i64, i64 }, align 8
  %0 = alloca { i64, i64 }, align 8
  store i64 %n, i64* %n.dbg.spill, align 8
  call void @llvm.dbg.declare(metadata i64* %n.dbg.spill, metadata !1003, metadata !DIExpression()), !dbg !1019
  call void @llvm.dbg.declare(metadata { i64, i64 }* %layout, metadata !1004, metadata !DIExpression()), !dbg !1020
  call void @llvm.dbg.declare(metadata %"std::alloc::LayoutError"* %err.dbg.spill, metadata !1007, metadata !DIExpression()), !dbg !1021
  call void @llvm.dbg.declare(metadata { [0 x i64], { i64, i64 }, [0 x i64], i64, [0 x i64] }* %val, metadata !1009, metadata !DIExpression()), !dbg !1022
; call <core::alloc::layout::Layout>::new::<crossbeam_queue::array_queue::Slot<i32>>
  %1 = call { i64, i64 } @_RINvMNtNtCs3p84KrD9aKt_4core5alloc6layoutNtB3_6Layout3newINtNtCsl4s60bRVA8d_15crossbeam_queue11array_queue4SlotlEECsgXJhLyQVBY8_14crossbeam_test(), !dbg !1023
  store { i64, i64 } %1, { i64, i64 }* %_8, align 8, !dbg !1023
  br label %bb1, !dbg !1023

bb1:                                              ; preds = %start
; call <core::alloc::layout::Layout>::repeat
  call void @_RNvMNtNtCs3p84KrD9aKt_4core5alloc6layoutNtB2_6Layout6repeatCsgXJhLyQVBY8_14crossbeam_test(%"std::result::Result<(std::alloc::Layout, usize), std::alloc::LayoutError>"* noalias nocapture sret dereferenceable(24) %_6, { i64, i64 }* noalias readonly align 8 dereferenceable(16) %_8, i64 %n), !dbg !1023
  br label %bb2, !dbg !1023

bb2:                                              ; preds = %bb1
; call <core::result::Result<(core::alloc::layout::Layout, usize), core::alloc::layout::LayoutError> as core::ops::try::Try>::into_result
  call void @_RNvXsw_NtCs3p84KrD9aKt_4core6resultINtB5_6ResultTNtNtNtB7_5alloc6layout6LayoutjENtBN_11LayoutErrorENtNtNtB7_3ops3try3Try11into_resultCs48Yq53b35jF_15crossbeam_utils(%"std::result::Result<(std::alloc::Layout, usize), std::alloc::LayoutError>"* noalias nocapture sret dereferenceable(24) %_5, %"std::result::Result<(std::alloc::Layout, usize), std::alloc::LayoutError>"* noalias nocapture dereferenceable(24) %_6), !dbg !1023
  br label %bb3, !dbg !1023

bb3:                                              ; preds = %bb2
  %2 = getelementptr inbounds %"std::result::Result<(std::alloc::Layout, usize), std::alloc::LayoutError>", %"std::result::Result<(std::alloc::Layout, usize), std::alloc::LayoutError>"* %_5, i32 0, i32 1, !dbg !1024
  %3 = load i64, i64* %2, align 8, !dbg !1024
  %4 = icmp eq i64 %3, 0, !dbg !1024
  %_10 = select i1 %4, i64 1, i64 0, !dbg !1024
  switch i64 %_10, label %bb5 [
    i64 0, label %bb4
    i64 1, label %bb6
  ], !dbg !1024

bb4:                                              ; preds = %bb3
  %5 = bitcast %"std::result::Result<(std::alloc::Layout, usize), std::alloc::LayoutError>"* %_5 to %"std::result::Result<(std::alloc::Layout, usize), std::alloc::LayoutError>::Ok"*, !dbg !1023
  %6 = bitcast %"std::result::Result<(std::alloc::Layout, usize), std::alloc::LayoutError>::Ok"* %5 to { [0 x i64], { i64, i64 }, [0 x i64], i64, [0 x i64] }*, !dbg !1023
  %7 = bitcast { [0 x i64], { i64, i64 }, [0 x i64], i64, [0 x i64] }* %val to i8*, !dbg !1023
  %8 = bitcast { [0 x i64], { i64, i64 }, [0 x i64], i64, [0 x i64] }* %6 to i8*, !dbg !1023
  call void @llvm.memcpy.p0i8.p0i8.i64(i8* align 8 %7, i8* align 8 %8, i64 24, i1 false), !dbg !1023
  %9 = bitcast { [0 x i64], { i64, i64 }, [0 x i64], i64, [0 x i64] }* %_4 to i8*, !dbg !1022
  %10 = bitcast { [0 x i64], { i64, i64 }, [0 x i64], i64, [0 x i64] }* %val to i8*, !dbg !1022
  call void @llvm.memcpy.p0i8.p0i8.i64(i8* align 8 %9, i8* align 8 %10, i64 24, i1 false), !dbg !1022
  %11 = bitcast { [0 x i64], { i64, i64 }, [0 x i64], i64, [0 x i64] }* %_4 to { i64, i64 }*, !dbg !1025
  %12 = getelementptr inbounds { i64, i64 }, { i64, i64 }* %11, i32 0, i32 0, !dbg !1025
  %13 = load i64, i64* %12, align 8, !dbg !1025
  %14 = getelementptr inbounds { i64, i64 }, { i64, i64 }* %11, i32 0, i32 1, !dbg !1025
  %15 = load i64, i64* %14, align 8, !dbg !1025, !range !994
  %16 = getelementptr inbounds { i64, i64 }, { i64, i64 }* %layout, i32 0, i32 0, !dbg !1025
  store i64 %13, i64* %16, align 8, !dbg !1025
  %17 = getelementptr inbounds { i64, i64 }, { i64, i64 }* %layout, i32 0, i32 1, !dbg !1025
  store i64 %15, i64* %17, align 8, !dbg !1025
  %18 = getelementptr inbounds { [0 x i64], { i64, i64 }, [0 x i64], i64, [0 x i64] }, { [0 x i64], { i64, i64 }, [0 x i64], i64, [0 x i64] }* %_4, i32 0, i32 3, !dbg !1026
  %offset = load i64, i64* %18, align 8, !dbg !1026
  store i64 %offset, i64* %offset.dbg.spill, align 8, !dbg !1026
  call void @llvm.dbg.declare(metadata i64* %offset.dbg.spill, metadata !1006, metadata !DIExpression()), !dbg !1027
; call <core::alloc::layout::Layout>::pad_to_align
  %19 = call { i64, i64 } @_RNvMNtNtCs3p84KrD9aKt_4core5alloc6layoutNtB2_6Layout12pad_to_alignCsgXJhLyQVBY8_14crossbeam_test({ i64, i64 }* noalias readonly align 8 dereferenceable(16) %layout), !dbg !1028
  %_19.0 = extractvalue { i64, i64 } %19, 0, !dbg !1028
  %_19.1 = extractvalue { i64, i64 } %19, 1, !dbg !1028
  br label %bb9, !dbg !1028

bb5:                                              ; preds = %bb3
  unreachable, !dbg !1023

bb6:                                              ; preds = %bb3
; call <core::alloc::layout::LayoutError as core::convert::From<core::alloc::layout::LayoutError>>::from
  call void @_RNvXs2_NtCs3p84KrD9aKt_4core7convertNtNtNtB7_5alloc6layout11LayoutErrorINtB5_4FromBy_E4fromCs48Yq53b35jF_15crossbeam_utils(), !dbg !1021
  br label %bb7, !dbg !1021

bb7:                                              ; preds = %bb6
; call <core::result::Result<core::alloc::layout::Layout, core::alloc::layout::LayoutError> as core::ops::try::Try>::from_error
  %20 = call { i64, i64 } @_RNvXsw_NtCs3p84KrD9aKt_4core6resultINtB5_6ResultNtNtNtB7_5alloc6layout6LayoutNtBM_11LayoutErrorENtNtNtB7_3ops3try3Try10from_errorCs48Yq53b35jF_15crossbeam_utils(), !dbg !1029
  store { i64, i64 } %20, { i64, i64 }* %0, align 8, !dbg !1029
  br label %bb8, !dbg !1029

bb8:                                              ; preds = %bb7
  br label %bb10, !dbg !1030

bb9:                                              ; preds = %bb4
  %21 = getelementptr inbounds { i64, i64 }, { i64, i64 }* %0, i32 0, i32 0, !dbg !1031
  store i64 %_19.0, i64* %21, align 8, !dbg !1031
  %22 = getelementptr inbounds { i64, i64 }, { i64, i64 }* %0, i32 0, i32 1, !dbg !1031
  store i64 %_19.1, i64* %22, align 8, !dbg !1031
  br label %bb10, !dbg !1030

bb10:                                             ; preds = %bb9, %bb8
  %23 = getelementptr inbounds { i64, i64 }, { i64, i64 }* %0, i32 0, i32 0, !dbg !1030
  %24 = load i64, i64* %23, align 8, !dbg !1030
  %25 = getelementptr inbounds { i64, i64 }, { i64, i64 }* %0, i32 0, i32 1, !dbg !1030
  %26 = load i64, i64* %25, align 8, !dbg !1030
  %27 = insertvalue { i64, i64 } undef, i64 %24, 0, !dbg !1030
  %28 = insertvalue { i64, i64 } %27, i64 %26, 1, !dbg !1030
  ret { i64, i64 } %28, !dbg !1030
}

; <core::ptr::unique::Unique<dyn std::error::Error + core::marker::Send + core::marker::Sync>>::cast::<u8>
; Function Attrs: inlinehint nonlazybind uwtable
define internal nonnull i8* @_RINvMs1_NtNtCs3p84KrD9aKt_4core3ptr6uniqueINtB6_6UniqueDNtNtCs2bNvlddUlXM_3std5error5ErrorNtNtBa_6marker4SendNtB1s_4SyncEL_E4casthECsgXJhLyQVBY8_14crossbeam_test(i8* nonnull %self.0, i64* noalias readonly align 8 dereferenceable(24) %self.1) unnamed_addr #1 !dbg !1032 {
start:
  %self.dbg.spill = alloca { i8*, i64* }, align 8
  %0 = getelementptr inbounds { i8*, i64* }, { i8*, i64* }* %self.dbg.spill, i32 0, i32 0
  store i8* %self.0, i8** %0, align 8
  %1 = getelementptr inbounds { i8*, i64* }, { i8*, i64* }* %self.dbg.spill, i32 0, i32 1
  store i64* %self.1, i64** %1, align 8
  call void @llvm.dbg.declare(metadata { i8*, i64* }* %self.dbg.spill, metadata !1047, metadata !DIExpression()), !dbg !1050
; call <core::ptr::unique::Unique<dyn std::error::Error + core::marker::Send + core::marker::Sync>>::as_ptr
  %2 = call { {}*, [3 x i64]* } @_RNvMs1_NtNtCs3p84KrD9aKt_4core3ptr6uniqueINtB5_6UniqueDNtNtCs2bNvlddUlXM_3std5error5ErrorNtNtB9_6marker4SendNtB1r_4SyncEL_E6as_ptrCsgXJhLyQVBY8_14crossbeam_test(i8* nonnull %self.0, i64* noalias readonly align 8 dereferenceable(24) %self.1), !dbg !1051
  %_3.0 = extractvalue { {}*, [3 x i64]* } %2, 0, !dbg !1051
  %_3.1 = extractvalue { {}*, [3 x i64]* } %2, 1, !dbg !1051
  br label %bb1, !dbg !1051

bb1:                                              ; preds = %start
  %_2 = bitcast {}* %_3.0 to i8*, !dbg !1051
; call <core::ptr::unique::Unique<u8>>::new_unchecked
  %3 = call nonnull i8* @_RNvMs1_NtNtCs3p84KrD9aKt_4core3ptr6uniqueINtB5_6UniquehE13new_uncheckedCs48Yq53b35jF_15crossbeam_utils(i8* %_2), !dbg !1052
  br label %bb2, !dbg !1052

bb2:                                              ; preds = %bb1
  ret i8* %3, !dbg !1053
}

; <core::ptr::unique::Unique<std::thread::JoinHandle<()>>>::cast::<u8>
; Function Attrs: inlinehint nonlazybind uwtable
define internal nonnull i8* @_RINvMs1_NtNtCs3p84KrD9aKt_4core3ptr6uniqueINtB6_6UniqueINtNtCs2bNvlddUlXM_3std6thread10JoinHandleuEE4casthECsgXJhLyQVBY8_14crossbeam_test(i64* nonnull %self) unnamed_addr #1 !dbg !1054 {
start:
  %self.dbg.spill = alloca i64*, align 8
  store i64* %self, i64** %self.dbg.spill, align 8
  call void @llvm.dbg.declare(metadata i64** %self.dbg.spill, metadata !1064, metadata !DIExpression()), !dbg !1066
; call <core::ptr::unique::Unique<std::thread::JoinHandle<()>>>::as_ptr
  %_3 = call %"std::thread::JoinHandle<()>"* @_RNvMs1_NtNtCs3p84KrD9aKt_4core3ptr6uniqueINtB5_6UniqueINtNtCs2bNvlddUlXM_3std6thread10JoinHandleuEE6as_ptrCsgXJhLyQVBY8_14crossbeam_test(i64* nonnull %self), !dbg !1067
  br label %bb1, !dbg !1067

bb1:                                              ; preds = %start
  %_2 = bitcast %"std::thread::JoinHandle<()>"* %_3 to i8*, !dbg !1067
; call <core::ptr::unique::Unique<u8>>::new_unchecked
  %0 = call nonnull i8* @_RNvMs1_NtNtCs3p84KrD9aKt_4core3ptr6uniqueINtB5_6UniquehE13new_uncheckedCs48Yq53b35jF_15crossbeam_utils(i8* %_2), !dbg !1068
  br label %bb2, !dbg !1068

bb2:                                              ; preds = %bb1
  ret i8* %0, !dbg !1069
}

; <core::ptr::unique::Unique<alloc::sync::ArcInner<core::cell::UnsafeCell<core::option::Option<core::result::Result<(), alloc::boxed::Box<dyn core::any::Any + core::marker::Send>>>>>>>::cast::<u8>
; Function Attrs: inlinehint nonlazybind uwtable
define internal nonnull i8* @_RINvMs1_NtNtCs3p84KrD9aKt_4core3ptr6uniqueINtB6_6UniqueINtNtCs8RW06R9lH2S_5alloc4sync8ArcInnerINtNtBa_4cell10UnsafeCellINtNtBa_6option6OptionINtNtBa_6result6ResultuINtNtBW_5boxed3BoxDNtNtBa_3any3AnyNtNtBa_6marker4SendEL_EEEEEE4casthECsgXJhLyQVBY8_14crossbeam_test(i64* nonnull %self) unnamed_addr #1 !dbg !1070 {
start:
  %self.dbg.spill = alloca i64*, align 8
  store i64* %self, i64** %self.dbg.spill, align 8
  call void @llvm.dbg.declare(metadata i64** %self.dbg.spill, metadata !1078, metadata !DIExpression()), !dbg !1080
; call <core::ptr::unique::Unique<alloc::sync::ArcInner<core::cell::UnsafeCell<core::option::Option<core::result::Result<(), alloc::boxed::Box<dyn core::any::Any + core::marker::Send>>>>>>>::as_ptr
  %_3 = call %"alloc::sync::ArcInner<std::cell::UnsafeCell<std::option::Option<std::result::Result<(), std::boxed::Box<dyn std::any::Any + std::marker::Send>>>>>"* @_RNvMs1_NtNtCs3p84KrD9aKt_4core3ptr6uniqueINtB5_6UniqueINtNtCs8RW06R9lH2S_5alloc4sync8ArcInnerINtNtB9_4cell10UnsafeCellINtNtB9_6option6OptionINtNtB9_6result6ResultuINtNtBV_5boxed3BoxDNtNtB9_3any3AnyNtNtB9_6marker4SendEL_EEEEEE6as_ptrCsgXJhLyQVBY8_14crossbeam_test(i64* nonnull %self), !dbg !1081
  br label %bb1, !dbg !1081

bb1:                                              ; preds = %start
  %_2 = bitcast %"alloc::sync::ArcInner<std::cell::UnsafeCell<std::option::Option<std::result::Result<(), std::boxed::Box<dyn std::any::Any + std::marker::Send>>>>>"* %_3 to i8*, !dbg !1081
; call <core::ptr::unique::Unique<u8>>::new_unchecked
  %0 = call nonnull i8* @_RNvMs1_NtNtCs3p84KrD9aKt_4core3ptr6uniqueINtB5_6UniquehE13new_uncheckedCs48Yq53b35jF_15crossbeam_utils(i8* %_2), !dbg !1082
  br label %bb2, !dbg !1082

bb2:                                              ; preds = %bb1
  ret i8* %0, !dbg !1083
}

; <core::ptr::unique::Unique<alloc::sync::ArcInner<crossbeam_queue::array_queue::ArrayQueue<i32>>>>::cast::<u8>
; Function Attrs: inlinehint nonlazybind uwtable
define internal nonnull i8* @_RINvMs1_NtNtCs3p84KrD9aKt_4core3ptr6uniqueINtB6_6UniqueINtNtCs8RW06R9lH2S_5alloc4sync8ArcInnerINtNtCsl4s60bRVA8d_15crossbeam_queue11array_queue10ArrayQueuelEEE4casthECsgXJhLyQVBY8_14crossbeam_test(i64* nonnull %self) unnamed_addr #1 !dbg !1084 {
start:
  %self.dbg.spill = alloca i64*, align 8
  store i64* %self, i64** %self.dbg.spill, align 8
  call void @llvm.dbg.declare(metadata i64** %self.dbg.spill, metadata !1092, metadata !DIExpression()), !dbg !1094
; call <core::ptr::unique::Unique<alloc::sync::ArcInner<crossbeam_queue::array_queue::ArrayQueue<i32>>>>::as_ptr
  %_3 = call %"alloc::sync::ArcInner<crossbeam::crossbeam_queue::ArrayQueue<i32>>"* @_RNvMs1_NtNtCs3p84KrD9aKt_4core3ptr6uniqueINtB5_6UniqueINtNtCs8RW06R9lH2S_5alloc4sync8ArcInnerINtNtCsl4s60bRVA8d_15crossbeam_queue11array_queue10ArrayQueuelEEE6as_ptrCsgXJhLyQVBY8_14crossbeam_test(i64* nonnull %self), !dbg !1095
  br label %bb1, !dbg !1095

bb1:                                              ; preds = %start
  %_2 = bitcast %"alloc::sync::ArcInner<crossbeam::crossbeam_queue::ArrayQueue<i32>>"* %_3 to i8*, !dbg !1095
; call <core::ptr::unique::Unique<u8>>::new_unchecked
  %0 = call nonnull i8* @_RNvMs1_NtNtCs3p84KrD9aKt_4core3ptr6uniqueINtB5_6UniquehE13new_uncheckedCs48Yq53b35jF_15crossbeam_utils(i8* %_2), !dbg !1096
  br label %bb2, !dbg !1096

bb2:                                              ; preds = %bb1
  ret i8* %0, !dbg !1097
}

; <core::ptr::unique::Unique<crossbeam_queue::array_queue::Slot<i32>>>::cast::<u8>
; Function Attrs: inlinehint nonlazybind uwtable
define internal nonnull i8* @_RINvMs1_NtNtCs3p84KrD9aKt_4core3ptr6uniqueINtB6_6UniqueINtNtCsl4s60bRVA8d_15crossbeam_queue11array_queue4SlotlEE4casthECsgXJhLyQVBY8_14crossbeam_test(i64* nonnull %self) unnamed_addr #1 !dbg !1098 {
start:
  %self.dbg.spill = alloca i64*, align 8
  store i64* %self, i64** %self.dbg.spill, align 8
  call void @llvm.dbg.declare(metadata i64** %self.dbg.spill, metadata !1108, metadata !DIExpression()), !dbg !1110
; call <core::ptr::unique::Unique<crossbeam_queue::array_queue::Slot<i32>>>::as_ptr
  %_3 = call %"crossbeam::crossbeam_queue::array_queue::Slot<i32>"* @_RNvMs1_NtNtCs3p84KrD9aKt_4core3ptr6uniqueINtB5_6UniqueINtNtCsl4s60bRVA8d_15crossbeam_queue11array_queue4SlotlEE6as_ptrCsgXJhLyQVBY8_14crossbeam_test(i64* nonnull %self), !dbg !1111
  br label %bb1, !dbg !1111

bb1:                                              ; preds = %start
  %_2 = bitcast %"crossbeam::crossbeam_queue::array_queue::Slot<i32>"* %_3 to i8*, !dbg !1111
; call <core::ptr::unique::Unique<u8>>::new_unchecked
  %0 = call nonnull i8* @_RNvMs1_NtNtCs3p84KrD9aKt_4core3ptr6uniqueINtB5_6UniquehE13new_uncheckedCs48Yq53b35jF_15crossbeam_utils(i8* %_2), !dbg !1112
  br label %bb2, !dbg !1112

bb2:                                              ; preds = %bb1
  ret i8* %0, !dbg !1113
}

; <core::ptr::unique::Unique<std::io::error::Custom>>::cast::<u8>
; Function Attrs: inlinehint nonlazybind uwtable
define internal nonnull i8* @_RINvMs1_NtNtCs3p84KrD9aKt_4core3ptr6uniqueINtB6_6UniqueNtNtNtCs2bNvlddUlXM_3std2io5error6CustomE4casthECsgXJhLyQVBY8_14crossbeam_test(i64* nonnull %self) unnamed_addr #1 !dbg !1114 {
start:
  %self.dbg.spill = alloca i64*, align 8
  store i64* %self, i64** %self.dbg.spill, align 8
  call void @llvm.dbg.declare(metadata i64** %self.dbg.spill, metadata !1126, metadata !DIExpression()), !dbg !1128
; call <core::ptr::unique::Unique<std::io::error::Custom>>::as_ptr
  %_3 = call %"std::io::error::Custom"* @_RNvMs1_NtNtCs3p84KrD9aKt_4core3ptr6uniqueINtB5_6UniqueNtNtNtCs2bNvlddUlXM_3std2io5error6CustomE6as_ptrCsgXJhLyQVBY8_14crossbeam_test(i64* nonnull %self), !dbg !1129
  br label %bb1, !dbg !1129

bb1:                                              ; preds = %start
  %_2 = bitcast %"std::io::error::Custom"* %_3 to i8*, !dbg !1129
; call <core::ptr::unique::Unique<u8>>::new_unchecked
  %0 = call nonnull i8* @_RNvMs1_NtNtCs3p84KrD9aKt_4core3ptr6uniqueINtB5_6UniquehE13new_uncheckedCs48Yq53b35jF_15crossbeam_utils(i8* %_2), !dbg !1130
  br label %bb2, !dbg !1130

bb2:                                              ; preds = %bb1
  ret i8* %0, !dbg !1131
}

; <core::ptr::unique::Unique<[crossbeam_queue::array_queue::Slot<i32>]>>::cast::<u8>
; Function Attrs: inlinehint nonlazybind uwtable
define internal nonnull i8* @_RINvMs1_NtNtCs3p84KrD9aKt_4core3ptr6uniqueINtB6_6UniqueSINtNtCsl4s60bRVA8d_15crossbeam_queue11array_queue4SlotlEE4casthECsgXJhLyQVBY8_14crossbeam_test(i64* nonnull %self.0, i64 %self.1) unnamed_addr #1 !dbg !1132 {
start:
  %self.dbg.spill = alloca { i64*, i64 }, align 8
  %0 = getelementptr inbounds { i64*, i64 }, { i64*, i64 }* %self.dbg.spill, i32 0, i32 0
  store i64* %self.0, i64** %0, align 8
  %1 = getelementptr inbounds { i64*, i64 }, { i64*, i64 }* %self.dbg.spill, i32 0, i32 1
  store i64 %self.1, i64* %1, align 8
  call void @llvm.dbg.declare(metadata { i64*, i64 }* %self.dbg.spill, metadata !1148, metadata !DIExpression()), !dbg !1150
; call <core::ptr::unique::Unique<[crossbeam_queue::array_queue::Slot<i32>]>>::as_ptr
  %2 = call { [0 x %"crossbeam::crossbeam_queue::array_queue::Slot<i32>"]*, i64 } @_RNvMs1_NtNtCs3p84KrD9aKt_4core3ptr6uniqueINtB5_6UniqueSINtNtCsl4s60bRVA8d_15crossbeam_queue11array_queue4SlotlEE6as_ptrCsgXJhLyQVBY8_14crossbeam_test(i64* nonnull %self.0, i64 %self.1), !dbg !1151
  %_3.0 = extractvalue { [0 x %"crossbeam::crossbeam_queue::array_queue::Slot<i32>"]*, i64 } %2, 0, !dbg !1151
  %_3.1 = extractvalue { [0 x %"crossbeam::crossbeam_queue::array_queue::Slot<i32>"]*, i64 } %2, 1, !dbg !1151
  br label %bb1, !dbg !1151

bb1:                                              ; preds = %start
  %_2 = bitcast [0 x %"crossbeam::crossbeam_queue::array_queue::Slot<i32>"]* %_3.0 to i8*, !dbg !1151
; call <core::ptr::unique::Unique<u8>>::new_unchecked
  %3 = call nonnull i8* @_RNvMs1_NtNtCs3p84KrD9aKt_4core3ptr6uniqueINtB5_6UniquehE13new_uncheckedCs48Yq53b35jF_15crossbeam_utils(i8* %_2), !dbg !1152
  br label %bb2, !dbg !1152

bb2:                                              ; preds = %bb1
  ret i8* %3, !dbg !1153
}

; <core::ptr::unique::Unique<[core::mem::maybe_uninit::MaybeUninit<crossbeam_queue::array_queue::Slot<i32>>]>>::cast::<u8>
; Function Attrs: inlinehint nonlazybind uwtable
define internal nonnull i8* @_RINvMs1_NtNtCs3p84KrD9aKt_4core3ptr6uniqueINtB6_6UniqueSINtNtNtBa_3mem12maybe_uninit11MaybeUninitINtNtCsl4s60bRVA8d_15crossbeam_queue11array_queue4SlotlEEE4casthECsgXJhLyQVBY8_14crossbeam_test(i64* nonnull %self.0, i64 %self.1) unnamed_addr #1 !dbg !1154 {
start:
  %self.dbg.spill = alloca { i64*, i64 }, align 8
  %0 = getelementptr inbounds { i64*, i64 }, { i64*, i64 }* %self.dbg.spill, i32 0, i32 0
  store i64* %self.0, i64** %0, align 8
  %1 = getelementptr inbounds { i64*, i64 }, { i64*, i64 }* %self.dbg.spill, i32 0, i32 1
  store i64 %self.1, i64* %1, align 8
  call void @llvm.dbg.declare(metadata { i64*, i64 }* %self.dbg.spill, metadata !1178, metadata !DIExpression()), !dbg !1180
; call <core::ptr::unique::Unique<[core::mem::maybe_uninit::MaybeUninit<crossbeam_queue::array_queue::Slot<i32>>]>>::as_ptr
  %2 = call { [0 x %"std::mem::MaybeUninit<crossbeam::crossbeam_queue::array_queue::Slot<i32>>"]*, i64 } @_RNvMs1_NtNtCs3p84KrD9aKt_4core3ptr6uniqueINtB5_6UniqueSINtNtNtB9_3mem12maybe_uninit11MaybeUninitINtNtCsl4s60bRVA8d_15crossbeam_queue11array_queue4SlotlEEE6as_ptrCsgXJhLyQVBY8_14crossbeam_test(i64* nonnull %self.0, i64 %self.1), !dbg !1181
  %_3.0 = extractvalue { [0 x %"std::mem::MaybeUninit<crossbeam::crossbeam_queue::array_queue::Slot<i32>>"]*, i64 } %2, 0, !dbg !1181
  %_3.1 = extractvalue { [0 x %"std::mem::MaybeUninit<crossbeam::crossbeam_queue::array_queue::Slot<i32>>"]*, i64 } %2, 1, !dbg !1181
  br label %bb1, !dbg !1181

bb1:                                              ; preds = %start
  %_2 = bitcast [0 x %"std::mem::MaybeUninit<crossbeam::crossbeam_queue::array_queue::Slot<i32>>"]* %_3.0 to i8*, !dbg !1181
; call <core::ptr::unique::Unique<u8>>::new_unchecked
  %3 = call nonnull i8* @_RNvMs1_NtNtCs3p84KrD9aKt_4core3ptr6uniqueINtB5_6UniquehE13new_uncheckedCs48Yq53b35jF_15crossbeam_utils(i8* %_2), !dbg !1182
  br label %bb2, !dbg !1182

bb2:                                              ; preds = %bb1
  ret i8* %3, !dbg !1183
}

; <core::ptr::unique::Unique<u8>>::cast::<u8>
; Function Attrs: inlinehint nonlazybind uwtable
define internal nonnull i8* @_RINvMs1_NtNtCs3p84KrD9aKt_4core3ptr6uniqueINtB6_6UniquehE4casthECsgXJhLyQVBY8_14crossbeam_test(i8* nonnull %self) unnamed_addr #1 !dbg !1184 {
start:
  %self.dbg.spill = alloca i8*, align 8
  store i8* %self, i8** %self.dbg.spill, align 8
  call void @llvm.dbg.declare(metadata i8** %self.dbg.spill, metadata !1188, metadata !DIExpression()), !dbg !1190
; call <core::ptr::unique::Unique<u8>>::as_ptr
  %_3 = call i8* @_RNvMs1_NtNtCs3p84KrD9aKt_4core3ptr6uniqueINtB5_6UniquehE6as_ptrCs48Yq53b35jF_15crossbeam_utils(i8* nonnull %self), !dbg !1191
  br label %bb1, !dbg !1191

bb1:                                              ; preds = %start
; call <core::ptr::unique::Unique<u8>>::new_unchecked
  %0 = call nonnull i8* @_RNvMs1_NtNtCs3p84KrD9aKt_4core3ptr6uniqueINtB5_6UniquehE13new_uncheckedCs48Yq53b35jF_15crossbeam_utils(i8* %_3), !dbg !1192
  br label %bb2, !dbg !1192

bb2:                                              ; preds = %bb1
  ret i8* %0, !dbg !1193
}

; <core::ptr::non_null::NonNull<alloc::sync::ArcInner<core::cell::UnsafeCell<core::option::Option<core::result::Result<(), alloc::boxed::Box<dyn core::any::Any + core::marker::Send>>>>>>>::cast::<u8>
; Function Attrs: inlinehint nonlazybind uwtable
define internal nonnull i8* @_RINvMs1_NtNtCs3p84KrD9aKt_4core3ptr8non_nullINtB6_7NonNullINtNtCs8RW06R9lH2S_5alloc4sync8ArcInnerINtNtBa_4cell10UnsafeCellINtNtBa_6option6OptionINtNtBa_6result6ResultuINtNtBZ_5boxed3BoxDNtNtBa_3any3AnyNtNtBa_6marker4SendEL_EEEEEE4casthECsgXJhLyQVBY8_14crossbeam_test(i64* nonnull %self) unnamed_addr #1 !dbg !1194 {
start:
  %self.dbg.spill = alloca i64*, align 8
  store i64* %self, i64** %self.dbg.spill, align 8
  call void @llvm.dbg.declare(metadata i64** %self.dbg.spill, metadata !1202, metadata !DIExpression()), !dbg !1203
; call <core::ptr::non_null::NonNull<alloc::sync::ArcInner<core::cell::UnsafeCell<core::option::Option<core::result::Result<(), alloc::boxed::Box<dyn core::any::Any + core::marker::Send>>>>>>>::as_ptr
  %_3 = call %"alloc::sync::ArcInner<std::cell::UnsafeCell<std::option::Option<std::result::Result<(), std::boxed::Box<dyn std::any::Any + std::marker::Send>>>>>"* @_RNvMs1_NtNtCs3p84KrD9aKt_4core3ptr8non_nullINtB5_7NonNullINtNtCs8RW06R9lH2S_5alloc4sync8ArcInnerINtNtB9_4cell10UnsafeCellINtNtB9_6option6OptionINtNtB9_6result6ResultuINtNtBY_5boxed3BoxDNtNtB9_3any3AnyNtNtB9_6marker4SendEL_EEEEEE6as_ptrCsgXJhLyQVBY8_14crossbeam_test(i64* nonnull %self), !dbg !1204
  br label %bb1, !dbg !1204

bb1:                                              ; preds = %start
  %_2 = bitcast %"alloc::sync::ArcInner<std::cell::UnsafeCell<std::option::Option<std::result::Result<(), std::boxed::Box<dyn std::any::Any + std::marker::Send>>>>>"* %_3 to i8*, !dbg !1204
; call <core::ptr::non_null::NonNull<u8>>::new_unchecked
  %0 = call nonnull i8* @_RNvMs1_NtNtCs3p84KrD9aKt_4core3ptr8non_nullINtB5_7NonNullhE13new_uncheckedCs48Yq53b35jF_15crossbeam_utils(i8* %_2), !dbg !1205
  br label %bb2, !dbg !1205

bb2:                                              ; preds = %bb1
  ret i8* %0, !dbg !1206
}

; <core::ptr::non_null::NonNull<alloc::sync::ArcInner<crossbeam_queue::array_queue::ArrayQueue<i32>>>>::cast::<u8>
; Function Attrs: inlinehint nonlazybind uwtable
define internal nonnull i8* @_RINvMs1_NtNtCs3p84KrD9aKt_4core3ptr8non_nullINtB6_7NonNullINtNtCs8RW06R9lH2S_5alloc4sync8ArcInnerINtNtCsl4s60bRVA8d_15crossbeam_queue11array_queue10ArrayQueuelEEE4casthECsgXJhLyQVBY8_14crossbeam_test(i64* nonnull %self) unnamed_addr #1 !dbg !1207 {
start:
  %self.dbg.spill = alloca i64*, align 8
  store i64* %self, i64** %self.dbg.spill, align 8
  call void @llvm.dbg.declare(metadata i64** %self.dbg.spill, metadata !1211, metadata !DIExpression()), !dbg !1212
; call <core::ptr::non_null::NonNull<alloc::sync::ArcInner<crossbeam_queue::array_queue::ArrayQueue<i32>>>>::as_ptr
  %_3 = call %"alloc::sync::ArcInner<crossbeam::crossbeam_queue::ArrayQueue<i32>>"* @_RNvMs1_NtNtCs3p84KrD9aKt_4core3ptr8non_nullINtB5_7NonNullINtNtCs8RW06R9lH2S_5alloc4sync8ArcInnerINtNtCsl4s60bRVA8d_15crossbeam_queue11array_queue10ArrayQueuelEEE6as_ptrCsgXJhLyQVBY8_14crossbeam_test(i64* nonnull %self), !dbg !1213
  br label %bb1, !dbg !1213

bb1:                                              ; preds = %start
  %_2 = bitcast %"alloc::sync::ArcInner<crossbeam::crossbeam_queue::ArrayQueue<i32>>"* %_3 to i8*, !dbg !1213
; call <core::ptr::non_null::NonNull<u8>>::new_unchecked
  %0 = call nonnull i8* @_RNvMs1_NtNtCs3p84KrD9aKt_4core3ptr8non_nullINtB5_7NonNullhE13new_uncheckedCs48Yq53b35jF_15crossbeam_utils(i8* %_2), !dbg !1214
  br label %bb2, !dbg !1214

bb2:                                              ; preds = %bb1
  ret i8* %0, !dbg !1215
}

; <core::ptr::non_null::NonNull<alloc::sync::ArcInner<std::sync::mutex::Mutex<alloc::vec::Vec<u8>>>>>::cast::<u8>
; Function Attrs: inlinehint nonlazybind uwtable
define internal nonnull i8* @_RINvMs1_NtNtCs3p84KrD9aKt_4core3ptr8non_nullINtB6_7NonNullINtNtCs8RW06R9lH2S_5alloc4sync8ArcInnerINtNtNtCs2bNvlddUlXM_3std4sync5mutex5MutexINtNtBZ_3vec3VechEEEE4casthECsgXJhLyQVBY8_14crossbeam_test(i64* nonnull %self) unnamed_addr #1 !dbg !1216 {
start:
  %self.dbg.spill = alloca i64*, align 8
  store i64* %self, i64** %self.dbg.spill, align 8
  call void @llvm.dbg.declare(metadata i64** %self.dbg.spill, metadata !1220, metadata !DIExpression()), !dbg !1222
; call <core::ptr::non_null::NonNull<alloc::sync::ArcInner<std::sync::mutex::Mutex<alloc::vec::Vec<u8>>>>>::as_ptr
  %_3 = call %"alloc::sync::ArcInner<std::sync::Mutex<std::vec::Vec<u8>>>"* @_RNvMs1_NtNtCs3p84KrD9aKt_4core3ptr8non_nullINtB5_7NonNullINtNtCs8RW06R9lH2S_5alloc4sync8ArcInnerINtNtNtCs2bNvlddUlXM_3std4sync5mutex5MutexINtNtBY_3vec3VechEEEE6as_ptrCsgXJhLyQVBY8_14crossbeam_test(i64* nonnull %self), !dbg !1223
  br label %bb1, !dbg !1223

bb1:                                              ; preds = %start
  %_2 = bitcast %"alloc::sync::ArcInner<std::sync::Mutex<std::vec::Vec<u8>>>"* %_3 to i8*, !dbg !1223
; call <core::ptr::non_null::NonNull<u8>>::new_unchecked
  %0 = call nonnull i8* @_RNvMs1_NtNtCs3p84KrD9aKt_4core3ptr8non_nullINtB5_7NonNullhE13new_uncheckedCs48Yq53b35jF_15crossbeam_utils(i8* %_2), !dbg !1224
  br label %bb2, !dbg !1224

bb2:                                              ; preds = %bb1
  ret i8* %0, !dbg !1225
}

; <core::ptr::non_null::NonNull<[u8]>>::cast::<std::thread::JoinHandle<()>>
; Function Attrs: inlinehint nonlazybind uwtable
define internal nonnull i64* @_RINvMs1_NtNtCs3p84KrD9aKt_4core3ptr8non_nullINtB6_7NonNullShE4castINtNtCs2bNvlddUlXM_3std6thread10JoinHandleuEECsgXJhLyQVBY8_14crossbeam_test(i8* nonnull %self.0, i64 %self.1) unnamed_addr #1 !dbg !1226 {
start:
  %self.dbg.spill = alloca { i8*, i64 }, align 8
  %0 = getelementptr inbounds { i8*, i64 }, { i8*, i64 }* %self.dbg.spill, i32 0, i32 0
  store i8* %self.0, i8** %0, align 8
  %1 = getelementptr inbounds { i8*, i64 }, { i8*, i64 }* %self.dbg.spill, i32 0, i32 1
  store i64 %self.1, i64* %1, align 8
  call void @llvm.dbg.declare(metadata { i8*, i64 }* %self.dbg.spill, metadata !1233, metadata !DIExpression()), !dbg !1235
; call <core::ptr::non_null::NonNull<[u8]>>::as_ptr
  %2 = call { [0 x i8]*, i64 } @_RNvMs1_NtNtCs3p84KrD9aKt_4core3ptr8non_nullINtB5_7NonNullShE6as_ptrCs48Yq53b35jF_15crossbeam_utils(i8* nonnull %self.0, i64 %self.1), !dbg !1236
  %_3.0 = extractvalue { [0 x i8]*, i64 } %2, 0, !dbg !1236
  %_3.1 = extractvalue { [0 x i8]*, i64 } %2, 1, !dbg !1236
  br label %bb1, !dbg !1236

bb1:                                              ; preds = %start
  %_2 = bitcast [0 x i8]* %_3.0 to %"std::thread::JoinHandle<()>"*, !dbg !1236
; call <core::ptr::non_null::NonNull<std::thread::JoinHandle<()>>>::new_unchecked
  %3 = call nonnull i64* @_RNvMs1_NtNtCs3p84KrD9aKt_4core3ptr8non_nullINtB5_7NonNullINtNtCs2bNvlddUlXM_3std6thread10JoinHandleuEE13new_uncheckedCsgXJhLyQVBY8_14crossbeam_test(%"std::thread::JoinHandle<()>"* %_2), !dbg !1237
  br label %bb2, !dbg !1237

bb2:                                              ; preds = %bb1
  ret i64* %3, !dbg !1238
}

; <core::ptr::non_null::NonNull<[u8]>>::cast::<crossbeam_queue::array_queue::Slot<i32>>
; Function Attrs: inlinehint nonlazybind uwtable
define internal nonnull i64* @_RINvMs1_NtNtCs3p84KrD9aKt_4core3ptr8non_nullINtB6_7NonNullShE4castINtNtCsl4s60bRVA8d_15crossbeam_queue11array_queue4SlotlEECsgXJhLyQVBY8_14crossbeam_test(i8* nonnull %self.0, i64 %self.1) unnamed_addr #1 !dbg !1239 {
start:
  %self.dbg.spill = alloca { i8*, i64 }, align 8
  %0 = getelementptr inbounds { i8*, i64 }, { i8*, i64 }* %self.dbg.spill, i32 0, i32 0
  store i8* %self.0, i8** %0, align 8
  %1 = getelementptr inbounds { i8*, i64 }, { i8*, i64 }* %self.dbg.spill, i32 0, i32 1
  store i64 %self.1, i64* %1, align 8
  call void @llvm.dbg.declare(metadata { i8*, i64 }* %self.dbg.spill, metadata !1246, metadata !DIExpression()), !dbg !1248
; call <core::ptr::non_null::NonNull<[u8]>>::as_ptr
  %2 = call { [0 x i8]*, i64 } @_RNvMs1_NtNtCs3p84KrD9aKt_4core3ptr8non_nullINtB5_7NonNullShE6as_ptrCs48Yq53b35jF_15crossbeam_utils(i8* nonnull %self.0, i64 %self.1), !dbg !1249
  %_3.0 = extractvalue { [0 x i8]*, i64 } %2, 0, !dbg !1249
  %_3.1 = extractvalue { [0 x i8]*, i64 } %2, 1, !dbg !1249
  br label %bb1, !dbg !1249

bb1:                                              ; preds = %start
  %_2 = bitcast [0 x i8]* %_3.0 to %"crossbeam::crossbeam_queue::array_queue::Slot<i32>"*, !dbg !1249
; call <core::ptr::non_null::NonNull<crossbeam_queue::array_queue::Slot<i32>>>::new_unchecked
  %3 = call nonnull i64* @_RNvMs1_NtNtCs3p84KrD9aKt_4core3ptr8non_nullINtB5_7NonNullINtNtCsl4s60bRVA8d_15crossbeam_queue11array_queue4SlotlEE13new_uncheckedCsgXJhLyQVBY8_14crossbeam_test(%"crossbeam::crossbeam_queue::array_queue::Slot<i32>"* %_2), !dbg !1250
  br label %bb2, !dbg !1250

bb2:                                              ; preds = %bb1
  ret i64* %3, !dbg !1251
}

; <core::fmt::ArgumentV1>::new::<&core::option::Option<usize>>
; Function Attrs: nonlazybind uwtable
define internal { i8*, i64* } @_RINvMs_NtCs3p84KrD9aKt_4core3fmtNtB5_10ArgumentV13newRINtNtB7_6option6OptionjEECsgXJhLyQVBY8_14crossbeam_test({ i64, i64 }** noalias readonly align 8 dereferenceable(8) %x, i1 ({ i64, i64 }**, %"std::fmt::Formatter"*)* nonnull %f) unnamed_addr #0 !dbg !1252 {
start:
  %0 = alloca %"core::fmt::Opaque"*, align 8
  %1 = alloca i1 (%"core::fmt::Opaque"*, %"std::fmt::Formatter"*)*, align 8
  %f.dbg.spill = alloca i1 ({ i64, i64 }**, %"std::fmt::Formatter"*)*, align 8
  %x.dbg.spill = alloca { i64, i64 }**, align 8
  %2 = alloca { i8*, i64* }, align 8
  store { i64, i64 }** %x, { i64, i64 }*** %x.dbg.spill, align 8
  call void @llvm.dbg.declare(metadata { i64, i64 }*** %x.dbg.spill, metadata !1285, metadata !DIExpression()), !dbg !1289
  store i1 ({ i64, i64 }**, %"std::fmt::Formatter"*)* %f, i1 ({ i64, i64 }**, %"std::fmt::Formatter"*)** %f.dbg.spill, align 8
  call void @llvm.dbg.declare(metadata i1 ({ i64, i64 }**, %"std::fmt::Formatter"*)** %f.dbg.spill, metadata !1286, metadata !DIExpression()), !dbg !1290
  %3 = bitcast i1 ({ i64, i64 }**, %"std::fmt::Formatter"*)* %f to i1 (%"core::fmt::Opaque"*, %"std::fmt::Formatter"*)*, !dbg !1291
  store i1 (%"core::fmt::Opaque"*, %"std::fmt::Formatter"*)* %3, i1 (%"core::fmt::Opaque"*, %"std::fmt::Formatter"*)** %1, align 8, !dbg !1291
  %_3 = load i1 (%"core::fmt::Opaque"*, %"std::fmt::Formatter"*)*, i1 (%"core::fmt::Opaque"*, %"std::fmt::Formatter"*)** %1, align 8, !dbg !1291, !nonnull !4
  br label %bb1, !dbg !1291

bb1:                                              ; preds = %start
  %4 = bitcast { i64, i64 }** %x to %"core::fmt::Opaque"*, !dbg !1292
  store %"core::fmt::Opaque"* %4, %"core::fmt::Opaque"** %0, align 8, !dbg !1292
  %_5 = load %"core::fmt::Opaque"*, %"core::fmt::Opaque"** %0, align 8, !dbg !1292, !nonnull !4
  br label %bb2, !dbg !1292

bb2:                                              ; preds = %bb1
  %5 = bitcast { i8*, i64* }* %2 to %"core::fmt::Opaque"**, !dbg !1293
  store %"core::fmt::Opaque"* %_5, %"core::fmt::Opaque"** %5, align 8, !dbg !1293
  %6 = getelementptr inbounds { i8*, i64* }, { i8*, i64* }* %2, i32 0, i32 1, !dbg !1293
  %7 = bitcast i64** %6 to i1 (%"core::fmt::Opaque"*, %"std::fmt::Formatter"*)**, !dbg !1293
  store i1 (%"core::fmt::Opaque"*, %"std::fmt::Formatter"*)* %_3, i1 (%"core::fmt::Opaque"*, %"std::fmt::Formatter"*)** %7, align 8, !dbg !1293
  %8 = getelementptr inbounds { i8*, i64* }, { i8*, i64* }* %2, i32 0, i32 0, !dbg !1294
  %9 = load i8*, i8** %8, align 8, !dbg !1294, !nonnull !4
  %10 = getelementptr inbounds { i8*, i64* }, { i8*, i64* }* %2, i32 0, i32 1, !dbg !1294
  %11 = load i64*, i64** %10, align 8, !dbg !1294, !nonnull !4
  %12 = insertvalue { i8*, i64* } undef, i8* %9, 0, !dbg !1294
  %13 = insertvalue { i8*, i64* } %12, i64* %11, 1, !dbg !1294
  ret { i8*, i64* } %13, !dbg !1294
}

; <core::fmt::ArgumentV1>::new::<i32>
; Function Attrs: nonlazybind uwtable
define internal { i8*, i64* } @_RINvMs_NtCs3p84KrD9aKt_4core3fmtNtB5_10ArgumentV13newlECsgXJhLyQVBY8_14crossbeam_test(i32* noalias readonly align 4 dereferenceable(4) %x, i1 (i32*, %"std::fmt::Formatter"*)* nonnull %f) unnamed_addr #0 !dbg !1295 {
start:
  %0 = alloca %"core::fmt::Opaque"*, align 8
  %1 = alloca i1 (%"core::fmt::Opaque"*, %"std::fmt::Formatter"*)*, align 8
  %f.dbg.spill = alloca i1 (i32*, %"std::fmt::Formatter"*)*, align 8
  %x.dbg.spill = alloca i32*, align 8
  %2 = alloca { i8*, i64* }, align 8
  store i32* %x, i32** %x.dbg.spill, align 8
  call void @llvm.dbg.declare(metadata i32** %x.dbg.spill, metadata !1303, metadata !DIExpression()), !dbg !1305
  store i1 (i32*, %"std::fmt::Formatter"*)* %f, i1 (i32*, %"std::fmt::Formatter"*)** %f.dbg.spill, align 8
  call void @llvm.dbg.declare(metadata i1 (i32*, %"std::fmt::Formatter"*)** %f.dbg.spill, metadata !1304, metadata !DIExpression()), !dbg !1306
  %3 = bitcast i1 (i32*, %"std::fmt::Formatter"*)* %f to i1 (%"core::fmt::Opaque"*, %"std::fmt::Formatter"*)*, !dbg !1307
  store i1 (%"core::fmt::Opaque"*, %"std::fmt::Formatter"*)* %3, i1 (%"core::fmt::Opaque"*, %"std::fmt::Formatter"*)** %1, align 8, !dbg !1307
  %_3 = load i1 (%"core::fmt::Opaque"*, %"std::fmt::Formatter"*)*, i1 (%"core::fmt::Opaque"*, %"std::fmt::Formatter"*)** %1, align 8, !dbg !1307, !nonnull !4
  br label %bb1, !dbg !1307

bb1:                                              ; preds = %start
  %4 = bitcast i32* %x to %"core::fmt::Opaque"*, !dbg !1308
  store %"core::fmt::Opaque"* %4, %"core::fmt::Opaque"** %0, align 8, !dbg !1308
  %_5 = load %"core::fmt::Opaque"*, %"core::fmt::Opaque"** %0, align 8, !dbg !1308, !nonnull !4
  br label %bb2, !dbg !1308

bb2:                                              ; preds = %bb1
  %5 = bitcast { i8*, i64* }* %2 to %"core::fmt::Opaque"**, !dbg !1309
  store %"core::fmt::Opaque"* %_5, %"core::fmt::Opaque"** %5, align 8, !dbg !1309
  %6 = getelementptr inbounds { i8*, i64* }, { i8*, i64* }* %2, i32 0, i32 1, !dbg !1309
  %7 = bitcast i64** %6 to i1 (%"core::fmt::Opaque"*, %"std::fmt::Formatter"*)**, !dbg !1309
  store i1 (%"core::fmt::Opaque"*, %"std::fmt::Formatter"*)* %_3, i1 (%"core::fmt::Opaque"*, %"std::fmt::Formatter"*)** %7, align 8, !dbg !1309
  %8 = getelementptr inbounds { i8*, i64* }, { i8*, i64* }* %2, i32 0, i32 0, !dbg !1310
  %9 = load i8*, i8** %8, align 8, !dbg !1310, !nonnull !4
  %10 = getelementptr inbounds { i8*, i64* }, { i8*, i64* }* %2, i32 0, i32 1, !dbg !1310
  %11 = load i64*, i64** %10, align 8, !dbg !1310, !nonnull !4
  %12 = insertvalue { i8*, i64* } undef, i8* %9, 0, !dbg !1310
  %13 = insertvalue { i8*, i64* } %12, i64* %11, 1, !dbg !1310
  ret { i8*, i64* } %13, !dbg !1310
}

; <alloc::vec::Vec<std::thread::JoinHandle<()>>>::extend_desugared::<core::iter::adapters::map::Map<core::ops::range::Range<i32>, crossbeam_test::main::{closure#0}>>
; Function Attrs: nonlazybind uwtable
define internal void @_RINvMsh_NtCs8RW06R9lH2S_5alloc3vecINtB6_3VecINtNtCs2bNvlddUlXM_3std6thread10JoinHandleuEE16extend_desugaredINtNtNtNtCs3p84KrD9aKt_4core4iter8adapters3map3MapINtNtNtB1Q_3ops5range5RangelENCNvCsgXJhLyQVBY8_14crossbeam_test4main0EEB32_(%"std::vec::Vec<std::thread::JoinHandle<()>>"* align 8 dereferenceable(24) %self, i128 %0) unnamed_addr #0 personality i32 (i32, i32, i64, %"unwind::libunwind::_Unwind_Exception"*, %"unwind::libunwind::_Unwind_Context"*)* @rust_eh_personality !dbg !1311 {
start:
  %lower.dbg.spill = alloca i64, align 8
  %len.dbg.spill = alloca i64, align 8
  %1 = alloca { i8*, i32 }, align 8
  %self.dbg.spill = alloca %"std::vec::Vec<std::thread::JoinHandle<()>>"*, align 8
  %_30 = alloca i8, align 1
  %_25 = alloca %"std::thread::JoinHandle<()>", align 8
  %_14 = alloca { [0 x i64], i64, [0 x i64], { i64, i64 }, [0 x i64] }, align 8
  %element = alloca %"std::thread::JoinHandle<()>", align 8
  %_3 = alloca %"std::option::Option<std::thread::JoinHandle<()>>", align 8
  %2 = alloca i128, align 8
  %iterator = alloca %"std::iter::Map<std::ops::Range<i32>, [closure@src/main.rs:13:7: 20:3]>", align 8
  store i128 %0, i128* %2, align 8
  %3 = bitcast %"std::iter::Map<std::ops::Range<i32>, [closure@src/main.rs:13:7: 20:3]>"* %iterator to i8*
  %4 = bitcast i128* %2 to i8*
  call void @llvm.memcpy.p0i8.p0i8.i64(i8* align 8 %3, i8* align 8 %4, i64 16, i1 false)
  store %"std::vec::Vec<std::thread::JoinHandle<()>>"* %self, %"std::vec::Vec<std::thread::JoinHandle<()>>"** %self.dbg.spill, align 8
  call void @llvm.dbg.declare(metadata %"std::vec::Vec<std::thread::JoinHandle<()>>"** %self.dbg.spill, metadata !1345, metadata !DIExpression()), !dbg !1355
  call void @llvm.dbg.declare(metadata %"std::iter::Map<std::ops::Range<i32>, [closure@src/main.rs:13:7: 20:3]>"* %iterator, metadata !1346, metadata !DIExpression()), !dbg !1356
  call void @llvm.dbg.declare(metadata %"std::thread::JoinHandle<()>"* %element, metadata !1347, metadata !DIExpression()), !dbg !1357
  br label %bb0

bb0:                                              ; preds = %bb15, %start
  store i8 0, i8* %_30, align 1, !dbg !1358
; invoke <core::iter::adapters::map::Map<core::ops::range::Range<i32>, crossbeam_test::main::{closure#0}> as core::iter::traits::iterator::Iterator>::next
  invoke void @_RNvXs0_NtNtNtCs3p84KrD9aKt_4core4iter8adapters3mapINtB5_3MapINtNtNtBb_3ops5range5RangelENCNvCsgXJhLyQVBY8_14crossbeam_test4main0ENtNtNtB9_6traits8iterator8Iterator4nextB1s_(%"std::option::Option<std::thread::JoinHandle<()>>"* noalias nocapture sret dereferenceable(32) %_3, %"std::iter::Map<std::ops::Range<i32>, [closure@src/main.rs:13:7: 20:3]>"* align 8 dereferenceable(16) %iterator)
          to label %bb1 unwind label %cleanup, !dbg !1358

bb1:                                              ; preds = %bb0
  %5 = bitcast %"std::option::Option<std::thread::JoinHandle<()>>"* %_3 to i64*, !dbg !1359
  %6 = load i64, i64* %5, align 8, !dbg !1359, !range !1360
  %7 = sub i64 %6, 2, !dbg !1359
  %8 = icmp eq i64 %7, 0, !dbg !1359
  %_5 = select i1 %8, i64 0, i64 1, !dbg !1359
  %9 = icmp eq i64 %_5, 1, !dbg !1359
  br i1 %9, label %bb3, label %bb2, !dbg !1359

bb2:                                              ; preds = %bb1
; invoke core::ptr::drop_in_place::<core::option::Option<std::thread::JoinHandle<()>>>
  invoke void @_RINvNtCs3p84KrD9aKt_4core3ptr13drop_in_placeINtNtB4_6option6OptionINtNtCs2bNvlddUlXM_3std6thread10JoinHandleuEEECsgXJhLyQVBY8_14crossbeam_test(%"std::option::Option<std::thread::JoinHandle<()>>"* %_3)
          to label %bb16 unwind label %cleanup, !dbg !1361

bb3:                                              ; preds = %bb1
  store i8 1, i8* %_30, align 1, !dbg !1362
  %10 = bitcast %"std::option::Option<std::thread::JoinHandle<()>>"* %_3 to %"std::option::Option<std::thread::JoinHandle<()>>::Some"*, !dbg !1362
  %11 = bitcast %"std::option::Option<std::thread::JoinHandle<()>>::Some"* %10 to %"std::thread::JoinHandle<()>"*, !dbg !1362
  %12 = bitcast %"std::thread::JoinHandle<()>"* %element to i8*, !dbg !1362
  %13 = bitcast %"std::thread::JoinHandle<()>"* %11 to i8*, !dbg !1362
  call void @llvm.memcpy.p0i8.p0i8.i64(i8* align 8 %12, i8* align 8 %13, i64 32, i1 false), !dbg !1362
; invoke <alloc::vec::Vec<std::thread::JoinHandle<()>>>::len
  %len = invoke i64 @_RNvMs_NtCs8RW06R9lH2S_5alloc3vecINtB4_3VecINtNtCs2bNvlddUlXM_3std6thread10JoinHandleuEE3lenCsgXJhLyQVBY8_14crossbeam_test(%"std::vec::Vec<std::thread::JoinHandle<()>>"* noalias readonly align 8 dereferenceable(24) %self)
          to label %bb4 unwind label %cleanup1, !dbg !1363

bb4:                                              ; preds = %bb3
  store i64 %len, i64* %len.dbg.spill, align 8, !dbg !1363
  call void @llvm.dbg.declare(metadata i64* %len.dbg.spill, metadata !1349, metadata !DIExpression()), !dbg !1364
; invoke <alloc::vec::Vec<std::thread::JoinHandle<()>>>::capacity
  %_11 = invoke i64 @_RNvMs_NtCs8RW06R9lH2S_5alloc3vecINtB4_3VecINtNtCs2bNvlddUlXM_3std6thread10JoinHandleuEE8capacityCsgXJhLyQVBY8_14crossbeam_test(%"std::vec::Vec<std::thread::JoinHandle<()>>"* noalias readonly align 8 dereferenceable(24) %self)
          to label %bb5 unwind label %cleanup1, !dbg !1365

bb5:                                              ; preds = %bb4
  %_9 = icmp eq i64 %len, %_11, !dbg !1366
  br i1 %_9, label %bb6, label %bb7, !dbg !1367

bb6:                                              ; preds = %bb5
; invoke <core::iter::adapters::map::Map<core::ops::range::Range<i32>, crossbeam_test::main::{closure#0}> as core::iter::traits::iterator::Iterator>::size_hint
  invoke void @_RNvXs0_NtNtNtCs3p84KrD9aKt_4core4iter8adapters3mapINtB5_3MapINtNtNtBb_3ops5range5RangelENCNvCsgXJhLyQVBY8_14crossbeam_test4main0ENtNtNtB9_6traits8iterator8Iterator9size_hintB1s_({ [0 x i64], i64, [0 x i64], { i64, i64 }, [0 x i64] }* noalias nocapture sret dereferenceable(24) %_14, %"std::iter::Map<std::ops::Range<i32>, [closure@src/main.rs:13:7: 20:3]>"* noalias readonly align 8 dereferenceable(16) %iterator)
          to label %bb8 unwind label %cleanup1, !dbg !1368

bb7:                                              ; preds = %bb5
  br label %bb11, !dbg !1367

bb8:                                              ; preds = %bb6
  %14 = bitcast { [0 x i64], i64, [0 x i64], { i64, i64 }, [0 x i64] }* %_14 to i64*, !dbg !1369
  %lower = load i64, i64* %14, align 8, !dbg !1369
  store i64 %lower, i64* %lower.dbg.spill, align 8, !dbg !1369
  call void @llvm.dbg.declare(metadata i64* %lower.dbg.spill, metadata !1351, metadata !DIExpression()), !dbg !1370
; invoke <usize>::saturating_add
  %_18 = invoke i64 @_RNvMs9_NtCs3p84KrD9aKt_4core3numj14saturating_addCsgXJhLyQVBY8_14crossbeam_test(i64 %lower, i64 1)
          to label %bb9 unwind label %cleanup1, !dbg !1371

bb9:                                              ; preds = %bb8
; invoke <alloc::vec::Vec<std::thread::JoinHandle<()>>>::reserve
  invoke void @_RNvMs_NtCs8RW06R9lH2S_5alloc3vecINtB4_3VecINtNtCs2bNvlddUlXM_3std6thread10JoinHandleuEE7reserveCsgXJhLyQVBY8_14crossbeam_test(%"std::vec::Vec<std::thread::JoinHandle<()>>"* align 8 dereferenceable(24) %self, i64 %_18)
          to label %bb10 unwind label %cleanup1, !dbg !1372

bb10:                                             ; preds = %bb9
  br label %bb11, !dbg !1367

bb11:                                             ; preds = %bb7, %bb10
; invoke <alloc::vec::Vec<std::thread::JoinHandle<()>>>::as_mut_ptr
  %_22 = invoke %"std::thread::JoinHandle<()>"* @_RNvMs_NtCs8RW06R9lH2S_5alloc3vecINtB4_3VecINtNtCs2bNvlddUlXM_3std6thread10JoinHandleuEE10as_mut_ptrCsgXJhLyQVBY8_14crossbeam_test(%"std::vec::Vec<std::thread::JoinHandle<()>>"* align 8 dereferenceable(24) %self)
          to label %bb12 unwind label %cleanup1, !dbg !1373

bb12:                                             ; preds = %bb11
; invoke <*mut std::thread::JoinHandle<()>>::add
  %_21 = invoke %"std::thread::JoinHandle<()>"* @_RNvMNtNtCs3p84KrD9aKt_4core3ptr7mut_ptrOINtNtCs2bNvlddUlXM_3std6thread10JoinHandleuE3addCsgXJhLyQVBY8_14crossbeam_test(%"std::thread::JoinHandle<()>"* %_22, i64 %len)
          to label %bb13 unwind label %cleanup1, !dbg !1373

bb13:                                             ; preds = %bb12
  store i8 0, i8* %_30, align 1, !dbg !1374
  %15 = bitcast %"std::thread::JoinHandle<()>"* %_25 to i8*, !dbg !1374
  %16 = bitcast %"std::thread::JoinHandle<()>"* %element to i8*, !dbg !1374
  call void @llvm.memcpy.p0i8.p0i8.i64(i8* align 8 %15, i8* align 8 %16, i64 32, i1 false), !dbg !1374
; invoke core::ptr::write::<std::thread::JoinHandle<()>>
  invoke void @_RINvNtCs3p84KrD9aKt_4core3ptr5writeINtNtCs2bNvlddUlXM_3std6thread10JoinHandleuEECsgXJhLyQVBY8_14crossbeam_test(%"std::thread::JoinHandle<()>"* %_21, %"std::thread::JoinHandle<()>"* noalias nocapture dereferenceable(32) %_25)
          to label %bb14 unwind label %cleanup1, !dbg !1375

bb14:                                             ; preds = %bb13
  %_28 = add i64 %len, 1, !dbg !1376
; invoke <alloc::vec::Vec<std::thread::JoinHandle<()>>>::set_len
  invoke void @_RNvMs_NtCs8RW06R9lH2S_5alloc3vecINtB4_3VecINtNtCs2bNvlddUlXM_3std6thread10JoinHandleuEE7set_lenCsgXJhLyQVBY8_14crossbeam_test(%"std::vec::Vec<std::thread::JoinHandle<()>>"* align 8 dereferenceable(24) %self, i64 %_28)
          to label %bb15 unwind label %cleanup1, !dbg !1377

bb15:                                             ; preds = %bb14
  store i8 0, i8* %_30, align 1, !dbg !1361
  br label %bb0, !dbg !1378

bb16:                                             ; preds = %bb2
  br label %bb17, !dbg !1379

bb17:                                             ; preds = %bb16
  ret void, !dbg !1380

bb18:                                             ; preds = %bb21, %bb22
  br label %bb19, !dbg !1361

bb19:                                             ; preds = %bb18, %cleanup
  br label %bb20, !dbg !1379

bb20:                                             ; preds = %bb19
  %17 = bitcast { i8*, i32 }* %1 to i8**, !dbg !1381
  %18 = load i8*, i8** %17, align 8, !dbg !1381
  %19 = getelementptr inbounds { i8*, i32 }, { i8*, i32 }* %1, i32 0, i32 1, !dbg !1381
  %20 = load i32, i32* %19, align 8, !dbg !1381
  %21 = insertvalue { i8*, i32 } undef, i8* %18, 0, !dbg !1381
  %22 = insertvalue { i8*, i32 } %21, i32 %20, 1, !dbg !1381
  resume { i8*, i32 } %22, !dbg !1381

bb21:                                             ; preds = %bb22
; call core::ptr::drop_in_place::<std::thread::JoinHandle<()>>
  call void @_RINvNtCs3p84KrD9aKt_4core3ptr13drop_in_placeINtNtCs2bNvlddUlXM_3std6thread10JoinHandleuEECsgXJhLyQVBY8_14crossbeam_test(%"std::thread::JoinHandle<()>"* %element) #16, !dbg !1361
  br label %bb18, !dbg !1361

bb22:                                             ; preds = %cleanup1
  %23 = load i8, i8* %_30, align 1, !dbg !1361, !range !638
  %24 = trunc i8 %23 to i1, !dbg !1361
  br i1 %24, label %bb21, label %bb18, !dbg !1361

cleanup:                                          ; preds = %bb2, %bb0
  %25 = landingpad { i8*, i32 }
          cleanup
  %26 = extractvalue { i8*, i32 } %25, 0
  %27 = extractvalue { i8*, i32 } %25, 1
  %28 = getelementptr inbounds { i8*, i32 }, { i8*, i32 }* %1, i32 0, i32 0
  store i8* %26, i8** %28, align 8
  %29 = getelementptr inbounds { i8*, i32 }, { i8*, i32 }* %1, i32 0, i32 1
  store i32 %27, i32* %29, align 8
  br label %bb19

cleanup1:                                         ; preds = %bb14, %bb13, %bb12, %bb11, %bb9, %bb8, %bb6, %bb4, %bb3
  %30 = landingpad { i8*, i32 }
          cleanup
  %31 = extractvalue { i8*, i32 } %30, 0
  %32 = extractvalue { i8*, i32 } %30, 1
  %33 = getelementptr inbounds { i8*, i32 }, { i8*, i32 }* %1, i32 0, i32 0
  store i8* %31, i8** %33, align 8
  %34 = getelementptr inbounds { i8*, i32 }, { i8*, i32 }* %1, i32 0, i32 1
  store i32 %32, i32* %34, align 8
  br label %bb22
}

; <alloc::vec::Vec<crossbeam_queue::array_queue::Slot<i32>>>::extend_desugared::<core::iter::adapters::map::Map<core::ops::range::Range<usize>, <crossbeam_queue::array_queue::ArrayQueue<i32>>::new::{closure#0}>>
; Function Attrs: nonlazybind uwtable
define internal void @_RINvMsh_NtCs8RW06R9lH2S_5alloc3vecINtB6_3VecINtNtCsl4s60bRVA8d_15crossbeam_queue11array_queue4SlotlEE16extend_desugaredINtNtNtNtCs3p84KrD9aKt_4core4iter8adapters3map3MapINtNtNtB22_3ops5range5RangejENCNvMs0_BJ_INtBJ_10ArrayQueuelE3new0EECsgXJhLyQVBY8_14crossbeam_test(%"std::vec::Vec<crossbeam::crossbeam_queue::array_queue::Slot<i32>>"* align 8 dereferenceable(24) %self, i64 %0, i64 %1) unnamed_addr #0 personality i32 (i32, i32, i64, %"unwind::libunwind::_Unwind_Exception"*, %"unwind::libunwind::_Unwind_Context"*)* @rust_eh_personality !dbg !1382 {
start:
  %lower.dbg.spill = alloca i64, align 8
  %len.dbg.spill = alloca i64, align 8
  %2 = alloca { i8*, i32 }, align 8
  %self.dbg.spill = alloca %"std::vec::Vec<crossbeam::crossbeam_queue::array_queue::Slot<i32>>"*, align 8
  %_30 = alloca i8, align 1
  %_25 = alloca %"crossbeam::crossbeam_queue::array_queue::Slot<i32>", align 8
  %_14 = alloca { [0 x i64], i64, [0 x i64], { i64, i64 }, [0 x i64] }, align 8
  %element = alloca %"crossbeam::crossbeam_queue::array_queue::Slot<i32>", align 8
  %_3 = alloca %"std::option::Option<crossbeam::crossbeam_queue::array_queue::Slot<i32>>", align 8
  %iterator = alloca { i64, i64 }, align 8
  %3 = getelementptr inbounds { i64, i64 }, { i64, i64 }* %iterator, i32 0, i32 0
  store i64 %0, i64* %3, align 8
  %4 = getelementptr inbounds { i64, i64 }, { i64, i64 }* %iterator, i32 0, i32 1
  store i64 %1, i64* %4, align 8
  store %"std::vec::Vec<crossbeam::crossbeam_queue::array_queue::Slot<i32>>"* %self, %"std::vec::Vec<crossbeam::crossbeam_queue::array_queue::Slot<i32>>"** %self.dbg.spill, align 8
  call void @llvm.dbg.declare(metadata %"std::vec::Vec<crossbeam::crossbeam_queue::array_queue::Slot<i32>>"** %self.dbg.spill, metadata !1410, metadata !DIExpression()), !dbg !1420
  call void @llvm.dbg.declare(metadata { i64, i64 }* %iterator, metadata !1411, metadata !DIExpression()), !dbg !1421
  call void @llvm.dbg.declare(metadata %"crossbeam::crossbeam_queue::array_queue::Slot<i32>"* %element, metadata !1412, metadata !DIExpression()), !dbg !1422
  br label %bb0

bb0:                                              ; preds = %bb15, %start
  store i8 0, i8* %_30, align 1, !dbg !1423
; invoke <core::iter::adapters::map::Map<core::ops::range::Range<usize>, <crossbeam_queue::array_queue::ArrayQueue<i32>>::new::{closure#0}> as core::iter::traits::iterator::Iterator>::next
  invoke void @_RNvXs0_NtNtNtCs3p84KrD9aKt_4core4iter8adapters3mapINtB5_3MapINtNtNtBb_3ops5range5RangejENCNvMs0_NtCsl4s60bRVA8d_15crossbeam_queue11array_queueINtB1w_10ArrayQueuelE3new0ENtNtNtB9_6traits8iterator8Iterator4nextCsgXJhLyQVBY8_14crossbeam_test(%"std::option::Option<crossbeam::crossbeam_queue::array_queue::Slot<i32>>"* noalias nocapture sret dereferenceable(24) %_3, { i64, i64 }* align 8 dereferenceable(16) %iterator)
          to label %bb1 unwind label %cleanup, !dbg !1423

bb1:                                              ; preds = %bb0
  %5 = bitcast %"std::option::Option<crossbeam::crossbeam_queue::array_queue::Slot<i32>>"* %_3 to i64*, !dbg !1424
  %_5 = load i64, i64* %5, align 8, !dbg !1424, !range !581
  %6 = icmp eq i64 %_5, 1, !dbg !1424
  br i1 %6, label %bb3, label %bb2, !dbg !1424

bb2:                                              ; preds = %bb1
  br label %bb16, !dbg !1425

bb3:                                              ; preds = %bb1
  store i8 1, i8* %_30, align 1, !dbg !1426
  %7 = bitcast %"std::option::Option<crossbeam::crossbeam_queue::array_queue::Slot<i32>>"* %_3 to %"std::option::Option<crossbeam::crossbeam_queue::array_queue::Slot<i32>>::Some"*, !dbg !1426
  %8 = getelementptr inbounds %"std::option::Option<crossbeam::crossbeam_queue::array_queue::Slot<i32>>::Some", %"std::option::Option<crossbeam::crossbeam_queue::array_queue::Slot<i32>>::Some"* %7, i32 0, i32 1, !dbg !1426
  %9 = bitcast %"crossbeam::crossbeam_queue::array_queue::Slot<i32>"* %element to i8*, !dbg !1426
  %10 = bitcast %"crossbeam::crossbeam_queue::array_queue::Slot<i32>"* %8 to i8*, !dbg !1426
  call void @llvm.memcpy.p0i8.p0i8.i64(i8* align 8 %9, i8* align 8 %10, i64 16, i1 false), !dbg !1426
; invoke <alloc::vec::Vec<crossbeam_queue::array_queue::Slot<i32>>>::len
  %len = invoke i64 @_RNvMs_NtCs8RW06R9lH2S_5alloc3vecINtB4_3VecINtNtCsl4s60bRVA8d_15crossbeam_queue11array_queue4SlotlEE3lenCsgXJhLyQVBY8_14crossbeam_test(%"std::vec::Vec<crossbeam::crossbeam_queue::array_queue::Slot<i32>>"* noalias readonly align 8 dereferenceable(24) %self)
          to label %bb4 unwind label %cleanup1, !dbg !1427

bb4:                                              ; preds = %bb3
  store i64 %len, i64* %len.dbg.spill, align 8, !dbg !1427
  call void @llvm.dbg.declare(metadata i64* %len.dbg.spill, metadata !1414, metadata !DIExpression()), !dbg !1428
; invoke <alloc::vec::Vec<crossbeam_queue::array_queue::Slot<i32>>>::capacity
  %_11 = invoke i64 @_RNvMs_NtCs8RW06R9lH2S_5alloc3vecINtB4_3VecINtNtCsl4s60bRVA8d_15crossbeam_queue11array_queue4SlotlEE8capacityCsgXJhLyQVBY8_14crossbeam_test(%"std::vec::Vec<crossbeam::crossbeam_queue::array_queue::Slot<i32>>"* noalias readonly align 8 dereferenceable(24) %self)
          to label %bb5 unwind label %cleanup1, !dbg !1429

bb5:                                              ; preds = %bb4
  %_9 = icmp eq i64 %len, %_11, !dbg !1430
  br i1 %_9, label %bb6, label %bb7, !dbg !1431

bb6:                                              ; preds = %bb5
; invoke <core::iter::adapters::map::Map<core::ops::range::Range<usize>, <crossbeam_queue::array_queue::ArrayQueue<i32>>::new::{closure#0}> as core::iter::traits::iterator::Iterator>::size_hint
  invoke void @_RNvXs0_NtNtNtCs3p84KrD9aKt_4core4iter8adapters3mapINtB5_3MapINtNtNtBb_3ops5range5RangejENCNvMs0_NtCsl4s60bRVA8d_15crossbeam_queue11array_queueINtB1w_10ArrayQueuelE3new0ENtNtNtB9_6traits8iterator8Iterator9size_hintCsgXJhLyQVBY8_14crossbeam_test({ [0 x i64], i64, [0 x i64], { i64, i64 }, [0 x i64] }* noalias nocapture sret dereferenceable(24) %_14, { i64, i64 }* noalias readonly align 8 dereferenceable(16) %iterator)
          to label %bb8 unwind label %cleanup1, !dbg !1432

bb7:                                              ; preds = %bb5
  br label %bb11, !dbg !1431

bb8:                                              ; preds = %bb6
  %11 = bitcast { [0 x i64], i64, [0 x i64], { i64, i64 }, [0 x i64] }* %_14 to i64*, !dbg !1433
  %lower = load i64, i64* %11, align 8, !dbg !1433
  store i64 %lower, i64* %lower.dbg.spill, align 8, !dbg !1433
  call void @llvm.dbg.declare(metadata i64* %lower.dbg.spill, metadata !1416, metadata !DIExpression()), !dbg !1434
; invoke <usize>::saturating_add
  %_18 = invoke i64 @_RNvMs9_NtCs3p84KrD9aKt_4core3numj14saturating_addCsgXJhLyQVBY8_14crossbeam_test(i64 %lower, i64 1)
          to label %bb9 unwind label %cleanup1, !dbg !1435

bb9:                                              ; preds = %bb8
; invoke <alloc::vec::Vec<crossbeam_queue::array_queue::Slot<i32>>>::reserve
  invoke void @_RNvMs_NtCs8RW06R9lH2S_5alloc3vecINtB4_3VecINtNtCsl4s60bRVA8d_15crossbeam_queue11array_queue4SlotlEE7reserveCsgXJhLyQVBY8_14crossbeam_test(%"std::vec::Vec<crossbeam::crossbeam_queue::array_queue::Slot<i32>>"* align 8 dereferenceable(24) %self, i64 %_18)
          to label %bb10 unwind label %cleanup1, !dbg !1436

bb10:                                             ; preds = %bb9
  br label %bb11, !dbg !1431

bb11:                                             ; preds = %bb7, %bb10
; invoke <alloc::vec::Vec<crossbeam_queue::array_queue::Slot<i32>>>::as_mut_ptr
  %_22 = invoke %"crossbeam::crossbeam_queue::array_queue::Slot<i32>"* @_RNvMs_NtCs8RW06R9lH2S_5alloc3vecINtB4_3VecINtNtCsl4s60bRVA8d_15crossbeam_queue11array_queue4SlotlEE10as_mut_ptrCsgXJhLyQVBY8_14crossbeam_test(%"std::vec::Vec<crossbeam::crossbeam_queue::array_queue::Slot<i32>>"* align 8 dereferenceable(24) %self)
          to label %bb12 unwind label %cleanup1, !dbg !1437

bb12:                                             ; preds = %bb11
; invoke <*mut crossbeam_queue::array_queue::Slot<i32>>::add
  %_21 = invoke %"crossbeam::crossbeam_queue::array_queue::Slot<i32>"* @_RNvMNtNtCs3p84KrD9aKt_4core3ptr7mut_ptrOINtNtCsl4s60bRVA8d_15crossbeam_queue11array_queue4SlotlE3addCsgXJhLyQVBY8_14crossbeam_test(%"crossbeam::crossbeam_queue::array_queue::Slot<i32>"* %_22, i64 %len)
          to label %bb13 unwind label %cleanup1, !dbg !1437

bb13:                                             ; preds = %bb12
  store i8 0, i8* %_30, align 1, !dbg !1438
  %12 = bitcast %"crossbeam::crossbeam_queue::array_queue::Slot<i32>"* %_25 to i8*, !dbg !1438
  %13 = bitcast %"crossbeam::crossbeam_queue::array_queue::Slot<i32>"* %element to i8*, !dbg !1438
  call void @llvm.memcpy.p0i8.p0i8.i64(i8* align 8 %12, i8* align 8 %13, i64 16, i1 false), !dbg !1438
  %14 = bitcast %"crossbeam::crossbeam_queue::array_queue::Slot<i32>"* %_25 to i128*, !dbg !1439
  %15 = load i128, i128* %14, align 8, !dbg !1439
; invoke core::ptr::write::<crossbeam_queue::array_queue::Slot<i32>>
  invoke void @_RINvNtCs3p84KrD9aKt_4core3ptr5writeINtNtCsl4s60bRVA8d_15crossbeam_queue11array_queue4SlotlEECsgXJhLyQVBY8_14crossbeam_test(%"crossbeam::crossbeam_queue::array_queue::Slot<i32>"* %_21, i128 %15)
          to label %bb14 unwind label %cleanup1, !dbg !1439

bb14:                                             ; preds = %bb13
  %_28 = add i64 %len, 1, !dbg !1440
; invoke <alloc::vec::Vec<crossbeam_queue::array_queue::Slot<i32>>>::set_len
  invoke void @_RNvMs_NtCs8RW06R9lH2S_5alloc3vecINtB4_3VecINtNtCsl4s60bRVA8d_15crossbeam_queue11array_queue4SlotlEE7set_lenCsgXJhLyQVBY8_14crossbeam_test(%"std::vec::Vec<crossbeam::crossbeam_queue::array_queue::Slot<i32>>"* align 8 dereferenceable(24) %self, i64 %_28)
          to label %bb15 unwind label %cleanup1, !dbg !1441

bb15:                                             ; preds = %bb14
  store i8 0, i8* %_30, align 1, !dbg !1425
  br label %bb0, !dbg !1442

bb16:                                             ; preds = %bb2
  br label %bb17, !dbg !1443

bb17:                                             ; preds = %bb16
  ret void, !dbg !1444

bb18:                                             ; preds = %bb21, %bb22
  br label %bb19, !dbg !1425

bb19:                                             ; preds = %bb18, %cleanup
  br label %bb20, !dbg !1443

bb20:                                             ; preds = %bb19
  %16 = bitcast { i8*, i32 }* %2 to i8**, !dbg !1445
  %17 = load i8*, i8** %16, align 8, !dbg !1445
  %18 = getelementptr inbounds { i8*, i32 }, { i8*, i32 }* %2, i32 0, i32 1, !dbg !1445
  %19 = load i32, i32* %18, align 8, !dbg !1445
  %20 = insertvalue { i8*, i32 } undef, i8* %17, 0, !dbg !1445
  %21 = insertvalue { i8*, i32 } %20, i32 %19, 1, !dbg !1445
  resume { i8*, i32 } %21, !dbg !1445

bb21:                                             ; preds = %bb22
  br label %bb18, !dbg !1425

bb22:                                             ; preds = %cleanup1
  %22 = load i8, i8* %_30, align 1, !dbg !1425, !range !638
  %23 = trunc i8 %22 to i1, !dbg !1425
  br i1 %23, label %bb21, label %bb18, !dbg !1425

cleanup:                                          ; preds = %bb0
  %24 = landingpad { i8*, i32 }
          cleanup
  %25 = extractvalue { i8*, i32 } %24, 0
  %26 = extractvalue { i8*, i32 } %24, 1
  %27 = getelementptr inbounds { i8*, i32 }, { i8*, i32 }* %2, i32 0, i32 0
  store i8* %25, i8** %27, align 8
  %28 = getelementptr inbounds { i8*, i32 }, { i8*, i32 }* %2, i32 0, i32 1
  store i32 %26, i32* %28, align 8
  br label %bb19

cleanup1:                                         ; preds = %bb14, %bb13, %bb12, %bb11, %bb9, %bb8, %bb6, %bb4, %bb3
  %29 = landingpad { i8*, i32 }
          cleanup
  %30 = extractvalue { i8*, i32 } %29, 0
  %31 = extractvalue { i8*, i32 } %29, 1
  %32 = getelementptr inbounds { i8*, i32 }, { i8*, i32 }* %2, i32 0, i32 0
  store i8* %30, i8** %32, align 8
  %33 = getelementptr inbounds { i8*, i32 }, { i8*, i32 }* %2, i32 0, i32 1
  store i32 %31, i32* %33, align 8
  br label %bb22
}

; std::rt::lang_start::<()>
; Function Attrs: nonlazybind uwtable
define hidden i64 @_RINvNtCs2bNvlddUlXM_3std2rt10lang_startuECsgXJhLyQVBY8_14crossbeam_test(void ()* nonnull %main, i64 %argc, i8** %argv) unnamed_addr #0 !dbg !1446 {
start:
  %argv.dbg.spill = alloca i8**, align 8
  %argc.dbg.spill = alloca i64, align 8
  %main.dbg.spill = alloca void ()*, align 8
  %_7 = alloca i64*, align 8
  store void ()* %main, void ()** %main.dbg.spill, align 8
  call void @llvm.dbg.declare(metadata void ()** %main.dbg.spill, metadata !1453, metadata !DIExpression()), !dbg !1456
  store i64 %argc, i64* %argc.dbg.spill, align 8
  call void @llvm.dbg.declare(metadata i64* %argc.dbg.spill, metadata !1454, metadata !DIExpression()), !dbg !1457
  store i8** %argv, i8*** %argv.dbg.spill, align 8
  call void @llvm.dbg.declare(metadata i8*** %argv.dbg.spill, metadata !1455, metadata !DIExpression()), !dbg !1458
  %0 = bitcast i64** %_7 to void ()**, !dbg !1459
  store void ()* %main, void ()** %0, align 8, !dbg !1459
  %_4.0 = bitcast i64** %_7 to {}*, !dbg !1460
; call std::rt::lang_start_internal
  %1 = call i64 @_ZN3std2rt19lang_start_internal17he4958117ec6901fdE({}* nonnull align 1 %_4.0, [3 x i64]* noalias readonly align 8 dereferenceable(24) bitcast ({ void (i64**)*, i64, i64, i32 (i64**)*, i32 (i64**)*, i32 (i64**)* }* @vtable.1 to [3 x i64]*), i64 %argc, i8** %argv), !dbg !1461
  br label %bb1, !dbg !1461

bb1:                                              ; preds = %start
  ret i64 %1, !dbg !1462
}

; std::panic::catch_unwind::<std::panic::AssertUnwindSafe<<std::thread::Builder>::spawn_unchecked<crossbeam_test::main::{closure#0}::{closure#0}, ()>::{closure#0}::{closure#0}>, ()>
; Function Attrs: nonlazybind uwtable
define internal { i8*, i8* } @_RINvNtCs2bNvlddUlXM_3std5panic12catch_unwindINtB2_16AssertUnwindSafeNCNCINvMNtB4_6threadNtB1c_7Builder15spawn_uncheckedNCNCNvCsgXJhLyQVBY8_14crossbeam_test4main00uE00EuEB1Z_(i64* nonnull %f) unnamed_addr #0 !dbg !1463 {
start:
  %f.dbg.spill = alloca i64*, align 8
  store i64* %f, i64** %f.dbg.spill, align 8
  call void @llvm.dbg.declare(metadata i64** %f.dbg.spill, metadata !1478, metadata !DIExpression()), !dbg !1482
; call std::panicking::try::<(), std::panic::AssertUnwindSafe<<std::thread::Builder>::spawn_unchecked<crossbeam_test::main::{closure#0}::{closure#0}, ()>::{closure#0}::{closure#0}>>
  %0 = call { i8*, i8* } @_RINvNtCs2bNvlddUlXM_3std9panicking3tryuINtNtB4_5panic16AssertUnwindSafeNCNCINvMNtB4_6threadNtB1f_7Builder15spawn_uncheckedNCNCNvCsgXJhLyQVBY8_14crossbeam_test4main00uE00EEB22_(i64* nonnull %f), !dbg !1483
  %1 = extractvalue { i8*, i8* } %0, 0, !dbg !1483
  %2 = extractvalue { i8*, i8* } %0, 1, !dbg !1483
  br label %bb1, !dbg !1483

bb1:                                              ; preds = %start
  %3 = insertvalue { i8*, i8* } undef, i8* %1, 0, !dbg !1484
  %4 = insertvalue { i8*, i8* } %3, i8* %2, 1, !dbg !1484
  ret { i8*, i8* } %4, !dbg !1484
}

; std::thread::spawn::<crossbeam_test::main::{closure#0}::{closure#0}, ()>
; Function Attrs: nonlazybind uwtable
define internal void @_RINvNtCs2bNvlddUlXM_3std6thread5spawnNCNCNvCsgXJhLyQVBY8_14crossbeam_test4main00uEBF_(%"std::thread::JoinHandle<()>"* noalias nocapture sret dereferenceable(32) %0, i64* nonnull %1) unnamed_addr #0 personality i32 (i32, i32, i64, %"unwind::libunwind::_Unwind_Exception"*, %"unwind::libunwind::_Unwind_Context"*)* @rust_eh_personality !dbg !1485 {
start:
  %2 = alloca { i8*, i32 }, align 8
  %_7 = alloca i8, align 1
  %_3 = alloca %"std::thread::Builder", align 8
  %_2 = alloca %"std::result::Result<std::thread::JoinHandle<()>, std::io::Error>", align 8
  %f = alloca i64*, align 8
  store i64* %1, i64** %f, align 8
  call void @llvm.dbg.declare(metadata i64** %f, metadata !1489, metadata !DIExpression()), !dbg !1490
  store i8 0, i8* %_7, align 1, !dbg !1491
  store i8 1, i8* %_7, align 1, !dbg !1491
; invoke std::thread::Builder::new
  invoke void @_ZN3std6thread7Builder3new17h18aec502241fcaefE(%"std::thread::Builder"* noalias nocapture sret dereferenceable(40) %_3)
          to label %bb1 unwind label %cleanup, !dbg !1491

bb1:                                              ; preds = %start
  store i8 0, i8* %_7, align 1, !dbg !1492
  %_4 = load i64*, i64** %f, align 8, !dbg !1492, !nonnull !4
; invoke <std::thread::Builder>::spawn::<crossbeam_test::main::{closure#0}::{closure#0}, ()>
  invoke void @_RINvMNtCs2bNvlddUlXM_3std6threadNtB3_7Builder5spawnNCNCNvCsgXJhLyQVBY8_14crossbeam_test4main00uEBT_(%"std::result::Result<std::thread::JoinHandle<()>, std::io::Error>"* noalias nocapture sret dereferenceable(40) %_2, %"std::thread::Builder"* noalias nocapture dereferenceable(40) %_3, i64* nonnull %_4)
          to label %bb2 unwind label %cleanup, !dbg !1491

bb2:                                              ; preds = %bb1
; invoke <core::result::Result<std::thread::JoinHandle<()>, std::io::error::Error>>::expect
  invoke void @_RNvMs3_NtCs3p84KrD9aKt_4core6resultINtB5_6ResultINtNtCs2bNvlddUlXM_3std6thread10JoinHandleuENtNtNtBP_2io5error5ErrorE6expectCsgXJhLyQVBY8_14crossbeam_test(%"std::thread::JoinHandle<()>"* noalias nocapture sret dereferenceable(32) %0, %"std::result::Result<std::thread::JoinHandle<()>, std::io::Error>"* noalias nocapture dereferenceable(40) %_2, [0 x i8]* noalias nonnull readonly align 1 bitcast (<{ [22 x i8] }>* @alloc65 to [0 x i8]*), i64 22, %"std::panic::Location"* noalias readonly align 8 dereferenceable(24) bitcast (<{ i8*, [16 x i8] }>* @alloc67 to %"std::panic::Location"*))
          to label %bb3 unwind label %cleanup, !dbg !1491

bb3:                                              ; preds = %bb2
  ret void, !dbg !1493

bb4:                                              ; preds = %bb5, %bb6
  %3 = bitcast { i8*, i32 }* %2 to i8**, !dbg !1494
  %4 = load i8*, i8** %3, align 8, !dbg !1494
  %5 = getelementptr inbounds { i8*, i32 }, { i8*, i32 }* %2, i32 0, i32 1, !dbg !1494
  %6 = load i32, i32* %5, align 8, !dbg !1494
  %7 = insertvalue { i8*, i32 } undef, i8* %4, 0, !dbg !1494
  %8 = insertvalue { i8*, i32 } %7, i32 %6, 1, !dbg !1494
  resume { i8*, i32 } %8, !dbg !1494

bb5:                                              ; preds = %bb6
; call core::ptr::drop_in_place::<crossbeam_test::main::{closure#0}::{closure#0}>
  call void @_RINvNtCs3p84KrD9aKt_4core3ptr13drop_in_placeNCNCNvCsgXJhLyQVBY8_14crossbeam_test4main00EBM_(i64** %f) #16, !dbg !1495
  br label %bb4, !dbg !1495

bb6:                                              ; preds = %cleanup
  %9 = load i8, i8* %_7, align 1, !dbg !1495, !range !638
  %10 = trunc i8 %9 to i1, !dbg !1495
  br i1 %10, label %bb5, label %bb4, !dbg !1495

cleanup:                                          ; preds = %bb2, %bb1, %start
  %11 = landingpad { i8*, i32 }
          cleanup
  %12 = extractvalue { i8*, i32 } %11, 0
  %13 = extractvalue { i8*, i32 } %11, 1
  %14 = getelementptr inbounds { i8*, i32 }, { i8*, i32 }* %2, i32 0, i32 0
  store i8* %12, i8** %14, align 8
  %15 = getelementptr inbounds { i8*, i32 }, { i8*, i32 }* %2, i32 0, i32 1
  store i32 %13, i32* %15, align 8
  br label %bb6
}

; std::panicking::try::<(), std::panic::AssertUnwindSafe<<std::thread::Builder>::spawn_unchecked<crossbeam_test::main::{closure#0}::{closure#0}, ()>::{closure#0}::{closure#0}>>
; Function Attrs: nonlazybind uwtable
define internal { i8*, i8* } @_RINvNtCs2bNvlddUlXM_3std9panicking3tryuINtNtB4_5panic16AssertUnwindSafeNCNCINvMNtB4_6threadNtB1f_7Builder15spawn_uncheckedNCNCNvCsgXJhLyQVBY8_14crossbeam_test4main00uE00EEB22_(i64* nonnull %f) unnamed_addr #0 !dbg !1496 {
start:
  %slot.dbg.spill.i = alloca { i8*, i64* }, align 8
  %value.dbg.spill.i = alloca i64*, align 8
  %0 = alloca i64*, align 8
  %1 = alloca i32, align 4
  %data_ptr.dbg.spill = alloca i8*, align 8
  %f.dbg.spill = alloca i64*, align 8
  %data = alloca %"std::panicking::r#try::Data<std::panic::AssertUnwindSafe<[closure@std::thread::Builder::spawn_unchecked<[closure@src/main.rs:15:17: 19:4], ()>::{closure#0}::{closure#0}]>, ()>", align 8
  %2 = alloca { i8*, i8* }, align 8
  store i64* %f, i64** %f.dbg.spill, align 8
  call void @llvm.dbg.declare(metadata i64** %f.dbg.spill, metadata !1500, metadata !DIExpression()), !dbg !1525
  call void @llvm.dbg.declare(metadata %"std::panicking::r#try::Data<std::panic::AssertUnwindSafe<[closure@std::thread::Builder::spawn_unchecked<[closure@src/main.rs:15:17: 19:4], ()>::{closure#0}::{closure#0}]>, ()>"* %data, metadata !1501, metadata !DIExpression()), !dbg !1526
  store i64* %f, i64** %value.dbg.spill.i, align 8
  call void @llvm.dbg.declare(metadata i64** %value.dbg.spill.i, metadata !1527, metadata !DIExpression()), !dbg !1533
  store i64* %f, i64** %0, align 8, !dbg !1535
  %3 = load i64*, i64** %0, align 8, !dbg !1536, !nonnull !4
  br label %bb1, !dbg !1537

bb1:                                              ; preds = %start
  %4 = bitcast %"std::panicking::r#try::Data<std::panic::AssertUnwindSafe<[closure@std::thread::Builder::spawn_unchecked<[closure@src/main.rs:15:17: 19:4], ()>::{closure#0}::{closure#0}]>, ()>"* %data to i64**, !dbg !1538
  store i64* %3, i64** %4, align 8, !dbg !1538
  %data_ptr = bitcast %"std::panicking::r#try::Data<std::panic::AssertUnwindSafe<[closure@std::thread::Builder::spawn_unchecked<[closure@src/main.rs:15:17: 19:4], ()>::{closure#0}::{closure#0}]>, ()>"* %data to i8*, !dbg !1539
  store i8* %data_ptr, i8** %data_ptr.dbg.spill, align 8, !dbg !1539
  call void @llvm.dbg.declare(metadata i8** %data_ptr.dbg.spill, metadata !1522, metadata !DIExpression()), !dbg !1540
  %5 = call i32 @__rust_try(void (i8*)* @_RINvNvNtCs2bNvlddUlXM_3std9panicking3try7do_callINtNtB6_5panic16AssertUnwindSafeNCNCINvMNtB6_6threadNtB1o_7Builder15spawn_uncheckedNCNCNvCsgXJhLyQVBY8_14crossbeam_test4main00uE00EuEB2b_, i8* %data_ptr, void (i8*, i8*)* @_RINvNvNtCs2bNvlddUlXM_3std9panicking3try8do_catchINtNtB6_5panic16AssertUnwindSafeNCNCINvMNtB6_6threadNtB1p_7Builder15spawn_uncheckedNCNCNvCsgXJhLyQVBY8_14crossbeam_test4main00uE00EuEB2c_), !dbg !1541
  store i32 %5, i32* %1, align 4, !dbg !1541
  %_9 = load i32, i32* %1, align 4, !dbg !1541
  br label %bb2, !dbg !1541

bb2:                                              ; preds = %bb1
  %6 = icmp eq i32 %_9, 0, !dbg !1542
  br i1 %6, label %bb3, label %bb4, !dbg !1542

bb3:                                              ; preds = %bb2
  call void @llvm.dbg.declare(metadata %"std::mem::ManuallyDrop<()>"* undef, metadata !1543, metadata !DIExpression()), !dbg !1548
  br label %bb5, !dbg !1550

bb4:                                              ; preds = %bb2
  %7 = bitcast %"std::panicking::r#try::Data<std::panic::AssertUnwindSafe<[closure@std::thread::Builder::spawn_unchecked<[closure@src/main.rs:15:17: 19:4], ()>::{closure#0}::{closure#0}]>, ()>"* %data to { i8*, i64* }*, !dbg !1551
  %8 = getelementptr inbounds { i8*, i64* }, { i8*, i64* }* %7, i32 0, i32 0, !dbg !1551
  %_17.0 = load i8*, i8** %8, align 8, !dbg !1551, !nonnull !4
  %9 = getelementptr inbounds { i8*, i64* }, { i8*, i64* }* %7, i32 0, i32 1, !dbg !1551
  %_17.1 = load i64*, i64** %9, align 8, !dbg !1551, !nonnull !4
  %10 = getelementptr inbounds { i8*, i64* }, { i8*, i64* }* %slot.dbg.spill.i, i32 0, i32 0
  store i8* %_17.0, i8** %10, align 8, !noalias !1552
  %11 = getelementptr inbounds { i8*, i64* }, { i8*, i64* }* %slot.dbg.spill.i, i32 0, i32 1
  store i64* %_17.1, i64** %11, align 8, !noalias !1552
  call void @llvm.dbg.declare(metadata { i8*, i64* }* %slot.dbg.spill.i, metadata !1556, metadata !DIExpression()), !dbg !1561
  %12 = bitcast i8* %_17.0 to {}*, !dbg !1563
  %13 = bitcast i64* %_17.1 to [3 x i64]*, !dbg !1563
  %14 = insertvalue { {}*, [3 x i64]* } undef, {}* %12, 0, !dbg !1564
  %15 = insertvalue { {}*, [3 x i64]* } %14, [3 x i64]* %13, 1, !dbg !1564
  %_16.0 = extractvalue { {}*, [3 x i64]* } %15, 0, !dbg !1565
  %_16.1 = extractvalue { {}*, [3 x i64]* } %15, 1, !dbg !1565
  br label %bb6, !dbg !1565

bb5:                                              ; preds = %bb3
  %16 = bitcast { i8*, i8* }* %2 to %"std::result::Result<(), std::boxed::Box<dyn std::any::Any + std::marker::Send>>::Ok"*, !dbg !1566
  %17 = bitcast %"std::result::Result<(), std::boxed::Box<dyn std::any::Any + std::marker::Send>>::Ok"* %16 to {}*, !dbg !1566
  %18 = bitcast { i8*, i8* }* %2 to {}**, !dbg !1566
  store {}* null, {}** %18, align 8, !dbg !1566
  br label %bb7, !dbg !1542

bb6:                                              ; preds = %bb4
  %19 = bitcast { i8*, i8* }* %2 to { {}*, [3 x i64]* }*, !dbg !1567
  %20 = getelementptr inbounds { {}*, [3 x i64]* }, { {}*, [3 x i64]* }* %19, i32 0, i32 0, !dbg !1567
  store {}* %_16.0, {}** %20, align 8, !dbg !1567
  %21 = getelementptr inbounds { {}*, [3 x i64]* }, { {}*, [3 x i64]* }* %19, i32 0, i32 1, !dbg !1567
  store [3 x i64]* %_16.1, [3 x i64]** %21, align 8, !dbg !1567
  br label %bb7, !dbg !1542

bb7:                                              ; preds = %bb5, %bb6
  %22 = getelementptr inbounds { i8*, i8* }, { i8*, i8* }* %2, i32 0, i32 0, !dbg !1568
  %23 = load i8*, i8** %22, align 8, !dbg !1568
  %24 = getelementptr inbounds { i8*, i8* }, { i8*, i8* }* %2, i32 0, i32 1, !dbg !1568
  %25 = load i8*, i8** %24, align 8, !dbg !1568
  %26 = insertvalue { i8*, i8* } undef, i8* %23, 0, !dbg !1568
  %27 = insertvalue { i8*, i8* } %26, i8* %25, 1, !dbg !1568
  ret { i8*, i8* } %27, !dbg !1568
}

; core::intrinsics::write_bytes::<std::thread::JoinHandle<()>>
; Function Attrs: inlinehint nonlazybind uwtable
define internal void @_RINvNtCs3p84KrD9aKt_4core10intrinsics11write_bytesINtNtCs2bNvlddUlXM_3std6thread10JoinHandleuEECsgXJhLyQVBY8_14crossbeam_test(%"std::thread::JoinHandle<()>"* %dst, i8 %val, i64 %count) unnamed_addr #1 !dbg !1569 {
start:
  %count.dbg.spill = alloca i64, align 8
  %val.dbg.spill = alloca i8, align 1
  %dst.dbg.spill = alloca %"std::thread::JoinHandle<()>"*, align 8
  store %"std::thread::JoinHandle<()>"* %dst, %"std::thread::JoinHandle<()>"** %dst.dbg.spill, align 8
  call void @llvm.dbg.declare(metadata %"std::thread::JoinHandle<()>"** %dst.dbg.spill, metadata !1576, metadata !DIExpression()), !dbg !1579
  store i8 %val, i8* %val.dbg.spill, align 1
  call void @llvm.dbg.declare(metadata i8* %val.dbg.spill, metadata !1577, metadata !DIExpression()), !dbg !1580
  store i64 %count, i64* %count.dbg.spill, align 8
  call void @llvm.dbg.declare(metadata i64* %count.dbg.spill, metadata !1578, metadata !DIExpression()), !dbg !1581
  %0 = mul i64 32, %count, !dbg !1582
  %1 = bitcast %"std::thread::JoinHandle<()>"* %dst to i8*, !dbg !1582
  call void @llvm.memset.p0i8.i64(i8* align 8 %1, i8 %val, i64 %0, i1 false), !dbg !1582
  br label %bb1, !dbg !1582

bb1:                                              ; preds = %start
  ret void, !dbg !1583
}

; core::intrinsics::copy_nonoverlapping::<core::option::Option<core::result::Result<(), alloc::boxed::Box<dyn core::any::Any + core::marker::Send>>>>
; Function Attrs: inlinehint nonlazybind uwtable
define internal void @_RINvNtCs3p84KrD9aKt_4core10intrinsics19copy_nonoverlappingINtNtB4_6option6OptionINtNtB4_6result6ResultuINtNtCs8RW06R9lH2S_5alloc5boxed3BoxDNtNtB4_3any3AnyNtNtB4_6marker4SendEL_EEEECsgXJhLyQVBY8_14crossbeam_test(%"std::option::Option<std::result::Result<(), std::boxed::Box<dyn std::any::Any + std::marker::Send>>>"* %src, %"std::option::Option<std::result::Result<(), std::boxed::Box<dyn std::any::Any + std::marker::Send>>>"* %dst, i64 %count) unnamed_addr #1 !dbg !1584 {
start:
  %count.dbg.spill = alloca i64, align 8
  %dst.dbg.spill = alloca %"std::option::Option<std::result::Result<(), std::boxed::Box<dyn std::any::Any + std::marker::Send>>>"*, align 8
  %src.dbg.spill = alloca %"std::option::Option<std::result::Result<(), std::boxed::Box<dyn std::any::Any + std::marker::Send>>>"*, align 8
  store %"std::option::Option<std::result::Result<(), std::boxed::Box<dyn std::any::Any + std::marker::Send>>>"* %src, %"std::option::Option<std::result::Result<(), std::boxed::Box<dyn std::any::Any + std::marker::Send>>>"** %src.dbg.spill, align 8
  call void @llvm.dbg.declare(metadata %"std::option::Option<std::result::Result<(), std::boxed::Box<dyn std::any::Any + std::marker::Send>>>"** %src.dbg.spill, metadata !1590, metadata !DIExpression()), !dbg !1593
  store %"std::option::Option<std::result::Result<(), std::boxed::Box<dyn std::any::Any + std::marker::Send>>>"* %dst, %"std::option::Option<std::result::Result<(), std::boxed::Box<dyn std::any::Any + std::marker::Send>>>"** %dst.dbg.spill, align 8
  call void @llvm.dbg.declare(metadata %"std::option::Option<std::result::Result<(), std::boxed::Box<dyn std::any::Any + std::marker::Send>>>"** %dst.dbg.spill, metadata !1591, metadata !DIExpression()), !dbg !1594
  store i64 %count, i64* %count.dbg.spill, align 8
  call void @llvm.dbg.declare(metadata i64* %count.dbg.spill, metadata !1592, metadata !DIExpression()), !dbg !1595
  %0 = mul i64 24, %count, !dbg !1596
  %1 = bitcast %"std::option::Option<std::result::Result<(), std::boxed::Box<dyn std::any::Any + std::marker::Send>>>"* %dst to i8*, !dbg !1596
  %2 = bitcast %"std::option::Option<std::result::Result<(), std::boxed::Box<dyn std::any::Any + std::marker::Send>>>"* %src to i8*, !dbg !1596
  call void @llvm.memcpy.p0i8.p0i8.i64(i8* align 8 %1, i8* align 8 %2, i64 %0, i1 false), !dbg !1596
  br label %bb1, !dbg !1596

bb1:                                              ; preds = %start
  ret void, !dbg !1597
}

; core::intrinsics::copy_nonoverlapping::<core::option::Option<std::sys::unix::thread::Thread>>
; Function Attrs: inlinehint nonlazybind uwtable
define internal void @_RINvNtCs3p84KrD9aKt_4core10intrinsics19copy_nonoverlappingINtNtB4_6option6OptionNtNtNtNtCs2bNvlddUlXM_3std3sys4unix6thread6ThreadEECsgXJhLyQVBY8_14crossbeam_test({ i64, i64 }* %src, { i64, i64 }* %dst, i64 %count) unnamed_addr #1 !dbg !1598 {
start:
  %count.dbg.spill = alloca i64, align 8
  %dst.dbg.spill = alloca { i64, i64 }*, align 8
  %src.dbg.spill = alloca { i64, i64 }*, align 8
  store { i64, i64 }* %src, { i64, i64 }** %src.dbg.spill, align 8
  call void @llvm.dbg.declare(metadata { i64, i64 }** %src.dbg.spill, metadata !1604, metadata !DIExpression()), !dbg !1609
  store { i64, i64 }* %dst, { i64, i64 }** %dst.dbg.spill, align 8
  call void @llvm.dbg.declare(metadata { i64, i64 }** %dst.dbg.spill, metadata !1605, metadata !DIExpression()), !dbg !1610
  store i64 %count, i64* %count.dbg.spill, align 8
  call void @llvm.dbg.declare(metadata i64* %count.dbg.spill, metadata !1606, metadata !DIExpression()), !dbg !1611
  %0 = mul i64 16, %count, !dbg !1612
  %1 = bitcast { i64, i64 }* %dst to i8*, !dbg !1612
  %2 = bitcast { i64, i64 }* %src to i8*, !dbg !1612
  call void @llvm.memcpy.p0i8.p0i8.i64(i8* align 8 %1, i8* align 8 %2, i64 %0, i1 false), !dbg !1612
  br label %bb1, !dbg !1612

bb1:                                              ; preds = %start
  ret void, !dbg !1613
}

; core::intrinsics::copy_nonoverlapping::<std::panic::AssertUnwindSafe<<std::thread::Builder>::spawn_unchecked<crossbeam_test::main::{closure#0}::{closure#0}, ()>::{closure#0}::{closure#0}>>
; Function Attrs: inlinehint nonlazybind uwtable
define internal void @_RINvNtCs3p84KrD9aKt_4core10intrinsics19copy_nonoverlappingINtNtCs2bNvlddUlXM_3std5panic16AssertUnwindSafeNCNCINvMNtBZ_6threadNtB1N_7Builder15spawn_uncheckedNCNCNvCsgXJhLyQVBY8_14crossbeam_test4main00uE00EEB2A_(i64** %src, i64** %dst, i64 %count) unnamed_addr #1 !dbg !1614 {
start:
  %count.dbg.spill = alloca i64, align 8
  %dst.dbg.spill = alloca i64**, align 8
  %src.dbg.spill = alloca i64**, align 8
  store i64** %src, i64*** %src.dbg.spill, align 8
  call void @llvm.dbg.declare(metadata i64*** %src.dbg.spill, metadata !1620, metadata !DIExpression()), !dbg !1623
  store i64** %dst, i64*** %dst.dbg.spill, align 8
  call void @llvm.dbg.declare(metadata i64*** %dst.dbg.spill, metadata !1621, metadata !DIExpression()), !dbg !1624
  store i64 %count, i64* %count.dbg.spill, align 8
  call void @llvm.dbg.declare(metadata i64* %count.dbg.spill, metadata !1622, metadata !DIExpression()), !dbg !1625
  %0 = mul i64 8, %count, !dbg !1626
  %1 = bitcast i64** %dst to i8*, !dbg !1626
  %2 = bitcast i64** %src to i8*, !dbg !1626
  call void @llvm.memcpy.p0i8.p0i8.i64(i8* align 8 %1, i8* align 8 %2, i64 %0, i1 false), !dbg !1626
  br label %bb1, !dbg !1626

bb1:                                              ; preds = %start
  ret void, !dbg !1627
}

; core::intrinsics::copy_nonoverlapping::<std::thread::JoinHandle<()>>
; Function Attrs: inlinehint nonlazybind uwtable
define internal void @_RINvNtCs3p84KrD9aKt_4core10intrinsics19copy_nonoverlappingINtNtCs2bNvlddUlXM_3std6thread10JoinHandleuEECsgXJhLyQVBY8_14crossbeam_test(%"std::thread::JoinHandle<()>"* %src, %"std::thread::JoinHandle<()>"* %dst, i64 %count) unnamed_addr #1 !dbg !1628 {
start:
  %count.dbg.spill = alloca i64, align 8
  %dst.dbg.spill = alloca %"std::thread::JoinHandle<()>"*, align 8
  %src.dbg.spill = alloca %"std::thread::JoinHandle<()>"*, align 8
  store %"std::thread::JoinHandle<()>"* %src, %"std::thread::JoinHandle<()>"** %src.dbg.spill, align 8
  call void @llvm.dbg.declare(metadata %"std::thread::JoinHandle<()>"** %src.dbg.spill, metadata !1632, metadata !DIExpression()), !dbg !1635
  store %"std::thread::JoinHandle<()>"* %dst, %"std::thread::JoinHandle<()>"** %dst.dbg.spill, align 8
  call void @llvm.dbg.declare(metadata %"std::thread::JoinHandle<()>"** %dst.dbg.spill, metadata !1633, metadata !DIExpression()), !dbg !1636
  store i64 %count, i64* %count.dbg.spill, align 8
  call void @llvm.dbg.declare(metadata i64* %count.dbg.spill, metadata !1634, metadata !DIExpression()), !dbg !1637
  %0 = mul i64 32, %count, !dbg !1638
  %1 = bitcast %"std::thread::JoinHandle<()>"* %dst to i8*, !dbg !1638
  %2 = bitcast %"std::thread::JoinHandle<()>"* %src to i8*, !dbg !1638
  call void @llvm.memcpy.p0i8.p0i8.i64(i8* align 8 %1, i8* align 8 %2, i64 %0, i1 false), !dbg !1638
  br label %bb1, !dbg !1638

bb1:                                              ; preds = %start
  ret void, !dbg !1639
}

; core::intrinsics::copy_nonoverlapping::<alloc::raw_vec::RawVec<crossbeam_queue::array_queue::Slot<i32>>>
; Function Attrs: inlinehint nonlazybind uwtable
define internal void @_RINvNtCs3p84KrD9aKt_4core10intrinsics19copy_nonoverlappingINtNtCs8RW06R9lH2S_5alloc7raw_vec6RawVecINtNtCsl4s60bRVA8d_15crossbeam_queue11array_queue4SlotlEEECsgXJhLyQVBY8_14crossbeam_test({ i64*, i64 }* %src, { i64*, i64 }* %dst, i64 %count) unnamed_addr #1 !dbg !1640 {
start:
  %count.dbg.spill = alloca i64, align 8
  %dst.dbg.spill = alloca { i64*, i64 }*, align 8
  %src.dbg.spill = alloca { i64*, i64 }*, align 8
  store { i64*, i64 }* %src, { i64*, i64 }** %src.dbg.spill, align 8
  call void @llvm.dbg.declare(metadata { i64*, i64 }** %src.dbg.spill, metadata !1646, metadata !DIExpression()), !dbg !1651
  store { i64*, i64 }* %dst, { i64*, i64 }** %dst.dbg.spill, align 8
  call void @llvm.dbg.declare(metadata { i64*, i64 }** %dst.dbg.spill, metadata !1647, metadata !DIExpression()), !dbg !1652
  store i64 %count, i64* %count.dbg.spill, align 8
  call void @llvm.dbg.declare(metadata i64* %count.dbg.spill, metadata !1648, metadata !DIExpression()), !dbg !1653
  %0 = mul i64 16, %count, !dbg !1654
  %1 = bitcast { i64*, i64 }* %dst to i8*, !dbg !1654
  %2 = bitcast { i64*, i64 }* %src to i8*, !dbg !1654
  call void @llvm.memcpy.p0i8.p0i8.i64(i8* align 8 %1, i8* align 8 %2, i64 %0, i1 false), !dbg !1654
  br label %bb1, !dbg !1654

bb1:                                              ; preds = %start
  ret void, !dbg !1655
}

; core::intrinsics::copy_nonoverlapping::<crossbeam_queue::array_queue::ArrayQueue<i32>>
; Function Attrs: inlinehint nonlazybind uwtable
define internal void @_RINvNtCs3p84KrD9aKt_4core10intrinsics19copy_nonoverlappingINtNtCsl4s60bRVA8d_15crossbeam_queue11array_queue10ArrayQueuelEECsgXJhLyQVBY8_14crossbeam_test(%"crossbeam::crossbeam_queue::ArrayQueue<i32>"* %src, %"crossbeam::crossbeam_queue::ArrayQueue<i32>"* %dst, i64 %count) unnamed_addr #1 !dbg !1656 {
start:
  %count.dbg.spill = alloca i64, align 8
  %dst.dbg.spill = alloca %"crossbeam::crossbeam_queue::ArrayQueue<i32>"*, align 8
  %src.dbg.spill = alloca %"crossbeam::crossbeam_queue::ArrayQueue<i32>"*, align 8
  store %"crossbeam::crossbeam_queue::ArrayQueue<i32>"* %src, %"crossbeam::crossbeam_queue::ArrayQueue<i32>"** %src.dbg.spill, align 8
  call void @llvm.dbg.declare(metadata %"crossbeam::crossbeam_queue::ArrayQueue<i32>"** %src.dbg.spill, metadata !1662, metadata !DIExpression()), !dbg !1665
  store %"crossbeam::crossbeam_queue::ArrayQueue<i32>"* %dst, %"crossbeam::crossbeam_queue::ArrayQueue<i32>"** %dst.dbg.spill, align 8
  call void @llvm.dbg.declare(metadata %"crossbeam::crossbeam_queue::ArrayQueue<i32>"** %dst.dbg.spill, metadata !1663, metadata !DIExpression()), !dbg !1666
  store i64 %count, i64* %count.dbg.spill, align 8
  call void @llvm.dbg.declare(metadata i64* %count.dbg.spill, metadata !1664, metadata !DIExpression()), !dbg !1667
  %0 = mul i64 384, %count, !dbg !1668
  %1 = bitcast %"crossbeam::crossbeam_queue::ArrayQueue<i32>"* %dst to i8*, !dbg !1668
  %2 = bitcast %"crossbeam::crossbeam_queue::ArrayQueue<i32>"* %src to i8*, !dbg !1668
  call void @llvm.memcpy.p0i8.p0i8.i64(i8* align 128 %1, i8* align 128 %2, i64 %0, i1 false), !dbg !1668
  br label %bb1, !dbg !1668

bb1:                                              ; preds = %start
  ret void, !dbg !1669
}

; core::intrinsics::copy_nonoverlapping::<core::mem::maybe_uninit::MaybeUninit<i32>>
; Function Attrs: inlinehint nonlazybind uwtable
define internal void @_RINvNtCs3p84KrD9aKt_4core10intrinsics19copy_nonoverlappingINtNtNtB4_3mem12maybe_uninit11MaybeUninitlEECsgXJhLyQVBY8_14crossbeam_test(i32* %src, i32* %dst, i64 %count) unnamed_addr #1 !dbg !1670 {
start:
  %count.dbg.spill = alloca i64, align 8
  %dst.dbg.spill = alloca i32*, align 8
  %src.dbg.spill = alloca i32*, align 8
  store i32* %src, i32** %src.dbg.spill, align 8
  call void @llvm.dbg.declare(metadata i32** %src.dbg.spill, metadata !1676, metadata !DIExpression()), !dbg !1679
  store i32* %dst, i32** %dst.dbg.spill, align 8
  call void @llvm.dbg.declare(metadata i32** %dst.dbg.spill, metadata !1677, metadata !DIExpression()), !dbg !1680
  store i64 %count, i64* %count.dbg.spill, align 8
  call void @llvm.dbg.declare(metadata i64* %count.dbg.spill, metadata !1678, metadata !DIExpression()), !dbg !1681
  %0 = mul i64 4, %count, !dbg !1682
  %1 = bitcast i32* %dst to i8*, !dbg !1682
  %2 = bitcast i32* %src to i8*, !dbg !1682
  call void @llvm.memcpy.p0i8.p0i8.i64(i8* align 4 %1, i8* align 4 %2, i64 %0, i1 false), !dbg !1682
  br label %bb1, !dbg !1682

bb1:                                              ; preds = %start
  ret void, !dbg !1683
}

; core::cmp::min_by::<u32, <u32 as core::cmp::Ord>::cmp>
; Function Attrs: inlinehint nonlazybind uwtable
define internal i32 @_RINvNtCs3p84KrD9aKt_4core3cmp6min_bymNvYmNtB2_3Ord3cmpECsgXJhLyQVBY8_14crossbeam_test(i32 %0, i32 %1) unnamed_addr #1 personality i32 (i32, i32, i64, %"unwind::libunwind::_Unwind_Exception"*, %"unwind::libunwind::_Unwind_Context"*)* @rust_eh_personality !dbg !1684 {
start:
  %2 = alloca { i8*, i32 }, align 8
  %compare.dbg.spill = alloca {}, align 1
  %_13 = alloca i8, align 1
  %_12 = alloca i8, align 1
  %_6 = alloca { i32*, i32* }, align 8
  %_4 = alloca i8, align 1
  %3 = alloca i32, align 4
  %v2 = alloca i32, align 4
  %v1 = alloca i32, align 4
  store i32 %0, i32* %v1, align 4
  store i32 %1, i32* %v2, align 4
  call void @llvm.dbg.declare(metadata i32* %v1, metadata !1693, metadata !DIExpression()), !dbg !1699
  call void @llvm.dbg.declare(metadata i32* %v2, metadata !1694, metadata !DIExpression()), !dbg !1700
  call void @llvm.dbg.declare(metadata {}* %compare.dbg.spill, metadata !1695, metadata !DIExpression()), !dbg !1701
  store i8 0, i8* %_13, align 1, !dbg !1702
  store i8 0, i8* %_12, align 1, !dbg !1702
  store i8 1, i8* %_13, align 1, !dbg !1702
  store i8 1, i8* %_12, align 1, !dbg !1702
  %4 = bitcast { i32*, i32* }* %_6 to i32**, !dbg !1702
  store i32* %v1, i32** %4, align 8, !dbg !1702
  %5 = getelementptr inbounds { i32*, i32* }, { i32*, i32* }* %_6, i32 0, i32 1, !dbg !1702
  store i32* %v2, i32** %5, align 8, !dbg !1702
  %6 = getelementptr inbounds { i32*, i32* }, { i32*, i32* }* %_6, i32 0, i32 0, !dbg !1702
  %7 = load i32*, i32** %6, align 8, !dbg !1702, !nonnull !4
  %8 = getelementptr inbounds { i32*, i32* }, { i32*, i32* }* %_6, i32 0, i32 1, !dbg !1702
  %9 = load i32*, i32** %8, align 8, !dbg !1702, !nonnull !4
; invoke <<u32 as core::cmp::Ord>::cmp as core::ops::function::FnOnce<(&u32, &u32)>>::call_once
  %10 = invoke i8 @_RNvYNvYmNtNtCs3p84KrD9aKt_4core3cmp3Ord3cmpINtNtNtBa_3ops8function6FnOnceTRmB1a_EE9call_onceCsgXJhLyQVBY8_14crossbeam_test(i32* noalias readonly align 4 dereferenceable(4) %7, i32* noalias readonly align 4 dereferenceable(4) %9)
          to label %bb1 unwind label %cleanup, !dbg !1702, !range !1703

bb1:                                              ; preds = %start
  store i8 %10, i8* %_4, align 1, !dbg !1702
  %11 = load i8, i8* %_4, align 1, !dbg !1704, !range !1703
  %_11 = sext i8 %11 to i64, !dbg !1704
  switch i64 %_11, label %bb3 [
    i64 -1, label %bb4
    i64 0, label %bb4
    i64 1, label %bb2
  ], !dbg !1704

bb2:                                              ; preds = %bb1
  store i8 0, i8* %_12, align 1, !dbg !1705
  %12 = load i32, i32* %v2, align 4, !dbg !1705
  store i32 %12, i32* %3, align 4, !dbg !1705
  br label %bb5, !dbg !1706

bb3:                                              ; preds = %bb1
  unreachable, !dbg !1702

bb4:                                              ; preds = %bb1, %bb1
  store i8 0, i8* %_13, align 1, !dbg !1707
  %13 = load i32, i32* %v1, align 4, !dbg !1707
  store i32 %13, i32* %3, align 4, !dbg !1707
  br label %bb5, !dbg !1706

bb5:                                              ; preds = %bb4, %bb2
  %14 = load i8, i8* %_12, align 1, !dbg !1708, !range !638
  %15 = trunc i8 %14 to i1, !dbg !1708
  br i1 %15, label %bb13, label %bb6, !dbg !1708

bb6:                                              ; preds = %bb13, %bb5
  %16 = load i8, i8* %_13, align 1, !dbg !1708, !range !638
  %17 = trunc i8 %16 to i1, !dbg !1708
  br i1 %17, label %bb14, label %bb7, !dbg !1708

bb7:                                              ; preds = %bb14, %bb6
  %18 = load i32, i32* %3, align 4, !dbg !1709
  ret i32 %18, !dbg !1709

bb8:                                              ; No predecessors!
  %19 = load i8, i8* %_13, align 1, !dbg !1708, !range !638
  %20 = trunc i8 %19 to i1, !dbg !1708
  br i1 %20, label %bb15, label %bb9, !dbg !1708

bb9:                                              ; preds = %bb15, %bb8
  br label %bb12, !dbg !1708

bb10:                                             ; preds = %cleanup
  br label %bb11, !dbg !1708

bb11:                                             ; preds = %bb10
  br label %bb12, !dbg !1708

bb12:                                             ; preds = %bb9, %bb11
  %21 = bitcast { i8*, i32 }* %2 to i8**, !dbg !1710
  %22 = load i8*, i8** %21, align 8, !dbg !1710
  %23 = getelementptr inbounds { i8*, i32 }, { i8*, i32 }* %2, i32 0, i32 1, !dbg !1710
  %24 = load i32, i32* %23, align 8, !dbg !1710
  %25 = insertvalue { i8*, i32 } undef, i8* %22, 0, !dbg !1710
  %26 = insertvalue { i8*, i32 } %25, i32 %24, 1, !dbg !1710
  resume { i8*, i32 } %26, !dbg !1710

bb13:                                             ; preds = %bb5
  br label %bb6, !dbg !1708

bb14:                                             ; preds = %bb6
  br label %bb7, !dbg !1708

bb15:                                             ; preds = %bb8
  br label %bb9, !dbg !1708

cleanup:                                          ; preds = %start
  %27 = landingpad { i8*, i32 }
          cleanup
  %28 = extractvalue { i8*, i32 } %27, 0
  %29 = extractvalue { i8*, i32 } %27, 1
  %30 = getelementptr inbounds { i8*, i32 }, { i8*, i32 }* %2, i32 0, i32 0
  store i8* %28, i8** %30, align 8
  %31 = getelementptr inbounds { i8*, i32 }, { i8*, i32 }* %2, i32 0, i32 1
  store i32 %29, i32* %31, align 8
  br label %bb10
}

; core::mem::size_of_val_raw::<alloc::sync::ArcInner<core::cell::UnsafeCell<core::option::Option<core::result::Result<(), alloc::boxed::Box<dyn core::any::Any + core::marker::Send>>>>>>
; Function Attrs: inlinehint nonlazybind uwtable
define internal i64 @_RINvNtCs3p84KrD9aKt_4core3mem15size_of_val_rawINtNtCs8RW06R9lH2S_5alloc4sync8ArcInnerINtNtB4_4cell10UnsafeCellINtNtB4_6option6OptionINtNtB4_6result6ResultuINtNtBN_5boxed3BoxDNtNtB4_3any3AnyNtNtB4_6marker4SendEL_EEEEEECsgXJhLyQVBY8_14crossbeam_test(%"alloc::sync::ArcInner<std::cell::UnsafeCell<std::option::Option<std::result::Result<(), std::boxed::Box<dyn std::any::Any + std::marker::Send>>>>>"* %val) unnamed_addr #1 !dbg !1711 {
start:
  %0 = alloca i64, align 8
  %val.dbg.spill = alloca %"alloc::sync::ArcInner<std::cell::UnsafeCell<std::option::Option<std::result::Result<(), std::boxed::Box<dyn std::any::Any + std::marker::Send>>>>>"*, align 8
  store %"alloc::sync::ArcInner<std::cell::UnsafeCell<std::option::Option<std::result::Result<(), std::boxed::Box<dyn std::any::Any + std::marker::Send>>>>>"* %val, %"alloc::sync::ArcInner<std::cell::UnsafeCell<std::option::Option<std::result::Result<(), std::boxed::Box<dyn std::any::Any + std::marker::Send>>>>>"** %val.dbg.spill, align 8
  call void @llvm.dbg.declare(metadata %"alloc::sync::ArcInner<std::cell::UnsafeCell<std::option::Option<std::result::Result<(), std::boxed::Box<dyn std::any::Any + std::marker::Send>>>>>"** %val.dbg.spill, metadata !1716, metadata !DIExpression()), !dbg !1717
  store i64 40, i64* %0, align 8, !dbg !1718
  %1 = load i64, i64* %0, align 8, !dbg !1718
  br label %bb1, !dbg !1718

bb1:                                              ; preds = %start
  ret i64 %1, !dbg !1719
}

; core::mem::size_of_val_raw::<alloc::sync::ArcInner<crossbeam_queue::array_queue::ArrayQueue<i32>>>
; Function Attrs: inlinehint nonlazybind uwtable
define internal i64 @_RINvNtCs3p84KrD9aKt_4core3mem15size_of_val_rawINtNtCs8RW06R9lH2S_5alloc4sync8ArcInnerINtNtCsl4s60bRVA8d_15crossbeam_queue11array_queue10ArrayQueuelEEECsgXJhLyQVBY8_14crossbeam_test(%"alloc::sync::ArcInner<crossbeam::crossbeam_queue::ArrayQueue<i32>>"* %val) unnamed_addr #1 !dbg !1720 {
start:
  %0 = alloca i64, align 8
  %val.dbg.spill = alloca %"alloc::sync::ArcInner<crossbeam::crossbeam_queue::ArrayQueue<i32>>"*, align 8
  store %"alloc::sync::ArcInner<crossbeam::crossbeam_queue::ArrayQueue<i32>>"* %val, %"alloc::sync::ArcInner<crossbeam::crossbeam_queue::ArrayQueue<i32>>"** %val.dbg.spill, align 8
  call void @llvm.dbg.declare(metadata %"alloc::sync::ArcInner<crossbeam::crossbeam_queue::ArrayQueue<i32>>"** %val.dbg.spill, metadata !1724, metadata !DIExpression()), !dbg !1725
  store i64 512, i64* %0, align 8, !dbg !1726
  %1 = load i64, i64* %0, align 8, !dbg !1726
  br label %bb1, !dbg !1726

bb1:                                              ; preds = %start
  ret i64 %1, !dbg !1727
}

; core::mem::size_of_val_raw::<alloc::sync::ArcInner<std::sync::mutex::Mutex<alloc::vec::Vec<u8>>>>
; Function Attrs: inlinehint nonlazybind uwtable
define internal i64 @_RINvNtCs3p84KrD9aKt_4core3mem15size_of_val_rawINtNtCs8RW06R9lH2S_5alloc4sync8ArcInnerINtNtNtCs2bNvlddUlXM_3std4sync5mutex5MutexINtNtBN_3vec3VechEEEECsgXJhLyQVBY8_14crossbeam_test(%"alloc::sync::ArcInner<std::sync::Mutex<std::vec::Vec<u8>>>"* %val) unnamed_addr #1 !dbg !1728 {
start:
  %0 = alloca i64, align 8
  %val.dbg.spill = alloca %"alloc::sync::ArcInner<std::sync::Mutex<std::vec::Vec<u8>>>"*, align 8
  store %"alloc::sync::ArcInner<std::sync::Mutex<std::vec::Vec<u8>>>"* %val, %"alloc::sync::ArcInner<std::sync::Mutex<std::vec::Vec<u8>>>"** %val.dbg.spill, align 8
  call void @llvm.dbg.declare(metadata %"alloc::sync::ArcInner<std::sync::Mutex<std::vec::Vec<u8>>>"** %val.dbg.spill, metadata !1732, metadata !DIExpression()), !dbg !1733
  store i64 56, i64* %0, align 8, !dbg !1734
  %1 = load i64, i64* %0, align 8, !dbg !1734
  br label %bb1, !dbg !1734

bb1:                                              ; preds = %start
  ret i64 %1, !dbg !1735
}

; core::mem::align_of_val_raw::<alloc::sync::ArcInner<core::cell::UnsafeCell<core::option::Option<core::result::Result<(), alloc::boxed::Box<dyn core::any::Any + core::marker::Send>>>>>>
; Function Attrs: inlinehint nonlazybind uwtable
define internal i64 @_RINvNtCs3p84KrD9aKt_4core3mem16align_of_val_rawINtNtCs8RW06R9lH2S_5alloc4sync8ArcInnerINtNtB4_4cell10UnsafeCellINtNtB4_6option6OptionINtNtB4_6result6ResultuINtNtBO_5boxed3BoxDNtNtB4_3any3AnyNtNtB4_6marker4SendEL_EEEEEECsgXJhLyQVBY8_14crossbeam_test(%"alloc::sync::ArcInner<std::cell::UnsafeCell<std::option::Option<std::result::Result<(), std::boxed::Box<dyn std::any::Any + std::marker::Send>>>>>"* %val) unnamed_addr #1 !dbg !1736 {
start:
  %0 = alloca i64, align 8
  %val.dbg.spill = alloca %"alloc::sync::ArcInner<std::cell::UnsafeCell<std::option::Option<std::result::Result<(), std::boxed::Box<dyn std::any::Any + std::marker::Send>>>>>"*, align 8
  store %"alloc::sync::ArcInner<std::cell::UnsafeCell<std::option::Option<std::result::Result<(), std::boxed::Box<dyn std::any::Any + std::marker::Send>>>>>"* %val, %"alloc::sync::ArcInner<std::cell::UnsafeCell<std::option::Option<std::result::Result<(), std::boxed::Box<dyn std::any::Any + std::marker::Send>>>>>"** %val.dbg.spill, align 8
  call void @llvm.dbg.declare(metadata %"alloc::sync::ArcInner<std::cell::UnsafeCell<std::option::Option<std::result::Result<(), std::boxed::Box<dyn std::any::Any + std::marker::Send>>>>>"** %val.dbg.spill, metadata !1738, metadata !DIExpression()), !dbg !1739
  store i64 8, i64* %0, align 8, !dbg !1740
  %1 = load i64, i64* %0, align 8, !dbg !1740
  br label %bb1, !dbg !1740

bb1:                                              ; preds = %start
  ret i64 %1, !dbg !1741
}

; core::mem::align_of_val_raw::<alloc::sync::ArcInner<crossbeam_queue::array_queue::ArrayQueue<i32>>>
; Function Attrs: inlinehint nonlazybind uwtable
define internal i64 @_RINvNtCs3p84KrD9aKt_4core3mem16align_of_val_rawINtNtCs8RW06R9lH2S_5alloc4sync8ArcInnerINtNtCsl4s60bRVA8d_15crossbeam_queue11array_queue10ArrayQueuelEEECsgXJhLyQVBY8_14crossbeam_test(%"alloc::sync::ArcInner<crossbeam::crossbeam_queue::ArrayQueue<i32>>"* %val) unnamed_addr #1 !dbg !1742 {
start:
  %0 = alloca i64, align 8
  %val.dbg.spill = alloca %"alloc::sync::ArcInner<crossbeam::crossbeam_queue::ArrayQueue<i32>>"*, align 8
  store %"alloc::sync::ArcInner<crossbeam::crossbeam_queue::ArrayQueue<i32>>"* %val, %"alloc::sync::ArcInner<crossbeam::crossbeam_queue::ArrayQueue<i32>>"** %val.dbg.spill, align 8
  call void @llvm.dbg.declare(metadata %"alloc::sync::ArcInner<crossbeam::crossbeam_queue::ArrayQueue<i32>>"** %val.dbg.spill, metadata !1744, metadata !DIExpression()), !dbg !1745
  store i64 128, i64* %0, align 8, !dbg !1746
  %1 = load i64, i64* %0, align 8, !dbg !1746
  br label %bb1, !dbg !1746

bb1:                                              ; preds = %start
  ret i64 %1, !dbg !1747
}

; core::mem::align_of_val_raw::<alloc::sync::ArcInner<std::sync::mutex::Mutex<alloc::vec::Vec<u8>>>>
; Function Attrs: inlinehint nonlazybind uwtable
define internal i64 @_RINvNtCs3p84KrD9aKt_4core3mem16align_of_val_rawINtNtCs8RW06R9lH2S_5alloc4sync8ArcInnerINtNtNtCs2bNvlddUlXM_3std4sync5mutex5MutexINtNtBO_3vec3VechEEEECsgXJhLyQVBY8_14crossbeam_test(%"alloc::sync::ArcInner<std::sync::Mutex<std::vec::Vec<u8>>>"* %val) unnamed_addr #1 !dbg !1748 {
start:
  %0 = alloca i64, align 8
  %val.dbg.spill = alloca %"alloc::sync::ArcInner<std::sync::Mutex<std::vec::Vec<u8>>>"*, align 8
  store %"alloc::sync::ArcInner<std::sync::Mutex<std::vec::Vec<u8>>>"* %val, %"alloc::sync::ArcInner<std::sync::Mutex<std::vec::Vec<u8>>>"** %val.dbg.spill, align 8
  call void @llvm.dbg.declare(metadata %"alloc::sync::ArcInner<std::sync::Mutex<std::vec::Vec<u8>>>"** %val.dbg.spill, metadata !1750, metadata !DIExpression()), !dbg !1751
  store i64 8, i64* %0, align 8, !dbg !1752
  %1 = load i64, i64* %0, align 8, !dbg !1752
  br label %bb1, !dbg !1752

bb1:                                              ; preds = %start
  ret i64 %1, !dbg !1753
}

; core::mem::drop::<alloc::sync::Weak<core::cell::UnsafeCell<core::option::Option<core::result::Result<(), alloc::boxed::Box<dyn core::any::Any + core::marker::Send>>>>>>
; Function Attrs: inlinehint nonlazybind uwtable
define internal void @_RINvNtCs3p84KrD9aKt_4core3mem4dropINtNtCs8RW06R9lH2S_5alloc4sync4WeakINtNtB4_4cell10UnsafeCellINtNtB4_6option6OptionINtNtB4_6result6ResultuINtNtBB_5boxed3BoxDNtNtB4_3any3AnyNtNtB4_6marker4SendEL_EEEEEECsgXJhLyQVBY8_14crossbeam_test(i64* nonnull %0) unnamed_addr #1 !dbg !1754 {
start:
  %_x = alloca i64*, align 8
  store i64* %0, i64** %_x, align 8
  call void @llvm.dbg.declare(metadata i64** %_x, metadata !1761, metadata !DIExpression()), !dbg !1764
; call core::ptr::drop_in_place::<alloc::sync::Weak<core::cell::UnsafeCell<core::option::Option<core::result::Result<(), alloc::boxed::Box<dyn core::any::Any + core::marker::Send>>>>>>
  call void @_RINvNtCs3p84KrD9aKt_4core3ptr13drop_in_placeINtNtCs8RW06R9lH2S_5alloc4sync4WeakINtNtB4_4cell10UnsafeCellINtNtB4_6option6OptionINtNtB4_6result6ResultuINtNtBL_5boxed3BoxDNtNtB4_3any3AnyNtNtB4_6marker4SendEL_EEEEEECsgXJhLyQVBY8_14crossbeam_test(i64** %_x), !dbg !1765
  br label %bb1, !dbg !1765

bb1:                                              ; preds = %start
  ret void, !dbg !1766
}

; core::mem::drop::<alloc::sync::Weak<crossbeam_queue::array_queue::ArrayQueue<i32>>>
; Function Attrs: inlinehint nonlazybind uwtable
define internal void @_RINvNtCs3p84KrD9aKt_4core3mem4dropINtNtCs8RW06R9lH2S_5alloc4sync4WeakINtNtCsl4s60bRVA8d_15crossbeam_queue11array_queue10ArrayQueuelEEECsgXJhLyQVBY8_14crossbeam_test(i64* nonnull %0) unnamed_addr #1 !dbg !1767 {
start:
  %_x = alloca i64*, align 8
  store i64* %0, i64** %_x, align 8
  call void @llvm.dbg.declare(metadata i64** %_x, metadata !1774, metadata !DIExpression()), !dbg !1777
; call core::ptr::drop_in_place::<alloc::sync::Weak<crossbeam_queue::array_queue::ArrayQueue<i32>>>
  call void @_RINvNtCs3p84KrD9aKt_4core3ptr13drop_in_placeINtNtCs8RW06R9lH2S_5alloc4sync4WeakINtNtCsl4s60bRVA8d_15crossbeam_queue11array_queue10ArrayQueuelEEECsgXJhLyQVBY8_14crossbeam_test(i64** %_x), !dbg !1778
  br label %bb1, !dbg !1778

bb1:                                              ; preds = %start
  ret void, !dbg !1779
}

; core::mem::drop::<alloc::sync::Weak<std::sync::mutex::Mutex<alloc::vec::Vec<u8>>>>
; Function Attrs: inlinehint nonlazybind uwtable
define internal void @_RINvNtCs3p84KrD9aKt_4core3mem4dropINtNtCs8RW06R9lH2S_5alloc4sync4WeakINtNtNtCs2bNvlddUlXM_3std4sync5mutex5MutexINtNtBB_3vec3VechEEEECsgXJhLyQVBY8_14crossbeam_test(i64* nonnull %0) unnamed_addr #1 !dbg !1780 {
start:
  %_x = alloca i64*, align 8
  store i64* %0, i64** %_x, align 8
  call void @llvm.dbg.declare(metadata i64** %_x, metadata !1787, metadata !DIExpression()), !dbg !1790
; call core::ptr::drop_in_place::<alloc::sync::Weak<std::sync::mutex::Mutex<alloc::vec::Vec<u8>>>>
  call void @_RINvNtCs3p84KrD9aKt_4core3ptr13drop_in_placeINtNtCs8RW06R9lH2S_5alloc4sync4WeakINtNtNtCs2bNvlddUlXM_3std4sync5mutex5MutexINtNtBL_3vec3VechEEEECsgXJhLyQVBY8_14crossbeam_test(i64** %_x), !dbg !1791
  br label %bb1, !dbg !1791

bb1:                                              ; preds = %start
  ret void, !dbg !1792
}

; core::mem::swap::<core::option::Option<core::result::Result<(), alloc::boxed::Box<dyn core::any::Any + core::marker::Send>>>>
; Function Attrs: inlinehint nonlazybind uwtable
define internal void @_RINvNtCs3p84KrD9aKt_4core3mem4swapINtNtB4_6option6OptionINtNtB4_6result6ResultuINtNtCs8RW06R9lH2S_5alloc5boxed3BoxDNtNtB4_3any3AnyNtNtB4_6marker4SendEL_EEEECsgXJhLyQVBY8_14crossbeam_test(%"std::option::Option<std::result::Result<(), std::boxed::Box<dyn std::any::Any + std::marker::Send>>>"* align 8 dereferenceable(24) %x, %"std::option::Option<std::result::Result<(), std::boxed::Box<dyn std::any::Any + std::marker::Send>>>"* align 8 dereferenceable(24) %y) unnamed_addr #1 !dbg !1793 {
start:
  %y.dbg.spill = alloca %"std::option::Option<std::result::Result<(), std::boxed::Box<dyn std::any::Any + std::marker::Send>>>"*, align 8
  %x.dbg.spill = alloca %"std::option::Option<std::result::Result<(), std::boxed::Box<dyn std::any::Any + std::marker::Send>>>"*, align 8
  store %"std::option::Option<std::result::Result<(), std::boxed::Box<dyn std::any::Any + std::marker::Send>>>"* %x, %"std::option::Option<std::result::Result<(), std::boxed::Box<dyn std::any::Any + std::marker::Send>>>"** %x.dbg.spill, align 8
  call void @llvm.dbg.declare(metadata %"std::option::Option<std::result::Result<(), std::boxed::Box<dyn std::any::Any + std::marker::Send>>>"** %x.dbg.spill, metadata !1798, metadata !DIExpression()), !dbg !1800
  store %"std::option::Option<std::result::Result<(), std::boxed::Box<dyn std::any::Any + std::marker::Send>>>"* %y, %"std::option::Option<std::result::Result<(), std::boxed::Box<dyn std::any::Any + std::marker::Send>>>"** %y.dbg.spill, align 8
  call void @llvm.dbg.declare(metadata %"std::option::Option<std::result::Result<(), std::boxed::Box<dyn std::any::Any + std::marker::Send>>>"** %y.dbg.spill, metadata !1799, metadata !DIExpression()), !dbg !1801
; call core::ptr::swap_nonoverlapping_one::<core::option::Option<core::result::Result<(), alloc::boxed::Box<dyn core::any::Any + core::marker::Send>>>>
  call void @_RINvNtCs3p84KrD9aKt_4core3ptr23swap_nonoverlapping_oneINtNtB4_6option6OptionINtNtB4_6result6ResultuINtNtCs8RW06R9lH2S_5alloc5boxed3BoxDNtNtB4_3any3AnyNtNtB4_6marker4SendEL_EEEECsgXJhLyQVBY8_14crossbeam_test(%"std::option::Option<std::result::Result<(), std::boxed::Box<dyn std::any::Any + std::marker::Send>>>"* %x, %"std::option::Option<std::result::Result<(), std::boxed::Box<dyn std::any::Any + std::marker::Send>>>"* %y), !dbg !1802
  br label %bb1, !dbg !1802

bb1:                                              ; preds = %start
  ret void, !dbg !1803
}

; core::mem::swap::<core::option::Option<std::sys::unix::thread::Thread>>
; Function Attrs: inlinehint nonlazybind uwtable
define internal void @_RINvNtCs3p84KrD9aKt_4core3mem4swapINtNtB4_6option6OptionNtNtNtNtCs2bNvlddUlXM_3std3sys4unix6thread6ThreadEECsgXJhLyQVBY8_14crossbeam_test({ i64, i64 }* align 8 dereferenceable(16) %x, { i64, i64 }* align 8 dereferenceable(16) %y) unnamed_addr #1 !dbg !1804 {
start:
  %y.dbg.spill = alloca { i64, i64 }*, align 8
  %x.dbg.spill = alloca { i64, i64 }*, align 8
  store { i64, i64 }* %x, { i64, i64 }** %x.dbg.spill, align 8
  call void @llvm.dbg.declare(metadata { i64, i64 }** %x.dbg.spill, metadata !1809, metadata !DIExpression()), !dbg !1811
  store { i64, i64 }* %y, { i64, i64 }** %y.dbg.spill, align 8
  call void @llvm.dbg.declare(metadata { i64, i64 }** %y.dbg.spill, metadata !1810, metadata !DIExpression()), !dbg !1812
; call core::ptr::swap_nonoverlapping_one::<core::option::Option<std::sys::unix::thread::Thread>>
  call void @_RINvNtCs3p84KrD9aKt_4core3ptr23swap_nonoverlapping_oneINtNtB4_6option6OptionNtNtNtNtCs2bNvlddUlXM_3std3sys4unix6thread6ThreadEECsgXJhLyQVBY8_14crossbeam_test({ i64, i64 }* %x, { i64, i64 }* %y), !dbg !1813
  br label %bb1, !dbg !1813

bb1:                                              ; preds = %start
  ret void, !dbg !1814
}

; core::mem::take::<core::option::Option<core::result::Result<(), alloc::boxed::Box<dyn core::any::Any + core::marker::Send>>>>
; Function Attrs: inlinehint nonlazybind uwtable
define internal void @_RINvNtCs3p84KrD9aKt_4core3mem4takeINtNtB4_6option6OptionINtNtB4_6result6ResultuINtNtCs8RW06R9lH2S_5alloc5boxed3BoxDNtNtB4_3any3AnyNtNtB4_6marker4SendEL_EEEECsgXJhLyQVBY8_14crossbeam_test(%"std::option::Option<std::result::Result<(), std::boxed::Box<dyn std::any::Any + std::marker::Send>>>"* noalias nocapture sret dereferenceable(24) %0, %"std::option::Option<std::result::Result<(), std::boxed::Box<dyn std::any::Any + std::marker::Send>>>"* align 8 dereferenceable(24) %dest) unnamed_addr #1 !dbg !1815 {
start:
  %dest.dbg.spill = alloca %"std::option::Option<std::result::Result<(), std::boxed::Box<dyn std::any::Any + std::marker::Send>>>"*, align 8
  %_3 = alloca %"std::option::Option<std::result::Result<(), std::boxed::Box<dyn std::any::Any + std::marker::Send>>>", align 8
  store %"std::option::Option<std::result::Result<(), std::boxed::Box<dyn std::any::Any + std::marker::Send>>>"* %dest, %"std::option::Option<std::result::Result<(), std::boxed::Box<dyn std::any::Any + std::marker::Send>>>"** %dest.dbg.spill, align 8
  call void @llvm.dbg.declare(metadata %"std::option::Option<std::result::Result<(), std::boxed::Box<dyn std::any::Any + std::marker::Send>>>"** %dest.dbg.spill, metadata !1819, metadata !DIExpression()), !dbg !1820
; call <core::option::Option<core::result::Result<(), alloc::boxed::Box<dyn core::any::Any + core::marker::Send>>> as core::default::Default>::default
  call void @_RNvXs9_NtCs3p84KrD9aKt_4core6optionINtB5_6OptionINtNtB7_6result6ResultuINtNtCs8RW06R9lH2S_5alloc5boxed3BoxDNtNtB7_3any3AnyNtNtB7_6marker4SendEL_EEENtNtB7_7default7Default7defaultCsgXJhLyQVBY8_14crossbeam_test(%"std::option::Option<std::result::Result<(), std::boxed::Box<dyn std::any::Any + std::marker::Send>>>"* noalias nocapture sret dereferenceable(24) %_3), !dbg !1821
  br label %bb1, !dbg !1821

bb1:                                              ; preds = %start
; call core::mem::replace::<core::option::Option<core::result::Result<(), alloc::boxed::Box<dyn core::any::Any + core::marker::Send>>>>
  call void @_RINvNtCs3p84KrD9aKt_4core3mem7replaceINtNtB4_6option6OptionINtNtB4_6result6ResultuINtNtCs8RW06R9lH2S_5alloc5boxed3BoxDNtNtB4_3any3AnyNtNtB4_6marker4SendEL_EEEECsgXJhLyQVBY8_14crossbeam_test(%"std::option::Option<std::result::Result<(), std::boxed::Box<dyn std::any::Any + std::marker::Send>>>"* noalias nocapture sret dereferenceable(24) %0, %"std::option::Option<std::result::Result<(), std::boxed::Box<dyn std::any::Any + std::marker::Send>>>"* align 8 dereferenceable(24) %dest, %"std::option::Option<std::result::Result<(), std::boxed::Box<dyn std::any::Any + std::marker::Send>>>"* noalias nocapture dereferenceable(24) %_3), !dbg !1822
  br label %bb2, !dbg !1822

bb2:                                              ; preds = %bb1
  ret void, !dbg !1823
}

; core::mem::take::<core::option::Option<std::sys::unix::thread::Thread>>
; Function Attrs: inlinehint nonlazybind uwtable
define internal { i64, i64 } @_RINvNtCs3p84KrD9aKt_4core3mem4takeINtNtB4_6option6OptionNtNtNtNtCs2bNvlddUlXM_3std3sys4unix6thread6ThreadEECsgXJhLyQVBY8_14crossbeam_test({ i64, i64 }* align 8 dereferenceable(16) %dest) unnamed_addr #1 !dbg !1824 {
start:
  %dest.dbg.spill = alloca { i64, i64 }*, align 8
  store { i64, i64 }* %dest, { i64, i64 }** %dest.dbg.spill, align 8
  call void @llvm.dbg.declare(metadata { i64, i64 }** %dest.dbg.spill, metadata !1828, metadata !DIExpression()), !dbg !1829
; call <core::option::Option<std::sys::unix::thread::Thread> as core::default::Default>::default
  %0 = call { i64, i64 } @_RNvXs9_NtCs3p84KrD9aKt_4core6optionINtB5_6OptionNtNtNtNtCs2bNvlddUlXM_3std3sys4unix6thread6ThreadENtNtB7_7default7Default7defaultCsgXJhLyQVBY8_14crossbeam_test(), !dbg !1830
  %_3.0 = extractvalue { i64, i64 } %0, 0, !dbg !1830
  %_3.1 = extractvalue { i64, i64 } %0, 1, !dbg !1830
  br label %bb1, !dbg !1830

bb1:                                              ; preds = %start
; call core::mem::replace::<core::option::Option<std::sys::unix::thread::Thread>>
  %1 = call { i64, i64 } @_RINvNtCs3p84KrD9aKt_4core3mem7replaceINtNtB4_6option6OptionNtNtNtNtCs2bNvlddUlXM_3std3sys4unix6thread6ThreadEECsgXJhLyQVBY8_14crossbeam_test({ i64, i64 }* align 8 dereferenceable(16) %dest, i64 %_3.0, i64 %_3.1), !dbg !1831
  %2 = extractvalue { i64, i64 } %1, 0, !dbg !1831
  %3 = extractvalue { i64, i64 } %1, 1, !dbg !1831
  br label %bb2, !dbg !1831

bb2:                                              ; preds = %bb1
  %4 = insertvalue { i64, i64 } undef, i64 %2, 0, !dbg !1832
  %5 = insertvalue { i64, i64 } %4, i64 %3, 1, !dbg !1832
  ret { i64, i64 } %5, !dbg !1832
}

; core::mem::forget::<alloc::sync::Arc<crossbeam_queue::array_queue::ArrayQueue<i32>>>
; Function Attrs: inlinehint nonlazybind uwtable
define internal void @_RINvNtCs3p84KrD9aKt_4core3mem6forgetINtNtCs8RW06R9lH2S_5alloc4sync3ArcINtNtCsl4s60bRVA8d_15crossbeam_queue11array_queue10ArrayQueuelEEECsgXJhLyQVBY8_14crossbeam_test(i64* nonnull %t) unnamed_addr #1 !dbg !1833 {
start:
  %value.dbg.spill.i = alloca i64*, align 8
  %0 = alloca i64*, align 8
  %t.dbg.spill = alloca i64*, align 8
  store i64* %t, i64** %t.dbg.spill, align 8
  call void @llvm.dbg.declare(metadata i64** %t.dbg.spill, metadata !1837, metadata !DIExpression()), !dbg !1840
  store i64* %t, i64** %value.dbg.spill.i, align 8
  call void @llvm.dbg.declare(metadata i64** %value.dbg.spill.i, metadata !1841, metadata !DIExpression()), !dbg !1849
  store i64* %t, i64** %0, align 8, !dbg !1851
  %1 = load i64*, i64** %0, align 8, !dbg !1852, !nonnull !4
  br label %bb1, !dbg !1853

bb1:                                              ; preds = %start
  ret void, !dbg !1854
}

; core::mem::forget::<alloc::boxed::Box<[crossbeam_queue::array_queue::Slot<i32>]>>
; Function Attrs: inlinehint nonlazybind uwtable
define internal void @_RINvNtCs3p84KrD9aKt_4core3mem6forgetINtNtCs8RW06R9lH2S_5alloc5boxed3BoxSINtNtCsl4s60bRVA8d_15crossbeam_queue11array_queue4SlotlEEECsgXJhLyQVBY8_14crossbeam_test([0 x %"crossbeam::crossbeam_queue::array_queue::Slot<i32>"]* noalias nonnull align 8 %t.0, i64 %t.1) unnamed_addr #1 !dbg !1855 {
start:
  %value.dbg.spill.i = alloca { [0 x %"crossbeam::crossbeam_queue::array_queue::Slot<i32>"]*, i64 }, align 8
  %0 = alloca { i64*, i64 }, align 8
  %t.dbg.spill = alloca { [0 x %"crossbeam::crossbeam_queue::array_queue::Slot<i32>"]*, i64 }, align 8
  %1 = getelementptr inbounds { [0 x %"crossbeam::crossbeam_queue::array_queue::Slot<i32>"]*, i64 }, { [0 x %"crossbeam::crossbeam_queue::array_queue::Slot<i32>"]*, i64 }* %t.dbg.spill, i32 0, i32 0
  store [0 x %"crossbeam::crossbeam_queue::array_queue::Slot<i32>"]* %t.0, [0 x %"crossbeam::crossbeam_queue::array_queue::Slot<i32>"]** %1, align 8
  %2 = getelementptr inbounds { [0 x %"crossbeam::crossbeam_queue::array_queue::Slot<i32>"]*, i64 }, { [0 x %"crossbeam::crossbeam_queue::array_queue::Slot<i32>"]*, i64 }* %t.dbg.spill, i32 0, i32 1
  store i64 %t.1, i64* %2, align 8
  call void @llvm.dbg.declare(metadata { [0 x %"crossbeam::crossbeam_queue::array_queue::Slot<i32>"]*, i64 }* %t.dbg.spill, metadata !1864, metadata !DIExpression()), !dbg !1867
  %3 = getelementptr inbounds { [0 x %"crossbeam::crossbeam_queue::array_queue::Slot<i32>"]*, i64 }, { [0 x %"crossbeam::crossbeam_queue::array_queue::Slot<i32>"]*, i64 }* %value.dbg.spill.i, i32 0, i32 0
  store [0 x %"crossbeam::crossbeam_queue::array_queue::Slot<i32>"]* %t.0, [0 x %"crossbeam::crossbeam_queue::array_queue::Slot<i32>"]** %3, align 8, !noalias !1868
  %4 = getelementptr inbounds { [0 x %"crossbeam::crossbeam_queue::array_queue::Slot<i32>"]*, i64 }, { [0 x %"crossbeam::crossbeam_queue::array_queue::Slot<i32>"]*, i64 }* %value.dbg.spill.i, i32 0, i32 1
  store i64 %t.1, i64* %4, align 8, !noalias !1868
  call void @llvm.dbg.declare(metadata { [0 x %"crossbeam::crossbeam_queue::array_queue::Slot<i32>"]*, i64 }* %value.dbg.spill.i, metadata !1871, metadata !DIExpression()), !dbg !1879
  %5 = bitcast { i64*, i64 }* %0 to { [0 x %"crossbeam::crossbeam_queue::array_queue::Slot<i32>"]*, i64 }*, !dbg !1881
  %6 = getelementptr inbounds { [0 x %"crossbeam::crossbeam_queue::array_queue::Slot<i32>"]*, i64 }, { [0 x %"crossbeam::crossbeam_queue::array_queue::Slot<i32>"]*, i64 }* %5, i32 0, i32 0, !dbg !1881
  store [0 x %"crossbeam::crossbeam_queue::array_queue::Slot<i32>"]* %t.0, [0 x %"crossbeam::crossbeam_queue::array_queue::Slot<i32>"]** %6, align 8, !dbg !1881, !noalias !1868
  %7 = getelementptr inbounds { [0 x %"crossbeam::crossbeam_queue::array_queue::Slot<i32>"]*, i64 }, { [0 x %"crossbeam::crossbeam_queue::array_queue::Slot<i32>"]*, i64 }* %5, i32 0, i32 1, !dbg !1881
  store i64 %t.1, i64* %7, align 8, !dbg !1881, !noalias !1868
  %8 = getelementptr inbounds { i64*, i64 }, { i64*, i64 }* %0, i32 0, i32 0, !dbg !1882
  %9 = load i64*, i64** %8, align 8, !dbg !1882, !noalias !1868, !nonnull !4
  %10 = getelementptr inbounds { i64*, i64 }, { i64*, i64 }* %0, i32 0, i32 1, !dbg !1882
  %11 = load i64, i64* %10, align 8, !dbg !1882, !noalias !1868
  %12 = insertvalue { i64*, i64 } undef, i64* %9, 0, !dbg !1882
  %13 = insertvalue { i64*, i64 } %12, i64 %11, 1, !dbg !1882
  %_2.0 = extractvalue { i64*, i64 } %13, 0, !dbg !1883
  %_2.1 = extractvalue { i64*, i64 } %13, 1, !dbg !1883
  br label %bb1, !dbg !1883

bb1:                                              ; preds = %start
  ret void, !dbg !1884
}

; core::mem::replace::<core::option::Option<core::result::Result<(), alloc::boxed::Box<dyn core::any::Any + core::marker::Send>>>>
; Function Attrs: inlinehint nonlazybind uwtable
define internal void @_RINvNtCs3p84KrD9aKt_4core3mem7replaceINtNtB4_6option6OptionINtNtB4_6result6ResultuINtNtCs8RW06R9lH2S_5alloc5boxed3BoxDNtNtB4_3any3AnyNtNtB4_6marker4SendEL_EEEECsgXJhLyQVBY8_14crossbeam_test(%"std::option::Option<std::result::Result<(), std::boxed::Box<dyn std::any::Any + std::marker::Send>>>"* noalias nocapture sret dereferenceable(24) %0, %"std::option::Option<std::result::Result<(), std::boxed::Box<dyn std::any::Any + std::marker::Send>>>"* align 8 dereferenceable(24) %dest, %"std::option::Option<std::result::Result<(), std::boxed::Box<dyn std::any::Any + std::marker::Send>>>"* noalias nocapture dereferenceable(24) %src) unnamed_addr #1 personality i32 (i32, i32, i64, %"unwind::libunwind::_Unwind_Exception"*, %"unwind::libunwind::_Unwind_Context"*)* @rust_eh_personality !dbg !1885 {
start:
  %1 = alloca { i8*, i32 }, align 8
  %dest.dbg.spill = alloca %"std::option::Option<std::result::Result<(), std::boxed::Box<dyn std::any::Any + std::marker::Send>>>"*, align 8
  store %"std::option::Option<std::result::Result<(), std::boxed::Box<dyn std::any::Any + std::marker::Send>>>"* %dest, %"std::option::Option<std::result::Result<(), std::boxed::Box<dyn std::any::Any + std::marker::Send>>>"** %dest.dbg.spill, align 8
  call void @llvm.dbg.declare(metadata %"std::option::Option<std::result::Result<(), std::boxed::Box<dyn std::any::Any + std::marker::Send>>>"** %dest.dbg.spill, metadata !1889, metadata !DIExpression()), !dbg !1891
  call void @llvm.dbg.declare(metadata %"std::option::Option<std::result::Result<(), std::boxed::Box<dyn std::any::Any + std::marker::Send>>>"* %src, metadata !1890, metadata !DIExpression()), !dbg !1892
; invoke core::mem::swap::<core::option::Option<core::result::Result<(), alloc::boxed::Box<dyn core::any::Any + core::marker::Send>>>>
  invoke void @_RINvNtCs3p84KrD9aKt_4core3mem4swapINtNtB4_6option6OptionINtNtB4_6result6ResultuINtNtCs8RW06R9lH2S_5alloc5boxed3BoxDNtNtB4_3any3AnyNtNtB4_6marker4SendEL_EEEECsgXJhLyQVBY8_14crossbeam_test(%"std::option::Option<std::result::Result<(), std::boxed::Box<dyn std::any::Any + std::marker::Send>>>"* align 8 dereferenceable(24) %dest, %"std::option::Option<std::result::Result<(), std::boxed::Box<dyn std::any::Any + std::marker::Send>>>"* align 8 dereferenceable(24) %src)
          to label %bb1 unwind label %cleanup, !dbg !1893

bb1:                                              ; preds = %start
  %2 = bitcast %"std::option::Option<std::result::Result<(), std::boxed::Box<dyn std::any::Any + std::marker::Send>>>"* %0 to i8*, !dbg !1894
  %3 = bitcast %"std::option::Option<std::result::Result<(), std::boxed::Box<dyn std::any::Any + std::marker::Send>>>"* %src to i8*, !dbg !1894
  call void @llvm.memcpy.p0i8.p0i8.i64(i8* align 8 %2, i8* align 8 %3, i64 24, i1 false), !dbg !1894
  ret void, !dbg !1895

bb2:                                              ; preds = %cleanup
; call core::ptr::drop_in_place::<core::option::Option<core::result::Result<(), alloc::boxed::Box<dyn core::any::Any + core::marker::Send>>>>
  call void @_RINvNtCs3p84KrD9aKt_4core3ptr13drop_in_placeINtNtB4_6option6OptionINtNtB4_6result6ResultuINtNtCs8RW06R9lH2S_5alloc5boxed3BoxDNtNtB4_3any3AnyNtNtB4_6marker4SendEL_EEEECsgXJhLyQVBY8_14crossbeam_test(%"std::option::Option<std::result::Result<(), std::boxed::Box<dyn std::any::Any + std::marker::Send>>>"* %src) #16, !dbg !1896
  br label %bb3, !dbg !1896

bb3:                                              ; preds = %bb2
  %4 = bitcast { i8*, i32 }* %1 to i8**, !dbg !1897
  %5 = load i8*, i8** %4, align 8, !dbg !1897
  %6 = getelementptr inbounds { i8*, i32 }, { i8*, i32 }* %1, i32 0, i32 1, !dbg !1897
  %7 = load i32, i32* %6, align 8, !dbg !1897
  %8 = insertvalue { i8*, i32 } undef, i8* %5, 0, !dbg !1897
  %9 = insertvalue { i8*, i32 } %8, i32 %7, 1, !dbg !1897
  resume { i8*, i32 } %9, !dbg !1897

cleanup:                                          ; preds = %start
  %10 = landingpad { i8*, i32 }
          cleanup
  %11 = extractvalue { i8*, i32 } %10, 0
  %12 = extractvalue { i8*, i32 } %10, 1
  %13 = getelementptr inbounds { i8*, i32 }, { i8*, i32 }* %1, i32 0, i32 0
  store i8* %11, i8** %13, align 8
  %14 = getelementptr inbounds { i8*, i32 }, { i8*, i32 }* %1, i32 0, i32 1
  store i32 %12, i32* %14, align 8
  br label %bb2
}

; core::mem::replace::<core::option::Option<std::sys::unix::thread::Thread>>
; Function Attrs: inlinehint nonlazybind uwtable
define internal { i64, i64 } @_RINvNtCs3p84KrD9aKt_4core3mem7replaceINtNtB4_6option6OptionNtNtNtNtCs2bNvlddUlXM_3std3sys4unix6thread6ThreadEECsgXJhLyQVBY8_14crossbeam_test({ i64, i64 }* align 8 dereferenceable(16) %dest, i64 %0, i64 %1) unnamed_addr #1 personality i32 (i32, i32, i64, %"unwind::libunwind::_Unwind_Exception"*, %"unwind::libunwind::_Unwind_Context"*)* @rust_eh_personality !dbg !1898 {
start:
  %2 = alloca { i8*, i32 }, align 8
  %dest.dbg.spill = alloca { i64, i64 }*, align 8
  %src = alloca { i64, i64 }, align 8
  %3 = getelementptr inbounds { i64, i64 }, { i64, i64 }* %src, i32 0, i32 0
  store i64 %0, i64* %3, align 8
  %4 = getelementptr inbounds { i64, i64 }, { i64, i64 }* %src, i32 0, i32 1
  store i64 %1, i64* %4, align 8
  store { i64, i64 }* %dest, { i64, i64 }** %dest.dbg.spill, align 8
  call void @llvm.dbg.declare(metadata { i64, i64 }** %dest.dbg.spill, metadata !1902, metadata !DIExpression()), !dbg !1904
  call void @llvm.dbg.declare(metadata { i64, i64 }* %src, metadata !1903, metadata !DIExpression()), !dbg !1905
; invoke core::mem::swap::<core::option::Option<std::sys::unix::thread::Thread>>
  invoke void @_RINvNtCs3p84KrD9aKt_4core3mem4swapINtNtB4_6option6OptionNtNtNtNtCs2bNvlddUlXM_3std3sys4unix6thread6ThreadEECsgXJhLyQVBY8_14crossbeam_test({ i64, i64 }* align 8 dereferenceable(16) %dest, { i64, i64 }* align 8 dereferenceable(16) %src)
          to label %bb1 unwind label %cleanup, !dbg !1906

bb1:                                              ; preds = %start
  %5 = getelementptr inbounds { i64, i64 }, { i64, i64 }* %src, i32 0, i32 0, !dbg !1907
  %6 = load i64, i64* %5, align 8, !dbg !1907, !range !581
  %7 = getelementptr inbounds { i64, i64 }, { i64, i64 }* %src, i32 0, i32 1, !dbg !1907
  %8 = load i64, i64* %7, align 8, !dbg !1907
  %9 = insertvalue { i64, i64 } undef, i64 %6, 0, !dbg !1908
  %10 = insertvalue { i64, i64 } %9, i64 %8, 1, !dbg !1908
  ret { i64, i64 } %10, !dbg !1908

bb2:                                              ; preds = %cleanup
; call core::ptr::drop_in_place::<core::option::Option<std::sys::unix::thread::Thread>>
  call void @_RINvNtCs3p84KrD9aKt_4core3ptr13drop_in_placeINtNtB4_6option6OptionNtNtNtNtCs2bNvlddUlXM_3std3sys4unix6thread6ThreadEECsgXJhLyQVBY8_14crossbeam_test({ i64, i64 }* %src) #16, !dbg !1909
  br label %bb3, !dbg !1909

bb3:                                              ; preds = %bb2
  %11 = bitcast { i8*, i32 }* %2 to i8**, !dbg !1910
  %12 = load i8*, i8** %11, align 8, !dbg !1910
  %13 = getelementptr inbounds { i8*, i32 }, { i8*, i32 }* %2, i32 0, i32 1, !dbg !1910
  %14 = load i32, i32* %13, align 8, !dbg !1910
  %15 = insertvalue { i8*, i32 } undef, i8* %12, 0, !dbg !1910
  %16 = insertvalue { i8*, i32 } %15, i32 %14, 1, !dbg !1910
  resume { i8*, i32 } %16, !dbg !1910

cleanup:                                          ; preds = %start
  %17 = landingpad { i8*, i32 }
          cleanup
  %18 = extractvalue { i8*, i32 } %17, 0
  %19 = extractvalue { i8*, i32 } %17, 1
  %20 = getelementptr inbounds { i8*, i32 }, { i8*, i32 }* %2, i32 0, i32 0
  store i8* %18, i8** %20, align 8
  %21 = getelementptr inbounds { i8*, i32 }, { i8*, i32 }* %2, i32 0, i32 1
  store i32 %19, i32* %21, align 8
  br label %bb2
}

; core::ptr::drop_in_place::<dyn std::error::Error + core::marker::Send + core::marker::Sync>
; Function Attrs: nonlazybind uwtable
define internal void @_RINvNtCs3p84KrD9aKt_4core3ptr13drop_in_placeDNtNtCs2bNvlddUlXM_3std5error5ErrorNtNtB4_6marker4SendNtB1h_4SyncEL_ECsgXJhLyQVBY8_14crossbeam_test({}* %_1.0, [3 x i64]* noalias readonly align 8 dereferenceable(24) %_1.1) unnamed_addr #0 !dbg !1911 {
start:
  %_1.dbg.spill = alloca { {}*, [3 x i64]* }, align 8
  %0 = alloca {}, align 1
  %1 = getelementptr inbounds { {}*, [3 x i64]* }, { {}*, [3 x i64]* }* %_1.dbg.spill, i32 0, i32 0
  store {}* %_1.0, {}** %1, align 8
  %2 = getelementptr inbounds { {}*, [3 x i64]* }, { {}*, [3 x i64]* }* %_1.dbg.spill, i32 0, i32 1
  store [3 x i64]* %_1.1, [3 x i64]** %2, align 8
  call void @llvm.dbg.declare(metadata { {}*, [3 x i64]* }* %_1.dbg.spill, metadata !1920, metadata !DIExpression()), !dbg !1921
  %3 = bitcast [3 x i64]* %_1.1 to void ({}*)**, !dbg !1921
  %4 = getelementptr inbounds void ({}*)*, void ({}*)** %3, i64 0, !dbg !1921
  %5 = load void ({}*)*, void ({}*)** %4, align 8, !dbg !1921, !invariant.load !4, !nonnull !4
  call void %5({}* %_1.0), !dbg !1921
  br label %bb1, !dbg !1921

bb1:                                              ; preds = %start
  ret void, !dbg !1921
}

; core::ptr::drop_in_place::<core::cell::UnsafeCell<core::option::Option<core::result::Result<(), alloc::boxed::Box<dyn core::any::Any + core::marker::Send>>>>>
; Function Attrs: nonlazybind uwtable
define internal void @_RINvNtCs3p84KrD9aKt_4core3ptr13drop_in_placeINtNtB4_4cell10UnsafeCellINtNtB4_6option6OptionINtNtB4_6result6ResultuINtNtCs8RW06R9lH2S_5alloc5boxed3BoxDNtNtB4_3any3AnyNtNtB4_6marker4SendEL_EEEEECsgXJhLyQVBY8_14crossbeam_test(%"std::cell::UnsafeCell<std::option::Option<std::result::Result<(), std::boxed::Box<dyn std::any::Any + std::marker::Send>>>>"* %_1) unnamed_addr #0 !dbg !1922 {
start:
  %_1.dbg.spill = alloca %"std::cell::UnsafeCell<std::option::Option<std::result::Result<(), std::boxed::Box<dyn std::any::Any + std::marker::Send>>>>"*, align 8
  %0 = alloca {}, align 1
  store %"std::cell::UnsafeCell<std::option::Option<std::result::Result<(), std::boxed::Box<dyn std::any::Any + std::marker::Send>>>>"* %_1, %"std::cell::UnsafeCell<std::option::Option<std::result::Result<(), std::boxed::Box<dyn std::any::Any + std::marker::Send>>>>"** %_1.dbg.spill, align 8
  call void @llvm.dbg.declare(metadata %"std::cell::UnsafeCell<std::option::Option<std::result::Result<(), std::boxed::Box<dyn std::any::Any + std::marker::Send>>>>"** %_1.dbg.spill, metadata !1927, metadata !DIExpression()), !dbg !1928
  %1 = bitcast %"std::cell::UnsafeCell<std::option::Option<std::result::Result<(), std::boxed::Box<dyn std::any::Any + std::marker::Send>>>>"* %_1 to %"std::option::Option<std::result::Result<(), std::boxed::Box<dyn std::any::Any + std::marker::Send>>>"*, !dbg !1928
; call core::ptr::drop_in_place::<core::option::Option<core::result::Result<(), alloc::boxed::Box<dyn core::any::Any + core::marker::Send>>>>
  call void @_RINvNtCs3p84KrD9aKt_4core3ptr13drop_in_placeINtNtB4_6option6OptionINtNtB4_6result6ResultuINtNtCs8RW06R9lH2S_5alloc5boxed3BoxDNtNtB4_3any3AnyNtNtB4_6marker4SendEL_EEEECsgXJhLyQVBY8_14crossbeam_test(%"std::option::Option<std::result::Result<(), std::boxed::Box<dyn std::any::Any + std::marker::Send>>>"* %1), !dbg !1928
  br label %bb1, !dbg !1928

bb1:                                              ; preds = %start
  ret void, !dbg !1928
}

; core::ptr::drop_in_place::<core::cell::UnsafeCell<alloc::vec::Vec<u8>>>
; Function Attrs: nonlazybind uwtable
define internal void @_RINvNtCs3p84KrD9aKt_4core3ptr13drop_in_placeINtNtB4_4cell10UnsafeCellINtNtCs8RW06R9lH2S_5alloc3vec3VechEEECsgXJhLyQVBY8_14crossbeam_test(%"std::cell::UnsafeCell<std::vec::Vec<u8>>"* %_1) unnamed_addr #0 !dbg !1929 {
start:
  %_1.dbg.spill = alloca %"std::cell::UnsafeCell<std::vec::Vec<u8>>"*, align 8
  %0 = alloca {}, align 1
  store %"std::cell::UnsafeCell<std::vec::Vec<u8>>"* %_1, %"std::cell::UnsafeCell<std::vec::Vec<u8>>"** %_1.dbg.spill, align 8
  call void @llvm.dbg.declare(metadata %"std::cell::UnsafeCell<std::vec::Vec<u8>>"** %_1.dbg.spill, metadata !1934, metadata !DIExpression()), !dbg !1937
  %1 = bitcast %"std::cell::UnsafeCell<std::vec::Vec<u8>>"* %_1 to %"std::vec::Vec<u8>"*, !dbg !1937
; call core::ptr::drop_in_place::<alloc::vec::Vec<u8>>
  call void @_RINvNtCs3p84KrD9aKt_4core3ptr13drop_in_placeINtNtCs8RW06R9lH2S_5alloc3vec3VechEECsgXJhLyQVBY8_14crossbeam_test(%"std::vec::Vec<u8>"* %1), !dbg !1937
  br label %bb1, !dbg !1937

bb1:                                              ; preds = %start
  ret void, !dbg !1937
}

; core::ptr::drop_in_place::<core::option::Option<core::result::Result<(), alloc::boxed::Box<dyn core::any::Any + core::marker::Send>>>>
; Function Attrs: nonlazybind uwtable
define internal void @_RINvNtCs3p84KrD9aKt_4core3ptr13drop_in_placeINtNtB4_6option6OptionINtNtB4_6result6ResultuINtNtCs8RW06R9lH2S_5alloc5boxed3BoxDNtNtB4_3any3AnyNtNtB4_6marker4SendEL_EEEECsgXJhLyQVBY8_14crossbeam_test(%"std::option::Option<std::result::Result<(), std::boxed::Box<dyn std::any::Any + std::marker::Send>>>"* %_1) unnamed_addr #0 !dbg !1938 {
start:
  %_1.dbg.spill = alloca %"std::option::Option<std::result::Result<(), std::boxed::Box<dyn std::any::Any + std::marker::Send>>>"*, align 8
  %0 = alloca {}, align 1
  store %"std::option::Option<std::result::Result<(), std::boxed::Box<dyn std::any::Any + std::marker::Send>>>"* %_1, %"std::option::Option<std::result::Result<(), std::boxed::Box<dyn std::any::Any + std::marker::Send>>>"** %_1.dbg.spill, align 8
  call void @llvm.dbg.declare(metadata %"std::option::Option<std::result::Result<(), std::boxed::Box<dyn std::any::Any + std::marker::Send>>>"** %_1.dbg.spill, metadata !1942, metadata !DIExpression()), !dbg !1943
  %1 = bitcast %"std::option::Option<std::result::Result<(), std::boxed::Box<dyn std::any::Any + std::marker::Send>>>"* %_1 to i64*, !dbg !1943
  %_2 = load i64, i64* %1, align 8, !dbg !1943, !range !581
  %2 = icmp eq i64 %_2, 0, !dbg !1943
  br i1 %2, label %bb1, label %bb2, !dbg !1943

bb1:                                              ; preds = %bb2, %start
  ret void, !dbg !1943

bb2:                                              ; preds = %start
  %3 = bitcast %"std::option::Option<std::result::Result<(), std::boxed::Box<dyn std::any::Any + std::marker::Send>>>"* %_1 to %"std::option::Option<std::result::Result<(), std::boxed::Box<dyn std::any::Any + std::marker::Send>>>::Some"*, !dbg !1943
  %4 = getelementptr inbounds %"std::option::Option<std::result::Result<(), std::boxed::Box<dyn std::any::Any + std::marker::Send>>>::Some", %"std::option::Option<std::result::Result<(), std::boxed::Box<dyn std::any::Any + std::marker::Send>>>::Some"* %3, i32 0, i32 1, !dbg !1943
; call core::ptr::drop_in_place::<core::result::Result<(), alloc::boxed::Box<dyn core::any::Any + core::marker::Send>>>
  call void @_RINvNtCs3p84KrD9aKt_4core3ptr13drop_in_placeINtNtB4_6result6ResultuINtNtCs8RW06R9lH2S_5alloc5boxed3BoxDNtNtB4_3any3AnyNtNtB4_6marker4SendEL_EEECsgXJhLyQVBY8_14crossbeam_test({ i8*, i8* }* %4), !dbg !1943
  br label %bb1, !dbg !1943
}

; core::ptr::drop_in_place::<core::option::Option<std::thread::JoinHandle<()>>>
; Function Attrs: nonlazybind uwtable
define internal void @_RINvNtCs3p84KrD9aKt_4core3ptr13drop_in_placeINtNtB4_6option6OptionINtNtCs2bNvlddUlXM_3std6thread10JoinHandleuEEECsgXJhLyQVBY8_14crossbeam_test(%"std::option::Option<std::thread::JoinHandle<()>>"* %_1) unnamed_addr #0 !dbg !1944 {
start:
