; ModuleID = '4fooy24zc3vq1ckv'
source_filename = "4fooy24zc3vq1ckv"
target datalayout = "e-m:e-p270:32:32-p271:32:32-p272:64:64-i64:64-f80:128-n8:16:32:64-S128"
target triple = "x86_64-unknown-linux-gnu"

%"[closure@std::thread::Builder::spawn_unchecked<[closure@src/main.rs:10:30: 13:3], ()>::{closure#0}]" = type { [0 x i8], %"[closure@src/main.rs:10:30: 13:3]", [0 x i8], i64*, [0 x i64], i64*, [0 x i64], i64*, [0 x i64] }
%"[closure@src/main.rs:10:30: 13:3]" = type {}
%"std::io::Error" = type { [0 x i64], %"std::io::error::Repr", [0 x i64] }
%"std::io::error::Repr" = type { [0 x i8], i8, [15 x i8] }
%"std::fmt::Formatter" = type { [0 x i64], { i64, i64 }, [0 x i64], { i64, i64 }, [0 x i64], { {}*, [3 x i64]* }, [0 x i32], i32, [0 x i32], i32, [0 x i8], i8, [7 x i8] }
%"std::result::Result<std::thread::JoinHandle<()>, std::io::Error>" = type { [0 x i64], i64, [4 x i64] }
%"std::thread::Builder" = type { [0 x i64], %"std::option::Option<std::string::String>", [0 x i64], { i64, i64 }, [0 x i64] }
%"std::option::Option<std::string::String>" = type { [0 x i64], {}*, [2 x i64] }
%"std::result::Result<std::sys::unix::thread::Thread, std::io::Error>" = type { [0 x i64], i64, [2 x i64] }
%"std::thread::JoinInner<()>" = type { [0 x i64], { i64, i64 }, [0 x i64], i64*, [0 x i64], i64*, [0 x i64] }
%"std::thread::JoinHandle<()>" = type { [0 x i64], %"std::thread::JoinInner<()>", [0 x i64] }
%"std::option::Option<std::result::Result<(), std::boxed::Box<dyn std::any::Any + std::marker::Send>>>" = type { [0 x i64], i64, [2 x i64] }
%"std::cell::UnsafeCell<std::option::Option<std::result::Result<(), std::boxed::Box<dyn std::any::Any + std::marker::Send>>>>" = type { [0 x i64], %"std::option::Option<std::result::Result<(), std::boxed::Box<dyn std::any::Any + std::marker::Send>>>", [0 x i64] }
%"std::result::Result<std::sys::unix::thread::Thread, std::io::Error>::Ok" = type { [1 x i64], i64, [0 x i64] }
%"std::option::Option<std::sys::unix::thread::Thread>::Some" = type { [1 x i64], i64, [0 x i64] }
%"std::result::Result<std::thread::JoinHandle<()>, std::io::Error>::Ok" = type { [1 x i64], %"std::thread::JoinHandle<()>", [0 x i64] }
%"std::result::Result<std::sys::unix::thread::Thread, std::io::Error>::Err" = type { [1 x i64], %"std::io::Error", [0 x i64] }
%"std::alloc::AllocError" = type {}
%"std::result::Result<std::ptr::NonNull<u8>, std::alloc::AllocError>::Err" = type { [0 x i8], %"std::alloc::AllocError", [0 x i8] }
%"std::option::Option<usize>::Some" = type { [1 x i64], i64, [0 x i64] }
%"alloc::sync::ArcInner<std::cell::UnsafeCell<std::option::Option<std::result::Result<(), std::boxed::Box<dyn std::any::Any + std::marker::Send>>>>>" = type { [0 x i64], %"std::sync::atomic::AtomicUsize", [0 x i64], %"std::sync::atomic::AtomicUsize", [0 x i64], %"std::cell::UnsafeCell<std::option::Option<std::result::Result<(), std::boxed::Box<dyn std::any::Any + std::marker::Send>>>>", [0 x i64] }
%"std::sync::atomic::AtomicUsize" = type { [0 x i64], i64, [0 x i64] }
%"alloc::sync::ArcInner<std::sync::Mutex<std::vec::Vec<u8>>>" = type { [0 x i64], %"std::sync::atomic::AtomicUsize", [0 x i64], %"std::sync::atomic::AtomicUsize", [0 x i64], %"std::sync::Mutex<std::vec::Vec<u8>>", [0 x i64] }
%"std::sync::Mutex<std::vec::Vec<u8>>" = type { [0 x i64], i64*, [0 x i8], %"std::sys_common::poison::Flag", [7 x i8], %"std::cell::UnsafeCell<std::vec::Vec<u8>>", [0 x i64] }
%"std::sys_common::poison::Flag" = type { [0 x i8], %"std::sync::atomic::AtomicBool", [0 x i8] }
%"std::sync::atomic::AtomicBool" = type { [0 x i8], i8, [0 x i8] }
%"std::cell::UnsafeCell<std::vec::Vec<u8>>" = type { [0 x i64], %"std::vec::Vec<u8>", [0 x i64] }
%"std::vec::Vec<u8>" = type { [0 x i64], { i8*, i64 }, [0 x i64], i64, [0 x i64] }
%"alloc::sync::ArcInner<std::thread::Inner>" = type { [0 x i64], %"std::sync::atomic::AtomicUsize", [0 x i64], %"std::sync::atomic::AtomicUsize", [0 x i64], %"std::thread::Inner", [0 x i64] }
%"std::thread::Inner" = type { [0 x i64], { i8*, i64 }, [0 x i64], i64, [0 x i32], %"std::sys_common::thread_parker::futex::Parker", [1 x i32] }
%"std::sys_common::thread_parker::futex::Parker" = type { [0 x i32], %"std::sync::atomic::AtomicI32", [0 x i32] }
%"std::sync::atomic::AtomicI32" = type { [0 x i32], i32, [0 x i32] }
%"std::io::error::Custom" = type { [0 x i64], { {}*, [3 x i64]* }, [0 x i8], i8, [7 x i8] }
%"std::sys::unix::mutex::Mutex" = type { [0 x i64], %"std::cell::UnsafeCell<libc::unix::linux_like::linux::pthread_mutex_t>", [0 x i64] }
%"std::cell::UnsafeCell<libc::unix::linux_like::linux::pthread_mutex_t>" = type { [0 x i64], %"libc::unix::linux_like::linux::pthread_mutex_t", [0 x i64] }
%"libc::unix::linux_like::linux::pthread_mutex_t" = type { [0 x i8], [40 x i8], [0 x i8] }
%"core::fmt::Opaque" = type {}
%"std::panic::AssertUnwindSafe<[closure@std::thread::Builder::spawn_unchecked<[closure@src/main.rs:10:30: 13:3], ()>::{closure#0}::{closure#0}]>" = type { [0 x i8], %"[closure@std::thread::Builder::spawn_unchecked<[closure@src/main.rs:10:30: 13:3], ()>::{closure#0}::{closure#0}]", [0 x i8] }
%"[closure@std::thread::Builder::spawn_unchecked<[closure@src/main.rs:10:30: 13:3], ()>::{closure#0}::{closure#0}]" = type { [0 x i8], %"[closure@src/main.rs:10:30: 13:3]", [0 x i8] }
%"std::panic::Location" = type { [0 x i64], { [0 x i8]*, i64 }, [0 x i32], i32, [0 x i32], i32, [0 x i32] }
%"std::mem::ManuallyDrop<std::panic::AssertUnwindSafe<[closure@std::thread::Builder::spawn_unchecked<[closure@src/main.rs:10:30: 13:3], ()>::{closure#0}::{closure#0}]>>" = type { [0 x i8], %"std::panic::AssertUnwindSafe<[closure@std::thread::Builder::spawn_unchecked<[closure@src/main.rs:10:30: 13:3], ()>::{closure#0}::{closure#0}]>", [0 x i8] }
%"std::mem::ManuallyDrop<()>" = type { [0 x i8], {}, [0 x i8] }
%"std::result::Result<(), std::boxed::Box<dyn std::any::Any + std::marker::Send>>::Ok" = type { [0 x i8], {}, [0 x i8] }
%"std::option::Option<std::result::Result<(), std::boxed::Box<dyn std::any::Any + std::marker::Send>>>::Some" = type { [1 x i64], { i8*, i8* }, [0 x i64] }
%"std::option::Option<std::string::String>::Some" = type { [0 x i64], %"std::string::String", [0 x i64] }
%"std::string::String" = type { [0 x i64], %"std::vec::Vec<u8>", [0 x i64] }
%"std::result::Result<std::thread::JoinHandle<()>, std::io::Error>::Err" = type { [1 x i64], %"std::io::Error", [0 x i64] }
%"std::io::error::Repr::Custom" = type { [1 x i64], %"std::io::error::Custom"*, [0 x i64] }
%"std::ptr::Repr<u8>" = type { [2 x i64] }
%"std::mem::MaybeUninit<std::panic::AssertUnwindSafe<[closure@std::thread::Builder::spawn_unchecked<[closure@src/main.rs:10:30: 13:3], ()>::{closure#0}::{closure#0}]>>" = type { [0 x i8] }
%"std::alloc::Global" = type {}
%"std::ffi::CStr" = type { [0 x i8], [0 x i8] }
%"std::option::Option<std::ops::Range<usize>>" = type { [0 x i64], i64, [2 x i64] }
%"std::fmt::Arguments" = type { [0 x i64], { [0 x { [0 x i8]*, i64 }]*, i64 }, [0 x i64], { i64*, i64 }, [0 x i64], { [0 x { i8*, i64* }]*, i64 }, [0 x i64] }
%"std::marker::PhantomData<u8>" = type {}
%"std::marker::PhantomData<alloc::sync::ArcInner<std::cell::UnsafeCell<std::option::Option<std::result::Result<(), std::boxed::Box<dyn std::any::Any + std::marker::Send>>>>>>" = type {}
%"std::marker::PhantomData<alloc::sync::ArcInner<std::sync::Mutex<std::vec::Vec<u8>>>>" = type {}
%"std::marker::PhantomData<alloc::sync::ArcInner<std::thread::Inner>>" = type {}
%"std::option::Option<(std::ptr::NonNull<u8>, std::alloc::Layout)>" = type { [0 x i64], {}*, [2 x i64] }
%"std::option::Option<(std::ptr::NonNull<u8>, std::alloc::Layout)>::Some" = type { [0 x i64], { [0 x i64], i8*, [0 x i64], { i64, i64 }, [0 x i64] }, [0 x i64] }
%"std::result::Result<std::ptr::NonNull<[u8]>, std::alloc::AllocError>::Err" = type { [0 x i8], %"std::alloc::AllocError", [0 x i8] }
%"unwind::libunwind::_Unwind_Exception" = type { [0 x i64], i64, [0 x i64], void (i32, %"unwind::libunwind::_Unwind_Exception"*)*, [0 x i64], [6 x i64], [0 x i64] }
%"unwind::libunwind::_Unwind_Context" = type { [0 x i8] }

@vtable.0 = private unnamed_addr constant { void (%"[closure@std::thread::Builder::spawn_unchecked<[closure@src/main.rs:10:30: 13:3], ()>::{closure#0}]"*)*, i64, i64, void (%"[closure@std::thread::Builder::spawn_unchecked<[closure@src/main.rs:10:30: 13:3], ()>::{closure#0}]"*)* } { void (%"[closure@std::thread::Builder::spawn_unchecked<[closure@src/main.rs:10:30: 13:3], ()>::{closure#0}]"*)* @_RINvNtCs3p84KrD9aKt_4core3ptr13drop_in_placeNCINvMNtCs2bNvlddUlXM_3std6threadNtBM_7Builder15spawn_uncheckedNCNvCsfnYCCstO0CH_18mapped_static_race4main0uE0EB1L_, i64 24, i64 8, void (%"[closure@std::thread::Builder::spawn_unchecked<[closure@src/main.rs:10:30: 13:3], ()>::{closure#0}]"*)* @_RNSNvYNCINvMNtCs2bNvlddUlXM_3std6threadNtBa_7Builder15spawn_uncheckedNCNvCsfnYCCstO0CH_18mapped_static_race4main0uE0INtNtNtCs3p84KrD9aKt_4core3ops8function6FnOnceuE9call_once6vtableB19_ }, align 8, !dbg !0
@vtable.1 = private unnamed_addr constant { void (i64**)*, i64, i64, i32 (i64**)*, i32 (i64**)*, i32 (i64**)* } { void (i64**)* @_RINvNtCs3p84KrD9aKt_4core3ptr13drop_in_placeNCINvNtCs2bNvlddUlXM_3std2rt10lang_startuE0ECsfnYCCstO0CH_18mapped_static_race, i64 8, i64 8, i32 (i64**)* @_RNCINvNtCs2bNvlddUlXM_3std2rt10lang_startuE0CsfnYCCstO0CH_18mapped_static_race, i32 (i64**)* @_RNCINvNtCs2bNvlddUlXM_3std2rt10lang_startuE0CsfnYCCstO0CH_18mapped_static_race, i32 (i64**)* @_RNSNvYNCINvNtCs2bNvlddUlXM_3std2rt10lang_startuE0INtNtNtCs3p84KrD9aKt_4core3ops8function6FnOnceuE9call_once6vtableCsfnYCCstO0CH_18mapped_static_race }, align 8, !dbg !286
@alloc45 = private unnamed_addr constant <{ [22 x i8] }> <{ [22 x i8] c"failed to spawn thread" }>, align 1
@alloc46 = private unnamed_addr constant <{ [77 x i8] }> <{ [77 x i8] c"/rustc/e38fb306b7f5e65cca34df2dab1f0db15e1defb4/library/std/src/thread/mod.rs" }>, align 1
@alloc47 = private unnamed_addr constant <{ i8*, [16 x i8] }> <{ i8* getelementptr inbounds (<{ [77 x i8] }>, <{ [77 x i8] }>* @alloc46, i32 0, i32 0, i32 0), [16 x i8] c"M\00\00\00\00\00\00\00l\02\00\00\1D\00\00\00" }>, align 8
@vtable.2 = private unnamed_addr constant { void (%"std::io::Error"*)*, i64, i64, i1 (%"std::io::Error"*, %"std::fmt::Formatter"*)* } { void (%"std::io::Error"*)* @_RINvNtCs3p84KrD9aKt_4core3ptr13drop_in_placeNtNtNtCs2bNvlddUlXM_3std2io5error5ErrorECsfnYCCstO0CH_18mapped_static_race, i64 16, i64 8, i1 (%"std::io::Error"*, %"std::fmt::Formatter"*)* @"_ZN58_$LT$std..io..error..Error$u20$as$u20$core..fmt..Debug$GT$3fmt17h9846d30f97792c23E" }, align 8, !dbg !297
@alloc20 = private unnamed_addr constant <{ [0 x i8] }> zeroinitializer, align 1
@alloc48 = private unnamed_addr constant <{ [41 x i8] }> <{ [41 x i8] c"there is no such thing as a relaxed fence" }>, align 1
@alloc49 = private unnamed_addr constant <{ [79 x i8] }> <{ [79 x i8] c"/rustc/e38fb306b7f5e65cca34df2dab1f0db15e1defb4/library/core/src/sync/atomic.rs" }>, align 1
@alloc50 = private unnamed_addr constant <{ i8*, [16 x i8] }> <{ i8* getelementptr inbounds (<{ [79 x i8] }>, <{ [79 x i8] }>* @alloc49, i32 0, i32 0, i32 0), [16 x i8] c"O\00\00\00\00\00\00\00n\0A\00\00\18\00\00\00" }>, align 8
@alloc3 = private unnamed_addr constant <{ [13 x i8] }> <{ [13 x i8] c"staticvar == " }>, align 1
@alloc5 = private unnamed_addr constant <{ [1 x i8] }> <{ [1 x i8] c"\0A" }>, align 1
@alloc4 = private unnamed_addr constant <{ i8*, [8 x i8], i8*, [8 x i8] }> <{ i8* getelementptr inbounds (<{ [13 x i8] }>, <{ [13 x i8] }>* @alloc3, i32 0, i32 0, i32 0), [8 x i8] c"\0D\00\00\00\00\00\00\00", i8* getelementptr inbounds (<{ [1 x i8] }>, <{ [1 x i8] }>* @alloc5, i32 0, i32 0, i32 0), [8 x i8] c"\01\00\00\00\00\00\00\00" }>, align 8
@_RNvNvCsfnYCCstO0CH_18mapped_static_race4main9staticvar = internal global <{ [1 x i8] }> <{ [1 x i8] c"\10" }>, align 1, !dbg !358
@__rustc_debug_gdb_scripts_section__ = linkonce_odr unnamed_addr constant [34 x i8] c"\01gdb_load_rust_pretty_printers.py\00", section ".debug_gdb_scripts", align 1

; <std::thread::Builder>::spawn_unchecked::<mapped_static_race::main::{closure#0}, ()>
; Function Attrs: nonlazybind uwtable
define internal void @_RINvMNtCs2bNvlddUlXM_3std6threadNtB3_7Builder15spawn_uncheckedNCNvCsfnYCCstO0CH_18mapped_static_race4main0uEB12_(%"std::result::Result<std::thread::JoinHandle<()>, std::io::Error>"* noalias nocapture sret dereferenceable(40) %0, %"std::thread::Builder"* noalias nocapture dereferenceable(40) %self) unnamed_addr #0 personality i32 (i32, i32, i64, %"unwind::libunwind::_Unwind_Exception"*, %"unwind::libunwind::_Unwind_Context"*)* @rust_eh_personality !dbg !389 {
start:
  %val.dbg.spill = alloca i64, align 8
  %1 = alloca i128, align 8
  %2 = alloca { {}*, [3 x i64]* }, align 8
  %stack_size.dbg.spill1 = alloca i64, align 8
  %3 = alloca { i8*, i32 }, align 8
  %stack_size.dbg.spill = alloca { i64, i64 }, align 8
  %f.dbg.spill = alloca %"[closure@src/main.rs:10:30: 13:3]", align 1
  %_46 = alloca i8, align 1
  %_45 = alloca i8, align 1
  %_44 = alloca i8, align 1
  %_43 = alloca i8, align 1
  %_42 = alloca i8, align 1
  %_40 = alloca i64*, align 8
  %_37 = alloca %"std::io::Error", align 8
  %_36 = alloca %"std::io::Error", align 8
  %err = alloca %"std::io::Error", align 8
  %_33 = alloca %"[closure@std::thread::Builder::spawn_unchecked<[closure@src/main.rs:10:30: 13:3], ()>::{closure#0}]", align 8
  %_27 = alloca %"std::result::Result<std::sys::unix::thread::Thread, std::io::Error>", align 8
  %_26 = alloca %"std::result::Result<std::sys::unix::thread::Thread, std::io::Error>", align 8
  %_24 = alloca { i64, i64 }, align 8
  %_23 = alloca %"std::thread::JoinInner<()>", align 8
  %_22 = alloca %"std::thread::JoinHandle<()>", align 8
  %main = alloca %"[closure@std::thread::Builder::spawn_unchecked<[closure@src/main.rs:10:30: 13:3], ()>::{closure#0}]", align 8
  %_18 = alloca i64*, align 8
  %_17 = alloca i64*, align 8
  %output_capture = alloca i64*, align 8
  %their_packet = alloca i64*, align 8
  %_13 = alloca %"std::option::Option<std::result::Result<(), std::boxed::Box<dyn std::any::Any + std::marker::Send>>>", align 8
  %_12 = alloca %"std::cell::UnsafeCell<std::option::Option<std::result::Result<(), std::boxed::Box<dyn std::any::Any + std::marker::Send>>>>", align 8
  %my_packet = alloca i64*, align 8
  %their_thread = alloca i64*, align 8
  %_8 = alloca %"std::option::Option<std::string::String>", align 8
  %my_thread = alloca i64*, align 8
  %name = alloca %"std::option::Option<std::string::String>", align 8
  call void @llvm.dbg.declare(metadata %"std::thread::Builder"* %self, metadata !467, metadata !DIExpression()), !dbg !492
  call void @llvm.dbg.declare(metadata %"[closure@src/main.rs:10:30: 13:3]"* %f.dbg.spill, metadata !468, metadata !DIExpression()), !dbg !493
  call void @llvm.dbg.declare(metadata %"std::option::Option<std::string::String>"* %name, metadata !469, metadata !DIExpression()), !dbg !494
  call void @llvm.dbg.declare(metadata i64** %my_thread, metadata !474, metadata !DIExpression()), !dbg !495
  call void @llvm.dbg.declare(metadata i64** %their_thread, metadata !476, metadata !DIExpression()), !dbg !496
  call void @llvm.dbg.declare(metadata i64** %my_packet, metadata !478, metadata !DIExpression()), !dbg !497
  call void @llvm.dbg.declare(metadata i64** %their_packet, metadata !480, metadata !DIExpression()), !dbg !498
  call void @llvm.dbg.declare(metadata i64** %output_capture, metadata !482, metadata !DIExpression()), !dbg !499
  call void @llvm.dbg.declare(metadata %"[closure@std::thread::Builder::spawn_unchecked<[closure@src/main.rs:10:30: 13:3], ()>::{closure#0}]"* %main, metadata !484, metadata !DIExpression()), !dbg !500
  call void @llvm.dbg.declare(metadata %"std::io::Error"* %err, metadata !486, metadata !DIExpression()), !dbg !501
  store i8 0, i8* %_42, align 1, !dbg !502
  store i8 0, i8* %_46, align 1, !dbg !502
  store i8 0, i8* %_44, align 1, !dbg !502
  store i8 0, i8* %_43, align 1, !dbg !502
  store i8 0, i8* %_45, align 1, !dbg !502
  store i8 1, i8* %_46, align 1, !dbg !502
  store i8 1, i8* %_45, align 1, !dbg !502
  %4 = bitcast %"std::thread::Builder"* %self to %"std::option::Option<std::string::String>"*, !dbg !502
  %5 = bitcast %"std::option::Option<std::string::String>"* %name to i8*, !dbg !502
  %6 = bitcast %"std::option::Option<std::string::String>"* %4 to i8*, !dbg !502
  call void @llvm.memcpy.p0i8.p0i8.i64(i8* align 8 %5, i8* align 8 %6, i64 24, i1 false), !dbg !502
  %7 = getelementptr inbounds %"std::thread::Builder", %"std::thread::Builder"* %self, i32 0, i32 3, !dbg !503
  %8 = getelementptr inbounds { i64, i64 }, { i64, i64 }* %7, i32 0, i32 0, !dbg !503
  %stack_size.0 = load i64, i64* %8, align 8, !dbg !503, !range !504
  %9 = getelementptr inbounds { i64, i64 }, { i64, i64 }* %7, i32 0, i32 1, !dbg !503
  %stack_size.1 = load i64, i64* %9, align 8, !dbg !503
  %10 = getelementptr inbounds { i64, i64 }, { i64, i64 }* %stack_size.dbg.spill, i32 0, i32 0, !dbg !503
  store i64 %stack_size.0, i64* %10, align 8, !dbg !503
  %11 = getelementptr inbounds { i64, i64 }, { i64, i64 }* %stack_size.dbg.spill, i32 0, i32 1, !dbg !503
  store i64 %stack_size.1, i64* %11, align 8, !dbg !503
  call void @llvm.dbg.declare(metadata { i64, i64 }* %stack_size.dbg.spill, metadata !471, metadata !DIExpression()), !dbg !505
; invoke <core::option::Option<usize>>::unwrap_or_else::<std::sys_common::thread::min_stack>
  %stack_size = invoke i64 @_RINvMNtCs3p84KrD9aKt_4core6optionINtB3_6OptionjE14unwrap_or_elseNvNtNtCs2bNvlddUlXM_3std10sys_common6thread9min_stackECsfnYCCstO0CH_18mapped_static_race(i64 %stack_size.0, i64 %stack_size.1)
          to label %bb1 unwind label %cleanup, !dbg !506

bb1:                                              ; preds = %start
  store i64 %stack_size, i64* %stack_size.dbg.spill1, align 8, !dbg !506
  call void @llvm.dbg.declare(metadata i64* %stack_size.dbg.spill1, metadata !472, metadata !DIExpression()), !dbg !507
  store i8 0, i8* %_45, align 1, !dbg !508
  %12 = bitcast %"std::option::Option<std::string::String>"* %_8 to i8*, !dbg !508
  %13 = bitcast %"std::option::Option<std::string::String>"* %name to i8*, !dbg !508
  call void @llvm.memcpy.p0i8.p0i8.i64(i8* align 8 %12, i8* align 8 %13, i64 24, i1 false), !dbg !508
; invoke std::thread::Thread::new
  %14 = invoke nonnull i64* @_ZN3std6thread6Thread3new17hb6f98794e2c3d412E(%"std::option::Option<std::string::String>"* noalias nocapture dereferenceable(24) %_8)
          to label %bb2 unwind label %cleanup, !dbg !509

bb2:                                              ; preds = %bb1
  store i64* %14, i64** %my_thread, align 8, !dbg !509
; invoke <std::thread::Thread as core::clone::Clone>::clone
  %15 = invoke nonnull i64* @_RNvXsk_NtCs2bNvlddUlXM_3std6threadNtB5_6ThreadNtNtCs3p84KrD9aKt_4core5clone5Clone5cloneCsfnYCCstO0CH_18mapped_static_race(i64** noalias readonly align 8 dereferenceable(8) %my_thread)
          to label %bb3 unwind label %cleanup2, !dbg !510

bb3:                                              ; preds = %bb2
  store i64* %15, i64** %their_thread, align 8, !dbg !510
  store i8 1, i8* %_44, align 1, !dbg !511
  %16 = bitcast %"std::option::Option<std::result::Result<(), std::boxed::Box<dyn std::any::Any + std::marker::Send>>>"* %_13 to i64*, !dbg !512
  store i64 0, i64* %16, align 8, !dbg !512
; invoke <core::cell::UnsafeCell<core::option::Option<core::result::Result<(), alloc::boxed::Box<dyn core::any::Any + core::marker::Send>>>>>::new
  invoke void @_RNvMsJ_NtCs3p84KrD9aKt_4core4cellINtB5_10UnsafeCellINtNtB7_6option6OptionINtNtB7_6result6ResultuINtNtCs8RW06R9lH2S_5alloc5boxed3BoxDNtNtB7_3any3AnyNtNtB7_6marker4SendEL_EEEE3newCsfnYCCstO0CH_18mapped_static_race(%"std::cell::UnsafeCell<std::option::Option<std::result::Result<(), std::boxed::Box<dyn std::any::Any + std::marker::Send>>>>"* noalias nocapture sret dereferenceable(24) %_12, %"std::option::Option<std::result::Result<(), std::boxed::Box<dyn std::any::Any + std::marker::Send>>>"* noalias nocapture dereferenceable(24) %_13)
          to label %bb4 unwind label %cleanup3, !dbg !513

bb4:                                              ; preds = %bb3
; invoke <alloc::sync::Arc<core::cell::UnsafeCell<core::option::Option<core::result::Result<(), alloc::boxed::Box<dyn core::any::Any + core::marker::Send>>>>>>::new
  %17 = invoke nonnull i64* @_RNvMsa_NtCs8RW06R9lH2S_5alloc4syncINtB5_3ArcINtNtCs3p84KrD9aKt_4core4cell10UnsafeCellINtNtBL_6option6OptionINtNtBL_6result6ResultuINtNtB7_5boxed3BoxDNtNtBL_3any3AnyNtNtBL_6marker4SendEL_EEEEE3newCsfnYCCstO0CH_18mapped_static_race(%"std::cell::UnsafeCell<std::option::Option<std::result::Result<(), std::boxed::Box<dyn std::any::Any + std::marker::Send>>>>"* noalias nocapture dereferenceable(24) %_12)
          to label %bb5 unwind label %cleanup3, !dbg !514

bb5:                                              ; preds = %bb4
  store i64* %17, i64** %my_packet, align 8, !dbg !514
; invoke <alloc::sync::Arc<core::cell::UnsafeCell<core::option::Option<core::result::Result<(), alloc::boxed::Box<dyn core::any::Any + core::marker::Send>>>>> as core::clone::Clone>::clone
  %18 = invoke nonnull i64* @_RNvXsk_NtCs8RW06R9lH2S_5alloc4syncINtB5_3ArcINtNtCs3p84KrD9aKt_4core4cell10UnsafeCellINtNtBL_6option6OptionINtNtBL_6result6ResultuINtNtB7_5boxed3BoxDNtNtBL_3any3AnyNtNtBL_6marker4SendEL_EEEEENtNtBL_5clone5Clone5cloneCsfnYCCstO0CH_18mapped_static_race(i64** noalias readonly align 8 dereferenceable(8) %my_packet)
          to label %bb6 unwind label %cleanup4, !dbg !515

bb6:                                              ; preds = %bb5
  store i64* %18, i64** %their_packet, align 8, !dbg !515
  store i8 1, i8* %_43, align 1, !dbg !516
  %19 = bitcast i64** %_17 to {}**, !dbg !517
  store {}* null, {}** %19, align 8, !dbg !517
  %20 = load i64*, i64** %_17, align 8, !dbg !518
; invoke std::io::stdio::set_output_capture
  %21 = invoke i64* @_ZN3std2io5stdio18set_output_capture17he178fcaf92baad96E(i64* %20)
          to label %bb7 unwind label %cleanup5, !dbg !518

bb7:                                              ; preds = %bb6
  store i64* %21, i64** %output_capture, align 8, !dbg !518
  store i8 1, i8* %_42, align 1, !dbg !519
; invoke <core::option::Option<alloc::sync::Arc<std::sync::mutex::Mutex<alloc::vec::Vec<u8>>>> as core::clone::Clone>::clone
  %_19 = invoke i64* @_RNvXs8_NtCs3p84KrD9aKt_4core6optionINtB5_6OptionINtNtCs8RW06R9lH2S_5alloc4sync3ArcINtNtNtCs2bNvlddUlXM_3std4sync5mutex5MutexINtNtBP_3vec3VechEEEENtNtB7_5clone5Clone5cloneCsfnYCCstO0CH_18mapped_static_race(i64** noalias readonly align 8 dereferenceable(8) %output_capture)
          to label %bb8 unwind label %cleanup6, !dbg !520

bb8:                                              ; preds = %bb7
; invoke std::io::stdio::set_output_capture
  %22 = invoke i64* @_ZN3std2io5stdio18set_output_capture17he178fcaf92baad96E(i64* %_19)
          to label %bb9 unwind label %cleanup6, !dbg !521

bb9:                                              ; preds = %bb8
  store i64* %22, i64** %_18, align 8, !dbg !521
; invoke core::ptr::drop_in_place::<core::option::Option<alloc::sync::Arc<std::sync::mutex::Mutex<alloc::vec::Vec<u8>>>>>
  invoke void @_RINvNtCs3p84KrD9aKt_4core3ptr13drop_in_placeINtNtB4_6option6OptionINtNtCs8RW06R9lH2S_5alloc4sync3ArcINtNtNtCs2bNvlddUlXM_3std4sync5mutex5MutexINtNtB17_3vec3VechEEEEECsfnYCCstO0CH_18mapped_static_race(i64** %_18)
          to label %bb10 unwind label %cleanup6, !dbg !522

bb10:                                             ; preds = %bb9
  store i8 0, i8* %_44, align 1, !dbg !523
  store i8 0, i8* %_42, align 1, !dbg !523
  store i8 0, i8* %_46, align 1, !dbg !523
  store i8 0, i8* %_43, align 1, !dbg !523
  %23 = bitcast %"[closure@std::thread::Builder::spawn_unchecked<[closure@src/main.rs:10:30: 13:3], ()>::{closure#0}]"* %main to i64**, !dbg !523
  %24 = load i64*, i64** %their_thread, align 8, !dbg !523, !nonnull !4
  store i64* %24, i64** %23, align 8, !dbg !523
  %25 = getelementptr inbounds %"[closure@std::thread::Builder::spawn_unchecked<[closure@src/main.rs:10:30: 13:3], ()>::{closure#0}]", %"[closure@std::thread::Builder::spawn_unchecked<[closure@src/main.rs:10:30: 13:3], ()>::{closure#0}]"* %main, i32 0, i32 5, !dbg !523
  %26 = load i64*, i64** %output_capture, align 8, !dbg !523
  store i64* %26, i64** %25, align 8, !dbg !523
  %27 = bitcast %"[closure@std::thread::Builder::spawn_unchecked<[closure@src/main.rs:10:30: 13:3], ()>::{closure#0}]"* %main to %"[closure@src/main.rs:10:30: 13:3]"*, !dbg !523
  %28 = getelementptr inbounds %"[closure@std::thread::Builder::spawn_unchecked<[closure@src/main.rs:10:30: 13:3], ()>::{closure#0}]", %"[closure@std::thread::Builder::spawn_unchecked<[closure@src/main.rs:10:30: 13:3], ()>::{closure#0}]"* %main, i32 0, i32 7, !dbg !523
  %29 = load i64*, i64** %their_packet, align 8, !dbg !523, !nonnull !4
  store i64* %29, i64** %28, align 8, !dbg !523
  %30 = bitcast %"[closure@std::thread::Builder::spawn_unchecked<[closure@src/main.rs:10:30: 13:3], ()>::{closure#0}]"* %_33 to i8*, !dbg !524
  %31 = bitcast %"[closure@std::thread::Builder::spawn_unchecked<[closure@src/main.rs:10:30: 13:3], ()>::{closure#0}]"* %main to i8*, !dbg !524
  call void @llvm.memcpy.p0i8.p0i8.i64(i8* align 8 %30, i8* align 8 %31, i64 24, i1 false), !dbg !524
  call void @llvm.dbg.declare(metadata %"[closure@std::thread::Builder::spawn_unchecked<[closure@src/main.rs:10:30: 13:3], ()>::{closure#0}]"* %_33, metadata !525, metadata !DIExpression()), !dbg !536
; invoke alloc::alloc::exchange_malloc
  %32 = invoke i8* @_RNvNtCs8RW06R9lH2S_5alloc5alloc15exchange_mallocCsfnYCCstO0CH_18mapped_static_race(i64 24, i64 8)
          to label %_RNvMNtCs8RW06R9lH2S_5alloc5boxedINtB2_3BoxNCINvMNtCs2bNvlddUlXM_3std6threadNtBK_7Builder15spawn_uncheckedNCNvCsfnYCCstO0CH_18mapped_static_race4main0uE0E3newB1J_.exit unwind label %cleanup6, !dbg !538

_RNvMNtCs8RW06R9lH2S_5alloc5boxedINtB2_3BoxNCINvMNtCs2bNvlddUlXM_3std6threadNtBK_7Builder15spawn_uncheckedNCNvCsfnYCCstO0CH_18mapped_static_race4main0uE0E3newB1J_.exit: ; preds = %bb10
  %33 = bitcast i8* %32 to %"[closure@std::thread::Builder::spawn_unchecked<[closure@src/main.rs:10:30: 13:3], ()>::{closure#0}]"*, !dbg !538
  %34 = bitcast %"[closure@std::thread::Builder::spawn_unchecked<[closure@src/main.rs:10:30: 13:3], ()>::{closure#0}]"* %_33 to i8*, !dbg !539
  call void @llvm.memcpy.p0i8.p0i8.i64(i8* align 8 %32, i8* align 8 %34, i64 24, i1 false), !dbg !539
  br label %bb11, !dbg !540

bb11:                                             ; preds = %_RNvMNtCs8RW06R9lH2S_5alloc5boxedINtB2_3BoxNCINvMNtCs2bNvlddUlXM_3std6threadNtBK_7Builder15spawn_uncheckedNCNvCsfnYCCstO0CH_18mapped_static_race4main0uE0E3newB1J_.exit
  %35 = bitcast %"[closure@std::thread::Builder::spawn_unchecked<[closure@src/main.rs:10:30: 13:3], ()>::{closure#0}]"* %33 to {}*, !dbg !541
  %36 = bitcast {}* %35 to i8*, !dbg !541
  %_31.0 = bitcast i8* %36 to {}*, !dbg !541
  %37 = getelementptr inbounds { {}*, [3 x i64]* }, { {}*, [3 x i64]* }* %2, i32 0, i32 0, !dbg !542
  store {}* %_31.0, {}** %37, align 8, !dbg !542
  %38 = getelementptr inbounds { {}*, [3 x i64]* }, { {}*, [3 x i64]* }* %2, i32 0, i32 1, !dbg !542
  store [3 x i64]* bitcast ({ void (%"[closure@std::thread::Builder::spawn_unchecked<[closure@src/main.rs:10:30: 13:3], ()>::{closure#0}]"*)*, i64, i64, void (%"[closure@std::thread::Builder::spawn_unchecked<[closure@src/main.rs:10:30: 13:3], ()>::{closure#0}]"*)* }* @vtable.0 to [3 x i64]*), [3 x i64]** %38, align 8, !dbg !542
  %39 = getelementptr inbounds { {}*, [3 x i64]* }, { {}*, [3 x i64]* }* %2, i32 0, i32 0, !dbg !542
  %_30.0 = load {}*, {}** %39, align 8, !dbg !542, !nonnull !4
  %40 = getelementptr inbounds { {}*, [3 x i64]* }, { {}*, [3 x i64]* }* %2, i32 0, i32 1, !dbg !542
  %_30.1 = load [3 x i64]*, [3 x i64]** %40, align 8, !dbg !542, !nonnull !4
  br label %bb12, !dbg !542

bb12:                                             ; preds = %bb11
; invoke std::sys::unix::thread::Thread::new
  invoke void @_ZN3std3sys4unix6thread6Thread3new17h3bc268f2aed68233E(%"std::result::Result<std::sys::unix::thread::Thread, std::io::Error>"* noalias nocapture sret dereferenceable(24) %_27, i64 %stack_size, {}* noalias nonnull align 1 %_30.0, [3 x i64]* noalias readonly align 8 dereferenceable(24) %_30.1)
          to label %bb13 unwind label %cleanup6, !dbg !543

bb13:                                             ; preds = %bb12
; invoke <core::result::Result<std::sys::unix::thread::Thread, std::io::error::Error> as core::ops::try::Try>::into_result
  invoke void @_RNvXsw_NtCs3p84KrD9aKt_4core6resultINtB5_6ResultNtNtNtNtCs2bNvlddUlXM_3std3sys4unix6thread6ThreadNtNtNtBS_2io5error5ErrorENtNtNtB7_3ops3try3Try11into_resultCsfnYCCstO0CH_18mapped_static_race(%"std::result::Result<std::sys::unix::thread::Thread, std::io::Error>"* noalias nocapture sret dereferenceable(24) %_26, %"std::result::Result<std::sys::unix::thread::Thread, std::io::Error>"* noalias nocapture dereferenceable(24) %_27)
          to label %bb14 unwind label %cleanup6, !dbg !543

bb14:                                             ; preds = %bb13
  %41 = bitcast %"std::result::Result<std::sys::unix::thread::Thread, std::io::Error>"* %_26 to i64*, !dbg !544
  %_34 = load i64, i64* %41, align 8, !dbg !544, !range !504
  switch i64 %_34, label %bb16 [
    i64 0, label %bb15
    i64 1, label %bb17
  ], !dbg !544

bb15:                                             ; preds = %bb14
  %42 = bitcast %"std::result::Result<std::sys::unix::thread::Thread, std::io::Error>"* %_26 to %"std::result::Result<std::sys::unix::thread::Thread, std::io::Error>::Ok"*, !dbg !543
  %43 = getelementptr inbounds %"std::result::Result<std::sys::unix::thread::Thread, std::io::Error>::Ok", %"std::result::Result<std::sys::unix::thread::Thread, std::io::Error>::Ok"* %42, i32 0, i32 1, !dbg !543
  %val = load i64, i64* %43, align 8, !dbg !543
  store i64 %val, i64* %val.dbg.spill, align 8, !dbg !543
  call void @llvm.dbg.declare(metadata i64* %val.dbg.spill, metadata !488, metadata !DIExpression()), !dbg !545
  %44 = bitcast { i64, i64 }* %_24 to %"std::option::Option<std::sys::unix::thread::Thread>::Some"*, !dbg !546
  %45 = getelementptr inbounds %"std::option::Option<std::sys::unix::thread::Thread>::Some", %"std::option::Option<std::sys::unix::thread::Thread>::Some"* %44, i32 0, i32 1, !dbg !546
  store i64 %val, i64* %45, align 8, !dbg !546
  %46 = bitcast { i64, i64 }* %_24 to i64*, !dbg !546
  store i64 1, i64* %46, align 8, !dbg !546
  %_39 = load i64*, i64** %my_thread, align 8, !dbg !547, !nonnull !4
  %_41 = load i64*, i64** %my_packet, align 8, !dbg !548, !nonnull !4
  store i64* %_41, i64** %_40, align 8, !dbg !549
  %47 = bitcast %"std::thread::JoinInner<()>"* %_23 to { i64, i64 }*, !dbg !550
  %48 = getelementptr inbounds { i64, i64 }, { i64, i64 }* %_24, i32 0, i32 0, !dbg !550
  %49 = load i64, i64* %48, align 8, !dbg !550, !range !504
  %50 = getelementptr inbounds { i64, i64 }, { i64, i64 }* %_24, i32 0, i32 1, !dbg !550
  %51 = load i64, i64* %50, align 8, !dbg !550
  %52 = getelementptr inbounds { i64, i64 }, { i64, i64 }* %47, i32 0, i32 0, !dbg !550
  store i64 %49, i64* %52, align 8, !dbg !550
  %53 = getelementptr inbounds { i64, i64 }, { i64, i64 }* %47, i32 0, i32 1, !dbg !550
  store i64 %51, i64* %53, align 8, !dbg !550
  %54 = getelementptr inbounds %"std::thread::JoinInner<()>", %"std::thread::JoinInner<()>"* %_23, i32 0, i32 3, !dbg !550
  store i64* %_39, i64** %54, align 8, !dbg !550
  %55 = getelementptr inbounds %"std::thread::JoinInner<()>", %"std::thread::JoinInner<()>"* %_23, i32 0, i32 5, !dbg !550
  %56 = load i64*, i64** %_40, align 8, !dbg !550, !nonnull !4
  store i64* %56, i64** %55, align 8, !dbg !550
  %57 = bitcast %"std::thread::JoinHandle<()>"* %_22 to %"std::thread::JoinInner<()>"*, !dbg !551
  %58 = bitcast %"std::thread::JoinInner<()>"* %57 to i8*, !dbg !551
  %59 = bitcast %"std::thread::JoinInner<()>"* %_23 to i8*, !dbg !551
  call void @llvm.memcpy.p0i8.p0i8.i64(i8* align 8 %58, i8* align 8 %59, i64 32, i1 false), !dbg !551
  %60 = bitcast %"std::result::Result<std::thread::JoinHandle<()>, std::io::Error>"* %0 to %"std::result::Result<std::thread::JoinHandle<()>, std::io::Error>::Ok"*, !dbg !552
  %61 = getelementptr inbounds %"std::result::Result<std::thread::JoinHandle<()>, std::io::Error>::Ok", %"std::result::Result<std::thread::JoinHandle<()>, std::io::Error>::Ok"* %60, i32 0, i32 1, !dbg !552
  %62 = bitcast %"std::thread::JoinHandle<()>"* %61 to i8*, !dbg !552
  %63 = bitcast %"std::thread::JoinHandle<()>"* %_22 to i8*, !dbg !552
  call void @llvm.memcpy.p0i8.p0i8.i64(i8* align 8 %62, i8* align 8 %63, i64 32, i1 false), !dbg !552
  %64 = bitcast %"std::result::Result<std::thread::JoinHandle<()>, std::io::Error>"* %0 to i64*, !dbg !552
  store i64 0, i64* %64, align 8, !dbg !552
  store i8 0, i8* %_42, align 1, !dbg !553
  store i8 0, i8* %_43, align 1, !dbg !554
  store i8 0, i8* %_44, align 1, !dbg !555
  store i8 0, i8* %_45, align 1, !dbg !556
  br label %bb22, !dbg !556

bb16:                                             ; preds = %bb14
  unreachable, !dbg !543

bb17:                                             ; preds = %bb14
  %65 = bitcast %"std::result::Result<std::sys::unix::thread::Thread, std::io::Error>"* %_26 to %"std::result::Result<std::sys::unix::thread::Thread, std::io::Error>::Err"*, !dbg !544
  %66 = getelementptr inbounds %"std::result::Result<std::sys::unix::thread::Thread, std::io::Error>::Err", %"std::result::Result<std::sys::unix::thread::Thread, std::io::Error>::Err"* %65, i32 0, i32 1, !dbg !544
  %67 = bitcast %"std::io::Error"* %err to i8*, !dbg !544
  %68 = bitcast %"std::io::Error"* %66 to i8*, !dbg !544
  call void @llvm.memcpy.p0i8.p0i8.i64(i8* align 8 %67, i8* align 8 %68, i64 16, i1 false), !dbg !544
  %69 = bitcast %"std::io::Error"* %_37 to i8*, !dbg !501
  %70 = bitcast %"std::io::Error"* %err to i8*, !dbg !501
  call void @llvm.memcpy.p0i8.p0i8.i64(i8* align 8 %69, i8* align 8 %70, i64 16, i1 false), !dbg !501
  %71 = bitcast %"std::io::Error"* %_37 to i128*, !dbg !501
  %72 = load i128, i128* %71, align 8, !dbg !501
; invoke <std::io::error::Error as core::convert::From<std::io::error::Error>>::from
  %73 = invoke i128 @_RNvXs2_NtCs3p84KrD9aKt_4core7convertNtNtNtCs2bNvlddUlXM_3std2io5error5ErrorINtB5_4FromBy_E4fromCsfnYCCstO0CH_18mapped_static_race(i128 %72)
          to label %bb18 unwind label %cleanup7, !dbg !501

bb18:                                             ; preds = %bb17
  store i128 %73, i128* %1, align 8, !dbg !501
  %74 = bitcast %"std::io::Error"* %_36 to i8*, !dbg !501
  %75 = bitcast i128* %1 to i8*, !dbg !501
  call void @llvm.memcpy.p0i8.p0i8.i64(i8* align 8 %74, i8* align 8 %75, i64 16, i1 false), !dbg !501
  %76 = bitcast %"std::io::Error"* %_36 to i128*, !dbg !557
  %77 = load i128, i128* %76, align 8, !dbg !557
; invoke <core::result::Result<std::thread::JoinHandle<()>, std::io::error::Error> as core::ops::try::Try>::from_error
  invoke void @_RNvXsw_NtCs3p84KrD9aKt_4core6resultINtB5_6ResultINtNtCs2bNvlddUlXM_3std6thread10JoinHandleuENtNtNtBP_2io5error5ErrorENtNtNtB7_3ops3try3Try10from_errorCsfnYCCstO0CH_18mapped_static_race(%"std::result::Result<std::thread::JoinHandle<()>, std::io::Error>"* noalias nocapture sret dereferenceable(40) %0, i128 %77)
          to label %bb19 unwind label %cleanup7, !dbg !557

bb19:                                             ; preds = %bb18
  store i8 0, i8* %_42, align 1, !dbg !553
  store i8 0, i8* %_43, align 1, !dbg !554
; invoke core::ptr::drop_in_place::<alloc::sync::Arc<core::cell::UnsafeCell<core::option::Option<core::result::Result<(), alloc::boxed::Box<dyn core::any::Any + core::marker::Send>>>>>>
  invoke void @_RINvNtCs3p84KrD9aKt_4core3ptr13drop_in_placeINtNtCs8RW06R9lH2S_5alloc4sync3ArcINtNtB4_4cell10UnsafeCellINtNtB4_6option6OptionINtNtB4_6result6ResultuINtNtBL_5boxed3BoxDNtNtB4_3any3AnyNtNtB4_6marker4SendEL_EEEEEECsfnYCCstO0CH_18mapped_static_race(i64** %my_packet)
          to label %bb20 unwind label %cleanup8, !dbg !558

bb20:                                             ; preds = %bb19
  store i8 0, i8* %_44, align 1, !dbg !555
; invoke core::ptr::drop_in_place::<std::thread::Thread>
  invoke void @_RINvNtCs3p84KrD9aKt_4core3ptr13drop_in_placeNtNtCs2bNvlddUlXM_3std6thread6ThreadECsfnYCCstO0CH_18mapped_static_race(i64** %my_thread)
          to label %bb21 unwind label %cleanup9, !dbg !559

bb21:                                             ; preds = %bb20
  store i8 0, i8* %_45, align 1, !dbg !556
  br label %bb22, !dbg !556

bb22:                                             ; preds = %bb15, %bb21
  ret void, !dbg !560

bb23:                                             ; preds = %cleanup8
; call core::ptr::drop_in_place::<std::thread::Thread>
  call void @_RINvNtCs3p84KrD9aKt_4core3ptr13drop_in_placeNtNtCs2bNvlddUlXM_3std6thread6ThreadECsfnYCCstO0CH_18mapped_static_race(i64** %my_thread) #12, !dbg !559
  br label %bb24, !dbg !559

bb24:                                             ; preds = %cleanup9, %bb23
; call core::ptr::drop_in_place::<core::result::Result<std::thread::JoinHandle<()>, std::io::error::Error>>
  call void @_RINvNtCs3p84KrD9aKt_4core3ptr13drop_in_placeINtNtB4_6result6ResultINtNtCs2bNvlddUlXM_3std6thread10JoinHandleuENtNtNtB17_2io5error5ErrorEECsfnYCCstO0CH_18mapped_static_race(%"std::result::Result<std::thread::JoinHandle<()>, std::io::Error>"* %0) #12, !dbg !556
  br label %bb30, !dbg !556

bb25:                                             ; preds = %cleanup7
; call core::ptr::drop_in_place::<alloc::sync::Arc<core::cell::UnsafeCell<core::option::Option<core::result::Result<(), alloc::boxed::Box<dyn core::any::Any + core::marker::Send>>>>>>
  call void @_RINvNtCs3p84KrD9aKt_4core3ptr13drop_in_placeINtNtCs8RW06R9lH2S_5alloc4sync3ArcINtNtB4_4cell10UnsafeCellINtNtB4_6option6OptionINtNtB4_6result6ResultuINtNtBL_5boxed3BoxDNtNtB4_3any3AnyNtNtB4_6marker4SendEL_EEEEEECsfnYCCstO0CH_18mapped_static_race(i64** %my_packet) #12, !dbg !558
  br label %bb26, !dbg !558

bb26:                                             ; preds = %bb25
; call core::ptr::drop_in_place::<std::thread::Thread>
  call void @_RINvNtCs3p84KrD9aKt_4core3ptr13drop_in_placeNtNtCs2bNvlddUlXM_3std6thread6ThreadECsfnYCCstO0CH_18mapped_static_race(i64** %my_thread) #12, !dbg !559
  br label %bb31, !dbg !559

bb27:                                             ; preds = %bb34, %bb35, %cleanup4
; call core::ptr::drop_in_place::<alloc::sync::Arc<core::cell::UnsafeCell<core::option::Option<core::result::Result<(), alloc::boxed::Box<dyn core::any::Any + core::marker::Send>>>>>>
  call void @_RINvNtCs3p84KrD9aKt_4core3ptr13drop_in_placeINtNtCs8RW06R9lH2S_5alloc4sync3ArcINtNtB4_4cell10UnsafeCellINtNtB4_6option6OptionINtNtB4_6result6ResultuINtNtBL_5boxed3BoxDNtNtB4_3any3AnyNtNtB4_6marker4SendEL_EEEEEECsfnYCCstO0CH_18mapped_static_race(i64** %my_packet) #12, !dbg !558
  br label %bb37, !dbg !558

bb28:                                             ; preds = %bb36, %bb37, %cleanup2
; call core::ptr::drop_in_place::<std::thread::Thread>
  call void @_RINvNtCs3p84KrD9aKt_4core3ptr13drop_in_placeNtNtCs2bNvlddUlXM_3std6thread6ThreadECsfnYCCstO0CH_18mapped_static_race(i64** %my_thread) #12, !dbg !559
  br label %bb39, !dbg !559

bb29:                                             ; preds = %bb31, %bb38, %bb39
  %78 = load i8, i8* %_46, align 1, !dbg !556, !range !561
  %79 = trunc i8 %78 to i1, !dbg !556
  br i1 %79, label %bb40, label %bb30, !dbg !556

bb30:                                             ; preds = %bb24, %bb40, %bb29
  %80 = bitcast { i8*, i32 }* %3 to i8**, !dbg !562
  %81 = load i8*, i8** %80, align 8, !dbg !562
  %82 = getelementptr inbounds { i8*, i32 }, { i8*, i32 }* %3, i32 0, i32 1, !dbg !562
  %83 = load i32, i32* %82, align 8, !dbg !562
  %84 = insertvalue { i8*, i32 } undef, i8* %81, 0, !dbg !562
  %85 = insertvalue { i8*, i32 } %84, i32 %83, 1, !dbg !562
  resume { i8*, i32 } %85, !dbg !562

bb31:                                             ; preds = %bb26
  br label %bb29, !dbg !556

bb32:                                             ; preds = %bb33
; call core::ptr::drop_in_place::<core::option::Option<alloc::sync::Arc<std::sync::mutex::Mutex<alloc::vec::Vec<u8>>>>>
  call void @_RINvNtCs3p84KrD9aKt_4core3ptr13drop_in_placeINtNtB4_6option6OptionINtNtCs8RW06R9lH2S_5alloc4sync3ArcINtNtNtCs2bNvlddUlXM_3std4sync5mutex5MutexINtNtB17_3vec3VechEEEEECsfnYCCstO0CH_18mapped_static_race(i64** %output_capture) #12, !dbg !553
  br label %bb35, !dbg !553

bb33:                                             ; preds = %cleanup6
  %86 = load i8, i8* %_42, align 1, !dbg !553, !range !561
  %87 = trunc i8 %86 to i1, !dbg !553
  br i1 %87, label %bb32, label %bb35, !dbg !553

bb34:                                             ; preds = %bb35
; call core::ptr::drop_in_place::<alloc::sync::Arc<core::cell::UnsafeCell<core::option::Option<core::result::Result<(), alloc::boxed::Box<dyn core::any::Any + core::marker::Send>>>>>>
  call void @_RINvNtCs3p84KrD9aKt_4core3ptr13drop_in_placeINtNtCs8RW06R9lH2S_5alloc4sync3ArcINtNtB4_4cell10UnsafeCellINtNtB4_6option6OptionINtNtB4_6result6ResultuINtNtBL_5boxed3BoxDNtNtB4_3any3AnyNtNtB4_6marker4SendEL_EEEEEECsfnYCCstO0CH_18mapped_static_race(i64** %their_packet) #12, !dbg !554
  br label %bb27, !dbg !554

bb35:                                             ; preds = %bb32, %bb33, %cleanup5
  %88 = load i8, i8* %_43, align 1, !dbg !554, !range !561
  %89 = trunc i8 %88 to i1, !dbg !554
  br i1 %89, label %bb34, label %bb27, !dbg !554

bb36:                                             ; preds = %bb37
; call core::ptr::drop_in_place::<std::thread::Thread>
  call void @_RINvNtCs3p84KrD9aKt_4core3ptr13drop_in_placeNtNtCs2bNvlddUlXM_3std6thread6ThreadECsfnYCCstO0CH_18mapped_static_race(i64** %their_thread) #12, !dbg !555
  br label %bb28, !dbg !555

bb37:                                             ; preds = %bb27, %cleanup3
  %90 = load i8, i8* %_44, align 1, !dbg !555, !range !561
  %91 = trunc i8 %90 to i1, !dbg !555
  br i1 %91, label %bb36, label %bb28, !dbg !555

bb38:                                             ; preds = %bb39
; call core::ptr::drop_in_place::<core::option::Option<alloc::string::String>>
  call void @_RINvNtCs3p84KrD9aKt_4core3ptr13drop_in_placeINtNtB4_6option6OptionNtNtCs8RW06R9lH2S_5alloc6string6StringEECsfnYCCstO0CH_18mapped_static_race(%"std::option::Option<std::string::String>"* %name) #12, !dbg !556
  br label %bb29, !dbg !556

bb39:                                             ; preds = %bb28, %cleanup
  %92 = load i8, i8* %_45, align 1, !dbg !556, !range !561
  %93 = trunc i8 %92 to i1, !dbg !556
  br i1 %93, label %bb38, label %bb29, !dbg !556

bb40:                                             ; preds = %bb29
  br label %bb30, !dbg !556

cleanup:                                          ; preds = %bb1, %start
  %94 = landingpad { i8*, i32 }
          cleanup
  %95 = extractvalue { i8*, i32 } %94, 0
  %96 = extractvalue { i8*, i32 } %94, 1
  %97 = getelementptr inbounds { i8*, i32 }, { i8*, i32 }* %3, i32 0, i32 0
  store i8* %95, i8** %97, align 8
  %98 = getelementptr inbounds { i8*, i32 }, { i8*, i32 }* %3, i32 0, i32 1
  store i32 %96, i32* %98, align 8
  br label %bb39

cleanup2:                                         ; preds = %bb2
  %99 = landingpad { i8*, i32 }
          cleanup
  %100 = extractvalue { i8*, i32 } %99, 0
  %101 = extractvalue { i8*, i32 } %99, 1
  %102 = getelementptr inbounds { i8*, i32 }, { i8*, i32 }* %3, i32 0, i32 0
  store i8* %100, i8** %102, align 8
  %103 = getelementptr inbounds { i8*, i32 }, { i8*, i32 }* %3, i32 0, i32 1
  store i32 %101, i32* %103, align 8
  br label %bb28

cleanup3:                                         ; preds = %bb4, %bb3
  %104 = landingpad { i8*, i32 }
          cleanup
  %105 = extractvalue { i8*, i32 } %104, 0
  %106 = extractvalue { i8*, i32 } %104, 1
  %107 = getelementptr inbounds { i8*, i32 }, { i8*, i32 }* %3, i32 0, i32 0
  store i8* %105, i8** %107, align 8
  %108 = getelementptr inbounds { i8*, i32 }, { i8*, i32 }* %3, i32 0, i32 1
  store i32 %106, i32* %108, align 8
  br label %bb37

cleanup4:                                         ; preds = %bb5
  %109 = landingpad { i8*, i32 }
          cleanup
  %110 = extractvalue { i8*, i32 } %109, 0
  %111 = extractvalue { i8*, i32 } %109, 1
  %112 = getelementptr inbounds { i8*, i32 }, { i8*, i32 }* %3, i32 0, i32 0
  store i8* %110, i8** %112, align 8
  %113 = getelementptr inbounds { i8*, i32 }, { i8*, i32 }* %3, i32 0, i32 1
  store i32 %111, i32* %113, align 8
  br label %bb27

cleanup5:                                         ; preds = %bb6
  %114 = landingpad { i8*, i32 }
          cleanup
  %115 = extractvalue { i8*, i32 } %114, 0
  %116 = extractvalue { i8*, i32 } %114, 1
  %117 = getelementptr inbounds { i8*, i32 }, { i8*, i32 }* %3, i32 0, i32 0
  store i8* %115, i8** %117, align 8
  %118 = getelementptr inbounds { i8*, i32 }, { i8*, i32 }* %3, i32 0, i32 1
  store i32 %116, i32* %118, align 8
  br label %bb35

cleanup6:                                         ; preds = %bb10, %bb13, %bb12, %bb9, %bb8, %bb7
  %119 = landingpad { i8*, i32 }
          cleanup
  %120 = extractvalue { i8*, i32 } %119, 0
  %121 = extractvalue { i8*, i32 } %119, 1
  %122 = getelementptr inbounds { i8*, i32 }, { i8*, i32 }* %3, i32 0, i32 0
  store i8* %120, i8** %122, align 8
  %123 = getelementptr inbounds { i8*, i32 }, { i8*, i32 }* %3, i32 0, i32 1
  store i32 %121, i32* %123, align 8
  br label %bb33

cleanup7:                                         ; preds = %bb18, %bb17
  %124 = landingpad { i8*, i32 }
          cleanup
  %125 = extractvalue { i8*, i32 } %124, 0
  %126 = extractvalue { i8*, i32 } %124, 1
  %127 = getelementptr inbounds { i8*, i32 }, { i8*, i32 }* %3, i32 0, i32 0
  store i8* %125, i8** %127, align 8
  %128 = getelementptr inbounds { i8*, i32 }, { i8*, i32 }* %3, i32 0, i32 1
  store i32 %126, i32* %128, align 8
  br label %bb25

cleanup8:                                         ; preds = %bb19
  %129 = landingpad { i8*, i32 }
          cleanup
  %130 = extractvalue { i8*, i32 } %129, 0
  %131 = extractvalue { i8*, i32 } %129, 1
  %132 = getelementptr inbounds { i8*, i32 }, { i8*, i32 }* %3, i32 0, i32 0
  store i8* %130, i8** %132, align 8
  %133 = getelementptr inbounds { i8*, i32 }, { i8*, i32 }* %3, i32 0, i32 1
  store i32 %131, i32* %133, align 8
  br label %bb23

cleanup9:                                         ; preds = %bb20
  %134 = landingpad { i8*, i32 }
          cleanup
  %135 = extractvalue { i8*, i32 } %134, 0
  %136 = extractvalue { i8*, i32 } %134, 1
  %137 = getelementptr inbounds { i8*, i32 }, { i8*, i32 }* %3, i32 0, i32 0
  store i8* %135, i8** %137, align 8
  %138 = getelementptr inbounds { i8*, i32 }, { i8*, i32 }* %3, i32 0, i32 1
  store i32 %136, i32* %138, align 8
  br label %bb24
}

; <std::thread::Builder>::spawn::<mapped_static_race::main::{closure#0}, ()>
; Function Attrs: nonlazybind uwtable
define internal void @_RINvMNtCs2bNvlddUlXM_3std6threadNtB3_7Builder5spawnNCNvCsfnYCCstO0CH_18mapped_static_race4main0uEBR_(%"std::result::Result<std::thread::JoinHandle<()>, std::io::Error>"* noalias nocapture sret dereferenceable(40) %0, %"std::thread::Builder"* noalias nocapture dereferenceable(40) %self) unnamed_addr #0 !dbg !563 {
start:
  %f.dbg.spill = alloca %"[closure@src/main.rs:10:30: 13:3]", align 1
  %_3 = alloca %"std::thread::Builder", align 8
  call void @llvm.dbg.declare(metadata %"std::thread::Builder"* %self, metadata !565, metadata !DIExpression()), !dbg !567
  call void @llvm.dbg.declare(metadata %"[closure@src/main.rs:10:30: 13:3]"* %f.dbg.spill, metadata !566, metadata !DIExpression()), !dbg !568
  %1 = bitcast %"std::thread::Builder"* %_3 to i8*, !dbg !569
  %2 = bitcast %"std::thread::Builder"* %self to i8*, !dbg !569
  call void @llvm.memcpy.p0i8.p0i8.i64(i8* align 8 %1, i8* align 8 %2, i64 40, i1 false), !dbg !569
; call <std::thread::Builder>::spawn_unchecked::<mapped_static_race::main::{closure#0}, ()>
  call void @_RINvMNtCs2bNvlddUlXM_3std6threadNtB3_7Builder15spawn_uncheckedNCNvCsfnYCCstO0CH_18mapped_static_race4main0uEB12_(%"std::result::Result<std::thread::JoinHandle<()>, std::io::Error>"* noalias nocapture sret dereferenceable(40) %0, %"std::thread::Builder"* noalias nocapture dereferenceable(40) %_3), !dbg !569
  br label %bb1, !dbg !569

bb1:                                              ; preds = %start
  ret void, !dbg !570
}

; <[u8]>::get_unchecked_mut::<usize>
; Function Attrs: inlinehint nonlazybind uwtable
define internal align 1 dereferenceable(1) i8* @_RINvMNtCs3p84KrD9aKt_4core5sliceSh17get_unchecked_mutjECsfnYCCstO0CH_18mapped_static_race([0 x i8]* nonnull align 1 %self.0, i64 %self.1, i64 %index) unnamed_addr #1 !dbg !571 {
start:
  %index.dbg.spill = alloca i64, align 8
  %self.dbg.spill = alloca { [0 x i8]*, i64 }, align 8
  %0 = getelementptr inbounds { [0 x i8]*, i64 }, { [0 x i8]*, i64 }* %self.dbg.spill, i32 0, i32 0
  store [0 x i8]* %self.0, [0 x i8]** %0, align 8
  %1 = getelementptr inbounds { [0 x i8]*, i64 }, { [0 x i8]*, i64 }* %self.dbg.spill, i32 0, i32 1
  store i64 %self.1, i64* %1, align 8
  call void @llvm.dbg.declare(metadata { [0 x i8]*, i64 }* %self.dbg.spill, metadata !583, metadata !DIExpression()), !dbg !587
  store i64 %index, i64* %index.dbg.spill, align 8
  call void @llvm.dbg.declare(metadata i64* %index.dbg.spill, metadata !584, metadata !DIExpression()), !dbg !588
; call <usize as core::slice::index::SliceIndex<[u8]>>::get_unchecked_mut
  %_6 = call i8* @_RNvXs0_NtNtCs3p84KrD9aKt_4core5slice5indexjINtB5_10SliceIndexShE17get_unchecked_mutCsfnYCCstO0CH_18mapped_static_race(i64 %index, [0 x i8]* %self.0, i64 %self.1), !dbg !589
  br label %bb1, !dbg !589

bb1:                                              ; preds = %start
  ret i8* %_6, !dbg !590
}

; <core::option::Option<core::ptr::non_null::NonNull<u8>>>::ok_or::<core::alloc::AllocError>
; Function Attrs: inlinehint nonlazybind uwtable
define internal i8* @_RINvMNtCs3p84KrD9aKt_4core6optionINtB3_6OptionINtNtNtB5_3ptr8non_null7NonNullhEE5ok_orNtNtB5_5alloc10AllocErrorECsfnYCCstO0CH_18mapped_static_race(i8* %0) unnamed_addr #1 personality i32 (i32, i32, i64, %"unwind::libunwind::_Unwind_Exception"*, %"unwind::libunwind::_Unwind_Context"*)* @rust_eh_personality !dbg !591 {
start:
  %1 = alloca { i8*, i32 }, align 8
  %v.dbg.spill = alloca i8*, align 8
  %err.dbg.spill = alloca %"std::alloc::AllocError", align 1
  %_7 = alloca i8, align 1
  %2 = alloca i8*, align 8
  %self = alloca i8*, align 8
  store i8* %0, i8** %self, align 8
  call void @llvm.dbg.declare(metadata i8** %self, metadata !627, metadata !DIExpression()), !dbg !631
  call void @llvm.dbg.declare(metadata %"std::alloc::AllocError"* %err.dbg.spill, metadata !628, metadata !DIExpression()), !dbg !632
  store i8 0, i8* %_7, align 1, !dbg !633
  store i8 1, i8* %_7, align 1, !dbg !633
  %3 = bitcast i8** %self to {}**, !dbg !633
  %4 = load {}*, {}** %3, align 8, !dbg !633
  %5 = icmp eq {}* %4, null, !dbg !633
  %_3 = select i1 %5, i64 0, i64 1, !dbg !633
  switch i64 %_3, label %bb2 [
    i64 0, label %bb1
    i64 1, label %bb3
  ], !dbg !633

bb1:                                              ; preds = %start
  store i8 0, i8* %_7, align 1, !dbg !634
  %6 = bitcast i8** %2 to %"std::result::Result<std::ptr::NonNull<u8>, std::alloc::AllocError>::Err"*, !dbg !635
  %7 = bitcast %"std::result::Result<std::ptr::NonNull<u8>, std::alloc::AllocError>::Err"* %6 to %"std::alloc::AllocError"*, !dbg !635
  %8 = bitcast i8** %2 to {}**, !dbg !635
  store {}* null, {}** %8, align 8, !dbg !635
  br label %bb8, !dbg !636

bb2:                                              ; preds = %start
  unreachable, !dbg !637

bb3:                                              ; preds = %start
  %v = load i8*, i8** %self, align 8, !dbg !638, !nonnull !4
  store i8* %v, i8** %v.dbg.spill, align 8, !dbg !638
  call void @llvm.dbg.declare(metadata i8** %v.dbg.spill, metadata !629, metadata !DIExpression()), !dbg !639
  store i8* %v, i8** %2, align 8, !dbg !640
  br label %bb8, !dbg !641

bb4:                                              ; preds = %bb7, %bb8
  %9 = load i8*, i8** %2, align 8, !dbg !642
  ret i8* %9, !dbg !642

bb5:                                              ; No predecessors!
  br label %bb6, !dbg !641

bb6:                                              ; preds = %bb5
  %10 = bitcast { i8*, i32 }* %1 to i8**, !dbg !643
  %11 = load i8*, i8** %10, align 8, !dbg !643
  %12 = getelementptr inbounds { i8*, i32 }, { i8*, i32 }* %1, i32 0, i32 1, !dbg !643
  %13 = load i32, i32* %12, align 8, !dbg !643
  %14 = insertvalue { i8*, i32 } undef, i8* %11, 0, !dbg !643
  %15 = insertvalue { i8*, i32 } %14, i32 %13, 1, !dbg !643
  resume { i8*, i32 } %15, !dbg !643

bb7:                                              ; preds = %bb8
  br label %bb4, !dbg !641

bb8:                                              ; preds = %bb1, %bb3
  %16 = load i8, i8* %_7, align 1, !dbg !641, !range !561
  %17 = trunc i8 %16 to i1, !dbg !641
  br i1 %17, label %bb7, label %bb4, !dbg !641
}

; <core::option::Option<usize>>::unwrap_or_else::<std::sys_common::thread::min_stack>
; Function Attrs: inlinehint nonlazybind uwtable
define internal i64 @_RINvMNtCs3p84KrD9aKt_4core6optionINtB3_6OptionjE14unwrap_or_elseNvNtNtCs2bNvlddUlXM_3std10sys_common6thread9min_stackECsfnYCCstO0CH_18mapped_static_race(i64 %0, i64 %1) unnamed_addr #1 personality i32 (i32, i32, i64, %"unwind::libunwind::_Unwind_Exception"*, %"unwind::libunwind::_Unwind_Context"*)* @rust_eh_personality !dbg !644 {
start:
  %2 = alloca { i8*, i32 }, align 8
  %x.dbg.spill = alloca i64, align 8
  %f.dbg.spill = alloca {}, align 1
  %_7 = alloca i8, align 1
  %_6 = alloca {}, align 1
  %3 = alloca i64, align 8
  %self = alloca { i64, i64 }, align 8
  %4 = getelementptr inbounds { i64, i64 }, { i64, i64 }* %self, i32 0, i32 0
  store i64 %0, i64* %4, align 8
  %5 = getelementptr inbounds { i64, i64 }, { i64, i64 }* %self, i32 0, i32 1
  store i64 %1, i64* %5, align 8
  call void @llvm.dbg.declare(metadata { i64, i64 }* %self, metadata !651, metadata !DIExpression()), !dbg !657
  call void @llvm.dbg.declare(metadata {}* %f.dbg.spill, metadata !652, metadata !DIExpression()), !dbg !658
  store i8 0, i8* %_7, align 1, !dbg !659
  store i8 1, i8* %_7, align 1, !dbg !659
  %6 = bitcast { i64, i64 }* %self to i64*, !dbg !659
  %_3 = load i64, i64* %6, align 8, !dbg !659, !range !504
  switch i64 %_3, label %bb2 [
    i64 0, label %bb1
    i64 1, label %bb3
  ], !dbg !659

bb1:                                              ; preds = %start
  store i8 0, i8* %_7, align 1, !dbg !660
; call <std::sys_common::thread::min_stack as core::ops::function::FnOnce<()>>::call_once
  %7 = call i64 @_RNvYNvNtNtCs2bNvlddUlXM_3std10sys_common6thread9min_stackINtNtNtCs3p84KrD9aKt_4core3ops8function6FnOnceuE9call_onceCsfnYCCstO0CH_18mapped_static_race(), !dbg !660
  store i64 %7, i64* %3, align 8, !dbg !660
  br label %bb4, !dbg !660

bb2:                                              ; preds = %start
  unreachable, !dbg !661

bb3:                                              ; preds = %start
  %8 = bitcast { i64, i64 }* %self to %"std::option::Option<usize>::Some"*, !dbg !662
  %9 = getelementptr inbounds %"std::option::Option<usize>::Some", %"std::option::Option<usize>::Some"* %8, i32 0, i32 1, !dbg !662
  %x = load i64, i64* %9, align 8, !dbg !662
  store i64 %x, i64* %x.dbg.spill, align 8, !dbg !662
  call void @llvm.dbg.declare(metadata i64* %x.dbg.spill, metadata !653, metadata !DIExpression()), !dbg !663
  store i64 %x, i64* %3, align 8, !dbg !664
  br label %bb9, !dbg !665

bb4:                                              ; preds = %bb1
  br label %bb9, !dbg !665

bb5:                                              ; preds = %bb8, %bb9
  %10 = load i64, i64* %3, align 8, !dbg !666
  ret i64 %10, !dbg !666

bb6:                                              ; No predecessors!
  br label %bb7, !dbg !667

bb7:                                              ; preds = %bb6
  %11 = bitcast { i8*, i32 }* %2 to i8**, !dbg !668
  %12 = load i8*, i8** %11, align 8, !dbg !668
  %13 = getelementptr inbounds { i8*, i32 }, { i8*, i32 }* %2, i32 0, i32 1, !dbg !668
  %14 = load i32, i32* %13, align 8, !dbg !668
  %15 = insertvalue { i8*, i32 } undef, i8* %12, 0, !dbg !668
  %16 = insertvalue { i8*, i32 } %15, i32 %14, 1, !dbg !668
  resume { i8*, i32 } %16, !dbg !668

bb8:                                              ; preds = %bb9
  br label %bb5, !dbg !667

bb9:                                              ; preds = %bb4, %bb3
  %17 = load i8, i8* %_7, align 1, !dbg !667, !range !561
  %18 = trunc i8 %17 to i1, !dbg !667
  br i1 %18, label %bb8, label %bb5, !dbg !667
}

; <core::alloc::layout::Layout>::for_value_raw::<alloc::sync::ArcInner<core::cell::UnsafeCell<core::option::Option<core::result::Result<(), alloc::boxed::Box<dyn core::any::Any + core::marker::Send>>>>>>
; Function Attrs: nonlazybind uwtable
define internal { i64, i64 } @_RINvMNtNtCs3p84KrD9aKt_4core5alloc6layoutNtB3_6Layout13for_value_rawINtNtCs8RW06R9lH2S_5alloc4sync8ArcInnerINtNtB7_4cell10UnsafeCellINtNtB7_6option6OptionINtNtB7_6result6ResultuINtNtB19_5boxed3BoxDNtNtB7_3any3AnyNtNtB7_6marker4SendEL_EEEEEECsfnYCCstO0CH_18mapped_static_race(%"alloc::sync::ArcInner<std::cell::UnsafeCell<std::option::Option<std::result::Result<(), std::boxed::Box<dyn std::any::Any + std::marker::Send>>>>>"* %t) unnamed_addr #0 !dbg !669 {
start:
  %align.dbg.spill = alloca i64, align 8
  %size.dbg.spill = alloca i64, align 8
  %t.dbg.spill = alloca %"alloc::sync::ArcInner<std::cell::UnsafeCell<std::option::Option<std::result::Result<(), std::boxed::Box<dyn std::any::Any + std::marker::Send>>>>>"*, align 8
  %_4 = alloca { i64, i64 }, align 8
  store %"alloc::sync::ArcInner<std::cell::UnsafeCell<std::option::Option<std::result::Result<(), std::boxed::Box<dyn std::any::Any + std::marker::Send>>>>>"* %t, %"alloc::sync::ArcInner<std::cell::UnsafeCell<std::option::Option<std::result::Result<(), std::boxed::Box<dyn std::any::Any + std::marker::Send>>>>>"** %t.dbg.spill, align 8
  call void @llvm.dbg.declare(metadata %"alloc::sync::ArcInner<std::cell::UnsafeCell<std::option::Option<std::result::Result<(), std::boxed::Box<dyn std::any::Any + std::marker::Send>>>>>"** %t.dbg.spill, metadata !682, metadata !DIExpression()), !dbg !686
; call core::mem::size_of_val_raw::<alloc::sync::ArcInner<core::cell::UnsafeCell<core::option::Option<core::result::Result<(), alloc::boxed::Box<dyn core::any::Any + core::marker::Send>>>>>>
  %_5 = call i64 @_RINvNtCs3p84KrD9aKt_4core3mem15size_of_val_rawINtNtCs8RW06R9lH2S_5alloc4sync8ArcInnerINtNtB4_4cell10UnsafeCellINtNtB4_6option6OptionINtNtB4_6result6ResultuINtNtBN_5boxed3BoxDNtNtB4_3any3AnyNtNtB4_6marker4SendEL_EEEEEECsfnYCCstO0CH_18mapped_static_race(%"alloc::sync::ArcInner<std::cell::UnsafeCell<std::option::Option<std::result::Result<(), std::boxed::Box<dyn std::any::Any + std::marker::Send>>>>>"* %t), !dbg !687
  br label %bb1, !dbg !687

bb1:                                              ; preds = %start
; call core::mem::align_of_val_raw::<alloc::sync::ArcInner<core::cell::UnsafeCell<core::option::Option<core::result::Result<(), alloc::boxed::Box<dyn core::any::Any + core::marker::Send>>>>>>
  %_7 = call i64 @_RINvNtCs3p84KrD9aKt_4core3mem16align_of_val_rawINtNtCs8RW06R9lH2S_5alloc4sync8ArcInnerINtNtB4_4cell10UnsafeCellINtNtB4_6option6OptionINtNtB4_6result6ResultuINtNtBO_5boxed3BoxDNtNtB4_3any3AnyNtNtB4_6marker4SendEL_EEEEEECsfnYCCstO0CH_18mapped_static_race(%"alloc::sync::ArcInner<std::cell::UnsafeCell<std::option::Option<std::result::Result<(), std::boxed::Box<dyn std::any::Any + std::marker::Send>>>>>"* %t), !dbg !688
  br label %bb2, !dbg !688

bb2:                                              ; preds = %bb1
  %0 = bitcast { i64, i64 }* %_4 to i64*, !dbg !689
  store i64 %_5, i64* %0, align 8, !dbg !689
  %1 = getelementptr inbounds { i64, i64 }, { i64, i64 }* %_4, i32 0, i32 1, !dbg !689
  store i64 %_7, i64* %1, align 8, !dbg !689
  %2 = bitcast { i64, i64 }* %_4 to i64*, !dbg !690
  %size = load i64, i64* %2, align 8, !dbg !690
  store i64 %size, i64* %size.dbg.spill, align 8, !dbg !690
  call void @llvm.dbg.declare(metadata i64* %size.dbg.spill, metadata !683, metadata !DIExpression()), !dbg !691
  %3 = getelementptr inbounds { i64, i64 }, { i64, i64 }* %_4, i32 0, i32 1, !dbg !692
  %align = load i64, i64* %3, align 8, !dbg !692
  store i64 %align, i64* %align.dbg.spill, align 8, !dbg !692
  call void @llvm.dbg.declare(metadata i64* %align.dbg.spill, metadata !685, metadata !DIExpression()), !dbg !693
; call <core::alloc::layout::Layout>::from_size_align_unchecked
  %4 = call { i64, i64 } @_RNvMNtNtCs3p84KrD9aKt_4core5alloc6layoutNtB2_6Layout25from_size_align_uncheckedCsfnYCCstO0CH_18mapped_static_race(i64 %size, i64 %align), !dbg !694
  %5 = extractvalue { i64, i64 } %4, 0, !dbg !694
  %6 = extractvalue { i64, i64 } %4, 1, !dbg !694
  br label %bb3, !dbg !694

bb3:                                              ; preds = %bb2
  %7 = insertvalue { i64, i64 } undef, i64 %5, 0, !dbg !695
  %8 = insertvalue { i64, i64 } %7, i64 %6, 1, !dbg !695
  ret { i64, i64 } %8, !dbg !695
}

; <core::alloc::layout::Layout>::for_value_raw::<alloc::sync::ArcInner<std::sync::mutex::Mutex<alloc::vec::Vec<u8>>>>
; Function Attrs: nonlazybind uwtable
define internal { i64, i64 } @_RINvMNtNtCs3p84KrD9aKt_4core5alloc6layoutNtB3_6Layout13for_value_rawINtNtCs8RW06R9lH2S_5alloc4sync8ArcInnerINtNtNtCs2bNvlddUlXM_3std4sync5mutex5MutexINtNtB19_3vec3VechEEEECsfnYCCstO0CH_18mapped_static_race(%"alloc::sync::ArcInner<std::sync::Mutex<std::vec::Vec<u8>>>"* %t) unnamed_addr #0 !dbg !696 {
start:
  %align.dbg.spill = alloca i64, align 8
  %size.dbg.spill = alloca i64, align 8
  %t.dbg.spill = alloca %"alloc::sync::ArcInner<std::sync::Mutex<std::vec::Vec<u8>>>"*, align 8
  %_4 = alloca { i64, i64 }, align 8
  store %"alloc::sync::ArcInner<std::sync::Mutex<std::vec::Vec<u8>>>"* %t, %"alloc::sync::ArcInner<std::sync::Mutex<std::vec::Vec<u8>>>"** %t.dbg.spill, align 8
  call void @llvm.dbg.declare(metadata %"alloc::sync::ArcInner<std::sync::Mutex<std::vec::Vec<u8>>>"** %t.dbg.spill, metadata !700, metadata !DIExpression()), !dbg !704
; call core::mem::size_of_val_raw::<alloc::sync::ArcInner<std::sync::mutex::Mutex<alloc::vec::Vec<u8>>>>
  %_5 = call i64 @_RINvNtCs3p84KrD9aKt_4core3mem15size_of_val_rawINtNtCs8RW06R9lH2S_5alloc4sync8ArcInnerINtNtNtCs2bNvlddUlXM_3std4sync5mutex5MutexINtNtBN_3vec3VechEEEECsfnYCCstO0CH_18mapped_static_race(%"alloc::sync::ArcInner<std::sync::Mutex<std::vec::Vec<u8>>>"* %t), !dbg !705
  br label %bb1, !dbg !705

bb1:                                              ; preds = %start
; call core::mem::align_of_val_raw::<alloc::sync::ArcInner<std::sync::mutex::Mutex<alloc::vec::Vec<u8>>>>
  %_7 = call i64 @_RINvNtCs3p84KrD9aKt_4core3mem16align_of_val_rawINtNtCs8RW06R9lH2S_5alloc4sync8ArcInnerINtNtNtCs2bNvlddUlXM_3std4sync5mutex5MutexINtNtBO_3vec3VechEEEECsfnYCCstO0CH_18mapped_static_race(%"alloc::sync::ArcInner<std::sync::Mutex<std::vec::Vec<u8>>>"* %t), !dbg !706
  br label %bb2, !dbg !706

bb2:                                              ; preds = %bb1
  %0 = bitcast { i64, i64 }* %_4 to i64*, !dbg !707
  store i64 %_5, i64* %0, align 8, !dbg !707
  %1 = getelementptr inbounds { i64, i64 }, { i64, i64 }* %_4, i32 0, i32 1, !dbg !707
  store i64 %_7, i64* %1, align 8, !dbg !707
  %2 = bitcast { i64, i64 }* %_4 to i64*, !dbg !708
  %size = load i64, i64* %2, align 8, !dbg !708
  store i64 %size, i64* %size.dbg.spill, align 8, !dbg !708
  call void @llvm.dbg.declare(metadata i64* %size.dbg.spill, metadata !701, metadata !DIExpression()), !dbg !709
  %3 = getelementptr inbounds { i64, i64 }, { i64, i64 }* %_4, i32 0, i32 1, !dbg !710
  %align = load i64, i64* %3, align 8, !dbg !710
  store i64 %align, i64* %align.dbg.spill, align 8, !dbg !710
  call void @llvm.dbg.declare(metadata i64* %align.dbg.spill, metadata !703, metadata !DIExpression()), !dbg !711
; call <core::alloc::layout::Layout>::from_size_align_unchecked
  %4 = call { i64, i64 } @_RNvMNtNtCs3p84KrD9aKt_4core5alloc6layoutNtB2_6Layout25from_size_align_uncheckedCsfnYCCstO0CH_18mapped_static_race(i64 %size, i64 %align), !dbg !712
  %5 = extractvalue { i64, i64 } %4, 0, !dbg !712
  %6 = extractvalue { i64, i64 } %4, 1, !dbg !712
  br label %bb3, !dbg !712

bb3:                                              ; preds = %bb2
  %7 = insertvalue { i64, i64 } undef, i64 %5, 0, !dbg !713
  %8 = insertvalue { i64, i64 } %7, i64 %6, 1, !dbg !713
  ret { i64, i64 } %8, !dbg !713
}

; <core::alloc::layout::Layout>::for_value_raw::<alloc::sync::ArcInner<std::thread::Inner>>
; Function Attrs: nonlazybind uwtable
define internal { i64, i64 } @_RINvMNtNtCs3p84KrD9aKt_4core5alloc6layoutNtB3_6Layout13for_value_rawINtNtCs8RW06R9lH2S_5alloc4sync8ArcInnerNtNtCs2bNvlddUlXM_3std6thread5InnerEECsfnYCCstO0CH_18mapped_static_race(%"alloc::sync::ArcInner<std::thread::Inner>"* %t) unnamed_addr #0 !dbg !714 {
start:
  %align.dbg.spill = alloca i64, align 8
  %size.dbg.spill = alloca i64, align 8
  %t.dbg.spill = alloca %"alloc::sync::ArcInner<std::thread::Inner>"*, align 8
  %_4 = alloca { i64, i64 }, align 8
  store %"alloc::sync::ArcInner<std::thread::Inner>"* %t, %"alloc::sync::ArcInner<std::thread::Inner>"** %t.dbg.spill, align 8
  call void @llvm.dbg.declare(metadata %"alloc::sync::ArcInner<std::thread::Inner>"** %t.dbg.spill, metadata !718, metadata !DIExpression()), !dbg !722
; call core::mem::size_of_val_raw::<alloc::sync::ArcInner<std::thread::Inner>>
  %_5 = call i64 @_RINvNtCs3p84KrD9aKt_4core3mem15size_of_val_rawINtNtCs8RW06R9lH2S_5alloc4sync8ArcInnerNtNtCs2bNvlddUlXM_3std6thread5InnerEECsfnYCCstO0CH_18mapped_static_race(%"alloc::sync::ArcInner<std::thread::Inner>"* %t), !dbg !723
  br label %bb1, !dbg !723

bb1:                                              ; preds = %start
; call core::mem::align_of_val_raw::<alloc::sync::ArcInner<std::thread::Inner>>
  %_7 = call i64 @_RINvNtCs3p84KrD9aKt_4core3mem16align_of_val_rawINtNtCs8RW06R9lH2S_5alloc4sync8ArcInnerNtNtCs2bNvlddUlXM_3std6thread5InnerEECsfnYCCstO0CH_18mapped_static_race(%"alloc::sync::ArcInner<std::thread::Inner>"* %t), !dbg !724
  br label %bb2, !dbg !724

bb2:                                              ; preds = %bb1
  %0 = bitcast { i64, i64 }* %_4 to i64*, !dbg !725
  store i64 %_5, i64* %0, align 8, !dbg !725
  %1 = getelementptr inbounds { i64, i64 }, { i64, i64 }* %_4, i32 0, i32 1, !dbg !725
  store i64 %_7, i64* %1, align 8, !dbg !725
  %2 = bitcast { i64, i64 }* %_4 to i64*, !dbg !726
  %size = load i64, i64* %2, align 8, !dbg !726
  store i64 %size, i64* %size.dbg.spill, align 8, !dbg !726
  call void @llvm.dbg.declare(metadata i64* %size.dbg.spill, metadata !719, metadata !DIExpression()), !dbg !727
  %3 = getelementptr inbounds { i64, i64 }, { i64, i64 }* %_4, i32 0, i32 1, !dbg !728
  %align = load i64, i64* %3, align 8, !dbg !728
  store i64 %align, i64* %align.dbg.spill, align 8, !dbg !728
  call void @llvm.dbg.declare(metadata i64* %align.dbg.spill, metadata !721, metadata !DIExpression()), !dbg !729
; call <core::alloc::layout::Layout>::from_size_align_unchecked
  %4 = call { i64, i64 } @_RNvMNtNtCs3p84KrD9aKt_4core5alloc6layoutNtB2_6Layout25from_size_align_uncheckedCsfnYCCstO0CH_18mapped_static_race(i64 %size, i64 %align), !dbg !730
  %5 = extractvalue { i64, i64 } %4, 0, !dbg !730
  %6 = extractvalue { i64, i64 } %4, 1, !dbg !730
  br label %bb3, !dbg !730

bb3:                                              ; preds = %bb2
  %7 = insertvalue { i64, i64 } undef, i64 %5, 0, !dbg !731
  %8 = insertvalue { i64, i64 } %7, i64 %6, 1, !dbg !731
  ret { i64, i64 } %8, !dbg !731
}

; <core::ptr::unique::Unique<dyn core::any::Any + core::marker::Send>>::cast::<u8>
; Function Attrs: inlinehint nonlazybind uwtable
define internal nonnull i8* @_RINvMs1_NtNtCs3p84KrD9aKt_4core3ptr6uniqueINtB6_6UniqueDNtNtBa_3any3AnyNtNtBa_6marker4SendEL_E4casthECsfnYCCstO0CH_18mapped_static_race(i8* nonnull %self.0, i64* noalias readonly align 8 dereferenceable(24) %self.1) unnamed_addr #1 !dbg !732 {
start:
  %self.dbg.spill = alloca { i8*, i64* }, align 8
  %0 = getelementptr inbounds { i8*, i64* }, { i8*, i64* }* %self.dbg.spill, i32 0, i32 0
  store i8* %self.0, i8** %0, align 8
  %1 = getelementptr inbounds { i8*, i64* }, { i8*, i64* }* %self.dbg.spill, i32 0, i32 1
  store i64* %self.1, i64** %1, align 8
  call void @llvm.dbg.declare(metadata { i8*, i64* }* %self.dbg.spill, metadata !747, metadata !DIExpression()), !dbg !750
; call <core::ptr::unique::Unique<dyn core::any::Any + core::marker::Send>>::as_ptr
  %2 = call { {}*, [3 x i64]* } @_RNvMs1_NtNtCs3p84KrD9aKt_4core3ptr6uniqueINtB5_6UniqueDNtNtB9_3any3AnyNtNtB9_6marker4SendEL_E6as_ptrCsfnYCCstO0CH_18mapped_static_race(i8* nonnull %self.0, i64* noalias readonly align 8 dereferenceable(24) %self.1), !dbg !751
  %_3.0 = extractvalue { {}*, [3 x i64]* } %2, 0, !dbg !751
  %_3.1 = extractvalue { {}*, [3 x i64]* } %2, 1, !dbg !751
  br label %bb1, !dbg !751

bb1:                                              ; preds = %start
  %_2 = bitcast {}* %_3.0 to i8*, !dbg !751
; call <core::ptr::unique::Unique<u8>>::new_unchecked
  %3 = call nonnull i8* @_RNvMs1_NtNtCs3p84KrD9aKt_4core3ptr6uniqueINtB5_6UniquehE13new_uncheckedCsfnYCCstO0CH_18mapped_static_race(i8* %_2), !dbg !752
  br label %bb2, !dbg !752

bb2:                                              ; preds = %bb1
  ret i8* %3, !dbg !753
}

; <core::ptr::unique::Unique<dyn std::error::Error + core::marker::Send + core::marker::Sync>>::cast::<u8>
; Function Attrs: inlinehint nonlazybind uwtable
define internal nonnull i8* @_RINvMs1_NtNtCs3p84KrD9aKt_4core3ptr6uniqueINtB6_6UniqueDNtNtCs2bNvlddUlXM_3std5error5ErrorNtNtBa_6marker4SendNtB1s_4SyncEL_E4casthECsfnYCCstO0CH_18mapped_static_race(i8* nonnull %self.0, i64* noalias readonly align 8 dereferenceable(24) %self.1) unnamed_addr #1 !dbg !754 {
start:
  %self.dbg.spill = alloca { i8*, i64* }, align 8
  %0 = getelementptr inbounds { i8*, i64* }, { i8*, i64* }* %self.dbg.spill, i32 0, i32 0
  store i8* %self.0, i8** %0, align 8
  %1 = getelementptr inbounds { i8*, i64* }, { i8*, i64* }* %self.dbg.spill, i32 0, i32 1
  store i64* %self.1, i64** %1, align 8
  call void @llvm.dbg.declare(metadata { i8*, i64* }* %self.dbg.spill, metadata !768, metadata !DIExpression()), !dbg !770
; call <core::ptr::unique::Unique<dyn std::error::Error + core::marker::Send + core::marker::Sync>>::as_ptr
  %2 = call { {}*, [3 x i64]* } @_RNvMs1_NtNtCs3p84KrD9aKt_4core3ptr6uniqueINtB5_6UniqueDNtNtCs2bNvlddUlXM_3std5error5ErrorNtNtB9_6marker4SendNtB1r_4SyncEL_E6as_ptrCsfnYCCstO0CH_18mapped_static_race(i8* nonnull %self.0, i64* noalias readonly align 8 dereferenceable(24) %self.1), !dbg !771
  %_3.0 = extractvalue { {}*, [3 x i64]* } %2, 0, !dbg !771
  %_3.1 = extractvalue { {}*, [3 x i64]* } %2, 1, !dbg !771
  br label %bb1, !dbg !771

bb1:                                              ; preds = %start
  %_2 = bitcast {}* %_3.0 to i8*, !dbg !771
; call <core::ptr::unique::Unique<u8>>::new_unchecked
  %3 = call nonnull i8* @_RNvMs1_NtNtCs3p84KrD9aKt_4core3ptr6uniqueINtB5_6UniquehE13new_uncheckedCsfnYCCstO0CH_18mapped_static_race(i8* %_2), !dbg !772
  br label %bb2, !dbg !772

bb2:                                              ; preds = %bb1
  ret i8* %3, !dbg !773
}

; <core::ptr::unique::Unique<alloc::sync::ArcInner<core::cell::UnsafeCell<core::option::Option<core::result::Result<(), alloc::boxed::Box<dyn core::any::Any + core::marker::Send>>>>>>>::cast::<u8>
; Function Attrs: inlinehint nonlazybind uwtable
define internal nonnull i8* @_RINvMs1_NtNtCs3p84KrD9aKt_4core3ptr6uniqueINtB6_6UniqueINtNtCs8RW06R9lH2S_5alloc4sync8ArcInnerINtNtBa_4cell10UnsafeCellINtNtBa_6option6OptionINtNtBa_6result6ResultuINtNtBW_5boxed3BoxDNtNtBa_3any3AnyNtNtBa_6marker4SendEL_EEEEEE4casthECsfnYCCstO0CH_18mapped_static_race(i64* nonnull %self) unnamed_addr #1 !dbg !774 {
start:
  %self.dbg.spill = alloca i64*, align 8
  store i64* %self, i64** %self.dbg.spill, align 8
  call void @llvm.dbg.declare(metadata i64** %self.dbg.spill, metadata !782, metadata !DIExpression()), !dbg !784
; call <core::ptr::unique::Unique<alloc::sync::ArcInner<core::cell::UnsafeCell<core::option::Option<core::result::Result<(), alloc::boxed::Box<dyn core::any::Any + core::marker::Send>>>>>>>::as_ptr
  %_3 = call %"alloc::sync::ArcInner<std::cell::UnsafeCell<std::option::Option<std::result::Result<(), std::boxed::Box<dyn std::any::Any + std::marker::Send>>>>>"* @_RNvMs1_NtNtCs3p84KrD9aKt_4core3ptr6uniqueINtB5_6UniqueINtNtCs8RW06R9lH2S_5alloc4sync8ArcInnerINtNtB9_4cell10UnsafeCellINtNtB9_6option6OptionINtNtB9_6result6ResultuINtNtBV_5boxed3BoxDNtNtB9_3any3AnyNtNtB9_6marker4SendEL_EEEEEE6as_ptrCsfnYCCstO0CH_18mapped_static_race(i64* nonnull %self), !dbg !785
  br label %bb1, !dbg !785

bb1:                                              ; preds = %start
  %_2 = bitcast %"alloc::sync::ArcInner<std::cell::UnsafeCell<std::option::Option<std::result::Result<(), std::boxed::Box<dyn std::any::Any + std::marker::Send>>>>>"* %_3 to i8*, !dbg !785
; call <core::ptr::unique::Unique<u8>>::new_unchecked
  %0 = call nonnull i8* @_RNvMs1_NtNtCs3p84KrD9aKt_4core3ptr6uniqueINtB5_6UniquehE13new_uncheckedCsfnYCCstO0CH_18mapped_static_race(i8* %_2), !dbg !786
  br label %bb2, !dbg !786

bb2:                                              ; preds = %bb1
  ret i8* %0, !dbg !787
}

; <core::ptr::unique::Unique<std::io::error::Custom>>::cast::<u8>
; Function Attrs: inlinehint nonlazybind uwtable
define internal nonnull i8* @_RINvMs1_NtNtCs3p84KrD9aKt_4core3ptr6uniqueINtB6_6UniqueNtNtNtCs2bNvlddUlXM_3std2io5error6CustomE4casthECsfnYCCstO0CH_18mapped_static_race(i64* nonnull %self) unnamed_addr #1 !dbg !788 {
start:
  %self.dbg.spill = alloca i64*, align 8
  store i64* %self, i64** %self.dbg.spill, align 8
  call void @llvm.dbg.declare(metadata i64** %self.dbg.spill, metadata !800, metadata !DIExpression()), !dbg !802
; call <core::ptr::unique::Unique<std::io::error::Custom>>::as_ptr
  %_3 = call %"std::io::error::Custom"* @_RNvMs1_NtNtCs3p84KrD9aKt_4core3ptr6uniqueINtB5_6UniqueNtNtNtCs2bNvlddUlXM_3std2io5error6CustomE6as_ptrCsfnYCCstO0CH_18mapped_static_race(i64* nonnull %self), !dbg !803
  br label %bb1, !dbg !803

bb1:                                              ; preds = %start
  %_2 = bitcast %"std::io::error::Custom"* %_3 to i8*, !dbg !803
; call <core::ptr::unique::Unique<u8>>::new_unchecked
  %0 = call nonnull i8* @_RNvMs1_NtNtCs3p84KrD9aKt_4core3ptr6uniqueINtB5_6UniquehE13new_uncheckedCsfnYCCstO0CH_18mapped_static_race(i8* %_2), !dbg !804
  br label %bb2, !dbg !804

bb2:                                              ; preds = %bb1
  ret i8* %0, !dbg !805
}

; <core::ptr::unique::Unique<std::sys::unix::mutex::Mutex>>::cast::<u8>
; Function Attrs: inlinehint nonlazybind uwtable
define internal nonnull i8* @_RINvMs1_NtNtCs3p84KrD9aKt_4core3ptr6uniqueINtB6_6UniqueNtNtNtNtCs2bNvlddUlXM_3std3sys4unix5mutex5MutexE4casthECsfnYCCstO0CH_18mapped_static_race(i64* nonnull %self) unnamed_addr #1 !dbg !806 {
start:
  %self.dbg.spill = alloca i64*, align 8
  store i64* %self, i64** %self.dbg.spill, align 8
  call void @llvm.dbg.declare(metadata i64** %self.dbg.spill, metadata !818, metadata !DIExpression()), !dbg !820
; call <core::ptr::unique::Unique<std::sys::unix::mutex::Mutex>>::as_ptr
  %_3 = call %"std::sys::unix::mutex::Mutex"* @_RNvMs1_NtNtCs3p84KrD9aKt_4core3ptr6uniqueINtB5_6UniqueNtNtNtNtCs2bNvlddUlXM_3std3sys4unix5mutex5MutexE6as_ptrCsfnYCCstO0CH_18mapped_static_race(i64* nonnull %self), !dbg !821
  br label %bb1, !dbg !821

bb1:                                              ; preds = %start
  %_2 = bitcast %"std::sys::unix::mutex::Mutex"* %_3 to i8*, !dbg !821
; call <core::ptr::unique::Unique<u8>>::new_unchecked
  %0 = call nonnull i8* @_RNvMs1_NtNtCs3p84KrD9aKt_4core3ptr6uniqueINtB5_6UniquehE13new_uncheckedCsfnYCCstO0CH_18mapped_static_race(i8* %_2), !dbg !822
  br label %bb2, !dbg !822

bb2:                                              ; preds = %bb1
  ret i8* %0, !dbg !823
}

; <core::ptr::unique::Unique<[u8]>>::cast::<u8>
; Function Attrs: inlinehint nonlazybind uwtable
define internal nonnull i8* @_RINvMs1_NtNtCs3p84KrD9aKt_4core3ptr6uniqueINtB6_6UniqueShE4casthECsfnYCCstO0CH_18mapped_static_race(i8* nonnull %self.0, i64 %self.1) unnamed_addr #1 !dbg !824 {
start:
  %self.dbg.spill = alloca { i8*, i64 }, align 8
  %0 = getelementptr inbounds { i8*, i64 }, { i8*, i64 }* %self.dbg.spill, i32 0, i32 0
  store i8* %self.0, i8** %0, align 8
  %1 = getelementptr inbounds { i8*, i64 }, { i8*, i64 }* %self.dbg.spill, i32 0, i32 1
  store i64 %self.1, i64* %1, align 8
  call void @llvm.dbg.declare(metadata { i8*, i64 }* %self.dbg.spill, metadata !838, metadata !DIExpression()), !dbg !840
; call <core::ptr::unique::Unique<[u8]>>::as_ptr
  %2 = call { [0 x i8]*, i64 } @_RNvMs1_NtNtCs3p84KrD9aKt_4core3ptr6uniqueINtB5_6UniqueShE6as_ptrCsfnYCCstO0CH_18mapped_static_race(i8* nonnull %self.0, i64 %self.1), !dbg !841
  %_3.0 = extractvalue { [0 x i8]*, i64 } %2, 0, !dbg !841
  %_3.1 = extractvalue { [0 x i8]*, i64 } %2, 1, !dbg !841
  br label %bb1, !dbg !841

bb1:                                              ; preds = %start
  %_2 = bitcast [0 x i8]* %_3.0 to i8*, !dbg !841
; call <core::ptr::unique::Unique<u8>>::new_unchecked
  %3 = call nonnull i8* @_RNvMs1_NtNtCs3p84KrD9aKt_4core3ptr6uniqueINtB5_6UniquehE13new_uncheckedCsfnYCCstO0CH_18mapped_static_race(i8* %_2), !dbg !842
  br label %bb2, !dbg !842

bb2:                                              ; preds = %bb1
  ret i8* %3, !dbg !843
}

; <core::ptr::unique::Unique<u8>>::cast::<u8>
; Function Attrs: inlinehint nonlazybind uwtable
define internal nonnull i8* @_RINvMs1_NtNtCs3p84KrD9aKt_4core3ptr6uniqueINtB6_6UniquehE4casthECsfnYCCstO0CH_18mapped_static_race(i8* nonnull %self) unnamed_addr #1 !dbg !844 {
start:
  %self.dbg.spill = alloca i8*, align 8
  store i8* %self, i8** %self.dbg.spill, align 8
  call void @llvm.dbg.declare(metadata i8** %self.dbg.spill, metadata !848, metadata !DIExpression()), !dbg !850
; call <core::ptr::unique::Unique<u8>>::as_ptr
  %_3 = call i8* @_RNvMs1_NtNtCs3p84KrD9aKt_4core3ptr6uniqueINtB5_6UniquehE6as_ptrCsfnYCCstO0CH_18mapped_static_race(i8* nonnull %self), !dbg !851
  br label %bb1, !dbg !851

bb1:                                              ; preds = %start
; call <core::ptr::unique::Unique<u8>>::new_unchecked
  %0 = call nonnull i8* @_RNvMs1_NtNtCs3p84KrD9aKt_4core3ptr6uniqueINtB5_6UniquehE13new_uncheckedCsfnYCCstO0CH_18mapped_static_race(i8* %_3), !dbg !852
  br label %bb2, !dbg !852

bb2:                                              ; preds = %bb1
  ret i8* %0, !dbg !853
}

; <core::ptr::non_null::NonNull<alloc::sync::ArcInner<core::cell::UnsafeCell<core::option::Option<core::result::Result<(), alloc::boxed::Box<dyn core::any::Any + core::marker::Send>>>>>>>::cast::<u8>
; Function Attrs: inlinehint nonlazybind uwtable
define internal nonnull i8* @_RINvMs1_NtNtCs3p84KrD9aKt_4core3ptr8non_nullINtB6_7NonNullINtNtCs8RW06R9lH2S_5alloc4sync8ArcInnerINtNtBa_4cell10UnsafeCellINtNtBa_6option6OptionINtNtBa_6result6ResultuINtNtBZ_5boxed3BoxDNtNtBa_3any3AnyNtNtBa_6marker4SendEL_EEEEEE4casthECsfnYCCstO0CH_18mapped_static_race(i64* nonnull %self) unnamed_addr #1 !dbg !854 {
start:
  %self.dbg.spill = alloca i64*, align 8
  store i64* %self, i64** %self.dbg.spill, align 8
  call void @llvm.dbg.declare(metadata i64** %self.dbg.spill, metadata !859, metadata !DIExpression()), !dbg !860
; call <core::ptr::non_null::NonNull<alloc::sync::ArcInner<core::cell::UnsafeCell<core::option::Option<core::result::Result<(), alloc::boxed::Box<dyn core::any::Any + core::marker::Send>>>>>>>::as_ptr
  %_3 = call %"alloc::sync::ArcInner<std::cell::UnsafeCell<std::option::Option<std::result::Result<(), std::boxed::Box<dyn std::any::Any + std::marker::Send>>>>>"* @_RNvMs1_NtNtCs3p84KrD9aKt_4core3ptr8non_nullINtB5_7NonNullINtNtCs8RW06R9lH2S_5alloc4sync8ArcInnerINtNtB9_4cell10UnsafeCellINtNtB9_6option6OptionINtNtB9_6result6ResultuINtNtBY_5boxed3BoxDNtNtB9_3any3AnyNtNtB9_6marker4SendEL_EEEEEE6as_ptrCsfnYCCstO0CH_18mapped_static_race(i64* nonnull %self), !dbg !861
  br label %bb1, !dbg !861

bb1:                                              ; preds = %start
  %_2 = bitcast %"alloc::sync::ArcInner<std::cell::UnsafeCell<std::option::Option<std::result::Result<(), std::boxed::Box<dyn std::any::Any + std::marker::Send>>>>>"* %_3 to i8*, !dbg !861
; call <core::ptr::non_null::NonNull<u8>>::new_unchecked
  %0 = call nonnull i8* @_RNvMs1_NtNtCs3p84KrD9aKt_4core3ptr8non_nullINtB5_7NonNullhE13new_uncheckedCsfnYCCstO0CH_18mapped_static_race(i8* %_2), !dbg !862
  br label %bb2, !dbg !862

bb2:                                              ; preds = %bb1
  ret i8* %0, !dbg !863
}

; <core::ptr::non_null::NonNull<alloc::sync::ArcInner<std::sync::mutex::Mutex<alloc::vec::Vec<u8>>>>>::cast::<u8>
; Function Attrs: inlinehint nonlazybind uwtable
define internal nonnull i8* @_RINvMs1_NtNtCs3p84KrD9aKt_4core3ptr8non_nullINtB6_7NonNullINtNtCs8RW06R9lH2S_5alloc4sync8ArcInnerINtNtNtCs2bNvlddUlXM_3std4sync5mutex5MutexINtNtBZ_3vec3VechEEEE4casthECsfnYCCstO0CH_18mapped_static_race(i64* nonnull %self) unnamed_addr #1 !dbg !864 {
start:
  %self.dbg.spill = alloca i64*, align 8
  store i64* %self, i64** %self.dbg.spill, align 8
  call void @llvm.dbg.declare(metadata i64** %self.dbg.spill, metadata !868, metadata !DIExpression()), !dbg !870
; call <core::ptr::non_null::NonNull<alloc::sync::ArcInner<std::sync::mutex::Mutex<alloc::vec::Vec<u8>>>>>::as_ptr
  %_3 = call %"alloc::sync::ArcInner<std::sync::Mutex<std::vec::Vec<u8>>>"* @_RNvMs1_NtNtCs3p84KrD9aKt_4core3ptr8non_nullINtB5_7NonNullINtNtCs8RW06R9lH2S_5alloc4sync8ArcInnerINtNtNtCs2bNvlddUlXM_3std4sync5mutex5MutexINtNtBY_3vec3VechEEEE6as_ptrCsfnYCCstO0CH_18mapped_static_race(i64* nonnull %self), !dbg !871
  br label %bb1, !dbg !871

bb1:                                              ; preds = %start
  %_2 = bitcast %"alloc::sync::ArcInner<std::sync::Mutex<std::vec::Vec<u8>>>"* %_3 to i8*, !dbg !871
; call <core::ptr::non_null::NonNull<u8>>::new_unchecked
  %0 = call nonnull i8* @_RNvMs1_NtNtCs3p84KrD9aKt_4core3ptr8non_nullINtB5_7NonNullhE13new_uncheckedCsfnYCCstO0CH_18mapped_static_race(i8* %_2), !dbg !872
  br label %bb2, !dbg !872

bb2:                                              ; preds = %bb1
  ret i8* %0, !dbg !873
}

; <core::ptr::non_null::NonNull<alloc::sync::ArcInner<std::thread::Inner>>>::cast::<u8>
; Function Attrs: inlinehint nonlazybind uwtable
define internal nonnull i8* @_RINvMs1_NtNtCs3p84KrD9aKt_4core3ptr8non_nullINtB6_7NonNullINtNtCs8RW06R9lH2S_5alloc4sync8ArcInnerNtNtCs2bNvlddUlXM_3std6thread5InnerEE4casthECsfnYCCstO0CH_18mapped_static_race(i64* nonnull %self) unnamed_addr #1 !dbg !874 {
start:
  %self.dbg.spill = alloca i64*, align 8
  store i64* %self, i64** %self.dbg.spill, align 8
  call void @llvm.dbg.declare(metadata i64** %self.dbg.spill, metadata !878, metadata !DIExpression()), !dbg !880
; call <core::ptr::non_null::NonNull<alloc::sync::ArcInner<std::thread::Inner>>>::as_ptr
  %_3 = call %"alloc::sync::ArcInner<std::thread::Inner>"* @_RNvMs1_NtNtCs3p84KrD9aKt_4core3ptr8non_nullINtB5_7NonNullINtNtCs8RW06R9lH2S_5alloc4sync8ArcInnerNtNtCs2bNvlddUlXM_3std6thread5InnerEE6as_ptrCsfnYCCstO0CH_18mapped_static_race(i64* nonnull %self), !dbg !881
  br label %bb1, !dbg !881

bb1:                                              ; preds = %start
  %_2 = bitcast %"alloc::sync::ArcInner<std::thread::Inner>"* %_3 to i8*, !dbg !881
; call <core::ptr::non_null::NonNull<u8>>::new_unchecked
  %0 = call nonnull i8* @_RNvMs1_NtNtCs3p84KrD9aKt_4core3ptr8non_nullINtB5_7NonNullhE13new_uncheckedCsfnYCCstO0CH_18mapped_static_race(i8* %_2), !dbg !882
  br label %bb2, !dbg !882

bb2:                                              ; preds = %bb1
  ret i8* %0, !dbg !883
}

; <core::fmt::ArgumentV1>::new::<u8>
; Function Attrs: nonlazybind uwtable
define internal { i8*, i64* } @_RINvMs_NtCs3p84KrD9aKt_4core3fmtNtB5_10ArgumentV13newhECsfnYCCstO0CH_18mapped_static_race(i8* noalias readonly align 1 dereferenceable(1) %x, i1 (i8*, %"std::fmt::Formatter"*)* nonnull %f) unnamed_addr #0 !dbg !884 {
start:
  %0 = alloca %"core::fmt::Opaque"*, align 8
  %1 = alloca i1 (%"core::fmt::Opaque"*, %"std::fmt::Formatter"*)*, align 8
  %f.dbg.spill = alloca i1 (i8*, %"std::fmt::Formatter"*)*, align 8
  %x.dbg.spill = alloca i8*, align 8
  %2 = alloca { i8*, i64* }, align 8
  store i8* %x, i8** %x.dbg.spill, align 8
  call void @llvm.dbg.declare(metadata i8** %x.dbg.spill, metadata !917, metadata !DIExpression()), !dbg !919
  store i1 (i8*, %"std::fmt::Formatter"*)* %f, i1 (i8*, %"std::fmt::Formatter"*)** %f.dbg.spill, align 8
  call void @llvm.dbg.declare(metadata i1 (i8*, %"std::fmt::Formatter"*)** %f.dbg.spill, metadata !918, metadata !DIExpression()), !dbg !920
  %3 = bitcast i1 (i8*, %"std::fmt::Formatter"*)* %f to i1 (%"core::fmt::Opaque"*, %"std::fmt::Formatter"*)*, !dbg !921
  store i1 (%"core::fmt::Opaque"*, %"std::fmt::Formatter"*)* %3, i1 (%"core::fmt::Opaque"*, %"std::fmt::Formatter"*)** %1, align 8, !dbg !921
  %_3 = load i1 (%"core::fmt::Opaque"*, %"std::fmt::Formatter"*)*, i1 (%"core::fmt::Opaque"*, %"std::fmt::Formatter"*)** %1, align 8, !dbg !921, !nonnull !4
  br label %bb1, !dbg !921

bb1:                                              ; preds = %start
  %4 = bitcast i8* %x to %"core::fmt::Opaque"*, !dbg !922
  store %"core::fmt::Opaque"* %4, %"core::fmt::Opaque"** %0, align 8, !dbg !922
  %_5 = load %"core::fmt::Opaque"*, %"core::fmt::Opaque"** %0, align 8, !dbg !922, !nonnull !4
  br label %bb2, !dbg !922

bb2:                                              ; preds = %bb1
  %5 = bitcast { i8*, i64* }* %2 to %"core::fmt::Opaque"**, !dbg !923
  store %"core::fmt::Opaque"* %_5, %"core::fmt::Opaque"** %5, align 8, !dbg !923
  %6 = getelementptr inbounds { i8*, i64* }, { i8*, i64* }* %2, i32 0, i32 1, !dbg !923
  %7 = bitcast i64** %6 to i1 (%"core::fmt::Opaque"*, %"std::fmt::Formatter"*)**, !dbg !923
  store i1 (%"core::fmt::Opaque"*, %"std::fmt::Formatter"*)* %_3, i1 (%"core::fmt::Opaque"*, %"std::fmt::Formatter"*)** %7, align 8, !dbg !923
  %8 = getelementptr inbounds { i8*, i64* }, { i8*, i64* }* %2, i32 0, i32 0, !dbg !924
  %9 = load i8*, i8** %8, align 8, !dbg !924, !nonnull !4
  %10 = getelementptr inbounds { i8*, i64* }, { i8*, i64* }* %2, i32 0, i32 1, !dbg !924
  %11 = load i64*, i64** %10, align 8, !dbg !924, !nonnull !4
  %12 = insertvalue { i8*, i64* } undef, i8* %9, 0, !dbg !924
  %13 = insertvalue { i8*, i64* } %12, i64* %11, 1, !dbg !924
  ret { i8*, i64* } %13, !dbg !924
}

; std::rt::lang_start::<()>
; Function Attrs: nonlazybind uwtable
define hidden i64 @_RINvNtCs2bNvlddUlXM_3std2rt10lang_startuECsfnYCCstO0CH_18mapped_static_race(void ()* nonnull %main, i64 %argc, i8** %argv) unnamed_addr #0 !dbg !925 {
start:
  %argv.dbg.spill = alloca i8**, align 8
  %argc.dbg.spill = alloca i64, align 8
  %main.dbg.spill = alloca void ()*, align 8
  %_7 = alloca i64*, align 8
  store void ()* %main, void ()** %main.dbg.spill, align 8
  call void @llvm.dbg.declare(metadata void ()** %main.dbg.spill, metadata !932, metadata !DIExpression()), !dbg !935
  store i64 %argc, i64* %argc.dbg.spill, align 8
  call void @llvm.dbg.declare(metadata i64* %argc.dbg.spill, metadata !933, metadata !DIExpression()), !dbg !936
  store i8** %argv, i8*** %argv.dbg.spill, align 8
  call void @llvm.dbg.declare(metadata i8*** %argv.dbg.spill, metadata !934, metadata !DIExpression()), !dbg !937
  %0 = bitcast i64** %_7 to void ()**, !dbg !938
  store void ()* %main, void ()** %0, align 8, !dbg !938
  %_4.0 = bitcast i64** %_7 to {}*, !dbg !939
; call std::rt::lang_start_internal
  %1 = call i64 @_ZN3std2rt19lang_start_internal17he4958117ec6901fdE({}* nonnull align 1 %_4.0, [3 x i64]* noalias readonly align 8 dereferenceable(24) bitcast ({ void (i64**)*, i64, i64, i32 (i64**)*, i32 (i64**)*, i32 (i64**)* }* @vtable.1 to [3 x i64]*), i64 %argc, i8** %argv), !dbg !940
  br label %bb1, !dbg !940

bb1:                                              ; preds = %start
  ret i64 %1, !dbg !941
}

; std::panic::catch_unwind::<std::panic::AssertUnwindSafe<<std::thread::Builder>::spawn_unchecked<mapped_static_race::main::{closure#0}, ()>::{closure#0}::{closure#0}>, ()>
; Function Attrs: nonlazybind uwtable
define internal { i8*, i8* } @_RINvNtCs2bNvlddUlXM_3std5panic12catch_unwindINtB2_16AssertUnwindSafeNCNCINvMNtB4_6threadNtB1c_7Builder15spawn_uncheckedNCNvCsfnYCCstO0CH_18mapped_static_race4main0uE00EuEB1X_() unnamed_addr #0 !dbg !942 {
start:
  %f.dbg.spill = alloca %"std::panic::AssertUnwindSafe<[closure@std::thread::Builder::spawn_unchecked<[closure@src/main.rs:10:30: 13:3], ()>::{closure#0}::{closure#0}]>", align 1
  call void @llvm.dbg.declare(metadata %"std::panic::AssertUnwindSafe<[closure@std::thread::Builder::spawn_unchecked<[closure@src/main.rs:10:30: 13:3], ()>::{closure#0}::{closure#0}]>"* %f.dbg.spill, metadata !957, metadata !DIExpression()), !dbg !961
; call std::panicking::try::<(), std::panic::AssertUnwindSafe<<std::thread::Builder>::spawn_unchecked<mapped_static_race::main::{closure#0}, ()>::{closure#0}::{closure#0}>>
  %0 = call { i8*, i8* } @_RINvNtCs2bNvlddUlXM_3std9panicking3tryuINtNtB4_5panic16AssertUnwindSafeNCNCINvMNtB4_6threadNtB1f_7Builder15spawn_uncheckedNCNvCsfnYCCstO0CH_18mapped_static_race4main0uE00EEB20_(), !dbg !962
  %1 = extractvalue { i8*, i8* } %0, 0, !dbg !962
  %2 = extractvalue { i8*, i8* } %0, 1, !dbg !962
  br label %bb1, !dbg !962

bb1:                                              ; preds = %start
  %3 = insertvalue { i8*, i8* } undef, i8* %1, 0, !dbg !963
  %4 = insertvalue { i8*, i8* } %3, i8* %2, 1, !dbg !963
  ret { i8*, i8* } %4, !dbg !963
}

; std::thread::spawn::<mapped_static_race::main::{closure#0}, ()>
; Function Attrs: nonlazybind uwtable
define internal void @_RINvNtCs2bNvlddUlXM_3std6thread5spawnNCNvCsfnYCCstO0CH_18mapped_static_race4main0uEBD_(%"std::thread::JoinHandle<()>"* noalias nocapture sret dereferenceable(32) %0) unnamed_addr #0 personality i32 (i32, i32, i64, %"unwind::libunwind::_Unwind_Exception"*, %"unwind::libunwind::_Unwind_Context"*)* @rust_eh_personality !dbg !964 {
start:
  %1 = alloca { i8*, i32 }, align 8
  %f.dbg.spill = alloca %"[closure@src/main.rs:10:30: 13:3]", align 1
  %_7 = alloca i8, align 1
  %_3 = alloca %"std::thread::Builder", align 8
  %_2 = alloca %"std::result::Result<std::thread::JoinHandle<()>, std::io::Error>", align 8
  call void @llvm.dbg.declare(metadata %"[closure@src/main.rs:10:30: 13:3]"* %f.dbg.spill, metadata !968, metadata !DIExpression()), !dbg !969
  store i8 0, i8* %_7, align 1, !dbg !970
  store i8 1, i8* %_7, align 1, !dbg !970
; invoke std::thread::Builder::new
  invoke void @_ZN3std6thread7Builder3new17h18aec502241fcaefE(%"std::thread::Builder"* noalias nocapture sret dereferenceable(40) %_3)
          to label %bb1 unwind label %cleanup, !dbg !970

bb1:                                              ; preds = %start
  store i8 0, i8* %_7, align 1, !dbg !971
; invoke <std::thread::Builder>::spawn::<mapped_static_race::main::{closure#0}, ()>
  invoke void @_RINvMNtCs2bNvlddUlXM_3std6threadNtB3_7Builder5spawnNCNvCsfnYCCstO0CH_18mapped_static_race4main0uEBR_(%"std::result::Result<std::thread::JoinHandle<()>, std::io::Error>"* noalias nocapture sret dereferenceable(40) %_2, %"std::thread::Builder"* noalias nocapture dereferenceable(40) %_3)
          to label %bb2 unwind label %cleanup, !dbg !970

bb2:                                              ; preds = %bb1
; invoke <core::result::Result<std::thread::JoinHandle<()>, std::io::error::Error>>::expect
  invoke void @_RNvMs3_NtCs3p84KrD9aKt_4core6resultINtB5_6ResultINtNtCs2bNvlddUlXM_3std6thread10JoinHandleuENtNtNtBP_2io5error5ErrorE6expectCsfnYCCstO0CH_18mapped_static_race(%"std::thread::JoinHandle<()>"* noalias nocapture sret dereferenceable(32) %0, %"std::result::Result<std::thread::JoinHandle<()>, std::io::Error>"* noalias nocapture dereferenceable(40) %_2, [0 x i8]* noalias nonnull readonly align 1 bitcast (<{ [22 x i8] }>* @alloc45 to [0 x i8]*), i64 22, %"std::panic::Location"* noalias readonly align 8 dereferenceable(24) bitcast (<{ i8*, [16 x i8] }>* @alloc47 to %"std::panic::Location"*))
          to label %bb3 unwind label %cleanup, !dbg !970

bb3:                                              ; preds = %bb2
  ret void, !dbg !972

bb4:                                              ; preds = %bb5, %bb6
  %2 = bitcast { i8*, i32 }* %1 to i8**, !dbg !973
  %3 = load i8*, i8** %2, align 8, !dbg !973
  %4 = getelementptr inbounds { i8*, i32 }, { i8*, i32 }* %1, i32 0, i32 1, !dbg !973
  %5 = load i32, i32* %4, align 8, !dbg !973
  %6 = insertvalue { i8*, i32 } undef, i8* %3, 0, !dbg !973
  %7 = insertvalue { i8*, i32 } %6, i32 %5, 1, !dbg !973
  resume { i8*, i32 } %7, !dbg !973

bb5:                                              ; preds = %bb6
  br label %bb4, !dbg !974

bb6:                                              ; preds = %cleanup
  %8 = load i8, i8* %_7, align 1, !dbg !974, !range !561
  %9 = trunc i8 %8 to i1, !dbg !974
  br i1 %9, label %bb5, label %bb4, !dbg !974

cleanup:                                          ; preds = %bb2, %bb1, %start
  %10 = landingpad { i8*, i32 }
          cleanup
  %11 = extractvalue { i8*, i32 } %10, 0
  %12 = extractvalue { i8*, i32 } %10, 1
  %13 = getelementptr inbounds { i8*, i32 }, { i8*, i32 }* %1, i32 0, i32 0
  store i8* %11, i8** %13, align 8
  %14 = getelementptr inbounds { i8*, i32 }, { i8*, i32 }* %1, i32 0, i32 1
  store i32 %12, i32* %14, align 8
  br label %bb6
}

; std::panicking::try::<(), std::panic::AssertUnwindSafe<<std::thread::Builder>::spawn_unchecked<mapped_static_race::main::{closure#0}, ()>::{closure#0}::{closure#0}>>
; Function Attrs: nonlazybind uwtable
define internal { i8*, i8* } @_RINvNtCs2bNvlddUlXM_3std9panicking3tryuINtNtB4_5panic16AssertUnwindSafeNCNCINvMNtB4_6threadNtB1f_7Builder15spawn_uncheckedNCNvCsfnYCCstO0CH_18mapped_static_race4main0uE00EEB20_() unnamed_addr #0 !dbg !975 {
start:
  %slot.dbg.spill.i = alloca { i8*, i64* }, align 8
  %0 = alloca %"std::mem::ManuallyDrop<std::panic::AssertUnwindSafe<[closure@std::thread::Builder::spawn_unchecked<[closure@src/main.rs:10:30: 13:3], ()>::{closure#0}::{closure#0}]>>", align 1
  %1 = alloca i32, align 4
  %data_ptr.dbg.spill = alloca i8*, align 8
  %f.dbg.spill = alloca %"std::panic::AssertUnwindSafe<[closure@std::thread::Builder::spawn_unchecked<[closure@src/main.rs:10:30: 13:3], ()>::{closure#0}::{closure#0}]>", align 1
  %data = alloca { i8*, i8* }, align 8
  %2 = alloca { i8*, i8* }, align 8
  call void @llvm.dbg.declare(metadata %"std::panic::AssertUnwindSafe<[closure@std::thread::Builder::spawn_unchecked<[closure@src/main.rs:10:30: 13:3], ()>::{closure#0}::{closure#0}]>"* %f.dbg.spill, metadata !979, metadata !DIExpression()), !dbg !1006
  call void @llvm.dbg.declare(metadata { i8*, i8* }* %data, metadata !980, metadata !DIExpression()), !dbg !1007
  call void @llvm.dbg.declare(metadata %"std::panic::AssertUnwindSafe<[closure@std::thread::Builder::spawn_unchecked<[closure@src/main.rs:10:30: 13:3], ()>::{closure#0}::{closure#0}]>"* undef, metadata !1008, metadata !DIExpression()), !dbg !1014
  %3 = bitcast %"std::mem::ManuallyDrop<std::panic::AssertUnwindSafe<[closure@std::thread::Builder::spawn_unchecked<[closure@src/main.rs:10:30: 13:3], ()>::{closure#0}::{closure#0}]>>"* %0 to %"std::panic::AssertUnwindSafe<[closure@std::thread::Builder::spawn_unchecked<[closure@src/main.rs:10:30: 13:3], ()>::{closure#0}::{closure#0}]>"*, !dbg !1016
  br label %bb1, !dbg !1017

bb1:                                              ; preds = %start
  %4 = bitcast { i8*, i8* }* %data to %"std::mem::ManuallyDrop<std::panic::AssertUnwindSafe<[closure@std::thread::Builder::spawn_unchecked<[closure@src/main.rs:10:30: 13:3], ()>::{closure#0}::{closure#0}]>>"*, !dbg !1018
  %data_ptr = bitcast { i8*, i8* }* %data to i8*, !dbg !1019
  store i8* %data_ptr, i8** %data_ptr.dbg.spill, align 8, !dbg !1019
  call void @llvm.dbg.declare(metadata i8** %data_ptr.dbg.spill, metadata !1003, metadata !DIExpression()), !dbg !1020
  %5 = call i32 @__rust_try(void (i8*)* @_RINvNvNtCs2bNvlddUlXM_3std9panicking3try7do_callINtNtB6_5panic16AssertUnwindSafeNCNCINvMNtB6_6threadNtB1o_7Builder15spawn_uncheckedNCNvCsfnYCCstO0CH_18mapped_static_race4main0uE00EuEB29_, i8* %data_ptr, void (i8*, i8*)* @_RINvNvNtCs2bNvlddUlXM_3std9panicking3try8do_catchINtNtB6_5panic16AssertUnwindSafeNCNCINvMNtB6_6threadNtB1p_7Builder15spawn_uncheckedNCNvCsfnYCCstO0CH_18mapped_static_race4main0uE00EuEB2a_), !dbg !1021
  store i32 %5, i32* %1, align 4, !dbg !1021
  %_9 = load i32, i32* %1, align 4, !dbg !1021
  br label %bb2, !dbg !1021

bb2:                                              ; preds = %bb1
  %6 = icmp eq i32 %_9, 0, !dbg !1022
  br i1 %6, label %bb3, label %bb4, !dbg !1022

bb3:                                              ; preds = %bb2
  call void @llvm.dbg.declare(metadata %"std::mem::ManuallyDrop<()>"* undef, metadata !1023, metadata !DIExpression()), !dbg !1028
  br label %bb5, !dbg !1030

bb4:                                              ; preds = %bb2
  %7 = bitcast { i8*, i8* }* %data to { i8*, i64* }*, !dbg !1031
  %8 = getelementptr inbounds { i8*, i64* }, { i8*, i64* }* %7, i32 0, i32 0, !dbg !1031
  %_17.0 = load i8*, i8** %8, align 8, !dbg !1031, !nonnull !4
  %9 = getelementptr inbounds { i8*, i64* }, { i8*, i64* }* %7, i32 0, i32 1, !dbg !1031
  %_17.1 = load i64*, i64** %9, align 8, !dbg !1031, !nonnull !4
  %10 = getelementptr inbounds { i8*, i64* }, { i8*, i64* }* %slot.dbg.spill.i, i32 0, i32 0
  store i8* %_17.0, i8** %10, align 8, !noalias !1032
  %11 = getelementptr inbounds { i8*, i64* }, { i8*, i64* }* %slot.dbg.spill.i, i32 0, i32 1
  store i64* %_17.1, i64** %11, align 8, !noalias !1032
  call void @llvm.dbg.declare(metadata { i8*, i64* }* %slot.dbg.spill.i, metadata !1036, metadata !DIExpression()), !dbg !1041
  %12 = bitcast i8* %_17.0 to {}*, !dbg !1043
  %13 = bitcast i64* %_17.1 to [3 x i64]*, !dbg !1043
  %14 = insertvalue { {}*, [3 x i64]* } undef, {}* %12, 0, !dbg !1044
  %15 = insertvalue { {}*, [3 x i64]* } %14, [3 x i64]* %13, 1, !dbg !1044
  %_16.0 = extractvalue { {}*, [3 x i64]* } %15, 0, !dbg !1045
  %_16.1 = extractvalue { {}*, [3 x i64]* } %15, 1, !dbg !1045
  br label %bb6, !dbg !1045

bb5:                                              ; preds = %bb3
  %16 = bitcast { i8*, i8* }* %2 to %"std::result::Result<(), std::boxed::Box<dyn std::any::Any + std::marker::Send>>::Ok"*, !dbg !1046
  %17 = bitcast %"std::result::Result<(), std::boxed::Box<dyn std::any::Any + std::marker::Send>>::Ok"* %16 to {}*, !dbg !1046
  %18 = bitcast { i8*, i8* }* %2 to {}**, !dbg !1046
  store {}* null, {}** %18, align 8, !dbg !1046
  br label %bb7, !dbg !1022

bb6:                                              ; preds = %bb4
  %19 = bitcast { i8*, i8* }* %2 to { {}*, [3 x i64]* }*, !dbg !1047
  %20 = getelementptr inbounds { {}*, [3 x i64]* }, { {}*, [3 x i64]* }* %19, i32 0, i32 0, !dbg !1047
  store {}* %_16.0, {}** %20, align 8, !dbg !1047
  %21 = getelementptr inbounds { {}*, [3 x i64]* }, { {}*, [3 x i64]* }* %19, i32 0, i32 1, !dbg !1047
  store [3 x i64]* %_16.1, [3 x i64]** %21, align 8, !dbg !1047
  br label %bb7, !dbg !1022

bb7:                                              ; preds = %bb5, %bb6
  %22 = getelementptr inbounds { i8*, i8* }, { i8*, i8* }* %2, i32 0, i32 0, !dbg !1048
  %23 = load i8*, i8** %22, align 8, !dbg !1048
  %24 = getelementptr inbounds { i8*, i8* }, { i8*, i8* }* %2, i32 0, i32 1, !dbg !1048
  %25 = load i8*, i8** %24, align 8, !dbg !1048
  %26 = insertvalue { i8*, i8* } undef, i8* %23, 0, !dbg !1048
  %27 = insertvalue { i8*, i8* } %26, i8* %25, 1, !dbg !1048
  ret { i8*, i8* } %27, !dbg !1048
}

; core::intrinsics::copy_nonoverlapping::<std::panic::AssertUnwindSafe<<std::thread::Builder>::spawn_unchecked<mapped_static_race::main::{closure#0}, ()>::{closure#0}::{closure#0}>>
; Function Attrs: inlinehint nonlazybind uwtable
define internal void @_RINvNtCs3p84KrD9aKt_4core10intrinsics19copy_nonoverlappingINtNtCs2bNvlddUlXM_3std5panic16AssertUnwindSafeNCNCINvMNtBZ_6threadNtB1N_7Builder15spawn_uncheckedNCNvCsfnYCCstO0CH_18mapped_static_race4main0uE00EEB2y_(%"std::panic::AssertUnwindSafe<[closure@std::thread::Builder::spawn_unchecked<[closure@src/main.rs:10:30: 13:3], ()>::{closure#0}::{closure#0}]>"* %src, %"std::panic::AssertUnwindSafe<[closure@std::thread::Builder::spawn_unchecked<[closure@src/main.rs:10:30: 13:3], ()>::{closure#0}::{closure#0}]>"* %dst, i64 %count) unnamed_addr #1 !dbg !1049 {
start:
  %count.dbg.spill = alloca i64, align 8
  %dst.dbg.spill = alloca %"std::panic::AssertUnwindSafe<[closure@std::thread::Builder::spawn_unchecked<[closure@src/main.rs:10:30: 13:3], ()>::{closure#0}::{closure#0}]>"*, align 8
  %src.dbg.spill = alloca %"std::panic::AssertUnwindSafe<[closure@std::thread::Builder::spawn_unchecked<[closure@src/main.rs:10:30: 13:3], ()>::{closure#0}::{closure#0}]>"*, align 8
  store %"std::panic::AssertUnwindSafe<[closure@std::thread::Builder::spawn_unchecked<[closure@src/main.rs:10:30: 13:3], ()>::{closure#0}::{closure#0}]>"* %src, %"std::panic::AssertUnwindSafe<[closure@std::thread::Builder::spawn_unchecked<[closure@src/main.rs:10:30: 13:3], ()>::{closure#0}::{closure#0}]>"** %src.dbg.spill, align 8
  call void @llvm.dbg.declare(metadata %"std::panic::AssertUnwindSafe<[closure@std::thread::Builder::spawn_unchecked<[closure@src/main.rs:10:30: 13:3], ()>::{closure#0}::{closure#0}]>"** %src.dbg.spill, metadata !1057, metadata !DIExpression()), !dbg !1060
  store %"std::panic::AssertUnwindSafe<[closure@std::thread::Builder::spawn_unchecked<[closure@src/main.rs:10:30: 13:3], ()>::{closure#0}::{closure#0}]>"* %dst, %"std::panic::AssertUnwindSafe<[closure@std::thread::Builder::spawn_unchecked<[closure@src/main.rs:10:30: 13:3], ()>::{closure#0}::{closure#0}]>"** %dst.dbg.spill, align 8
  call void @llvm.dbg.declare(metadata %"std::panic::AssertUnwindSafe<[closure@std::thread::Builder::spawn_unchecked<[closure@src/main.rs:10:30: 13:3], ()>::{closure#0}::{closure#0}]>"** %dst.dbg.spill, metadata !1058, metadata !DIExpression()), !dbg !1061
  store i64 %count, i64* %count.dbg.spill, align 8
  call void @llvm.dbg.declare(metadata i64* %count.dbg.spill, metadata !1059, metadata !DIExpression()), !dbg !1062
  %0 = mul i64 0, %count, !dbg !1063
  %1 = bitcast %"std::panic::AssertUnwindSafe<[closure@std::thread::Builder::spawn_unchecked<[closure@src/main.rs:10:30: 13:3], ()>::{closure#0}::{closure#0}]>"* %dst to i8*, !dbg !1063
  %2 = bitcast %"std::panic::AssertUnwindSafe<[closure@std::thread::Builder::spawn_unchecked<[closure@src/main.rs:10:30: 13:3], ()>::{closure#0}::{closure#0}]>"* %src to i8*, !dbg !1063
  call void @llvm.memcpy.p0i8.p0i8.i64(i8* align 1 %1, i8* align 1 %2, i64 %0, i1 false), !dbg !1063
  br label %bb1, !dbg !1063

bb1:                                              ; preds = %start
  ret void, !dbg !1064
}

; core::mem::size_of_val_raw::<alloc::sync::ArcInner<core::cell::UnsafeCell<core::option::Option<core::result::Result<(), alloc::boxed::Box<dyn core::any::Any + core::marker::Send>>>>>>
; Function Attrs: inlinehint nonlazybind uwtable
define internal i64 @_RINvNtCs3p84KrD9aKt_4core3mem15size_of_val_rawINtNtCs8RW06R9lH2S_5alloc4sync8ArcInnerINtNtB4_4cell10UnsafeCellINtNtB4_6option6OptionINtNtB4_6result6ResultuINtNtBN_5boxed3BoxDNtNtB4_3any3AnyNtNtB4_6marker4SendEL_EEEEEECsfnYCCstO0CH_18mapped_static_race(%"alloc::sync::ArcInner<std::cell::UnsafeCell<std::option::Option<std::result::Result<(), std::boxed::Box<dyn std::any::Any + std::marker::Send>>>>>"* %val) unnamed_addr #1 !dbg !1065 {
start:
  %0 = alloca i64, align 8
  %val.dbg.spill = alloca %"alloc::sync::ArcInner<std::cell::UnsafeCell<std::option::Option<std::result::Result<(), std::boxed::Box<dyn std::any::Any + std::marker::Send>>>>>"*, align 8
  store %"alloc::sync::ArcInner<std::cell::UnsafeCell<std::option::Option<std::result::Result<(), std::boxed::Box<dyn std::any::Any + std::marker::Send>>>>>"* %val, %"alloc::sync::ArcInner<std::cell::UnsafeCell<std::option::Option<std::result::Result<(), std::boxed::Box<dyn std::any::Any + std::marker::Send>>>>>"** %val.dbg.spill, align 8
  call void @llvm.dbg.declare(metadata %"alloc::sync::ArcInner<std::cell::UnsafeCell<std::option::Option<std::result::Result<(), std::boxed::Box<dyn std::any::Any + std::marker::Send>>>>>"** %val.dbg.spill, metadata !1070, metadata !DIExpression()), !dbg !1071
  store i64 40, i64* %0, align 8, !dbg !1072
  %1 = load i64, i64* %0, align 8, !dbg !1072
  br label %bb1, !dbg !1072

bb1:                                              ; preds = %start
  ret i64 %1, !dbg !1073
}

; core::mem::size_of_val_raw::<alloc::sync::ArcInner<std::sync::mutex::Mutex<alloc::vec::Vec<u8>>>>
; Function Attrs: inlinehint nonlazybind uwtable
define internal i64 @_RINvNtCs3p84KrD9aKt_4core3mem15size_of_val_rawINtNtCs8RW06R9lH2S_5alloc4sync8ArcInnerINtNtNtCs2bNvlddUlXM_3std4sync5mutex5MutexINtNtBN_3vec3VechEEEECsfnYCCstO0CH_18mapped_static_race(%"alloc::sync::ArcInner<std::sync::Mutex<std::vec::Vec<u8>>>"* %val) unnamed_addr #1 !dbg !1074 {
start:
  %0 = alloca i64, align 8
  %val.dbg.spill = alloca %"alloc::sync::ArcInner<std::sync::Mutex<std::vec::Vec<u8>>>"*, align 8
  store %"alloc::sync::ArcInner<std::sync::Mutex<std::vec::Vec<u8>>>"* %val, %"alloc::sync::ArcInner<std::sync::Mutex<std::vec::Vec<u8>>>"** %val.dbg.spill, align 8
  call void @llvm.dbg.declare(metadata %"alloc::sync::ArcInner<std::sync::Mutex<std::vec::Vec<u8>>>"** %val.dbg.spill, metadata !1078, metadata !DIExpression()), !dbg !1079
  store i64 56, i64* %0, align 8, !dbg !1080
  %1 = load i64, i64* %0, align 8, !dbg !1080
  br label %bb1, !dbg !1080

bb1:                                              ; preds = %start
  ret i64 %1, !dbg !1081
}

; core::mem::size_of_val_raw::<alloc::sync::ArcInner<std::thread::Inner>>
; Function Attrs: inlinehint nonlazybind uwtable
define internal i64 @_RINvNtCs3p84KrD9aKt_4core3mem15size_of_val_rawINtNtCs8RW06R9lH2S_5alloc4sync8ArcInnerNtNtCs2bNvlddUlXM_3std6thread5InnerEECsfnYCCstO0CH_18mapped_static_race(%"alloc::sync::ArcInner<std::thread::Inner>"* %val) unnamed_addr #1 !dbg !1082 {
start:
  %0 = alloca i64, align 8
  %val.dbg.spill = alloca %"alloc::sync::ArcInner<std::thread::Inner>"*, align 8
  store %"alloc::sync::ArcInner<std::thread::Inner>"* %val, %"alloc::sync::ArcInner<std::thread::Inner>"** %val.dbg.spill, align 8
  call void @llvm.dbg.declare(metadata %"alloc::sync::ArcInner<std::thread::Inner>"** %val.dbg.spill, metadata !1086, metadata !DIExpression()), !dbg !1087
  store i64 48, i64* %0, align 8, !dbg !1088
  %1 = load i64, i64* %0, align 8, !dbg !1088
  br label %bb1, !dbg !1088

bb1:                                              ; preds = %start
  ret i64 %1, !dbg !1089
}

; core::mem::align_of_val_raw::<alloc::sync::ArcInner<core::cell::UnsafeCell<core::option::Option<core::result::Result<(), alloc::boxed::Box<dyn core::any::Any + core::marker::Send>>>>>>
; Function Attrs: inlinehint nonlazybind uwtable
define internal i64 @_RINvNtCs3p84KrD9aKt_4core3mem16align_of_val_rawINtNtCs8RW06R9lH2S_5alloc4sync8ArcInnerINtNtB4_4cell10UnsafeCellINtNtB4_6option6OptionINtNtB4_6result6ResultuINtNtBO_5boxed3BoxDNtNtB4_3any3AnyNtNtB4_6marker4SendEL_EEEEEECsfnYCCstO0CH_18mapped_static_race(%"alloc::sync::ArcInner<std::cell::UnsafeCell<std::option::Option<std::result::Result<(), std::boxed::Box<dyn std::any::Any + std::marker::Send>>>>>"* %val) unnamed_addr #1 !dbg !1090 {
start:
  %0 = alloca i64, align 8
  %val.dbg.spill = alloca %"alloc::sync::ArcInner<std::cell::UnsafeCell<std::option::Option<std::result::Result<(), std::boxed::Box<dyn std::any::Any + std::marker::Send>>>>>"*, align 8
  store %"alloc::sync::ArcInner<std::cell::UnsafeCell<std::option::Option<std::result::Result<(), std::boxed::Box<dyn std::any::Any + std::marker::Send>>>>>"* %val, %"alloc::sync::ArcInner<std::cell::UnsafeCell<std::option::Option<std::result::Result<(), std::boxed::Box<dyn std::any::Any + std::marker::Send>>>>>"** %val.dbg.spill, align 8
  call void @llvm.dbg.declare(metadata %"alloc::sync::ArcInner<std::cell::UnsafeCell<std::option::Option<std::result::Result<(), std::boxed::Box<dyn std::any::Any + std::marker::Send>>>>>"** %val.dbg.spill, metadata !1092, metadata !DIExpression()), !dbg !1093
  store i64 8, i64* %0, align 8, !dbg !1094
  %1 = load i64, i64* %0, align 8, !dbg !1094
  br label %bb1, !dbg !1094

bb1:                                              ; preds = %start
  ret i64 %1, !dbg !1095
}

; core::mem::align_of_val_raw::<alloc::sync::ArcInner<std::sync::mutex::Mutex<alloc::vec::Vec<u8>>>>
; Function Attrs: inlinehint nonlazybind uwtable
define internal i64 @_RINvNtCs3p84KrD9aKt_4core3mem16align_of_val_rawINtNtCs8RW06R9lH2S_5alloc4sync8ArcInnerINtNtNtCs2bNvlddUlXM_3std4sync5mutex5MutexINtNtBO_3vec3VechEEEECsfnYCCstO0CH_18mapped_static_race(%"alloc::sync::ArcInner<std::sync::Mutex<std::vec::Vec<u8>>>"* %val) unnamed_addr #1 !dbg !1096 {
start:
  %0 = alloca i64, align 8
  %val.dbg.spill = alloca %"alloc::sync::ArcInner<std::sync::Mutex<std::vec::Vec<u8>>>"*, align 8
  store %"alloc::sync::ArcInner<std::sync::Mutex<std::vec::Vec<u8>>>"* %val, %"alloc::sync::ArcInner<std::sync::Mutex<std::vec::Vec<u8>>>"** %val.dbg.spill, align 8
  call void @llvm.dbg.declare(metadata %"alloc::sync::ArcInner<std::sync::Mutex<std::vec::Vec<u8>>>"** %val.dbg.spill, metadata !1098, metadata !DIExpression()), !dbg !1099
  store i64 8, i64* %0, align 8, !dbg !1100
  %1 = load i64, i64* %0, align 8, !dbg !1100
  br label %bb1, !dbg !1100

bb1:                                              ; preds = %start
  ret i64 %1, !dbg !1101
}

; core::mem::align_of_val_raw::<alloc::sync::ArcInner<std::thread::Inner>>
; Function Attrs: inlinehint nonlazybind uwtable
define internal i64 @_RINvNtCs3p84KrD9aKt_4core3mem16align_of_val_rawINtNtCs8RW06R9lH2S_5alloc4sync8ArcInnerNtNtCs2bNvlddUlXM_3std6thread5InnerEECsfnYCCstO0CH_18mapped_static_race(%"alloc::sync::ArcInner<std::thread::Inner>"* %val) unnamed_addr #1 !dbg !1102 {
start:
  %0 = alloca i64, align 8
  %val.dbg.spill = alloca %"alloc::sync::ArcInner<std::thread::Inner>"*, align 8
  store %"alloc::sync::ArcInner<std::thread::Inner>"* %val, %"alloc::sync::ArcInner<std::thread::Inner>"** %val.dbg.spill, align 8
  call void @llvm.dbg.declare(metadata %"alloc::sync::ArcInner<std::thread::Inner>"** %val.dbg.spill, metadata !1104, metadata !DIExpression()), !dbg !1105
  store i64 8, i64* %0, align 8, !dbg !1106
  %1 = load i64, i64* %0, align 8, !dbg !1106
  br label %bb1, !dbg !1106

bb1:                                              ; preds = %start
  ret i64 %1, !dbg !1107
}

; core::mem::drop::<alloc::sync::Weak<core::cell::UnsafeCell<core::option::Option<core::result::Result<(), alloc::boxed::Box<dyn core::any::Any + core::marker::Send>>>>>>
; Function Attrs: inlinehint nonlazybind uwtable
define internal void @_RINvNtCs3p84KrD9aKt_4core3mem4dropINtNtCs8RW06R9lH2S_5alloc4sync4WeakINtNtB4_4cell10UnsafeCellINtNtB4_6option6OptionINtNtB4_6result6ResultuINtNtBB_5boxed3BoxDNtNtB4_3any3AnyNtNtB4_6marker4SendEL_EEEEEECsfnYCCstO0CH_18mapped_static_race(i64* nonnull %0) unnamed_addr #1 !dbg !1108 {
start:
  %_x = alloca i64*, align 8
  store i64* %0, i64** %_x, align 8
  call void @llvm.dbg.declare(metadata i64** %_x, metadata !1115, metadata !DIExpression()), !dbg !1118
; call core::ptr::drop_in_place::<alloc::sync::Weak<core::cell::UnsafeCell<core::option::Option<core::result::Result<(), alloc::boxed::Box<dyn core::any::Any + core::marker::Send>>>>>>
  call void @_RINvNtCs3p84KrD9aKt_4core3ptr13drop_in_placeINtNtCs8RW06R9lH2S_5alloc4sync4WeakINtNtB4_4cell10UnsafeCellINtNtB4_6option6OptionINtNtB4_6result6ResultuINtNtBL_5boxed3BoxDNtNtB4_3any3AnyNtNtB4_6marker4SendEL_EEEEEECsfnYCCstO0CH_18mapped_static_race(i64** %_x), !dbg !1119
  br label %bb1, !dbg !1119

bb1:                                              ; preds = %start
  ret void, !dbg !1120
}

; core::mem::drop::<alloc::sync::Weak<std::sync::mutex::Mutex<alloc::vec::Vec<u8>>>>
; Function Attrs: inlinehint nonlazybind uwtable
define internal void @_RINvNtCs3p84KrD9aKt_4core3mem4dropINtNtCs8RW06R9lH2S_5alloc4sync4WeakINtNtNtCs2bNvlddUlXM_3std4sync5mutex5MutexINtNtBB_3vec3VechEEEECsfnYCCstO0CH_18mapped_static_race(i64* nonnull %0) unnamed_addr #1 !dbg !1121 {
start:
  %_x = alloca i64*, align 8
  store i64* %0, i64** %_x, align 8
  call void @llvm.dbg.declare(metadata i64** %_x, metadata !1128, metadata !DIExpression()), !dbg !1131
; call core::ptr::drop_in_place::<alloc::sync::Weak<std::sync::mutex::Mutex<alloc::vec::Vec<u8>>>>
  call void @_RINvNtCs3p84KrD9aKt_4core3ptr13drop_in_placeINtNtCs8RW06R9lH2S_5alloc4sync4WeakINtNtNtCs2bNvlddUlXM_3std4sync5mutex5MutexINtNtBL_3vec3VechEEEECsfnYCCstO0CH_18mapped_static_race(i64** %_x), !dbg !1132
  br label %bb1, !dbg !1132

bb1:                                              ; preds = %start
  ret void, !dbg !1133
}

; core::mem::drop::<alloc::sync::Weak<std::thread::Inner>>
; Function Attrs: inlinehint nonlazybind uwtable
define internal void @_RINvNtCs3p84KrD9aKt_4core3mem4dropINtNtCs8RW06R9lH2S_5alloc4sync4WeakNtNtCs2bNvlddUlXM_3std6thread5InnerEECsfnYCCstO0CH_18mapped_static_race(i64* nonnull %0) unnamed_addr #1 !dbg !1134 {
start:
  %_x = alloca i64*, align 8
  store i64* %0, i64** %_x, align 8
  call void @llvm.dbg.declare(metadata i64** %_x, metadata !1141, metadata !DIExpression()), !dbg !1144
; call core::ptr::drop_in_place::<alloc::sync::Weak<std::thread::Inner>>
  call void @_RINvNtCs3p84KrD9aKt_4core3ptr13drop_in_placeINtNtCs8RW06R9lH2S_5alloc4sync4WeakNtNtCs2bNvlddUlXM_3std6thread5InnerEECsfnYCCstO0CH_18mapped_static_race(i64** %_x), !dbg !1145
  br label %bb1, !dbg !1145

bb1:                                              ; preds = %start
  ret void, !dbg !1146
}

; core::ptr::drop_in_place::<dyn core::any::Any + core::marker::Send>
; Function Attrs: nonlazybind uwtable
define internal void @_RINvNtCs3p84KrD9aKt_4core3ptr13drop_in_placeDNtNtB4_3any3AnyNtNtB4_6marker4SendEL_ECsfnYCCstO0CH_18mapped_static_race({}* %_1.0, [3 x i64]* noalias readonly align 8 dereferenceable(24) %_1.1) unnamed_addr #0 !dbg !1147 {
start:
  %_1.dbg.spill = alloca { {}*, [3 x i64]* }, align 8
  %0 = alloca {}, align 1
  %1 = getelementptr inbounds { {}*, [3 x i64]* }, { {}*, [3 x i64]* }* %_1.dbg.spill, i32 0, i32 0
  store {}* %_1.0, {}** %1, align 8
  %2 = getelementptr inbounds { {}*, [3 x i64]* }, { {}*, [3 x i64]* }* %_1.dbg.spill, i32 0, i32 1
  store [3 x i64]* %_1.1, [3 x i64]** %2, align 8
  call void @llvm.dbg.declare(metadata { {}*, [3 x i64]* }* %_1.dbg.spill, metadata !1156, metadata !DIExpression()), !dbg !1157
  %3 = bitcast [3 x i64]* %_1.1 to void ({}*)**, !dbg !1157
  %4 = getelementptr inbounds void ({}*)*, void ({}*)** %3, i64 0, !dbg !1157
  %5 = load void ({}*)*, void ({}*)** %4, align 8, !dbg !1157, !invariant.load !4, !nonnull !4
  call void %5({}* %_1.0), !dbg !1157
  br label %bb1, !dbg !1157

bb1:                                              ; preds = %start
  ret void, !dbg !1157
}

; core::ptr::drop_in_place::<dyn std::error::Error + core::marker::Send + core::marker::Sync>
; Function Attrs: nonlazybind uwtable
define internal void @_RINvNtCs3p84KrD9aKt_4core3ptr13drop_in_placeDNtNtCs2bNvlddUlXM_3std5error5ErrorNtNtB4_6marker4SendNtB1h_4SyncEL_ECsfnYCCstO0CH_18mapped_static_race({}* %_1.0, [3 x i64]* noalias readonly align 8 dereferenceable(24) %_1.1) unnamed_addr #0 !dbg !1158 {
start:
  %_1.dbg.spill = alloca { {}*, [3 x i64]* }, align 8
  %0 = alloca {}, align 1
  %1 = getelementptr inbounds { {}*, [3 x i64]* }, { {}*, [3 x i64]* }* %_1.dbg.spill, i32 0, i32 0
  store {}* %_1.0, {}** %1, align 8
  %2 = getelementptr inbounds { {}*, [3 x i64]* }, { {}*, [3 x i64]* }* %_1.dbg.spill, i32 0, i32 1
  store [3 x i64]* %_1.1, [3 x i64]** %2, align 8
  call void @llvm.dbg.declare(metadata { {}*, [3 x i64]* }* %_1.dbg.spill, metadata !1166, metadata !DIExpression()), !dbg !1167
  %3 = bitcast [3 x i64]* %_1.1 to void ({}*)**, !dbg !1167
  %4 = getelementptr inbounds void ({}*)*, void ({}*)** %3, i64 0, !dbg !1167
  %5 = load void ({}*)*, void ({}*)** %4, align 8, !dbg !1167, !invariant.load !4, !nonnull !4
  call void %5({}* %_1.0), !dbg !1167
  br label %bb1, !dbg !1167

bb1:                                              ; preds = %start
  ret void, !dbg !1167
}

; core::ptr::drop_in_place::<core::cell::UnsafeCell<core::option::Option<core::result::Result<(), alloc::boxed::Box<dyn core::any::Any + core::marker::Send>>>>>
; Function Attrs: nonlazybind uwtable
define internal void @_RINvNtCs3p84KrD9aKt_4core3ptr13drop_in_placeINtNtB4_4cell10UnsafeCellINtNtB4_6option6OptionINtNtB4_6result6ResultuINtNtCs8RW06R9lH2S_5alloc5boxed3BoxDNtNtB4_3any3AnyNtNtB4_6marker4SendEL_EEEEECsfnYCCstO0CH_18mapped_static_race(%"std::cell::UnsafeCell<std::option::Option<std::result::Result<(), std::boxed::Box<dyn std::any::Any + std::marker::Send>>>>"* %_1) unnamed_addr #0 !dbg !1168 {
start:
  %_1.dbg.spill = alloca %"std::cell::UnsafeCell<std::option::Option<std::result::Result<(), std::boxed::Box<dyn std::any::Any + std::marker::Send>>>>"*, align 8
  %0 = alloca {}, align 1
  store %"std::cell::UnsafeCell<std::option::Option<std::result::Result<(), std::boxed::Box<dyn std::any::Any + std::marker::Send>>>>"* %_1, %"std::cell::UnsafeCell<std::option::Option<std::result::Result<(), std::boxed::Box<dyn std::any::Any + std::marker::Send>>>>"** %_1.dbg.spill, align 8
  call void @llvm.dbg.declare(metadata %"std::cell::UnsafeCell<std::option::Option<std::result::Result<(), std::boxed::Box<dyn std::any::Any + std::marker::Send>>>>"** %_1.dbg.spill, metadata !1173, metadata !DIExpression()), !dbg !1174
  %1 = bitcast %"std::cell::UnsafeCell<std::option::Option<std::result::Result<(), std::boxed::Box<dyn std::any::Any + std::marker::Send>>>>"* %_1 to %"std::option::Option<std::result::Result<(), std::boxed::Box<dyn std::any::Any + std::marker::Send>>>"*, !dbg !1174
; call core::ptr::drop_in_place::<core::option::Option<core::result::Result<(), alloc::boxed::Box<dyn core::any::Any + core::marker::Send>>>>
  call void @_RINvNtCs3p84KrD9aKt_4core3ptr13drop_in_placeINtNtB4_6option6OptionINtNtB4_6result6ResultuINtNtCs8RW06R9lH2S_5alloc5boxed3BoxDNtNtB4_3any3AnyNtNtB4_6marker4SendEL_EEEECsfnYCCstO0CH_18mapped_static_race(%"std::option::Option<std::result::Result<(), std::boxed::Box<dyn std::any::Any + std::marker::Send>>>"* %1), !dbg !1174
  br label %bb1, !dbg !1174

bb1:                                              ; preds = %start
  ret void, !dbg !1174
}

; core::ptr::drop_in_place::<core::cell::UnsafeCell<alloc::vec::Vec<u8>>>
; Function Attrs: nonlazybind uwtable
define internal void @_RINvNtCs3p84KrD9aKt_4core3ptr13drop_in_placeINtNtB4_4cell10UnsafeCellINtNtCs8RW06R9lH2S_5alloc3vec3VechEEECsfnYCCstO0CH_18mapped_static_race(%"std::cell::UnsafeCell<std::vec::Vec<u8>>"* %_1) unnamed_addr #0 !dbg !1175 {
start:
  %_1.dbg.spill = alloca %"std::cell::UnsafeCell<std::vec::Vec<u8>>"*, align 8
  %0 = alloca {}, align 1
  store %"std::cell::UnsafeCell<std::vec::Vec<u8>>"* %_1, %"std::cell::UnsafeCell<std::vec::Vec<u8>>"** %_1.dbg.spill, align 8
  call void @llvm.dbg.declare(metadata %"std::cell::UnsafeCell<std::vec::Vec<u8>>"** %_1.dbg.spill, metadata !1180, metadata !DIExpression()), !dbg !1183
  %1 = bitcast %"std::cell::UnsafeCell<std::vec::Vec<u8>>"* %_1 to %"std::vec::Vec<u8>"*, !dbg !1183
; call core::ptr::drop_in_place::<alloc::vec::Vec<u8>>
  call void @_RINvNtCs3p84KrD9aKt_4core3ptr13drop_in_placeINtNtCs8RW06R9lH2S_5alloc3vec3VechEECsfnYCCstO0CH_18mapped_static_race(%"std::vec::Vec<u8>"* %1), !dbg !1183
  br label %bb1, !dbg !1183

bb1:                                              ; preds = %start
  ret void, !dbg !1183
}

; core::ptr::drop_in_place::<core::option::Option<core::result::Result<(), alloc::boxed::Box<dyn core::any::Any + core::marker::Send>>>>
; Function Attrs: nonlazybind uwtable
define internal void @_RINvNtCs3p84KrD9aKt_4core3ptr13drop_in_placeINtNtB4_6option6OptionINtNtB4_6result6ResultuINtNtCs8RW06R9lH2S_5alloc5boxed3BoxDNtNtB4_3any3AnyNtNtB4_6marker4SendEL_EEEECsfnYCCstO0CH_18mapped_static_race(%"std::option::Option<std::result::Result<(), std::boxed::Box<dyn std::any::Any + std::marker::Send>>>"* %_1) unnamed_addr #0 !dbg !1184 {
start:
  %_1.dbg.spill = alloca %"std::option::Option<std::result::Result<(), std::boxed::Box<dyn std::any::Any + std::marker::Send>>>"*, align 8
  %0 = alloca {}, align 1
  store %"std::option::Option<std::result::Result<(), std::boxed::Box<dyn std::any::Any + std::marker::Send>>>"* %_1, %"std::option::Option<std::result::Result<(), std::boxed::Box<dyn std::any::Any + std::marker::Send>>>"** %_1.dbg.spill, align 8
  call void @llvm.dbg.declare(metadata %"std::option::Option<std::result::Result<(), std::boxed::Box<dyn std::any::Any + std::marker::Send>>>"** %_1.dbg.spill, metadata !1189, metadata !DIExpression()), !dbg !1190
  %1 = bitcast %"std::option::Option<std::result::Result<(), std::boxed::Box<dyn std::any::Any + std::marker::Send>>>"* %_1 to i64*, !dbg !1190
  %_2 = load i64, i64* %1, align 8, !dbg !1190, !range !504
  %2 = icmp eq i64 %_2, 0, !dbg !1190
  br i1 %2, label %bb1, label %bb2, !dbg !1190

bb1:                                              ; preds = %bb2, %start
  ret void, !dbg !1190

bb2:                                              ; preds = %start
  %3 = bitcast %"std::option::Option<std::result::Result<(), std::boxed::Box<dyn std::any::Any + std::marker::Send>>>"* %_1 to %"std::option::Option<std::result::Result<(), std::boxed::Box<dyn std::any::Any + std::marker::Send>>>::Some"*, !dbg !1190
  %4 = getelementptr inbounds %"std::option::Option<std::result::Result<(), std::boxed::Box<dyn std::any::Any + std::marker::Send>>>::Some", %"std::option::Option<std::result::Result<(), std::boxed::Box<dyn std::any::Any + std::marker::Send>>>::Some"* %3, i32 0, i32 1, !dbg !1190
; call core::ptr::drop_in_place::<core::result::Result<(), alloc::boxed::Box<dyn core::any::Any + core::marker::Send>>>
  call void @_RINvNtCs3p84KrD9aKt_4core3ptr13drop_in_placeINtNtB4_6result6ResultuINtNtCs8RW06R9lH2S_5alloc5boxed3BoxDNtNtB4_3any3AnyNtNtB4_6marker4SendEL_EEECsfnYCCstO0CH_18mapped_static_race({ i8*, i8* }* %4), !dbg !1190
  br label %bb1, !dbg !1190
}

; core::ptr::drop_in_place::<core::option::Option<alloc::sync::Arc<std::sync::mutex::Mutex<alloc::vec::Vec<u8>>>>>
; Function Attrs: nonlazybind uwtable
define internal void @_RINvNtCs3p84KrD9aKt_4core3ptr13drop_in_placeINtNtB4_6option6OptionINtNtCs8RW06R9lH2S_5alloc4sync3ArcINtNtNtCs2bNvlddUlXM_3std4sync5mutex5MutexINtNtB17_3vec3VechEEEEECsfnYCCstO0CH_18mapped_static_race(i64** %_1) unnamed_addr #0 !dbg !1191 {
start:
  %_1.dbg.spill = alloca i64**, align 8
  %0 = alloca {}, align 1
  store i64** %_1, i64*** %_1.dbg.spill, align 8
  call void @llvm.dbg.declare(metadata i64*** %_1.dbg.spill, metadata !1196, metadata !DIExpression()), !dbg !1199
  %1 = bitcast i64** %_1 to {}**, !dbg !1199
  %2 = load {}*, {}** %1, align 8, !dbg !1199
  %3 = icmp eq {}* %2, null, !dbg !1199
  %_2 = select i1 %3, i64 0, i64 1, !dbg !1199
  %4 = icmp eq i64 %_2, 0, !dbg !1199
  br i1 %4, label %bb1, label %bb2, !dbg !1199

bb1:                                              ; preds = %bb2, %start
  ret void, !dbg !1199

bb2:                                              ; preds = %start
; call core::ptr::drop_in_place::<alloc::sync::Arc<std::sync::mutex::Mutex<alloc::vec::Vec<u8>>>>
  call void @_RINvNtCs3p84KrD9aKt_4core3ptr13drop_in_placeINtNtCs8RW06R9lH2S_5alloc4sync3ArcINtNtNtCs2bNvlddUlXM_3std4sync5mutex5MutexINtNtBL_3vec3VechEEEECsfnYCCstO0CH_18mapped_static_race(i64** %_1), !dbg !1199
  br label %bb1, !dbg !1199
}

; core::ptr::drop_in_place::<core::option::Option<alloc::string::String>>
; Function Attrs: nonlazybind uwtable
define internal void @_RINvNtCs3p84KrD9aKt_4core3ptr13drop_in_placeINtNtB4_6option6OptionNtNtCs8RW06R9lH2S_5alloc6string6StringEECsfnYCCstO0CH_18mapped_static_race(%"std::option::Option<std::string::String>"* %_1) unnamed_addr #0 !dbg !1200 {
start:
  %_1.dbg.spill = alloca %"std::option::Option<std::string::String>"*, align 8
  %0 = alloca {}, align 1
  store %"std::option::Option<std::string::String>"* %_1, %"std::option::Option<std::string::String>"** %_1.dbg.spill, align 8
  call void @llvm.dbg.declare(metadata %"std::option::Option<std::string::String>"** %_1.dbg.spill, metadata !1205, metadata !DIExpression()), !dbg !1208
  %1 = bitcast %"std::option::Option<std::string::String>"* %_1 to {}**, !dbg !1208
  %2 = load {}*, {}** %1, align 8, !dbg !1208
  %3 = icmp eq {}* %2, null, !dbg !1208
  %_2 = select i1 %3, i64 0, i64 1, !dbg !1208
  %4 = icmp eq i64 %_2, 0, !dbg !1208
  br i1 %4, label %bb1, label %bb2, !dbg !1208

bb1:                                              ; preds = %bb2, %start
  ret void, !dbg !1208

bb2:                                              ; preds = %start
  %5 = bitcast %"std::option::Option<std::string::String>"* %_1 to %"std::option::Option<std::string::String>::Some"*, !dbg !1208
  %6 = bitcast %"std::option::Option<std::string::String>::Some"* %5 to %"std::string::String"*, !dbg !1208
; call core::ptr::drop_in_place::<alloc::string::String>
  call void @_RINvNtCs3p84KrD9aKt_4core3ptr13drop_in_placeNtNtCs8RW06R9lH2S_5alloc6string6StringECsfnYCCstO0CH_18mapped_static_race(%"std::string::String"* %6), !dbg !1208
  br label %bb1, !dbg !1208
}

; core::ptr::drop_in_place::<core::option::Option<std::ffi::c_str::CString>>
; Function Attrs: nonlazybind uwtable
define internal void @_RINvNtCs3p84KrD9aKt_4core3ptr13drop_in_placeINtNtB4_6option6OptionNtNtNtCs2bNvlddUlXM_3std3ffi5c_str7CStringEECsfnYCCstO0CH_18mapped_static_race({ i8*, i64 }* %_1) unnamed_addr #0 !dbg !1209 {
start:
  %_1.dbg.spill = alloca { i8*, i64 }*, align 8
  %0 = alloca {}, align 1
  store { i8*, i64 }* %_1, { i8*, i64 }** %_1.dbg.spill, align 8
  call void @llvm.dbg.declare(metadata { i8*, i64 }** %_1.dbg.spill, metadata !1214, metadata !DIExpression()), !dbg !1217
  %1 = bitcast { i8*, i64 }* %_1 to {}**, !dbg !1217
  %2 = load {}*, {}** %1, align 8, !dbg !1217
  %3 = icmp eq {}* %2, null, !dbg !1217
  %_2 = select i1 %3, i64 0, i64 1, !dbg !1217
  %4 = icmp eq i64 %_2, 0, !dbg !1217
  br i1 %4, label %bb1, label %bb2, !dbg !1217

bb1:                                              ; preds = %bb2, %start
  ret void, !dbg !1217

bb2:                                              ; preds = %start
; call core::ptr::drop_in_place::<std::ffi::c_str::CString>
  call void @_RINvNtCs3p84KrD9aKt_4core3ptr13drop_in_placeNtNtNtCs2bNvlddUlXM_3std3ffi5c_str7CStringECsfnYCCstO0CH_18mapped_static_race({ i8*, i64 }* %_1), !dbg !1217
  br label %bb1, !dbg !1217
}

; core::ptr::drop_in_place::<core::option::Option<std::sys::unix::thread::Thread>>
; Function Attrs: nonlazybind uwtable
define internal void @_RINvNtCs3p84KrD9aKt_4core3ptr13drop_in_placeINtNtB4_6option6OptionNtNtNtNtCs2bNvlddUlXM_3std3sys4unix6thread6ThreadEECsfnYCCstO0CH_18mapped_static_race({ i64, i64 }* %_1) unnamed_addr #0 !dbg !1218 {
start:
  %_1.dbg.spill = alloca { i64, i64 }*, align 8
  %0 = alloca {}, align 1
  store { i64, i64 }* %_1, { i64, i64 }** %_1.dbg.spill, align 8
  call void @llvm.dbg.declare(metadata { i64, i64 }** %_1.dbg.spill, metadata !1223, metadata !DIExpression()), !dbg !1226
  %1 = bitcast { i64, i64 }* %_1 to i64*, !dbg !1226
  %_2 = load i64, i64* %1, align 8, !dbg !1226, !range !504
  %2 = icmp eq i64 %_2, 0, !dbg !1226
  br i1 %2, label %bb1, label %bb2, !dbg !1226

bb1:                                              ; preds = %bb2, %start
  ret void, !dbg !1226

bb2:                                              ; preds = %start
  %3 = bitcast { i64, i64 }* %_1 to %"std::option::Option<std::sys::unix::thread::Thread>::Some"*, !dbg !1226
  %4 = getelementptr inbounds %"std::option::Option<std::sys::unix::thread::Thread>::Some", %"std::option::Option<std::sys::unix::thread::Thread>::Some"* %3, i32 0, i32 1, !dbg !1226
; call core::ptr::drop_in_place::<std::sys::unix::thread::Thread>
  call void @_RINvNtCs3p84KrD9aKt_4core3ptr13drop_in_placeNtNtNtNtCs2bNvlddUlXM_3std3sys4unix6thread6ThreadECsfnYCCstO0CH_18mapped_static_race(i64* %4), !dbg !1226
  br label %bb1, !dbg !1226
}

; core::ptr::drop_in_place::<core::result::Result<std::thread::JoinHandle<()>, std::io::error::Error>>
; Function Attrs: nonlazybind uwtable
define internal void @_RINvNtCs3p84KrD9aKt_4core3ptr13drop_in_placeINtNtB4_6result6ResultINtNtCs2bNvlddUlXM_3std6thread10JoinHandleuENtNtNtB17_2io5error5ErrorEECsfnYCCstO0CH_18mapped_static_race(%"std::result::Result<std::thread::JoinHandle<()>, std::io::Error>"* %_1) unnamed_addr #0 !dbg !1227 {
start:
  %_1.dbg.spill = alloca %"std::result::Result<std::thread::JoinHandle<()>, std::io::Error>"*, align 8
  %0 = alloca {}, align 1
  store %"std::result::Result<std::thread::JoinHandle<()>, std::io::Error>"* %_1, %"std::result::Result<std::thread::JoinHandle<()>, std::io::Error>"** %_1.dbg.spill, align 8
  call void @llvm.dbg.declare(metadata %"std::result::Result<std::thread::JoinHandle<()>, std::io::Error>"** %_1.dbg.spill, metadata !1232, metadata !DIExpression()), !dbg !1235
  %1 = bitcast %"std::result::Result<std::thread::JoinHandle<()>, std::io::Error>"* %_1 to i64*, !dbg !1235
  %_2 = load i64, i64* %1, align 8, !dbg !1235, !range !504
  %2 = icmp eq i64 %_2, 0, !dbg !1235
  br i1 %2, label %bb2, label %bb3, !dbg !1235

bb1:                                              ; preds = %bb2, %bb3
  ret void, !dbg !1235

bb2:                                              ; preds = %start
  %3 = bitcast %"std::result::Result<std::thread::JoinHandle<()>, std::io::Error>"* %_1 to %"std::result::Result<std::thread::JoinHandle<()>, std::io::Error>::Ok"*, !dbg !1235
  %4 = getelementptr inbounds %"std::result::Result<std::thread::JoinHandle<()>, std::io::Error>::Ok", %"std::result::Result<std::thread::JoinHandle<()>, std::io::Error>::Ok"* %3, i32 0, i32 1, !dbg !1235
; call core::ptr::drop_in_place::<std::thread::JoinHandle<()>>
  call void @_RINvNtCs3p84KrD9aKt_4core3ptr13drop_in_placeINtNtCs2bNvlddUlXM_3std6thread10JoinHandleuEECsfnYCCstO0CH_18mapped_static_race(%"std::thread::JoinHandle<()>"* %4), !dbg !1235
  br label %bb1, !dbg !1235

bb3:                                              ; preds = %start
  %5 = bitcast %"std::result::Result<std::thread::JoinHandle<()>, std::io::Error>"* %_1 to %"std::result::Result<std::thread::JoinHandle<()>, std::io::Error>::Err"*, !dbg !1235
  %6 = getelementptr inbounds %"std::result::Result<std::thread::JoinHandle<()>, std::io::Error>::Err", %"std::result::Result<std::thread::JoinHandle<()>, std::io::Error>::Err"* %5, i32 0, i32 1, !dbg !1235
; call core::ptr::drop_in_place::<std::io::error::Error>
  call void @_RINvNtCs3p84KrD9aKt_4core3ptr13drop_in_placeNtNtNtCs2bNvlddUlXM_3std2io5error5ErrorECsfnYCCstO0CH_18mapped_static_race(%"std::io::Error"* %6), !dbg !1235
  br label %bb1, !dbg !1235
}

; core::ptr::drop_in_place::<core::result::Result<(), alloc::boxed::Box<dyn core::any::Any + core::marker::Send>>>
; Function Attrs: nonlazybind uwtable
define internal void @_RINvNtCs3p84KrD9aKt_4core3ptr13drop_in_placeINtNtB4_6result6ResultuINtNtCs8RW06R9lH2S_5alloc5boxed3BoxDNtNtB4_3any3AnyNtNtB4_6marker4SendEL_EEECsfnYCCstO0CH_18mapped_static_race({ i8*, i8* }* %_1) unnamed_addr #0 !dbg !1236 {
start:
  %_1.dbg.spill = alloca { i8*, i8* }*, align 8
  %0 = alloca {}, align 1
  store { i8*, i8* }* %_1, { i8*, i8* }** %_1.dbg.spill, align 8
  call void @llvm.dbg.declare(metadata { i8*, i8* }** %_1.dbg.spill, metadata !1241, metadata !DIExpression()), !dbg !1242
  %1 = bitcast { i8*, i8* }* %_1 to {}**, !dbg !1242
  %2 = load {}*, {}** %1, align 8, !dbg !1242
  %3 = icmp eq {}* %2, null, !dbg !1242
  %_2 = select i1 %3, i64 0, i64 1, !dbg !1242
  %4 = icmp eq i64 %_2, 0, !dbg !1242
  br i1 %4, label %bb1, label %bb2, !dbg !1242

bb1:                                              ; preds = %bb2, %start
  ret void, !dbg !1242

bb2:                                              ; preds = %start
  %5 = bitcast { i8*, i8* }* %_1 to { {}*, [3 x i64]* }*, !dbg !1242
; call core::ptr::drop_in_place::<alloc::boxed::Box<dyn core::any::Any + core::marker::Send>>
  call void @_RINvNtCs3p84KrD9aKt_4core3ptr13drop_in_placeINtNtCs8RW06R9lH2S_5alloc5boxed3BoxDNtNtB4_3any3AnyNtNtB4_6marker4SendEL_EECsfnYCCstO0CH_18mapped_static_race({ {}*, [3 x i64]* }* %5), !dbg !1242
  br label %bb1, !dbg !1242
}

; core::ptr::drop_in_place::<std::thread::JoinHandle<()>>
; Function Attrs: nonlazybind uwtable
define internal void @_RINvNtCs3p84KrD9aKt_4core3ptr13drop_in_placeINtNtCs2bNvlddUlXM_3std6thread10JoinHandleuEECsfnYCCstO0CH_18mapped_static_race(%"std::thread::JoinHandle<()>"* %_1) unnamed_addr #0 !dbg !1243 {
start:
  %_1.dbg.spill = alloca %"std::thread::JoinHandle<()>"*, align 8
  %0 = alloca {}, align 1
  store %"std::thread::JoinHandle<()>"* %_1, %"std::thread::JoinHandle<()>"** %_1.dbg.spill, align 8
  call void @llvm.dbg.declare(metadata %"std::thread::JoinHandle<()>"** %_1.dbg.spill, metadata !1248, metadata !DIExpression()), !dbg !1250
  %1 = bitcast %"std::thread::JoinHandle<()>"* %_1 to %"std::thread::JoinInner<()>"*, !dbg !1250
; call core::ptr::drop_in_place::<std::thread::JoinInner<()>>
  call void @_RINvNtCs3p84KrD9aKt_4core3ptr13drop_in_placeINtNtCs2bNvlddUlXM_3std6thread9JoinInneruEECsfnYCCstO0CH_18mapped_static_race(%"std::thread::JoinInner<()>"* %1), !dbg !1250
  br label %bb1, !dbg !1250

bb1:                                              ; preds = %start
  ret void, !dbg !1250
}

; core::ptr::drop_in_place::<std::thread::Packet<()>>
; Function Attrs: nonlazybind uwtable
define internal void @_RINvNtCs3p84KrD9aKt_4core3ptr13drop_in_placeINtNtCs2bNvlddUlXM_3std6thread6PacketuEECsfnYCCstO0CH_18mapped_static_race(i64** %_1) unnamed_addr #0 !dbg !1251 {
start:
  %_1.dbg.spill = alloca i64**, align 8
  %0 = alloca {}, align 1
  store i64** %_1, i64*** %_1.dbg.spill, align 8
  call void @llvm.dbg.declare(metadata i64*** %_1.dbg.spill, metadata !1256, metadata !DIExpression()), !dbg !1259
; call core::ptr::drop_in_place::<alloc::sync::Arc<core::cell::UnsafeCell<core::option::Option<core::result::Result<(), alloc::boxed::Box<dyn core::any::Any + core::marker::Send>>>>>>
  call void @_RINvNtCs3p84KrD9aKt_4core3ptr13drop_in_placeINtNtCs8RW06R9lH2S_5alloc4sync3ArcINtNtB4_4cell10UnsafeCellINtNtB4_6option6OptionINtNtB4_6result6ResultuINtNtBL_5boxed3BoxDNtNtB4_3any3AnyNtNtB4_6marker4SendEL_EEEEEECsfnYCCstO0CH_18mapped_static_race(i64** %_1), !dbg !1259
  br label %bb1, !dbg !1259

bb1:                                              ; preds = %start
  ret void, !dbg !1259
}

; core::ptr::drop_in_place::<std::thread::JoinInner<()>>
; Function Attrs: nonlazybind uwtable
define internal void @_RINvNtCs3p84KrD9aKt_4core3ptr13drop_in_placeINtNtCs2bNvlddUlXM_3std6thread9JoinInneruEECsfnYCCstO0CH_18mapped_static_race(%"std::thread::JoinInner<()>"* %_1) unnamed_addr #0 personality i32 (i32, i32, i64, %"unwind::libunwind::_Unwind_Exception"*, %"unwind::libunwind::_Unwind_Context"*)* @rust_eh_personality !dbg !1260 {
start:
  %0 = alloca { i8*, i32 }, align 8
  %_1.dbg.spill = alloca %"std::thread::JoinInner<()>"*, align 8
  %1 = alloca {}, align 1
  store %"std::thread::JoinInner<()>"* %_1, %"std::thread::JoinInner<()>"** %_1.dbg.spill, align 8
  call void @llvm.dbg.declare(metadata %"std::thread::JoinInner<()>"** %_1.dbg.spill, metadata !1265, metadata !DIExpression()), !dbg !1268
  %2 = bitcast %"std::thread::JoinInner<()>"* %_1 to { i64, i64 }*, !dbg !1268
; invoke core::ptr::drop_in_place::<core::option::Option<std::sys::unix::thread::Thread>>
  invoke void @_RINvNtCs3p84KrD9aKt_4core3ptr13drop_in_placeINtNtB4_6option6OptionNtNtNtNtCs2bNvlddUlXM_3std3sys4unix6thread6ThreadEECsfnYCCstO0CH_18mapped_static_race({ i64, i64 }* %2)
          to label %bb6 unwind label %cleanup, !dbg !1268

bb1:                                              ; preds = %bb3
  %3 = bitcast { i8*, i32 }* %0 to i8**, !dbg !1268
  %4 = load i8*, i8** %3, align 8, !dbg !1268
  %5 = getelementptr inbounds { i8*, i32 }, { i8*, i32 }* %0, i32 0, i32 1, !dbg !1268
  %6 = load i32, i32* %5, align 8, !dbg !1268
  %7 = insertvalue { i8*, i32 } undef, i8* %4, 0, !dbg !1268
  %8 = insertvalue { i8*, i32 } %7, i32 %6, 1, !dbg !1268
  resume { i8*, i32 } %8, !dbg !1268

bb2:                                              ; preds = %bb5
  ret void, !dbg !1268

bb3:                                              ; preds = %cleanup1, %bb4
  %9 = getelementptr inbounds %"std::thread::JoinInner<()>", %"std::thread::JoinInner<()>"* %_1, i32 0, i32 5, !dbg !1268
; call core::ptr::drop_in_place::<std::thread::Packet<()>>
  call void @_RINvNtCs3p84KrD9aKt_4core3ptr13drop_in_placeINtNtCs2bNvlddUlXM_3std6thread6PacketuEECsfnYCCstO0CH_18mapped_static_race(i64** %9) #12, !dbg !1268
  br label %bb1, !dbg !1268

bb4:                                              ; preds = %cleanup
  %10 = getelementptr inbounds %"std::thread::JoinInner<()>", %"std::thread::JoinInner<()>"* %_1, i32 0, i32 3, !dbg !1268
; call core::ptr::drop_in_place::<std::thread::Thread>
  call void @_RINvNtCs3p84KrD9aKt_4core3ptr13drop_in_placeNtNtCs2bNvlddUlXM_3std6thread6ThreadECsfnYCCstO0CH_18mapped_static_race(i64** %10) #12, !dbg !1268
  br label %bb3, !dbg !1268

bb5:                                              ; preds = %bb6
  %11 = getelementptr inbounds %"std::thread::JoinInner<()>", %"std::thread::JoinInner<()>"* %_1, i32 0, i32 5, !dbg !1268
; call core::ptr::drop_in_place::<std::thread::Packet<()>>
  call void @_RINvNtCs3p84KrD9aKt_4core3ptr13drop_in_placeINtNtCs2bNvlddUlXM_3std6thread6PacketuEECsfnYCCstO0CH_18mapped_static_race(i64** %11), !dbg !1268
  br label %bb2, !dbg !1268

bb6:                                              ; preds = %start
  %12 = getelementptr inbounds %"std::thread::JoinInner<()>", %"std::thread::JoinInner<()>"* %_1, i32 0, i32 3, !dbg !1268
; invoke core::ptr::drop_in_place::<std::thread::Thread>
  invoke void @_RINvNtCs3p84KrD9aKt_4core3ptr13drop_in_placeNtNtCs2bNvlddUlXM_3std6thread6ThreadECsfnYCCstO0CH_18mapped_static_race(i64** %12)
          to label %bb5 unwind label %cleanup1, !dbg !1268

cleanup:                                          ; preds = %start
  %13 = landingpad { i8*, i32 }
          cleanup
  %14 = extractvalue { i8*, i32 } %13, 0
  %15 = extractvalue { i8*, i32 } %13, 1
  %16 = getelementptr inbounds { i8*, i32 }, { i8*, i32 }* %0, i32 0, i32 0
  store i8* %14, i8** %16, align 8
  %17 = getelementptr inbounds { i8*, i32 }, { i8*, i32 }* %0, i32 0, i32 1
  store i32 %15, i32* %17, align 8
  br label %bb4

cleanup1:                                         ; preds = %bb6
  %18 = landingpad { i8*, i32 }
          cleanup
  %19 = extractvalue { i8*, i32 } %18, 0
  %20 = extractvalue { i8*, i32 } %18, 1
  %21 = getelementptr inbounds { i8*, i32 }, { i8*, i32 }* %0, i32 0, i32 0
  store i8* %19, i8** %21, align 8
  %22 = getelementptr inbounds { i8*, i32 }, { i8*, i32 }* %0, i32 0, i32 1
  store i32 %20, i32* %22, align 8
  br label %bb3
}

; core::ptr::drop_in_place::<alloc::vec::Vec<u8>>
; Function Attrs: nonlazybind uwtable
define internal void @_RINvNtCs3p84KrD9aKt_4core3ptr13drop_in_placeINtNtCs8RW06R9lH2S_5alloc3vec3VechEECsfnYCCstO0CH_18mapped_static_race(%"std::vec::Vec<u8>"* %_1) unnamed_addr #0 personality i32 (i32, i32, i64, %"unwind::libunwind::_Unwind_Exception"*, %"unwind::libunwind::_Unwind_Context"*)* @rust_eh_personality !dbg !1269 {
start:
  %0 = alloca { i8*, i32 }, align 8
  %_1.dbg.spill = alloca %"std::vec::Vec<u8>"*, align 8
  %1 = alloca {}, align 1
  store %"std::vec::Vec<u8>"* %_1, %"std::vec::Vec<u8>"** %_1.dbg.spill, align 8
  call void @llvm.dbg.declare(metadata %"std::vec::Vec<u8>"** %_1.dbg.spill, metadata !1274, metadata !DIExpression()), !dbg !1275
; invoke <alloc::vec::Vec<u8> as core::ops::drop::Drop>::drop
  invoke void @_RNvXsm_NtCs8RW06R9lH2S_5alloc3vecINtB5_3VechENtNtNtCs3p84KrD9aKt_4core3ops4drop4Drop4dropCsfnYCCstO0CH_18mapped_static_race(%"std::vec::Vec<u8>"* align 8 dereferenceable(24) %_1)
          to label %bb4 unwind label %cleanup, !dbg !1275

bb1:                                              ; preds = %bb3
  %2 = bitcast { i8*, i32 }* %0 to i8**, !dbg !1275
  %3 = load i8*, i8** %2, align 8, !dbg !1275
  %4 = getelementptr inbounds { i8*, i32 }, { i8*, i32 }* %0, i32 0, i32 1, !dbg !1275
  %5 = load i32, i32* %4, align 8, !dbg !1275
  %6 = insertvalue { i8*, i32 } undef, i8* %3, 0, !dbg !1275
  %7 = insertvalue { i8*, i32 } %6, i32 %5, 1, !dbg !1275
  resume { i8*, i32 } %7, !dbg !1275

bb2:                                              ; preds = %bb4
  ret void, !dbg !1275

bb3:                                              ; preds = %cleanup
  %8 = bitcast %"std::vec::Vec<u8>"* %_1 to { i8*, i64 }*, !dbg !1275
; call core::ptr::drop_in_place::<alloc::raw_vec::RawVec<u8>>
  call void @_RINvNtCs3p84KrD9aKt_4core3ptr13drop_in_placeINtNtCs8RW06R9lH2S_5alloc7raw_vec6RawVechEECsfnYCCstO0CH_18mapped_static_race({ i8*, i64 }* %8) #12, !dbg !1275
  br label %bb1, !dbg !1275

bb4:                                              ; preds = %start
  %9 = bitcast %"std::vec::Vec<u8>"* %_1 to { i8*, i64 }*, !dbg !1275
; call core::ptr::drop_in_place::<alloc::raw_vec::RawVec<u8>>
  call void @_RINvNtCs3p84KrD9aKt_4core3ptr13drop_in_placeINtNtCs8RW06R9lH2S_5alloc7raw_vec6RawVechEECsfnYCCstO0CH_18mapped_static_race({ i8*, i64 }* %9), !dbg !1275
  br label %bb2, !dbg !1275

cleanup:                                          ; preds = %start
  %10 = landingpad { i8*, i32 }
          cleanup
  %11 = extractvalue { i8*, i32 } %10, 0
  %12 = extractvalue { i8*, i32 } %10, 1
  %13 = getelementptr inbounds { i8*, i32 }, { i8*, i32 }* %0, i32 0, i32 0
  store i8* %11, i8** %13, align 8
  %14 = getelementptr inbounds { i8*, i32 }, { i8*, i32 }* %0, i32 0, i32 1
  store i32 %12, i32* %14, align 8
  br label %bb3
}

; core::ptr::drop_in_place::<alloc::sync::Arc<core::cell::UnsafeCell<core::option::Option<core::result::Result<(), alloc::boxed::Box<dyn core::any::Any + core::marker::Send>>>>>>
; Function Attrs: nonlazybind uwtable
define internal void @_RINvNtCs3p84KrD9aKt_4core3ptr13drop_in_placeINtNtCs8RW06R9lH2S_5alloc4sync3ArcINtNtB4_4cell10UnsafeCellINtNtB4_6option6OptionINtNtB4_6result6ResultuINtNtBL_5boxed3BoxDNtNtB4_3any3AnyNtNtB4_6marker4SendEL_EEEEEECsfnYCCstO0CH_18mapped_static_race(i64** %_1) unnamed_addr #0 !dbg !1276 {
start:
  %_1.dbg.spill = alloca i64**, align 8
  %0 = alloca {}, align 1
  store i64** %_1, i64*** %_1.dbg.spill, align 8
  call void @llvm.dbg.declare(metadata i64*** %_1.dbg.spill, metadata !1281, metadata !DIExpression()), !dbg !1284
; call <alloc::sync::Arc<core::cell::UnsafeCell<core::option::Option<core::result::Result<(), alloc::boxed::Box<dyn core::any::Any + core::marker::Send>>>>> as core::ops::drop::Drop>::drop
  call void @_RNvXsp_NtCs8RW06R9lH2S_5alloc4syncINtB5_3ArcINtNtCs3p84KrD9aKt_4core4cell10UnsafeCellINtNtBL_6option6OptionINtNtBL_6result6ResultuINtNtB7_5boxed3BoxDNtNtBL_3any3AnyNtNtBL_6marker4SendEL_EEEEENtNtNtBL_3ops4drop4Drop4dropCsfnYCCstO0CH_18mapped_static_race(i64** align 8 dereferenceable(8) %_1), !dbg !1284
  br label %bb1, !dbg !1284

bb1:                                              ; preds = %start
  ret void, !dbg !1284
}

; core::ptr::drop_in_place::<alloc::sync::Arc<std::sync::mutex::Mutex<alloc::vec::Vec<u8>>>>
; Function Attrs: nonlazybind uwtable
define internal void @_RINvNtCs3p84KrD9aKt_4core3ptr13drop_in_placeINtNtCs8RW06R9lH2S_5alloc4sync3ArcINtNtNtCs2bNvlddUlXM_3std4sync5mutex5MutexINtNtBL_3vec3VechEEEECsfnYCCstO0CH_18mapped_static_race(i64** %_1) unnamed_addr #0 !dbg !1285 {
start:
  %_1.dbg.spill = alloca i64**, align 8
  %0 = alloca {}, align 1
  store i64** %_1, i64*** %_1.dbg.spill, align 8
  call void @llvm.dbg.declare(metadata i64*** %_1.dbg.spill, metadata !1290, metadata !DIExpression()), !dbg !1291
; call <alloc::sync::Arc<std::sync::mutex::Mutex<alloc::vec::Vec<u8>>> as core::ops::drop::Drop>::drop
  call void @_RNvXsp_NtCs8RW06R9lH2S_5alloc4syncINtB5_3ArcINtNtNtCs2bNvlddUlXM_3std4sync5mutex5MutexINtNtB7_3vec3VechEEENtNtNtCs3p84KrD9aKt_4core3ops4drop4Drop4dropCsfnYCCstO0CH_18mapped_static_race(i64** align 8 dereferenceable(8) %_1), !dbg !1291
  br label %bb1, !dbg !1291

bb1:                                              ; preds = %start
  ret void, !dbg !1291
}

; core::ptr::drop_in_place::<alloc::sync::Arc<std::thread::Inner>>
; Function Attrs: nonlazybind uwtable
define internal void @_RINvNtCs3p84KrD9aKt_4core3ptr13drop_in_placeINtNtCs8RW06R9lH2S_5alloc4sync3ArcNtNtCs2bNvlddUlXM_3std6thread5InnerEECsfnYCCstO0CH_18mapped_static_race(i64** %_1) unnamed_addr #0 !dbg !1292 {
start:
  %_1.dbg.spill = alloca i64**, align 8
  %0 = alloca {}, align 1
  store i64** %_1, i64*** %_1.dbg.spill, align 8
  call void @llvm.dbg.declare(metadata i64*** %_1.dbg.spill, metadata !1297, metadata !DIExpression()), !dbg !1300
; call <alloc::sync::Arc<std::thread::Inner> as core::ops::drop::Drop>::drop
  call void @_RNvXsp_NtCs8RW06R9lH2S_5alloc4syncINtB5_3ArcNtNtCs2bNvlddUlXM_3std6thread5InnerENtNtNtCs3p84KrD9aKt_4core3ops4drop4Drop4dropCsfnYCCstO0CH_18mapped_static_race(i64** align 8 dereferenceable(8) %_1), !dbg !1300
  br label %bb1, !dbg !1300

bb1:                                              ; preds = %start
  ret void, !dbg !1300
}

; core::ptr::drop_in_place::<alloc::sync::Weak<core::cell::UnsafeCell<core::option::Option<core::result::Result<(), alloc::boxed::Box<dyn core::any::Any + core::marker::Send>>>>>>
; Function Attrs: nonlazybind uwtable
define internal void @_RINvNtCs3p84KrD9aKt_4core3ptr13drop_in_placeINtNtCs8RW06R9lH2S_5alloc4sync4WeakINtNtB4_4cell10UnsafeCellINtNtB4_6option6OptionINtNtB4_6result6ResultuINtNtBL_5boxed3BoxDNtNtB4_3any3AnyNtNtB4_6marker4SendEL_EEEEEECsfnYCCstO0CH_18mapped_static_race(i64** %_1) unnamed_addr #0 !dbg !1301 {
start:
  %_1.dbg.spill = alloca i64**, align 8
  %0 = alloca {}, align 1
  store i64** %_1, i64*** %_1.dbg.spill, align 8
  call void @llvm.dbg.declare(metadata i64*** %_1.dbg.spill, metadata !1306, metadata !DIExpression()), !dbg !1307
; call <alloc::sync::Weak<core::cell::UnsafeCell<core::option::Option<core::result::Result<(), alloc::boxed::Box<dyn core::any::Any + core::marker::Send>>>>> as core::ops::drop::Drop>::drop
  call void @_RNvXsw_NtCs8RW06R9lH2S_5alloc4syncINtB5_4WeakINtNtCs3p84KrD9aKt_4core4cell10UnsafeCellINtNtBM_6option6OptionINtNtBM_6result6ResultuINtNtB7_5boxed3BoxDNtNtBM_3any3AnyNtNtBM_6marker4SendEL_EEEEENtNtNtBM_3ops4drop4Drop4dropCsfnYCCstO0CH_18mapped_static_race(i64** align 8 dereferenceable(8) %_1), !dbg !1307
  br label %bb1, !dbg !1307

bb1:                                              ; preds = %start
  ret void, !dbg !1307
}

; core::ptr::drop_in_place::<alloc::sync::Weak<std::sync::mutex::Mutex<alloc::vec::Vec<u8>>>>
; Function Attrs: nonlazybind uwtable
define internal void @_RINvNtCs3p84KrD9aKt_4core3ptr13drop_in_placeINtNtCs8RW06R9lH2S_5alloc4sync4WeakINtNtNtCs2bNvlddUlXM_3std4sync5mutex5MutexINtNtBL_3vec3VechEEEECsfnYCCstO0CH_18mapped_static_race(i64** %_1) unnamed_addr #0 !dbg !1308 {
start:
  %_1.dbg.spill = alloca i64**, align 8
  %0 = alloca {}, align 1
  store i64** %_1, i64*** %_1.dbg.spill, align 8
  call void @llvm.dbg.declare(metadata i64*** %_1.dbg.spill, metadata !1313, metadata !DIExpression()), !dbg !1314
; call <alloc::sync::Weak<std::sync::mutex::Mutex<alloc::vec::Vec<u8>>> as core::ops::drop::Drop>::drop
  call void @_RNvXsw_NtCs8RW06R9lH2S_5alloc4syncINtB5_4WeakINtNtNtCs2bNvlddUlXM_3std4sync5mutex5MutexINtNtB7_3vec3VechEEENtNtNtCs3p84KrD9aKt_4core3ops4drop4Drop4dropCsfnYCCstO0CH_18mapped_static_race(i64** align 8 dereferenceable(8) %_1), !dbg !1314
  br label %bb1, !dbg !1314

bb1:                                              ; preds = %start
  ret void, !dbg !1314
}

; core::ptr::drop_in_place::<alloc::sync::Weak<std::thread::Inner>>
; Function Attrs: nonlazybind uwtable
define internal void @_RINvNtCs3p84KrD9aKt_4core3ptr13drop_in_placeINtNtCs8RW06R9lH2S_5alloc4sync4WeakNtNtCs2bNvlddUlXM_3std6thread5InnerEECsfnYCCstO0CH_18mapped_static_race(i64** %_1) unnamed_addr #0 !dbg !1315 {
start:
  %_1.dbg.spill = alloca i64**, align 8
  %0 = alloca {}, align 1
  store i64** %_1, i64*** %_1.dbg.spill, align 8
  call void @llvm.dbg.declare(metadata i64*** %_1.dbg.spill, metadata !1320, metadata !DIExpression()), !dbg !1321
; call <alloc::sync::Weak<std::thread::Inner> as core::ops::drop::Drop>::drop
  call void @_RNvXsw_NtCs8RW06R9lH2S_5alloc4syncINtB5_4WeakNtNtCs2bNvlddUlXM_3std6thread5InnerENtNtNtCs3p84KrD9aKt_4core3ops4drop4Drop4dropCsfnYCCstO0CH_18mapped_static_race(i64** align 8 dereferenceable(8) %_1), !dbg !1321
  br label %bb1, !dbg !1321

bb1:                                              ; preds = %start
  ret void, !dbg !1321
}

; core::ptr::drop_in_place::<alloc::boxed::Box<dyn core::any::Any + core::marker::Send>>
; Function Attrs: nonlazybind uwtable
define internal void @_RINvNtCs3p84KrD9aKt_4core3ptr13drop_in_placeINtNtCs8RW06R9lH2S_5alloc5boxed3BoxDNtNtB4_3any3AnyNtNtB4_6marker4SendEL_EECsfnYCCstO0CH_18mapped_static_race({ {}*, [3 x i64]* }* %_1) unnamed_addr #0 personality i32 (i32, i32, i64, %"unwind::libunwind::_Unwind_Exception"*, %"unwind::libunwind::_Unwind_Context"*)* @rust_eh_personality !dbg !1322 {
start:
  %0 = alloca { i8*, i32 }, align 8
  %_1.dbg.spill = alloca { {}*, [3 x i64]* }*, align 8
  %1 = alloca {}, align 1
  store { {}*, [3 x i64]* }* %_1, { {}*, [3 x i64]* }** %_1.dbg.spill, align 8
  call void @llvm.dbg.declare(metadata { {}*, [3 x i64]* }** %_1.dbg.spill, metadata !1327, metadata !DIExpression()), !dbg !1328
  %2 = getelementptr inbounds { {}*, [3 x i64]* }, { {}*, [3 x i64]* }* %_1, i32 0, i32 0, !dbg !1328
  %3 = load {}*, {}** %2, align 8, !dbg !1328, !nonnull !4
  %4 = getelementptr inbounds { {}*, [3 x i64]* }, { {}*, [3 x i64]* }* %_1, i32 0, i32 1, !dbg !1328
  %5 = load [3 x i64]*, [3 x i64]** %4, align 8, !dbg !1328, !nonnull !4
  %6 = bitcast [3 x i64]* %5 to void ({}*)**, !dbg !1328
  %7 = getelementptr inbounds void ({}*)*, void ({}*)** %6, i64 0, !dbg !1328
  %8 = load void ({}*)*, void ({}*)** %7, align 8, !dbg !1328, !invariant.load !4, !nonnull !4
  invoke void %8({}* %3)
          to label %bb3 unwind label %cleanup, !dbg !1328

bb1:                                              ; preds = %bb3
  ret void, !dbg !1328

bb2:                                              ; preds = %bb4
  %9 = bitcast { i8*, i32 }* %0 to i8**, !dbg !1328
  %10 = load i8*, i8** %9, align 8, !dbg !1328
  %11 = getelementptr inbounds { i8*, i32 }, { i8*, i32 }* %0, i32 0, i32 1, !dbg !1328
  %12 = load i32, i32* %11, align 8, !dbg !1328
  %13 = insertvalue { i8*, i32 } undef, i8* %10, 0, !dbg !1328
  %14 = insertvalue { i8*, i32 } %13, i32 %12, 1, !dbg !1328
  resume { i8*, i32 } %14, !dbg !1328

bb3:                                              ; preds = %start
  %15 = bitcast { {}*, [3 x i64]* }* %_1 to { i8*, i64* }*, !dbg !1328
  %16 = getelementptr inbounds { i8*, i64* }, { i8*, i64* }* %15, i32 0, i32 0, !dbg !1328
  %17 = load i8*, i8** %16, align 8, !dbg !1328, !nonnull !4
  %18 = getelementptr inbounds { i8*, i64* }, { i8*, i64* }* %15, i32 0, i32 1, !dbg !1328
  %19 = load i64*, i64** %18, align 8, !dbg !1328, !nonnull !4
; call alloc::alloc::box_free::<dyn core::any::Any + core::marker::Send, alloc::alloc::Global>
  call void @_RINvNtCs8RW06R9lH2S_5alloc5alloc8box_freeDNtNtCs3p84KrD9aKt_4core3any3AnyNtNtBI_6marker4SendEL_NtB2_6GlobalECsfnYCCstO0CH_18mapped_static_race(i8* nonnull %17, i64* noalias readonly align 8 dereferenceable(24) %19), !dbg !1328
  br label %bb1, !dbg !1328

bb4:                                              ; preds = %cleanup
  %20 = bitcast { {}*, [3 x i64]* }* %_1 to { i8*, i64* }*, !dbg !1328
  %21 = getelementptr inbounds { i8*, i64* }, { i8*, i64* }* %20, i32 0, i32 0, !dbg !1328
  %22 = load i8*, i8** %21, align 8, !dbg !1328, !nonnull !4
  %23 = getelementptr inbounds { i8*, i64* }, { i8*, i64* }* %20, i32 0, i32 1, !dbg !1328
  %24 = load i64*, i64** %23, align 8, !dbg !1328, !nonnull !4
; call alloc::alloc::box_free::<dyn core::any::Any + core::marker::Send, alloc::alloc::Global>
  call void @_RINvNtCs8RW06R9lH2S_5alloc5alloc8box_freeDNtNtCs3p84KrD9aKt_4core3any3AnyNtNtBI_6marker4SendEL_NtB2_6GlobalECsfnYCCstO0CH_18mapped_static_race(i8* nonnull %22, i64* noalias readonly align 8 dereferenceable(24) %24) #12, !dbg !1328
  br label %bb2, !dbg !1328

cleanup:                                          ; preds = %start
  %25 = landingpad { i8*, i32 }
          cleanup
  %26 = extractvalue { i8*, i32 } %25, 0
  %27 = extractvalue { i8*, i32 } %25, 1
  %28 = getelementptr inbounds { i8*, i32 }, { i8*, i32 }* %0, i32 0, i32 0
  store i8* %26, i8** %28, align 8
  %29 = getelementptr inbounds { i8*, i32 }, { i8*, i32 }* %0, i32 0, i32 1
  store i32 %27, i32* %29, align 8
  br label %bb4
}

; core::ptr::drop_in_place::<alloc::boxed::Box<dyn std::error::Error + core::marker::Send + core::marker::Sync>>
; Function Attrs: nonlazybind uwtable
define internal void @_RINvNtCs3p84KrD9aKt_4core3ptr13drop_in_placeINtNtCs8RW06R9lH2S_5alloc5boxed3BoxDNtNtCs2bNvlddUlXM_3std5error5ErrorNtNtB4_6marker4SendNtB1Q_4SyncEL_EECsfnYCCstO0CH_18mapped_static_race({ {}*, [3 x i64]* }* %_1) unnamed_addr #0 personality i32 (i32, i32, i64, %"unwind::libunwind::_Unwind_Exception"*, %"unwind::libunwind::_Unwind_Context"*)* @rust_eh_personality !dbg !1329 {
start:
  %0 = alloca { i8*, i32 }, align 8
  %_1.dbg.spill = alloca { {}*, [3 x i64]* }*, align 8
  %1 = alloca {}, align 1
  store { {}*, [3 x i64]* }* %_1, { {}*, [3 x i64]* }** %_1.dbg.spill, align 8
  call void @llvm.dbg.declare(metadata { {}*, [3 x i64]* }** %_1.dbg.spill, metadata !1334, metadata !DIExpression()), !dbg !1337
  %2 = getelementptr inbounds { {}*, [3 x i64]* }, { {}*, [3 x i64]* }* %_1, i32 0, i32 0, !dbg !1337
  %3 = load {}*, {}** %2, align 8, !dbg !1337, !nonnull !4
  %4 = getelementptr inbounds { {}*, [3 x i64]* }, { {}*, [3 x i64]* }* %_1, i32 0, i32 1, !dbg !1337
  %5 = load [3 x i64]*, [3 x i64]** %4, align 8, !dbg !1337, !nonnull !4
  %6 = bitcast [3 x i64]* %5 to void ({}*)**, !dbg !1337
  %7 = getelementptr inbounds void ({}*)*, void ({}*)** %6, i64 0, !dbg !1337
  %8 = load void ({}*)*, void ({}*)** %7, align 8, !dbg !1337, !invariant.load !4, !nonnull !4
  invoke void %8({}* %3)
          to label %bb3 unwind label %cleanup, !dbg !1337

bb1:                                              ; preds = %bb3
  ret void, !dbg !1337

bb2:                                              ; preds = %bb4
  %9 = bitcast { i8*, i32 }* %0 to i8**, !dbg !1337
  %10 = load i8*, i8** %9, align 8, !dbg !1337
  %11 = getelementptr inbounds { i8*, i32 }, { i8*, i32 }* %0, i32 0, i32 1, !dbg !1337
  %12 = load i32, i32* %11, align 8, !dbg !1337
  %13 = insertvalue { i8*, i32 } undef, i8* %10, 0, !dbg !1337
  %14 = insertvalue { i8*, i32 } %13, i32 %12, 1, !dbg !1337
  resume { i8*, i32 } %14, !dbg !1337

bb3:                                              ; preds = %start
  %15 = bitcast { {}*, [3 x i64]* }* %_1 to { i8*, i64* }*, !dbg !1337
  %16 = getelementptr inbounds { i8*, i64* }, { i8*, i64* }* %15, i32 0, i32 0, !dbg !1337
  %17 = load i8*, i8** %16, align 8, !dbg !1337, !nonnull !4
  %18 = getelementptr inbounds { i8*, i64* }, { i8*, i64* }* %15, i32 0, i32 1, !dbg !1337
  %19 = load i64*, i64** %18, align 8, !dbg !1337, !nonnull !4
; call alloc::alloc::box_free::<dyn std::error::Error + core::marker::Send + core::marker::Sync, alloc::alloc::Global>
  call void @_RINvNtCs8RW06R9lH2S_5alloc5alloc8box_freeDNtNtCs2bNvlddUlXM_3std5error5ErrorNtNtCs3p84KrD9aKt_4core6marker4SendNtB1e_4SyncEL_NtB2_6GlobalECsfnYCCstO0CH_18mapped_static_race(i8* nonnull %17, i64* noalias readonly align 8 dereferenceable(24) %19), !dbg !1337
  br label %bb1, !dbg !1337

bb4:                                              ; preds = %cleanup
  %20 = bitcast { {}*, [3 x i64]* }* %_1 to { i8*, i64* }*, !dbg !1337
  %21 = getelementptr inbounds { i8*, i64* }, { i8*, i64* }* %20, i32 0, i32 0, !dbg !1337
  %22 = load i8*, i8** %21, align 8, !dbg !1337, !nonnull !4
  %23 = getelementptr inbounds { i8*, i64* }, { i8*, i64* }* %20, i32 0, i32 1, !dbg !1337
  %24 = load i64*, i64** %23, align 8, !dbg !1337, !nonnull !4
; call alloc::alloc::box_free::<dyn std::error::Error + core::marker::Send + core::marker::Sync, alloc::alloc::Global>
  call void @_RINvNtCs8RW06R9lH2S_5alloc5alloc8box_freeDNtNtCs2bNvlddUlXM_3std5error5ErrorNtNtCs3p84KrD9aKt_4core6marker4SendNtB1e_4SyncEL_NtB2_6GlobalECsfnYCCstO0CH_18mapped_static_race(i8* nonnull %22, i64* noalias readonly align 8 dereferenceable(24) %24) #12, !dbg !1337
  br label %bb2, !dbg !1337

cleanup:                                          ; preds = %start
  %25 = landingpad { i8*, i32 }
          cleanup
  %26 = extractvalue { i8*, i32 } %25, 0
  %27 = extractvalue { i8*, i32 } %25, 1
  %28 = getelementptr inbounds { i8*, i32 }, { i8*, i32 }* %0, i32 0, i32 0
  store i8* %26, i8** %28, align 8
  %29 = getelementptr inbounds { i8*, i32 }, { i8*, i32 }* %0, i32 0, i32 1
  store i32 %27, i32* %29, align 8
  br label %bb4
}

; core::ptr::drop_in_place::<alloc::boxed::Box<std::io::error::Custom>>
; Function Attrs: nonlazybind uwtable
define internal void @_RINvNtCs3p84KrD9aKt_4core3ptr13drop_in_placeINtNtCs8RW06R9lH2S_5alloc5boxed3BoxNtNtNtCs2bNvlddUlXM_3std2io5error6CustomEECsfnYCCstO0CH_18mapped_static_race(%"std::io::error::Custom"** %_1) unnamed_addr #0 personality i32 (i32, i32, i64, %"unwind::libunwind::_Unwind_Exception"*, %"unwind::libunwind::_Unwind_Context"*)* @rust_eh_personality !dbg !1338 {
start:
  %0 = alloca { i8*, i32 }, align 8
  %_1.dbg.spill = alloca %"std::io::error::Custom"**, align 8
  %1 = alloca {}, align 1
  store %"std::io::error::Custom"** %_1, %"std::io::error::Custom"*** %_1.dbg.spill, align 8
  call void @llvm.dbg.declare(metadata %"std::io::error::Custom"*** %_1.dbg.spill, metadata !1343, metadata !DIExpression()), !dbg !1346
  %2 = load %"std::io::error::Custom"*, %"std::io::error::Custom"** %_1, align 8, !dbg !1346, !nonnull !4
; invoke core::ptr::drop_in_place::<std::io::error::Custom>
  invoke void @_RINvNtCs3p84KrD9aKt_4core3ptr13drop_in_placeNtNtNtCs2bNvlddUlXM_3std2io5error6CustomECsfnYCCstO0CH_18mapped_static_race(%"std::io::error::Custom"* %2)
          to label %bb3 unwind label %cleanup, !dbg !1346

bb1:                                              ; preds = %bb3
  ret void, !dbg !1346

bb2:                                              ; preds = %bb4
  %3 = bitcast { i8*, i32 }* %0 to i8**, !dbg !1346
  %4 = load i8*, i8** %3, align 8, !dbg !1346
  %5 = getelementptr inbounds { i8*, i32 }, { i8*, i32 }* %0, i32 0, i32 1, !dbg !1346
  %6 = load i32, i32* %5, align 8, !dbg !1346
  %7 = insertvalue { i8*, i32 } undef, i8* %4, 0, !dbg !1346
  %8 = insertvalue { i8*, i32 } %7, i32 %6, 1, !dbg !1346
  resume { i8*, i32 } %8, !dbg !1346

bb3:                                              ; preds = %start
  %9 = bitcast %"std::io::error::Custom"** %_1 to i64**, !dbg !1346
  %10 = load i64*, i64** %9, align 8, !dbg !1346, !nonnull !4
; call alloc::alloc::box_free::<std::io::error::Custom, alloc::alloc::Global>
  call void @_RINvNtCs8RW06R9lH2S_5alloc5alloc8box_freeNtNtNtCs2bNvlddUlXM_3std2io5error6CustomNtB2_6GlobalECsfnYCCstO0CH_18mapped_static_race(i64* nonnull %10), !dbg !1346
  br label %bb1, !dbg !1346

bb4:                                              ; preds = %cleanup
  %11 = bitcast %"std::io::error::Custom"** %_1 to i64**, !dbg !1346
  %12 = load i64*, i64** %11, align 8, !dbg !1346, !nonnull !4
; call alloc::alloc::box_free::<std::io::error::Custom, alloc::alloc::Global>
  call void @_RINvNtCs8RW06R9lH2S_5alloc5alloc8box_freeNtNtNtCs2bNvlddUlXM_3std2io5error6CustomNtB2_6GlobalECsfnYCCstO0CH_18mapped_static_race(i64* nonnull %12) #12, !dbg !1346
  br label %bb2, !dbg !1346

cleanup:                                          ; preds = %start
  %13 = landingpad { i8*, i32 }
          cleanup
  %14 = extractvalue { i8*, i32 } %13, 0
  %15 = extractvalue { i8*, i32 } %13, 1
  %16 = getelementptr inbounds { i8*, i32 }, { i8*, i32 }* %0, i32 0, i32 0
  store i8* %14, i8** %16, align 8
  %17 = getelementptr inbounds { i8*, i32 }, { i8*, i32 }* %0, i32 0, i32 1
  store i32 %15, i32* %17, align 8
  br label %bb4
}

; core::ptr::drop_in_place::<alloc::boxed::Box<std::sys::unix::mutex::Mutex>>
; Function Attrs: nonlazybind uwtable
define internal void @_RINvNtCs3p84KrD9aKt_4core3ptr13drop_in_placeINtNtCs8RW06R9lH2S_5alloc5boxed3BoxNtNtNtNtCs2bNvlddUlXM_3std3sys4unix5mutex5MutexEECsfnYCCstO0CH_18mapped_static_race(%"std::sys::unix::mutex::Mutex"** %_1) unnamed_addr #0 personality i32 (i32, i32, i64, %"unwind::libunwind::_Unwind_Exception"*, %"unwind::libunwind::_Unwind_Context"*)* @rust_eh_personality !dbg !1347 {
start:
  %0 = alloca { i8*, i32 }, align 8
  %_1.dbg.spill = alloca %"std::sys::unix::mutex::Mutex"**, align 8
  %1 = alloca {}, align 1
  store %"std::sys::unix::mutex::Mutex"** %_1, %"std::sys::unix::mutex::Mutex"*** %_1.dbg.spill, align 8
  call void @llvm.dbg.declare(metadata %"std::sys::unix::mutex::Mutex"*** %_1.dbg.spill, metadata !1352, metadata !DIExpression()), !dbg !1355
  br label %bb3, !dbg !1355

bb1:                                              ; preds = %bb3
  ret void, !dbg !1355

bb2:                                              ; preds = %bb4
  %2 = bitcast { i8*, i32 }* %0 to i8**, !dbg !1355
  %3 = load i8*, i8** %2, align 8, !dbg !1355
  %4 = getelementptr inbounds { i8*, i32 }, { i8*, i32 }* %0, i32 0, i32 1, !dbg !1355
  %5 = load i32, i32* %4, align 8, !dbg !1355
  %6 = insertvalue { i8*, i32 } undef, i8* %3, 0, !dbg !1355
  %7 = insertvalue { i8*, i32 } %6, i32 %5, 1, !dbg !1355
  resume { i8*, i32 } %7, !dbg !1355

bb3:                                              ; preds = %start
  %8 = bitcast %"std::sys::unix::mutex::Mutex"** %_1 to i64**, !dbg !1355
  %9 = load i64*, i64** %8, align 8, !dbg !1355, !nonnull !4
; call alloc::alloc::box_free::<std::sys::unix::mutex::Mutex, alloc::alloc::Global>
  call void @_RINvNtCs8RW06R9lH2S_5alloc5alloc8box_freeNtNtNtNtCs2bNvlddUlXM_3std3sys4unix5mutex5MutexNtB2_6GlobalECsfnYCCstO0CH_18mapped_static_race(i64* nonnull %9), !dbg !1355
  br label %bb1, !dbg !1355

bb4:                                              ; No predecessors!
  %10 = bitcast %"std::sys::unix::mutex::Mutex"** %_1 to i64**, !dbg !1355
  %11 = load i64*, i64** %10, align 8, !dbg !1355, !nonnull !4
; call alloc::alloc::box_free::<std::sys::unix::mutex::Mutex, alloc::alloc::Global>
  call void @_RINvNtCs8RW06R9lH2S_5alloc5alloc8box_freeNtNtNtNtCs2bNvlddUlXM_3std3sys4unix5mutex5MutexNtB2_6GlobalECsfnYCCstO0CH_18mapped_static_race(i64* nonnull %11) #12, !dbg !1355
  br label %bb2, !dbg !1355
}

; core::ptr::drop_in_place::<alloc::boxed::Box<[u8]>>
; Function Attrs: nonlazybind uwtable
define internal void @_RINvNtCs3p84KrD9aKt_4core3ptr13drop_in_placeINtNtCs8RW06R9lH2S_5alloc5boxed3BoxShEECsfnYCCstO0CH_18mapped_static_race({ [0 x i8]*, i64 }* %_1) unnamed_addr #0 personality i32 (i32, i32, i64, %"unwind::libunwind::_Unwind_Exception"*, %"unwind::libunwind::_Unwind_Context"*)* @rust_eh_personality !dbg !1356 {
start:
  %0 = alloca { i8*, i32 }, align 8
  %_1.dbg.spill = alloca { [0 x i8]*, i64 }*, align 8
  %1 = alloca {}, align 1
  store { [0 x i8]*, i64 }* %_1, { [0 x i8]*, i64 }** %_1.dbg.spill, align 8
  call void @llvm.dbg.declare(metadata { [0 x i8]*, i64 }** %_1.dbg.spill, metadata !1361, metadata !DIExpression()), !dbg !1364
  br label %bb3, !dbg !1364

bb1:                                              ; preds = %bb3
  ret void, !dbg !1364

bb2:                                              ; preds = %bb4
  %2 = bitcast { i8*, i32 }* %0 to i8**, !dbg !1364
  %3 = load i8*, i8** %2, align 8, !dbg !1364
  %4 = getelementptr inbounds { i8*, i32 }, { i8*, i32 }* %0, i32 0, i32 1, !dbg !1364
  %5 = load i32, i32* %4, align 8, !dbg !1364
  %6 = insertvalue { i8*, i32 } undef, i8* %3, 0, !dbg !1364
  %7 = insertvalue { i8*, i32 } %6, i32 %5, 1, !dbg !1364
  resume { i8*, i32 } %7, !dbg !1364

bb3:                                              ; preds = %start
  %8 = bitcast { [0 x i8]*, i64 }* %_1 to { i8*, i64 }*, !dbg !1364
  %9 = getelementptr inbounds { i8*, i64 }, { i8*, i64 }* %8, i32 0, i32 0, !dbg !1364
  %10 = load i8*, i8** %9, align 8, !dbg !1364, !nonnull !4
  %11 = getelementptr inbounds { i8*, i64 }, { i8*, i64 }* %8, i32 0, i32 1, !dbg !1364
  %12 = load i64, i64* %11, align 8, !dbg !1364
; call alloc::alloc::box_free::<[u8], alloc::alloc::Global>
  call void @_RINvNtCs8RW06R9lH2S_5alloc5alloc8box_freeShNtB2_6GlobalECsfnYCCstO0CH_18mapped_static_race(i8* nonnull %10, i64 %12), !dbg !1364
  br label %bb1, !dbg !1364

bb4:                                              ; No predecessors!
  %13 = bitcast { [0 x i8]*, i64 }* %_1 to { i8*, i64 }*, !dbg !1364
  %14 = getelementptr inbounds { i8*, i64 }, { i8*, i64 }* %13, i32 0, i32 0, !dbg !1364
  %15 = load i8*, i8** %14, align 8, !dbg !1364, !nonnull !4
  %16 = getelementptr inbounds { i8*, i64 }, { i8*, i64 }* %13, i32 0, i32 1, !dbg !1364
  %17 = load i64, i64* %16, align 8, !dbg !1364
; call alloc::alloc::box_free::<[u8], alloc::alloc::Global>
  call void @_RINvNtCs8RW06R9lH2S_5alloc5alloc8box_freeShNtB2_6GlobalECsfnYCCstO0CH_18mapped_static_race(i8* nonnull %15, i64 %17) #12, !dbg !1364
  br label %bb2, !dbg !1364
}

; core::ptr::drop_in_place::<alloc::raw_vec::RawVec<u8>>
; Function Attrs: nonlazybind uwtable
define internal void @_RINvNtCs3p84KrD9aKt_4core3ptr13drop_in_placeINtNtCs8RW06R9lH2S_5alloc7raw_vec6RawVechEECsfnYCCstO0CH_18mapped_static_race({ i8*, i64 }* %_1) unnamed_addr #0 !dbg !1365 {
start:
  %_1.dbg.spill = alloca { i8*, i64 }*, align 8
  %0 = alloca {}, align 1
  store { i8*, i64 }* %_1, { i8*, i64 }** %_1.dbg.spill, align 8
  call void @llvm.dbg.declare(metadata { i8*, i64 }** %_1.dbg.spill, metadata !1370, metadata !DIExpression()), !dbg !1373
; call <alloc::raw_vec::RawVec<u8> as core::ops::drop::Drop>::drop
  call void @_RNvXs1_NtCs8RW06R9lH2S_5alloc7raw_vecINtB5_6RawVechENtNtNtCs3p84KrD9aKt_4core3ops4drop4Drop4dropCsfnYCCstO0CH_18mapped_static_race({ i8*, i64 }* align 8 dereferenceable(16) %_1), !dbg !1373
  br label %bb1, !dbg !1373

bb1:                                              ; preds = %start
  ret void, !dbg !1373
}

; core::ptr::drop_in_place::<std::sync::mutex::Mutex<alloc::vec::Vec<u8>>>
; Function Attrs: nonlazybind uwtable
define internal void @_RINvNtCs3p84KrD9aKt_4core3ptr13drop_in_placeINtNtNtCs2bNvlddUlXM_3std4sync5mutex5MutexINtNtCs8RW06R9lH2S_5alloc3vec3VechEEECsfnYCCstO0CH_18mapped_static_race(%"std::sync::Mutex<std::vec::Vec<u8>>"* %_1) unnamed_addr #0 personality i32 (i32, i32, i64, %"unwind::libunwind::_Unwind_Exception"*, %"unwind::libunwind::_Unwind_Context"*)* @rust_eh_personality !dbg !1374 {
start:
  %0 = alloca { i8*, i32 }, align 8
  %_1.dbg.spill = alloca %"std::sync::Mutex<std::vec::Vec<u8>>"*, align 8
  %1 = alloca {}, align 1
  store %"std::sync::Mutex<std::vec::Vec<u8>>"* %_1, %"std::sync::Mutex<std::vec::Vec<u8>>"** %_1.dbg.spill, align 8
  call void @llvm.dbg.declare(metadata %"std::sync::Mutex<std::vec::Vec<u8>>"** %_1.dbg.spill, metadata !1379, metadata !DIExpression()), !dbg !1380
  %2 = bitcast %"std::sync::Mutex<std::vec::Vec<u8>>"* %_1 to i64**, !dbg !1380
; invoke core::ptr::drop_in_place::<std::sys_common::mutex::MovableMutex>
  invoke void @_RINvNtCs3p84KrD9aKt_4core3ptr13drop_in_placeNtNtNtCs2bNvlddUlXM_3std10sys_common5mutex12MovableMutexECsfnYCCstO0CH_18mapped_static_race(i64** %2)
          to label %bb4 unwind label %cleanup, !dbg !1380

bb1:                                              ; preds = %bb3
  %3 = bitcast { i8*, i32 }* %0 to i8**, !dbg !1380
  %4 = load i8*, i8** %3, align 8, !dbg !1380
  %5 = getelementptr inbounds { i8*, i32 }, { i8*, i32 }* %0, i32 0, i32 1, !dbg !1380
  %6 = load i32, i32* %5, align 8, !dbg !1380
  %7 = insertvalue { i8*, i32 } undef, i8* %4, 0, !dbg !1380
  %8 = insertvalue { i8*, i32 } %7, i32 %6, 1, !dbg !1380
  resume { i8*, i32 } %8, !dbg !1380

bb2:                                              ; preds = %bb4
  ret void, !dbg !1380

bb3:                                              ; preds = %cleanup
  %9 = getelementptr inbounds %"std::sync::Mutex<std::vec::Vec<u8>>", %"std::sync::Mutex<std::vec::Vec<u8>>"* %_1, i32 0, i32 5, !dbg !1380
; call core::ptr::drop_in_place::<core::cell::UnsafeCell<alloc::vec::Vec<u8>>>
  call void @_RINvNtCs3p84KrD9aKt_4core3ptr13drop_in_placeINtNtB4_4cell10UnsafeCellINtNtCs8RW06R9lH2S_5alloc3vec3VechEEECsfnYCCstO0CH_18mapped_static_race(%"std::cell::UnsafeCell<std::vec::Vec<u8>>"* %9) #12, !dbg !1380
  br label %bb1, !dbg !1380

bb4:                                              ; preds = %start
  %10 = getelementptr inbounds %"std::sync::Mutex<std::vec::Vec<u8>>", %"std::sync::Mutex<std::vec::Vec<u8>>"* %_1, i32 0, i32 5, !dbg !1380
; call core::ptr::drop_in_place::<core::cell::UnsafeCell<alloc::vec::Vec<u8>>>
  call void @_RINvNtCs3p84KrD9aKt_4core3ptr13drop_in_placeINtNtB4_4cell10UnsafeCellINtNtCs8RW06R9lH2S_5alloc3vec3VechEEECsfnYCCstO0CH_18mapped_static_race(%"std::cell::UnsafeCell<std::vec::Vec<u8>>"* %10), !dbg !1380
  br label %bb2, !dbg !1380

cleanup:                                          ; preds = %start
  %11 = landingpad { i8*, i32 }
          cleanup
  %12 = extractvalue { i8*, i32 } %11, 0
  %13 = extractvalue { i8*, i32 } %11, 1
  %14 = getelementptr inbounds { i8*, i32 }, { i8*, i32 }* %0, i32 0, i32 0
  store i8* %12, i8** %14, align 8
  %15 = getelementptr inbounds { i8*, i32 }, { i8*, i32 }* %0, i32 0, i32 1
  store i32 %13, i32* %15, align 8
  br label %bb3
}

; core::ptr::drop_in_place::<<std::thread::Builder>::spawn_unchecked<mapped_static_race::main::{closure#0}, ()>::{closure#0}>
; Function Attrs: nonlazybind uwtable
define internal void @_RINvNtCs3p84KrD9aKt_4core3ptr13drop_in_placeNCINvMNtCs2bNvlddUlXM_3std6threadNtBM_7Builder15spawn_uncheckedNCNvCsfnYCCstO0CH_18mapped_static_race4main0uE0EB1L_(%"[closure@std::thread::Builder::spawn_unchecked<[closure@src/main.rs:10:30: 13:3], ()>::{closure#0}]"* %_1) unnamed_addr #0 personality i32 (i32, i32, i64, %"unwind::libunwind::_Unwind_Exception"*, %"unwind::libunwind::_Unwind_Context"*)* @rust_eh_personality !dbg !1381 {
start:
  %0 = alloca { i8*, i32 }, align 8
  %_1.dbg.spill = alloca %"[closure@std::thread::Builder::spawn_unchecked<[closure@src/main.rs:10:30: 13:3], ()>::{closure#0}]"*, align 8
  %1 = alloca {}, align 1
  store %"[closure@std::thread::Builder::spawn_unchecked<[closure@src/main.rs:10:30: 13:3], ()>::{closure#0}]"* %_1, %"[closure@std::thread::Builder::spawn_unchecked<[closure@src/main.rs:10:30: 13:3], ()>::{closure#0}]"** %_1.dbg.spill, align 8
  call void @llvm.dbg.declare(metadata %"[closure@std::thread::Builder::spawn_unchecked<[closure@src/main.rs:10:30: 13:3], ()>::{closure#0}]"** %_1.dbg.spill, metadata !1386, metadata !DIExpression()), !dbg !1387
  %2 = bitcast %"[closure@std::thread::Builder::spawn_unchecked<[closure@src/main.rs:10:30: 13:3], ()>::{closure#0}]"* %_1 to i64**, !dbg !1387
; invoke core::ptr::drop_in_place::<std::thread::Thread>
  invoke void @_RINvNtCs3p84KrD9aKt_4core3ptr13drop_in_placeNtNtCs2bNvlddUlXM_3std6thread6ThreadECsfnYCCstO0CH_18mapped_static_race(i64** %2)
          to label %bb6 unwind label %cleanup, !dbg !1387

bb1:                                              ; preds = %bb3
  %3 = bitcast { i8*, i32 }* %0 to i8**, !dbg !1387
  %4 = load i8*, i8** %3, align 8, !dbg !1387
  %5 = getelementptr inbounds { i8*, i32 }, { i8*, i32 }* %0, i32 0, i32 1, !dbg !1387
  %6 = load i32, i32* %5, align 8, !dbg !1387
  %7 = insertvalue { i8*, i32 } undef, i8* %4, 0, !dbg !1387
  %8 = insertvalue { i8*, i32 } %7, i32 %6, 1, !dbg !1387
  resume { i8*, i32 } %8, !dbg !1387

bb2:                                              ; preds = %bb5
  ret void, !dbg !1387

bb3:                                              ; preds = %cleanup1, %bb4
  %9 = getelementptr inbounds %"[closure@std::thread::Builder::spawn_unchecked<[closure@src/main.rs:10:30: 13:3], ()>::{closure#0}]", %"[closure@std::thread::Builder::spawn_unchecked<[closure@src/main.rs:10:30: 13:3], ()>::{closure#0}]"* %_1, i32 0, i32 7, !dbg !1387
; call core::ptr::drop_in_place::<alloc::sync::Arc<core::cell::UnsafeCell<core::option::Option<core::result::Result<(), alloc::boxed::Box<dyn core::any::Any + core::marker::Send>>>>>>
  call void @_RINvNtCs3p84KrD9aKt_4core3ptr13drop_in_placeINtNtCs8RW06R9lH2S_5alloc4sync3ArcINtNtB4_4cell10UnsafeCellINtNtB4_6option6OptionINtNtB4_6result6ResultuINtNtBL_5boxed3BoxDNtNtB4_3any3AnyNtNtB4_6marker4SendEL_EEEEEECsfnYCCstO0CH_18mapped_static_race(i64** %9) #12, !dbg !1387
  br label %bb1, !dbg !1387

bb4:                                              ; preds = %cleanup
  %10 = getelementptr inbounds %"[closure@std::thread::Builder::spawn_unchecked<[closure@src/main.rs:10:30: 13:3], ()>::{closure#0}]", %"[closure@std::thread::Builder::spawn_unchecked<[closure@src/main.rs:10:30: 13:3], ()>::{closure#0}]"* %_1, i32 0, i32 5, !dbg !1387
; call core::ptr::drop_in_place::<core::option::Option<alloc::sync::Arc<std::sync::mutex::Mutex<alloc::vec::Vec<u8>>>>>
  call void @_RINvNtCs3p84KrD9aKt_4core3ptr13drop_in_placeINtNtB4_6option6OptionINtNtCs8RW06R9lH2S_5alloc4sync3ArcINtNtNtCs2bNvlddUlXM_3std4sync5mutex5MutexINtNtB17_3vec3VechEEEEECsfnYCCstO0CH_18mapped_static_race(i64** %10) #12, !dbg !1387
  br label %bb3, !dbg !1387

bb5:                                              ; preds = %bb6
  %11 = getelementptr inbounds %"[closure@std::thread::Builder::spawn_unchecked<[closure@src/main.rs:10:30: 13:3], ()>::{closure#0}]", %"[closure@std::thread::Builder::spawn_unchecked<[closure@src/main.rs:10:30: 13:3], ()>::{closure#0}]"* %_1, i32 0, i32 7, !dbg !1387
; call core::ptr::drop_in_place::<alloc::sync::Arc<core::cell::UnsafeCell<core::option::Option<core::result::Result<(), alloc::boxed::Box<dyn core::any::Any + core::marker::Send>>>>>>
  call void @_RINvNtCs3p84KrD9aKt_4core3ptr13drop_in_placeINtNtCs8RW06R9lH2S_5alloc4sync3ArcINtNtB4_4cell10UnsafeCellINtNtB4_6option6OptionINtNtB4_6result6ResultuINtNtBL_5boxed3BoxDNtNtB4_3any3AnyNtNtB4_6marker4SendEL_EEEEEECsfnYCCstO0CH_18mapped_static_race(i64** %11), !dbg !1387
  br label %bb2, !dbg !1387

bb6:                                              ; preds = %start
  %12 = getelementptr inbounds %"[closure@std::thread::Builder::spawn_unchecked<[closure@src/main.rs:10:30: 13:3], ()>::{closure#0}]", %"[closure@std::thread::Builder::spawn_unchecked<[closure@src/main.rs:10:30: 13:3], ()>::{closure#0}]"* %_1, i32 0, i32 5, !dbg !1387
; invoke core::ptr::drop_in_place::<core::option::Option<alloc::sync::Arc<std::sync::mutex::Mutex<alloc::vec::Vec<u8>>>>>
  invoke void @_RINvNtCs3p84KrD9aKt_4core3ptr13drop_in_placeINtNtB4_6option6OptionINtNtCs8RW06R9lH2S_5alloc4sync3ArcINtNtNtCs2bNvlddUlXM_3std4sync5mutex5MutexINtNtB17_3vec3VechEEEEECsfnYCCstO0CH_18mapped_static_race(i64** %12)
          to label %bb5 unwind label %cleanup1, !dbg !1387

cleanup:                                          ; preds = %start
  %13 = landingpad { i8*, i32 }
          cleanup
  %14 = extractvalue { i8*, i32 } %13, 0
  %15 = extractvalue { i8*, i32 } %13, 1
  %16 = getelementptr inbounds { i8*, i32 }, { i8*, i32 }* %0, i32 0, i32 0
  store i8* %14, i8** %16, align 8
  %17 = getelementptr inbounds { i8*, i32 }, { i8*, i32 }* %0, i32 0, i32 1
  store i32 %15, i32* %17, align 8
  br label %bb4

cleanup1:                                         ; preds = %bb6
  %18 = landingpad { i8*, i32 }
          cleanup
  %19 = extractvalue { i8*, i32 } %18, 0
  %20 = extractvalue { i8*, i32 } %18, 1
  %21 = getelementptr inbounds { i8*, i32 }, { i8*, i32 }* %0, i32 0, i32 0
  store i8* %19, i8** %21, align 8
  %22 = getelementptr inbounds { i8*, i32 }, { i8*, i32 }* %0, i32 0, i32 1
  store i32 %20, i32* %22, align 8
  br label %bb3
}

; core::ptr::drop_in_place::<std::rt::lang_start<()>::{closure#0}>
; Function Attrs: inlinehint nonlazybind uwtable
define internal void @_RINvNtCs3p84KrD9aKt_4core3ptr13drop_in_placeNCINvNtCs2bNvlddUlXM_3std2rt10lang_startuE0ECsfnYCCstO0CH_18mapped_static_race(i64** %_1) unnamed_addr #1 !dbg !1388 {
start:
  %_1.dbg.spill = alloca i64**, align 8
  %0 = alloca {}, align 1
  store i64** %_1, i64*** %_1.dbg.spill, align 8
  call void @llvm.dbg.declare(metadata i64*** %_1.dbg.spill, metadata !1393, metadata !DIExpression()), !dbg !1396
  ret void, !dbg !1396
}

; core::ptr::drop_in_place::<std::thread::Inner>
; Function Attrs: nonlazybind uwtable
define internal void @_RINvNtCs3p84KrD9aKt_4core3ptr13drop_in_placeNtNtCs2bNvlddUlXM_3std6thread5InnerECsfnYCCstO0CH_18mapped_static_race(%"std::thread::Inner"* %_1) unnamed_addr #0 !dbg !1397 {
start:
  %_1.dbg.spill = alloca %"std::thread::Inner"*, align 8
  %0 = alloca {}, align 1
  store %"std::thread::Inner"* %_1, %"std::thread::Inner"** %_1.dbg.spill, align 8
  call void @llvm.dbg.declare(metadata %"std::thread::Inner"** %_1.dbg.spill, metadata !1402, metadata !DIExpression()), !dbg !1403
  %1 = bitcast %"std::thread::Inner"* %_1 to { i8*, i64 }*, !dbg !1403
; call core::ptr::drop_in_place::<core::option::Option<std::ffi::c_str::CString>>
  call void @_RINvNtCs3p84KrD9aKt_4core3ptr13drop_in_placeINtNtB4_6option6OptionNtNtNtCs2bNvlddUlXM_3std3ffi5c_str7CStringEECsfnYCCstO0CH_18mapped_static_race({ i8*, i64 }* %1), !dbg !1403
  br label %bb1, !dbg !1403

bb1:                                              ; preds = %start
  ret void, !dbg !1403
}

; core::ptr::drop_in_place::<std::thread::Thread>
; Function Attrs: nonlazybind uwtable
define internal void @_RINvNtCs3p84KrD9aKt_4core3ptr13drop_in_placeNtNtCs2bNvlddUlXM_3std6thread6ThreadECsfnYCCstO0CH_18mapped_static_race(i64** %_1) unnamed_addr #0 !dbg !1404 {
start:
  %_1.dbg.spill = alloca i64**, align 8
  %0 = alloca {}, align 1
  store i64** %_1, i64*** %_1.dbg.spill, align 8
  call void @llvm.dbg.declare(metadata i64*** %_1.dbg.spill, metadata !1409, metadata !DIExpression()), !dbg !1412
; call core::ptr::drop_in_place::<alloc::sync::Arc<std::thread::Inner>>
  call void @_RINvNtCs3p84KrD9aKt_4core3ptr13drop_in_placeINtNtCs8RW06R9lH2S_5alloc4sync3ArcNtNtCs2bNvlddUlXM_3std6thread5InnerEECsfnYCCstO0CH_18mapped_static_race(i64** %_1), !dbg !1412
  br label %bb1, !dbg !1412

bb1:                                              ; preds = %start
  ret void, !dbg !1412
}

; core::ptr::drop_in_place::<alloc::string::String>
; Function Attrs: nonlazybind uwtable
define internal void @_RINvNtCs3p84KrD9aKt_4core3ptr13drop_in_placeNtNtCs8RW06R9lH2S_5alloc6string6StringECsfnYCCstO0CH_18mapped_static_race(%"std::string::String"* %_1) unnamed_addr #0 !dbg !1413 {
start:
  %_1.dbg.spill = alloca %"std::string::String"*, align 8
  %0 = alloca {}, align 1
  store %"std::string::String"* %_1, %"std::string::String"** %_1.dbg.spill, align 8
  call void @llvm.dbg.declare(metadata %"std::string::String"** %_1.dbg.spill, metadata !1418, metadata !DIExpression()), !dbg !1419
  %1 = bitcast %"std::string::String"* %_1 to %"std::vec::Vec<u8>"*, !dbg !1419
; call core::ptr::drop_in_place::<alloc::vec::Vec<u8>>
  call void @_RINvNtCs3p84KrD9aKt_4core3ptr13drop_in_placeINtNtCs8RW06R9lH2S_5alloc3vec3VechEECsfnYCCstO0CH_18mapped_static_race(%"std::vec::Vec<u8>"* %1), !dbg !1419
  br label %bb1, !dbg !1419

bb1:                                              ; preds = %start
  ret void, !dbg !1419
}

; core::ptr::drop_in_place::<std::sys_common::mutex::MovableMutex>
; Function Attrs: nonlazybind uwtable
define internal void @_RINvNtCs3p84KrD9aKt_4core3ptr13drop_in_placeNtNtNtCs2bNvlddUlXM_3std10sys_common5mutex12MovableMutexECsfnYCCstO0CH_18mapped_static_race(i64** %_1) unnamed_addr #0 personality i32 (i32, i32, i64, %"unwind::libunwind::_Unwind_Exception"*, %"unwind::libunwind::_Unwind_Context"*)* @rust_eh_personality !dbg !1420 {
start:
  %0 = alloca { i8*, i32 }, align 8
  %_1.dbg.spill = alloca i64**, align 8
  %1 = alloca {}, align 1
  store i64** %_1, i64*** %_1.dbg.spill, align 8
  call void @llvm.dbg.declare(metadata i64*** %_1.dbg.spill, metadata !1425, metadata !DIExpression()), !dbg !1428
; invoke <std::sys_common::mutex::MovableMutex as core::ops::drop::Drop>::drop
  invoke void @"_ZN78_$LT$std..sys_common..mutex..MovableMutex$u20$as$u20$core..ops..drop..Drop$GT$4drop17ha5cab95367ffc0fcE"(i64** align 8 dereferenceable(8) %_1)
          to label %bb4 unwind label %cleanup, !dbg !1428

bb1:                                              ; preds = %bb3
  %2 = bitcast { i8*, i32 }* %0 to i8**, !dbg !1428
  %3 = load i8*, i8** %2, align 8, !dbg !1428
  %4 = getelementptr inbounds { i8*, i32 }, { i8*, i32 }* %0, i32 0, i32 1, !dbg !1428
  %5 = load i32, i32* %4, align 8, !dbg !1428
  %6 = insertvalue { i8*, i32 } undef, i8* %3, 0, !dbg !1428
  %7 = insertvalue { i8*, i32 } %6, i32 %5, 1, !dbg !1428
  resume { i8*, i32 } %7, !dbg !1428

bb2:                                              ; preds = %bb4
  ret void, !dbg !1428

bb3:                                              ; preds = %cleanup
  %8 = bitcast i64** %_1 to %"std::sys::unix::mutex::Mutex"**, !dbg !1428
; call core::ptr::drop_in_place::<alloc::boxed::Box<std::sys::unix::mutex::Mutex>>
  call void @_RINvNtCs3p84KrD9aKt_4core3ptr13drop_in_placeINtNtCs8RW06R9lH2S_5alloc5boxed3BoxNtNtNtNtCs2bNvlddUlXM_3std3sys4unix5mutex5MutexEECsfnYCCstO0CH_18mapped_static_race(%"std::sys::unix::mutex::Mutex"** %8) #12, !dbg !1428
  br label %bb1, !dbg !1428

bb4:                                              ; preds = %start
  %9 = bitcast i64** %_1 to %"std::sys::unix::mutex::Mutex"**, !dbg !1428
; call core::ptr::drop_in_place::<alloc::boxed::Box<std::sys::unix::mutex::Mutex>>
  call void @_RINvNtCs3p84KrD9aKt_4core3ptr13drop_in_placeINtNtCs8RW06R9lH2S_5alloc5boxed3BoxNtNtNtNtCs2bNvlddUlXM_3std3sys4unix5mutex5MutexEECsfnYCCstO0CH_18mapped_static_race(%"std::sys::unix::mutex::Mutex"** %9), !dbg !1428
  br label %bb2, !dbg !1428

cleanup:                                          ; preds = %start
  %10 = landingpad { i8*, i32 }
          cleanup
  %11 = extractvalue { i8*, i32 } %10, 0
  %12 = extractvalue { i8*, i32 } %10, 1
  %13 = getelementptr inbounds { i8*, i32 }, { i8*, i32 }* %0, i32 0, i32 0
  store i8* %11, i8** %13, align 8
  %14 = getelementptr inbounds { i8*, i32 }, { i8*, i32 }* %0, i32 0, i32 1
  store i32 %12, i32* %14, align 8
  br label %bb3
}

; core::ptr::drop_in_place::<std::io::error::Repr>
; Function Attrs: nonlazybind uwtable
define internal void @_RINvNtCs3p84KrD9aKt_4core3ptr13drop_in_placeNtNtNtCs2bNvlddUlXM_3std2io5error4ReprECsfnYCCstO0CH_18mapped_static_race(%"std::io::error::Repr"* %_1) unnamed_addr #0 !dbg !1429 {
start:
  %_1.dbg.spill = alloca %"std::io::error::Repr"*, align 8
  %0 = alloca {}, align 1
  store %"std::io::error::Repr"* %_1, %"std::io::error::Repr"** %_1.dbg.spill, align 8
  call void @llvm.dbg.declare(metadata %"std::io::error::Repr"** %_1.dbg.spill, metadata !1434, metadata !DIExpression()), !dbg !1437
  %1 = bitcast %"std::io::error::Repr"* %_1 to i8*, !dbg !1437
  %2 = load i8, i8* %1, align 8, !dbg !1437, !range !1438
  %_2 = zext i8 %2 to i64, !dbg !1437
  switch i64 %_2, label %bb2 [
    i64 0, label %bb1
    i64 1, label %bb1
  ], !dbg !1437

bb1:                                              ; preds = %bb2, %start, %start
  ret void, !dbg !1437

bb2:                                              ; preds = %start
  %3 = bitcast %"std::io::error::Repr"* %_1 to %"std::io::error::Repr::Custom"*, !dbg !1437
  %4 = getelementptr inbounds %"std::io::error::Repr::Custom", %"std::io::error::Repr::Custom"* %3, i32 0, i32 1, !dbg !1437
; call core::ptr::drop_in_place::<alloc::boxed::Box<std::io::error::Custom>>
  call void @_RINvNtCs3p84KrD9aKt_4core3ptr13drop_in_placeINtNtCs8RW06R9lH2S_5alloc5boxed3BoxNtNtNtCs2bNvlddUlXM_3std2io5error6CustomEECsfnYCCstO0CH_18mapped_static_race(%"std::io::error::Custom"** %4), !dbg !1437
  br label %bb1, !dbg !1437
}

; core::ptr::drop_in_place::<std::io::error::Error>
; Function Attrs: nonlazybind uwtable
define internal void @_RINvNtCs3p84KrD9aKt_4core3ptr13drop_in_placeNtNtNtCs2bNvlddUlXM_3std2io5error5ErrorECsfnYCCstO0CH_18mapped_static_race(%"std::io::Error"* %_1) unnamed_addr #0 !dbg !1439 {
start:
  %_1.dbg.spill = alloca %"std::io::Error"*, align 8
  %0 = alloca {}, align 1
  store %"std::io::Error"* %_1, %"std::io::Error"** %_1.dbg.spill, align 8
  call void @llvm.dbg.declare(metadata %"std::io::Error"** %_1.dbg.spill, metadata !1444, metadata !DIExpression()), !dbg !1447
  %1 = bitcast %"std::io::Error"* %_1 to %"std::io::error::Repr"*, !dbg !1447
; call core::ptr::drop_in_place::<std::io::error::Repr>
  call void @_RINvNtCs3p84KrD9aKt_4core3ptr13drop_in_placeNtNtNtCs2bNvlddUlXM_3std2io5error4ReprECsfnYCCstO0CH_18mapped_static_race(%"std::io::error::Repr"* %1), !dbg !1447
  br label %bb1, !dbg !1447

bb1:                                              ; preds = %start
  ret void, !dbg !1447
}

; core::ptr::drop_in_place::<std::io::error::Custom>
; Function Attrs: nonlazybind uwtable
define internal void @_RINvNtCs3p84KrD9aKt_4core3ptr13drop_in_placeNtNtNtCs2bNvlddUlXM_3std2io5error6CustomECsfnYCCstO0CH_18mapped_static_race(%"std::io::error::Custom"* %_1) unnamed_addr #0 !dbg !1448 {
start:
  %_1.dbg.spill = alloca %"std::io::error::Custom"*, align 8
  %0 = alloca {}, align 1
  store %"std::io::error::Custom"* %_1, %"std::io::error::Custom"** %_1.dbg.spill, align 8
  call void @llvm.dbg.declare(metadata %"std::io::error::Custom"** %_1.dbg.spill, metadata !1453, metadata !DIExpression()), !dbg !1454
  %1 = bitcast %"std::io::error::Custom"* %_1 to { {}*, [3 x i64]* }*, !dbg !1454
; call core::ptr::drop_in_place::<alloc::boxed::Box<dyn std::error::Error + core::marker::Send + core::marker::Sync>>
  call void @_RINvNtCs3p84KrD9aKt_4core3ptr13drop_in_placeINtNtCs8RW06R9lH2S_5alloc5boxed3BoxDNtNtCs2bNvlddUlXM_3std5error5ErrorNtNtB4_6marker4SendNtB1Q_4SyncEL_EECsfnYCCstO0CH_18mapped_static_race({ {}*, [3 x i64]* }* %1), !dbg !1454
  br label %bb1, !dbg !1454

bb1:                                              ; preds = %start
  ret void, !dbg !1454
}

; core::ptr::drop_in_place::<std::ffi::c_str::CString>
; Function Attrs: nonlazybind uwtable
define internal void @_RINvNtCs3p84KrD9aKt_4core3ptr13drop_in_placeNtNtNtCs2bNvlddUlXM_3std3ffi5c_str7CStringECsfnYCCstO0CH_18mapped_static_race({ i8*, i64 }* %_1) unnamed_addr #0 personality i32 (i32, i32, i64, %"unwind::libunwind::_Unwind_Exception"*, %"unwind::libunwind::_Unwind_Context"*)* @rust_eh_personality !dbg !1455 {
start:
  %0 = alloca { i8*, i32 }, align 8
  %_1.dbg.spill = alloca { i8*, i64 }*, align 8
  %1 = alloca {}, align 1
  store { i8*, i64 }* %_1, { i8*, i64 }** %_1.dbg.spill, align 8
  call void @llvm.dbg.declare(metadata { i8*, i64 }** %_1.dbg.spill, metadata !1460, metadata !DIExpression()), !dbg !1461
; invoke <std::ffi::c_str::CString as core::ops::drop::Drop>::drop
  invoke void @_RNvXs1_NtNtCs2bNvlddUlXM_3std3ffi5c_strNtB5_7CStringNtNtNtCs3p84KrD9aKt_4core3ops4drop4Drop4dropCsfnYCCstO0CH_18mapped_static_race({ i8*, i64 }* align 8 dereferenceable(16) %_1)
          to label %bb4 unwind label %cleanup, !dbg !1461

bb1:                                              ; preds = %bb3
  %2 = bitcast { i8*, i32 }* %0 to i8**, !dbg !1461
  %3 = load i8*, i8** %2, align 8, !dbg !1461
  %4 = getelementptr inbounds { i8*, i32 }, { i8*, i32 }* %0, i32 0, i32 1, !dbg !1461
  %5 = load i32, i32* %4, align 8, !dbg !1461
  %6 = insertvalue { i8*, i32 } undef, i8* %3, 0, !dbg !1461
  %7 = insertvalue { i8*, i32 } %6, i32 %5, 1, !dbg !1461
  resume { i8*, i32 } %7, !dbg !1461

bb2:                                              ; preds = %bb4
  ret void, !dbg !1461

bb3:                                              ; preds = %cleanup
  %8 = bitcast { i8*, i64 }* %_1 to { [0 x i8]*, i64 }*, !dbg !1461
; call core::ptr::drop_in_place::<alloc::boxed::Box<[u8]>>
  call void @_RINvNtCs3p84KrD9aKt_4core3ptr13drop_in_placeINtNtCs8RW06R9lH2S_5alloc5boxed3BoxShEECsfnYCCstO0CH_18mapped_static_race({ [0 x i8]*, i64 }* %8) #12, !dbg !1461
  br label %bb1, !dbg !1461

bb4:                                              ; preds = %start
  %9 = bitcast { i8*, i64 }* %_1 to { [0 x i8]*, i64 }*, !dbg !1461
; call core::ptr::drop_in_place::<alloc::boxed::Box<[u8]>>
  call void @_RINvNtCs3p84KrD9aKt_4core3ptr13drop_in_placeINtNtCs8RW06R9lH2S_5alloc5boxed3BoxShEECsfnYCCstO0CH_18mapped_static_race({ [0 x i8]*, i64 }* %9), !dbg !1461
  br label %bb2, !dbg !1461

cleanup:                                          ; preds = %start
  %10 = landingpad { i8*, i32 }
          cleanup
  %11 = extractvalue { i8*, i32 } %10, 0
  %12 = extractvalue { i8*, i32 } %10, 1
  %13 = getelementptr inbounds { i8*, i32 }, { i8*, i32 }* %0, i32 0, i32 0
  store i8* %11, i8** %13, align 8
  %14 = getelementptr inbounds { i8*, i32 }, { i8*, i32 }* %0, i32 0, i32 1
  store i32 %12, i32* %14, align 8
  br label %bb3
}

; core::ptr::drop_in_place::<std::sys::unix::thread::Thread>
; Function Attrs: nonlazybind uwtable
define internal void @_RINvNtCs3p84KrD9aKt_4core3ptr13drop_in_placeNtNtNtNtCs2bNvlddUlXM_3std3sys4unix6thread6ThreadECsfnYCCstO0CH_18mapped_static_race(i64* %_1) unnamed_addr #0 !dbg !1462 {
start:
  %_1.dbg.spill = alloca i64*, align 8
  %0 = alloca {}, align 1
  store i64* %_1, i64** %_1.dbg.spill, align 8
  call void @llvm.dbg.declare(metadata i64** %_1.dbg.spill, metadata !1467, metadata !DIExpression()), !dbg !1468
; call <std::sys::unix::thread::Thread as core::ops::drop::Drop>::drop
  call void @"_ZN72_$LT$std..sys..unix..thread..Thread$u20$as$u20$core..ops..drop..Drop$GT$4drop17h5cc7e8cf02e8d2d3E"(i64* align 8 dereferenceable(8) %_1), !dbg !1468
  br label %bb1, !dbg !1468

bb1:                                              ; preds = %start
  ret void, !dbg !1468
}

; core::ptr::slice_from_raw_parts_mut::<u8>
; Function Attrs: inlinehint nonlazybind uwtable
define internal { [0 x i8]*, i64 } @_RINvNtCs3p84KrD9aKt_4core3ptr24slice_from_raw_parts_muthECsfnYCCstO0CH_18mapped_static_race(i8* %data, i64 %len) unnamed_addr #1 !dbg !1469 {
start:
  %len.dbg.spill = alloca i64, align 8
  %data.dbg.spill = alloca i8*, align 8
  %_4 = alloca { i8*, i64 }, align 8
  %_3 = alloca %"std::ptr::Repr<u8>", align 8
  store i8* %data, i8** %data.dbg.spill, align 8
  call void @llvm.dbg.declare(metadata i8** %data.dbg.spill, metadata !1477, metadata !DIExpression()), !dbg !1479
  store i64 %len, i64* %len.dbg.spill, align 8
  call void @llvm.dbg.declare(metadata i64* %len.dbg.spill, metadata !1478, metadata !DIExpression()), !dbg !1480
  %0 = bitcast { i8*, i64 }* %_4 to i8**, !dbg !1481
  store i8* %data, i8** %0, align 8, !dbg !1481
  %1 = getelementptr inbounds { i8*, i64 }, { i8*, i64 }* %_4, i32 0, i32 1, !dbg !1481
  store i64 %len, i64* %1, align 8, !dbg !1481
  %2 = bitcast %"std::ptr::Repr<u8>"* %_3 to { i8*, i64 }*, !dbg !1482
  %3 = getelementptr inbounds { i8*, i64 }, { i8*, i64 }* %_4, i32 0, i32 0, !dbg !1482
  %4 = load i8*, i8** %3, align 8, !dbg !1482
  %5 = getelementptr inbounds { i8*, i64 }, { i8*, i64 }* %_4, i32 0, i32 1, !dbg !1482
  %6 = load i64, i64* %5, align 8, !dbg !1482
  %7 = getelementptr inbounds { i8*, i64 }, { i8*, i64 }* %2, i32 0, i32 0, !dbg !1482
  store i8* %4, i8** %7, align 8, !dbg !1482
  %8 = getelementptr inbounds { i8*, i64 }, { i8*, i64 }* %2, i32 0, i32 1, !dbg !1482
  store i64 %6, i64* %8, align 8, !dbg !1482
  %9 = bitcast %"std::ptr::Repr<u8>"* %_3 to { [0 x i8]*, i64 }*, !dbg !1482
  %10 = getelementptr inbounds { [0 x i8]*, i64 }, { [0 x i8]*, i64 }* %9, i32 0, i32 0, !dbg !1482
  %11 = load [0 x i8]*, [0 x i8]** %10, align 8, !dbg !1482
  %12 = getelementptr inbounds { [0 x i8]*, i64 }, { [0 x i8]*, i64 }* %9, i32 0, i32 1, !dbg !1482
  %13 = load i64, i64* %12, align 8, !dbg !1482
  %14 = insertvalue { [0 x i8]*, i64 } undef, [0 x i8]* %11, 0, !dbg !1483
  %15 = insertvalue { [0 x i8]*, i64 } %14, i64 %13, 1, !dbg !1483
  ret { [0 x i8]*, i64 } %15, !dbg !1483
}

; core::ptr::read::<std::panic::AssertUnwindSafe<<std::thread::Builder>::spawn_unchecked<mapped_static_race::main::{closure#0}, ()>::{closure#0}::{closure#0}>>
; Function Attrs: inlinehint nonlazybind uwtable
define internal void @_RINvNtCs3p84KrD9aKt_4core3ptr4readINtNtCs2bNvlddUlXM_3std5panic16AssertUnwindSafeNCNCINvMNtBB_6threadNtB1p_7Builder15spawn_uncheckedNCNvCsfnYCCstO0CH_18mapped_static_race4main0uE00EEB2a_(%"std::panic::AssertUnwindSafe<[closure@std::thread::Builder::spawn_unchecked<[closure@src/main.rs:10:30: 13:3], ()>::{closure#0}::{closure#0}]>"* %src) unnamed_addr #1 !dbg !1484 {
start:
  %self.dbg.spill.i = alloca %"std::mem::MaybeUninit<std::panic::AssertUnwindSafe<[closure@std::thread::Builder::spawn_unchecked<[closure@src/main.rs:10:30: 13:3], ()>::{closure#0}::{closure#0}]>>"*, align 8
  %0 = alloca %"std::mem::MaybeUninit<std::panic::AssertUnwindSafe<[closure@std::thread::Builder::spawn_unchecked<[closure@src/main.rs:10:30: 13:3], ()>::{closure#0}::{closure#0}]>>", align 1
  %src.dbg.spill = alloca %"std::panic::AssertUnwindSafe<[closure@std::thread::Builder::spawn_unchecked<[closure@src/main.rs:10:30: 13:3], ()>::{closure#0}::{closure#0}]>"*, align 8
  %tmp = alloca %"std::mem::MaybeUninit<std::panic::AssertUnwindSafe<[closure@std::thread::Builder::spawn_unchecked<[closure@src/main.rs:10:30: 13:3], ()>::{closure#0}::{closure#0}]>>", align 1
  store %"std::panic::AssertUnwindSafe<[closure@std::thread::Builder::spawn_unchecked<[closure@src/main.rs:10:30: 13:3], ()>::{closure#0}::{closure#0}]>"* %src, %"std::panic::AssertUnwindSafe<[closure@std::thread::Builder::spawn_unchecked<[closure@src/main.rs:10:30: 13:3], ()>::{closure#0}::{closure#0}]>"** %src.dbg.spill, align 8
  call void @llvm.dbg.declare(metadata %"std::panic::AssertUnwindSafe<[closure@std::thread::Builder::spawn_unchecked<[closure@src/main.rs:10:30: 13:3], ()>::{closure#0}::{closure#0}]>"** %src.dbg.spill, metadata !1488, metadata !DIExpression()), !dbg !1496
  call void @llvm.dbg.declare(metadata %"std::mem::MaybeUninit<std::panic::AssertUnwindSafe<[closure@std::thread::Builder::spawn_unchecked<[closure@src/main.rs:10:30: 13:3], ()>::{closure#0}::{closure#0}]>>"* %tmp, metadata !1489, metadata !DIExpression()), !dbg !1497
  %1 = bitcast %"std::mem::MaybeUninit<std::panic::AssertUnwindSafe<[closure@std::thread::Builder::spawn_unchecked<[closure@src/main.rs:10:30: 13:3], ()>::{closure#0}::{closure#0}]>>"* %0 to {}*, !dbg !1498
  br label %bb1, !dbg !1502

bb1:                                              ; preds = %start
  store %"std::mem::MaybeUninit<std::panic::AssertUnwindSafe<[closure@std::thread::Builder::spawn_unchecked<[closure@src/main.rs:10:30: 13:3], ()>::{closure#0}::{closure#0}]>>"* %tmp, %"std::mem::MaybeUninit<std::panic::AssertUnwindSafe<[closure@std::thread::Builder::spawn_unchecked<[closure@src/main.rs:10:30: 13:3], ()>::{closure#0}::{closure#0}]>>"** %self.dbg.spill.i, align 8
  call void @llvm.dbg.declare(metadata %"std::mem::MaybeUninit<std::panic::AssertUnwindSafe<[closure@std::thread::Builder::spawn_unchecked<[closure@src/main.rs:10:30: 13:3], ()>::{closure#0}::{closure#0}]>>"** %self.dbg.spill.i, metadata !1503, metadata !DIExpression()), !dbg !1509
  %2 = bitcast %"std::mem::MaybeUninit<std::panic::AssertUnwindSafe<[closure@std::thread::Builder::spawn_unchecked<[closure@src/main.rs:10:30: 13:3], ()>::{closure#0}::{closure#0}]>>"* %tmp to %"std::panic::AssertUnwindSafe<[closure@std::thread::Builder::spawn_unchecked<[closure@src/main.rs:10:30: 13:3], ()>::{closure#0}::{closure#0}]>"*, !dbg !1511
  br label %bb2, !dbg !1512

bb2:                                              ; preds = %bb1
; call core::intrinsics::copy_nonoverlapping::<std::panic::AssertUnwindSafe<<std::thread::Builder>::spawn_unchecked<mapped_static_race::main::{closure#0}, ()>::{closure#0}::{closure#0}>>
  call void @_RINvNtCs3p84KrD9aKt_4core10intrinsics19copy_nonoverlappingINtNtCs2bNvlddUlXM_3std5panic16AssertUnwindSafeNCNCINvMNtBZ_6threadNtB1N_7Builder15spawn_uncheckedNCNvCsfnYCCstO0CH_18mapped_static_race4main0uE00EEB2y_(%"std::panic::AssertUnwindSafe<[closure@std::thread::Builder::spawn_unchecked<[closure@src/main.rs:10:30: 13:3], ()>::{closure#0}::{closure#0}]>"* %src, %"std::panic::AssertUnwindSafe<[closure@std::thread::Builder::spawn_unchecked<[closure@src/main.rs:10:30: 13:3], ()>::{closure#0}::{closure#0}]>"* %2, i64 1), !dbg !1513
  br label %bb3, !dbg !1513

bb3:                                              ; preds = %bb2
  call void @llvm.dbg.declare(metadata %"std::mem::MaybeUninit<std::panic::AssertUnwindSafe<[closure@std::thread::Builder::spawn_unchecked<[closure@src/main.rs:10:30: 13:3], ()>::{closure#0}::{closure#0}]>>"* undef, metadata !1514, metadata !DIExpression()), !dbg !1519
  call void @llvm.dbg.declare(metadata %"std::mem::ManuallyDrop<std::panic::AssertUnwindSafe<[closure@std::thread::Builder::spawn_unchecked<[closure@src/main.rs:10:30: 13:3], ()>::{closure#0}::{closure#0}]>>"* undef, metadata !1521, metadata !DIExpression()), !dbg !1526
  br label %bb4, !dbg !1528

bb4:                                              ; preds = %bb3
  ret void, !dbg !1529
}

; core::hint::black_box::<()>
; Function Attrs: inlinehint nonlazybind uwtable
define internal void @_RINvNtCs3p84KrD9aKt_4core4hint9black_boxuECsfnYCCstO0CH_18mapped_static_race() unnamed_addr #1 !dbg !1530 {
start:
  %dummy = alloca {}, align 1
  call void @llvm.dbg.declare(metadata {}* %dummy, metadata !1536, metadata !DIExpression()), !dbg !1537
  call void asm sideeffect "", "r,~{memory},~{dirflag},~{fpsr},~{flags}"({}* %dummy), !dbg !1538, !srcloc !1539
  ret void, !dbg !1540
}

; alloc::rc::is_dangling::<alloc::sync::ArcInner<core::cell::UnsafeCell<core::option::Option<core::result::Result<(), alloc::boxed::Box<dyn core::any::Any + core::marker::Send>>>>>>
; Function Attrs: nonlazybind uwtable
define internal zeroext i1 @_RINvNtCs8RW06R9lH2S_5alloc2rc11is_danglingINtNtB4_4sync8ArcInnerINtNtCs3p84KrD9aKt_4core4cell10UnsafeCellINtNtB15_6option6OptionINtNtB15_6result6ResultuINtNtB4_5boxed3BoxDNtNtB15_3any3AnyNtNtB15_6marker4SendEL_EEEEEECsfnYCCstO0CH_18mapped_static_race(i64* nonnull %ptr) unnamed_addr #0 !dbg !1541 {
start:
  %address.dbg.spill = alloca i64, align 8
  %ptr.dbg.spill = alloca i64*, align 8
  store i64* %ptr, i64** %ptr.dbg.spill, align 8
  call void @llvm.dbg.declare(metadata i64** %ptr.dbg.spill, metadata !1548, metadata !DIExpression()), !dbg !1551
; call <core::ptr::non_null::NonNull<alloc::sync::ArcInner<core::cell::UnsafeCell<core::option::Option<core::result::Result<(), alloc::boxed::Box<dyn core::any::Any + core::marker::Send>>>>>>>::as_ptr
  %_4 = call %"alloc::sync::ArcInner<std::cell::UnsafeCell<std::option::Option<std::result::Result<(), std::boxed::Box<dyn std::any::Any + std::marker::Send>>>>>"* @_RNvMs1_NtNtCs3p84KrD9aKt_4core3ptr8non_nullINtB5_7NonNullINtNtCs8RW06R9lH2S_5alloc4sync8ArcInnerINtNtB9_4cell10UnsafeCellINtNtB9_6option6OptionINtNtB9_6result6ResultuINtNtBY_5boxed3BoxDNtNtB9_3any3AnyNtNtB9_6marker4SendEL_EEEEEE6as_ptrCsfnYCCstO0CH_18mapped_static_race(i64* nonnull %ptr), !dbg !1552
  br label %bb1, !dbg !1552

bb1:                                              ; preds = %start
  %_3 = bitcast %"alloc::sync::ArcInner<std::cell::UnsafeCell<std::option::Option<std::result::Result<(), std::boxed::Box<dyn std::any::Any + std::marker::Send>>>>>"* %_4 to {}*, !dbg !1552
  %address = ptrtoint {}* %_3 to i64, !dbg !1552
  store i64 %address, i64* %address.dbg.spill, align 8, !dbg !1552
  call void @llvm.dbg.declare(metadata i64* %address.dbg.spill, metadata !1549, metadata !DIExpression()), !dbg !1553
  %0 = icmp eq i64 %address, -1, !dbg !1554
  ret i1 %0, !dbg !1555
}

; alloc::rc::is_dangling::<alloc::sync::ArcInner<std::sync::mutex::Mutex<alloc::vec::Vec<u8>>>>
; Function Attrs: nonlazybind uwtable
define internal zeroext i1 @_RINvNtCs8RW06R9lH2S_5alloc2rc11is_danglingINtNtB4_4sync8ArcInnerINtNtNtCs2bNvlddUlXM_3std4sync5mutex5MutexINtNtB4_3vec3VechEEEECsfnYCCstO0CH_18mapped_static_race(i64* nonnull %ptr) unnamed_addr #0 !dbg !1556 {
start:
  %address.dbg.spill = alloca i64, align 8
  %ptr.dbg.spill = alloca i64*, align 8
  store i64* %ptr, i64** %ptr.dbg.spill, align 8
  call void @llvm.dbg.declare(metadata i64** %ptr.dbg.spill, metadata !1560, metadata !DIExpression()), !dbg !1563
; call <core::ptr::non_null::NonNull<alloc::sync::ArcInner<std::sync::mutex::Mutex<alloc::vec::Vec<u8>>>>>::as_ptr
  %_4 = call %"alloc::sync::ArcInner<std::sync::Mutex<std::vec::Vec<u8>>>"* @_RNvMs1_NtNtCs3p84KrD9aKt_4core3ptr8non_nullINtB5_7NonNullINtNtCs8RW06R9lH2S_5alloc4sync8ArcInnerINtNtNtCs2bNvlddUlXM_3std4sync5mutex5MutexINtNtBY_3vec3VechEEEE6as_ptrCsfnYCCstO0CH_18mapped_static_race(i64* nonnull %ptr), !dbg !1564
  br label %bb1, !dbg !1564

bb1:                                              ; preds = %start
  %_3 = bitcast %"alloc::sync::ArcInner<std::sync::Mutex<std::vec::Vec<u8>>>"* %_4 to {}*, !dbg !1564
  %address = ptrtoint {}* %_3 to i64, !dbg !1564
  store i64 %address, i64* %address.dbg.spill, align 8, !dbg !1564
  call void @llvm.dbg.declare(metadata i64* %address.dbg.spill, metadata !1561, metadata !DIExpression()), !dbg !1565
  %0 = icmp eq i64 %address, -1, !dbg !1566
  ret i1 %0, !dbg !1567
}

; alloc::rc::is_dangling::<alloc::sync::ArcInner<std::thread::Inner>>
; Function Attrs: nonlazybind uwtable
define internal zeroext i1 @_RINvNtCs8RW06R9lH2S_5alloc2rc11is_danglingINtNtB4_4sync8ArcInnerNtNtCs2bNvlddUlXM_3std6thread5InnerEECsfnYCCstO0CH_18mapped_static_race(i64* nonnull %ptr) unnamed_addr #0 !dbg !1568 {
start:
  %address.dbg.spill = alloca i64, align 8
  %ptr.dbg.spill = alloca i64*, align 8
  store i64* %ptr, i64** %ptr.dbg.spill, align 8
  call void @llvm.dbg.declare(metadata i64** %ptr.dbg.spill, metadata !1572, metadata !DIExpression()), !dbg !1575
; call <core::ptr::non_null::NonNull<alloc::sync::ArcInner<std::thread::Inner>>>::as_ptr
  %_4 = call %"alloc::sync::ArcInner<std::thread::Inner>"* @_RNvMs1_NtNtCs3p84KrD9aKt_4core3ptr8non_nullINtB5_7NonNullINtNtCs8RW06R9lH2S_5alloc4sync8ArcInnerNtNtCs2bNvlddUlXM_3std6thread5InnerEE6as_ptrCsfnYCCstO0CH_18mapped_static_race(i64* nonnull %ptr), !dbg !1576
  br label %bb1, !dbg !1576

bb1:                                              ; preds = %start
  %_3 = bitcast %"alloc::sync::ArcInner<std::thread::Inner>"* %_4 to {}*, !dbg !1576
  %address = ptrtoint {}* %_3 to i64, !dbg !1576
  store i64 %address, i64* %address.dbg.spill, align 8, !dbg !1576
  call void @llvm.dbg.declare(metadata i64* %address.dbg.spill, metadata !1573, metadata !DIExpression()), !dbg !1577
  %0 = icmp eq i64 %address, -1, !dbg !1578
  ret i1 %0, !dbg !1579
}

; alloc::alloc::box_free::<dyn std::error::Error + core::marker::Send + core::marker::Sync, alloc::alloc::Global>
; Function Attrs: inlinehint nonlazybind uwtable
define internal void @_RINvNtCs8RW06R9lH2S_5alloc5alloc8box_freeDNtNtCs2bNvlddUlXM_3std5error5ErrorNtNtCs3p84KrD9aKt_4core6marker4SendNtB1e_4SyncEL_NtB2_6GlobalECsfnYCCstO0CH_18mapped_static_race(i8* nonnull %0, i64* noalias readonly align 8 dereferenceable(24) %1) unnamed_addr #1 personality i32 (i32, i32, i64, %"unwind::libunwind::_Unwind_Exception"*, %"unwind::libunwind::_Unwind_Context"*)* @rust_eh_personality !dbg !1580 {
start:
  %layout.dbg.spill = alloca { i64, i64 }, align 8
  %align.dbg.spill = alloca i64, align 8
  %2 = alloca i64, align 8
  %size.dbg.spill = alloca i64, align 8
  %3 = alloca i64, align 8
  %4 = alloca { i8*, i32 }, align 8
  %alloc = alloca %"std::alloc::Global", align 1
  %ptr = alloca { i8*, i64* }, align 8
  %5 = getelementptr inbounds { i8*, i64* }, { i8*, i64* }* %ptr, i32 0, i32 0
  store i8* %0, i8** %5, align 8
  %6 = getelementptr inbounds { i8*, i64* }, { i8*, i64* }* %ptr, i32 0, i32 1
  store i64* %1, i64** %6, align 8
  call void @llvm.dbg.declare(metadata { i8*, i64* }* %ptr, metadata !1585, metadata !DIExpression()), !dbg !1593
  call void @llvm.dbg.declare(metadata %"std::alloc::Global"* %alloc, metadata !1586, metadata !DIExpression()), !dbg !1594
; invoke <core::ptr::unique::Unique<dyn std::error::Error + core::marker::Send + core::marker::Sync>>::as_ref
  %7 = invoke { {}*, [3 x i64]* } @_RNvMs1_NtNtCs3p84KrD9aKt_4core3ptr6uniqueINtB5_6UniqueDNtNtCs2bNvlddUlXM_3std5error5ErrorNtNtB9_6marker4SendNtB1r_4SyncEL_E6as_refCsfnYCCstO0CH_18mapped_static_race({ i8*, i64* }* noalias readonly align 8 dereferenceable(16) %ptr)
          to label %bb1 unwind label %cleanup, !dbg !1595

bb1:                                              ; preds = %start
  %_5.0 = extractvalue { {}*, [3 x i64]* } %7, 0, !dbg !1595
  %_5.1 = extractvalue { {}*, [3 x i64]* } %7, 1, !dbg !1595
  %8 = bitcast [3 x i64]* %_5.1 to i64*, !dbg !1596
  %9 = getelementptr inbounds i64, i64* %8, i64 1, !dbg !1596
  %10 = load i64, i64* %9, align 8, !dbg !1596, !invariant.load !4
  %11 = bitcast [3 x i64]* %_5.1 to i64*, !dbg !1596
  %12 = getelementptr inbounds i64, i64* %11, i64 2, !dbg !1596
  %13 = load i64, i64* %12, align 8, !dbg !1596, !invariant.load !4
  store i64 %10, i64* %3, align 8, !dbg !1596
  %size = load i64, i64* %3, align 8, !dbg !1596
  store i64 %size, i64* %size.dbg.spill, align 8, !dbg !1596
  call void @llvm.dbg.declare(metadata i64* %size.dbg.spill, metadata !1587, metadata !DIExpression()), !dbg !1597
  br label %bb2, !dbg !1596

bb2:                                              ; preds = %bb1
; invoke <core::ptr::unique::Unique<dyn std::error::Error + core::marker::Send + core::marker::Sync>>::as_ref
  %14 = invoke { {}*, [3 x i64]* } @_RNvMs1_NtNtCs3p84KrD9aKt_4core3ptr6uniqueINtB5_6UniqueDNtNtCs2bNvlddUlXM_3std5error5ErrorNtNtB9_6marker4SendNtB1r_4SyncEL_E6as_refCsfnYCCstO0CH_18mapped_static_race({ i8*, i64* }* noalias readonly align 8 dereferenceable(16) %ptr)
          to label %bb3 unwind label %cleanup, !dbg !1598

bb3:                                              ; preds = %bb2
  %_9.0 = extractvalue { {}*, [3 x i64]* } %14, 0, !dbg !1598
  %_9.1 = extractvalue { {}*, [3 x i64]* } %14, 1, !dbg !1598
  %15 = bitcast [3 x i64]* %_9.1 to i64*, !dbg !1599
  %16 = getelementptr inbounds i64, i64* %15, i64 1, !dbg !1599
  %17 = load i64, i64* %16, align 8, !dbg !1599, !invariant.load !4
  %18 = bitcast [3 x i64]* %_9.1 to i64*, !dbg !1599
  %19 = getelementptr inbounds i64, i64* %18, i64 2, !dbg !1599
  %20 = load i64, i64* %19, align 8, !dbg !1599, !invariant.load !4
  store i64 %20, i64* %2, align 8, !dbg !1599
  %align = load i64, i64* %2, align 8, !dbg !1599
  store i64 %align, i64* %align.dbg.spill, align 8, !dbg !1599
  call void @llvm.dbg.declare(metadata i64* %align.dbg.spill, metadata !1589, metadata !DIExpression()), !dbg !1600
  br label %bb4, !dbg !1599

bb4:                                              ; preds = %bb3
; invoke <core::alloc::layout::Layout>::from_size_align_unchecked
  %21 = invoke { i64, i64 } @_RNvMNtNtCs3p84KrD9aKt_4core5alloc6layoutNtB2_6Layout25from_size_align_uncheckedCsfnYCCstO0CH_18mapped_static_race(i64 %size, i64 %align)
          to label %bb5 unwind label %cleanup, !dbg !1601

bb5:                                              ; preds = %bb4
  %layout.0 = extractvalue { i64, i64 } %21, 0, !dbg !1601
  %layout.1 = extractvalue { i64, i64 } %21, 1, !dbg !1601
  %22 = getelementptr inbounds { i64, i64 }, { i64, i64 }* %layout.dbg.spill, i32 0, i32 0, !dbg !1601
  store i64 %layout.0, i64* %22, align 8, !dbg !1601
  %23 = getelementptr inbounds { i64, i64 }, { i64, i64 }* %layout.dbg.spill, i32 0, i32 1, !dbg !1601
  store i64 %layout.1, i64* %23, align 8, !dbg !1601
  call void @llvm.dbg.declare(metadata { i64, i64 }* %layout.dbg.spill, metadata !1591, metadata !DIExpression()), !dbg !1602
  %24 = getelementptr inbounds { i8*, i64* }, { i8*, i64* }* %ptr, i32 0, i32 0, !dbg !1603
  %_17.0 = load i8*, i8** %24, align 8, !dbg !1603, !nonnull !4
  %25 = getelementptr inbounds { i8*, i64* }, { i8*, i64* }* %ptr, i32 0, i32 1, !dbg !1603
  %_17.1 = load i64*, i64** %25, align 8, !dbg !1603, !nonnull !4
; invoke <core::ptr::unique::Unique<dyn std::error::Error + core::marker::Send + core::marker::Sync>>::cast::<u8>
  %_16 = invoke nonnull i8* @_RINvMs1_NtNtCs3p84KrD9aKt_4core3ptr6uniqueINtB6_6UniqueDNtNtCs2bNvlddUlXM_3std5error5ErrorNtNtBa_6marker4SendNtB1s_4SyncEL_E4casthECsfnYCCstO0CH_18mapped_static_race(i8* nonnull %_17.0, i64* noalias readonly align 8 dereferenceable(24) %_17.1)
          to label %bb6 unwind label %cleanup, !dbg !1603

bb6:                                              ; preds = %bb5
; invoke <core::ptr::unique::Unique<u8> as core::convert::Into<core::ptr::non_null::NonNull<u8>>>::into
  %_15 = invoke nonnull i8* @_RNvXs1_NtCs3p84KrD9aKt_4core7convertINtNtNtB7_3ptr6unique6UniquehEINtB5_4IntoINtNtBD_8non_null7NonNullhEE4intoCsfnYCCstO0CH_18mapped_static_race(i8* nonnull %_16)
          to label %bb7 unwind label %cleanup, !dbg !1603

bb7:                                              ; preds = %bb6
; invoke <alloc::alloc::Global as core::alloc::Allocator>::deallocate
  invoke void @_RNvXs_NtCs8RW06R9lH2S_5alloc5allocNtB4_6GlobalNtNtCs3p84KrD9aKt_4core5alloc9Allocator10deallocateCsfnYCCstO0CH_18mapped_static_race(%"std::alloc::Global"* noalias nonnull readonly align 1 %alloc, i8* nonnull %_15, i64 %layout.0, i64 %layout.1)
          to label %bb8 unwind label %cleanup, !dbg !1604

bb8:                                              ; preds = %bb7
  br label %bb9, !dbg !1605

bb9:                                              ; preds = %bb8
  ret void, !dbg !1606

bb10:                                             ; preds = %cleanup
  br label %bb11, !dbg !1605

bb11:                                             ; preds = %bb10
  %26 = bitcast { i8*, i32 }* %4 to i8**, !dbg !1607
  %27 = load i8*, i8** %26, align 8, !dbg !1607
  %28 = getelementptr inbounds { i8*, i32 }, { i8*, i32 }* %4, i32 0, i32 1, !dbg !1607
  %29 = load i32, i32* %28, align 8, !dbg !1607
  %30 = insertvalue { i8*, i32 } undef, i8* %27, 0, !dbg !1607
  %31 = insertvalue { i8*, i32 } %30, i32 %29, 1, !dbg !1607
  resume { i8*, i32 } %31, !dbg !1607

cleanup:                                          ; preds = %bb7, %bb6, %bb5, %bb4, %bb2, %start
  %32 = landingpad { i8*, i32 }
          cleanup
  %33 = extractvalue { i8*, i32 } %32, 0
  %34 = extractvalue { i8*, i32 } %32, 1
  %35 = getelementptr inbounds { i8*, i32 }, { i8*, i32 }* %4, i32 0, i32 0
  store i8* %33, i8** %35, align 8
  %36 = getelementptr inbounds { i8*, i32 }, { i8*, i32 }* %4, i32 0, i32 1
  store i32 %34, i32* %36, align 8
  br label %bb10
}

; alloc::alloc::box_free::<dyn core::any::Any + core::marker::Send, alloc::alloc::Global>
; Function Attrs: inlinehint nonlazybind uwtable
define internal void @_RINvNtCs8RW06R9lH2S_5alloc5alloc8box_freeDNtNtCs3p84KrD9aKt_4core3any3AnyNtNtBI_6marker4SendEL_NtB2_6GlobalECsfnYCCstO0CH_18mapped_static_race(i8* nonnull %0, i64* noalias readonly align 8 dereferenceable(24) %1) unnamed_addr #1 personality i32 (i32, i32, i64, %"unwind::libunwind::_Unwind_Exception"*, %"unwind::libunwind::_Unwind_Context"*)* @rust_eh_personality !dbg !1608 {
start:
  %layout.dbg.spill = alloca { i64, i64 }, align 8
  %align.dbg.spill = alloca i64, align 8
  %2 = alloca i64, align 8
  %size.dbg.spill = alloca i64, align 8
  %3 = alloca i64, align 8
  %4 = alloca { i8*, i32 }, align 8
  %alloc = alloca %"std::alloc::Global", align 1
  %ptr = alloca { i8*, i64* }, align 8
  %5 = getelementptr inbounds { i8*, i64* }, { i8*, i64* }* %ptr, i32 0, i32 0
  store i8* %0, i8** %5, align 8
  %6 = getelementptr inbounds { i8*, i64* }, { i8*, i64* }* %ptr, i32 0, i32 1
  store i64* %1, i64** %6, align 8
  call void @llvm.dbg.declare(metadata { i8*, i64* }* %ptr, metadata !1612, metadata !DIExpression()), !dbg !1620
  call void @llvm.dbg.declare(metadata %"std::alloc::Global"* %alloc, metadata !1613, metadata !DIExpression()), !dbg !1621
; invoke <core::ptr::unique::Unique<dyn core::any::Any + core::marker::Send>>::as_ref
  %7 = invoke { {}*, [3 x i64]* } @_RNvMs1_NtNtCs3p84KrD9aKt_4core3ptr6uniqueINtB5_6UniqueDNtNtB9_3any3AnyNtNtB9_6marker4SendEL_E6as_refCsfnYCCstO0CH_18mapped_static_race({ i8*, i64* }* noalias readonly align 8 dereferenceable(16) %ptr)
          to label %bb1 unwind label %cleanup, !dbg !1622

bb1:                                              ; preds = %start
  %_5.0 = extractvalue { {}*, [3 x i64]* } %7, 0, !dbg !1622
  %_5.1 = extractvalue { {}*, [3 x i64]* } %7, 1, !dbg !1622
  %8 = bitcast [3 x i64]* %_5.1 to i64*, !dbg !1623
  %9 = getelementptr inbounds i64, i64* %8, i64 1, !dbg !1623
  %10 = load i64, i64* %9, align 8, !dbg !1623, !invariant.load !4
  %11 = bitcast [3 x i64]* %_5.1 to i64*, !dbg !1623
  %12 = getelementptr inbounds i64, i64* %11, i64 2, !dbg !1623
  %13 = load i64, i64* %12, align 8, !dbg !1623, !invariant.load !4
  store i64 %10, i64* %3, align 8, !dbg !1623
  %size = load i64, i64* %3, align 8, !dbg !1623
  store i64 %size, i64* %size.dbg.spill, align 8, !dbg !1623
  call void @llvm.dbg.declare(metadata i64* %size.dbg.spill, metadata !1614, metadata !DIExpression()), !dbg !1624
  br label %bb2, !dbg !1623

bb2:                                              ; preds = %bb1
; invoke <core::ptr::unique::Unique<dyn core::any::Any + core::marker::Send>>::as_ref
  %14 = invoke { {}*, [3 x i64]* } @_RNvMs1_NtNtCs3p84KrD9aKt_4core3ptr6uniqueINtB5_6UniqueDNtNtB9_3any3AnyNtNtB9_6marker4SendEL_E6as_refCsfnYCCstO0CH_18mapped_static_race({ i8*, i64* }* noalias readonly align 8 dereferenceable(16) %ptr)
          to label %bb3 unwind label %cleanup, !dbg !1625

bb3:                                              ; preds = %bb2
  %_9.0 = extractvalue { {}*, [3 x i64]* } %14, 0, !dbg !1625
  %_9.1 = extractvalue { {}*, [3 x i64]* } %14, 1, !dbg !1625
  %15 = bitcast [3 x i64]* %_9.1 to i64*, !dbg !1626
  %16 = getelementptr inbounds i64, i64* %15, i64 1, !dbg !1626
  %17 = load i64, i64* %16, align 8, !dbg !1626, !invariant.load !4
  %18 = bitcast [3 x i64]* %_9.1 to i64*, !dbg !1626
  %19 = getelementptr inbounds i64, i64* %18, i64 2, !dbg !1626
  %20 = load i64, i64* %19, align 8, !dbg !1626, !invariant.load !4
  store i64 %20, i64* %2, align 8, !dbg !1626
  %align = load i64, i64* %2, align 8, !dbg !1626
  store i64 %align, i64* %align.dbg.spill, align 8, !dbg !1626
  call void @llvm.dbg.declare(metadata i64* %align.dbg.spill, metadata !1616, metadata !DIExpression()), !dbg !1627
  br label %bb4, !dbg !1626

bb4:                                              ; preds = %bb3
; invoke <core::alloc::layout::Layout>::from_size_align_unchecked
  %21 = invoke { i64, i64 } @_RNvMNtNtCs3p84KrD9aKt_4core5alloc6layoutNtB2_6Layout25from_size_align_uncheckedCsfnYCCstO0CH_18mapped_static_race(i64 %size, i64 %align)
          to label %bb5 unwind label %cleanup, !dbg !1628

bb5:                                              ; preds = %bb4
  %layout.0 = extractvalue { i64, i64 } %21, 0, !dbg !1628
  %layout.1 = extractvalue { i64, i64 } %21, 1, !dbg !1628
  %22 = getelementptr inbounds { i64, i64 }, { i64, i64 }* %layout.dbg.spill, i32 0, i32 0, !dbg !1628
  store i64 %layout.0, i64* %22, align 8, !dbg !1628
  %23 = getelementptr inbounds { i64, i64 }, { i64, i64 }* %layout.dbg.spill, i32 0, i32 1, !dbg !1628
  store i64 %layout.1, i64* %23, align 8, !dbg !1628
  call void @llvm.dbg.declare(metadata { i64, i64 }* %layout.dbg.spill, metadata !1618, metadata !DIExpression()), !dbg !1629
  %24 = getelementptr inbounds { i8*, i64* }, { i8*, i64* }* %ptr, i32 0, i32 0, !dbg !1630
  %_17.0 = load i8*, i8** %24, align 8, !dbg !1630, !nonnull !4
  %25 = getelementptr inbounds { i8*, i64* }, { i8*, i64* }* %ptr, i32 0, i32 1, !dbg !1630
  %_17.1 = load i64*, i64** %25, align 8, !dbg !1630, !nonnull !4
; invoke <core::ptr::unique::Unique<dyn core::any::Any + core::marker::Send>>::cast::<u8>
  %_16 = invoke nonnull i8* @_RINvMs1_NtNtCs3p84KrD9aKt_4core3ptr6uniqueINtB6_6UniqueDNtNtBa_3any3AnyNtNtBa_6marker4SendEL_E4casthECsfnYCCstO0CH_18mapped_static_race(i8* nonnull %_17.0, i64* noalias readonly align 8 dereferenceable(24) %_17.1)
          to label %bb6 unwind label %cleanup, !dbg !1630

bb6:                                              ; preds = %bb5
; invoke <core::ptr::unique::Unique<u8> as core::convert::Into<core::ptr::non_null::NonNull<u8>>>::into
  %_15 = invoke nonnull i8* @_RNvXs1_NtCs3p84KrD9aKt_4core7convertINtNtNtB7_3ptr6unique6UniquehEINtB5_4IntoINtNtBD_8non_null7NonNullhEE4intoCsfnYCCstO0CH_18mapped_static_race(i8* nonnull %_16)
          to label %bb7 unwind label %cleanup, !dbg !1630

bb7:                                              ; preds = %bb6
; invoke <alloc::alloc::Global as core::alloc::Allocator>::deallocate
  invoke void @_RNvXs_NtCs8RW06R9lH2S_5alloc5allocNtB4_6GlobalNtNtCs3p84KrD9aKt_4core5alloc9Allocator10deallocateCsfnYCCstO0CH_18mapped_static_race(%"std::alloc::Global"* noalias nonnull readonly align 1 %alloc, i8* nonnull %_15, i64 %layout.0, i64 %layout.1)
          to label %bb8 unwind label %cleanup, !dbg !1631

bb8:                                              ; preds = %bb7
  br label %bb9, !dbg !1632

bb9:                                              ; preds = %bb8
  ret void, !dbg !1633

bb10:                                             ; preds = %cleanup
  br label %bb11, !dbg !1632

bb11:                                             ; preds = %bb10
  %26 = bitcast { i8*, i32 }* %4 to i8**, !dbg !1634
  %27 = load i8*, i8** %26, align 8, !dbg !1634
  %28 = getelementptr inbounds { i8*, i32 }, { i8*, i32 }* %4, i32 0, i32 1, !dbg !1634
  %29 = load i32, i32* %28, align 8, !dbg !1634
  %30 = insertvalue { i8*, i32 } undef, i8* %27, 0, !dbg !1634
  %31 = insertvalue { i8*, i32 } %30, i32 %29, 1, !dbg !1634
  resume { i8*, i32 } %31, !dbg !1634

cleanup:                                          ; preds = %bb7, %bb6, %bb5, %bb4, %bb2, %start
  %32 = landingpad { i8*, i32 }
          cleanup
  %33 = extractvalue { i8*, i32 } %32, 0
  %34 = extractvalue { i8*, i32 } %32, 1
  %35 = getelementptr inbounds { i8*, i32 }, { i8*, i32 }* %4, i32 0, i32 0
  store i8* %33, i8** %35, align 8
  %36 = getelementptr inbounds { i8*, i32 }, { i8*, i32 }* %4, i32 0, i32 1
  store i32 %34, i32* %36, align 8
  br label %bb10
}

; alloc::alloc::box_free::<alloc::sync::ArcInner<core::cell::UnsafeCell<core::option::Option<core::result::Result<(), alloc::boxed::Box<dyn core::any::Any + core::marker::Send>>>>>, alloc::alloc::Global>
; Function Attrs: inlinehint nonlazybind uwtable
define internal void @_RINvNtCs8RW06R9lH2S_5alloc5alloc8box_freeINtNtB4_4sync8ArcInnerINtNtCs3p84KrD9aKt_4core4cell10UnsafeCellINtNtB14_6option6OptionINtNtB14_6result6ResultuINtNtB4_5boxed3BoxDNtNtB14_3any3AnyNtNtB14_6marker4SendEL_EEEEENtB2_6GlobalECsfnYCCstO0CH_18mapped_static_race(i64* nonnull %0) unnamed_addr #1 personality i32 (i32, i32, i64, %"unwind::libunwind::_Unwind_Exception"*, %"unwind::libunwind::_Unwind_Context"*)* @rust_eh_personality !dbg !1635 {
start:
  %layout.dbg.spill = alloca { i64, i64 }, align 8
  %align.dbg.spill = alloca i64, align 8
  %1 = alloca i64, align 8
  %size.dbg.spill = alloca i64, align 8
  %2 = alloca i64, align 8
  %3 = alloca { i8*, i32 }, align 8
  %alloc = alloca %"std::alloc::Global", align 1
  %ptr = alloca i64*, align 8
  store i64* %0, i64** %ptr, align 8
  call void @llvm.dbg.declare(metadata i64** %ptr, metadata !1639, metadata !DIExpression()), !dbg !1648
  call void @llvm.dbg.declare(metadata %"std::alloc::Global"* %alloc, metadata !1640, metadata !DIExpression()), !dbg !1649
; invoke <core::ptr::unique::Unique<alloc::sync::ArcInner<core::cell::UnsafeCell<core::option::Option<core::result::Result<(), alloc::boxed::Box<dyn core::any::Any + core::marker::Send>>>>>>>::as_ref
  %_5 = invoke align 8 dereferenceable(40) %"alloc::sync::ArcInner<std::cell::UnsafeCell<std::option::Option<std::result::Result<(), std::boxed::Box<dyn std::any::Any + std::marker::Send>>>>>"* @_RNvMs1_NtNtCs3p84KrD9aKt_4core3ptr6uniqueINtB5_6UniqueINtNtCs8RW06R9lH2S_5alloc4sync8ArcInnerINtNtB9_4cell10UnsafeCellINtNtB9_6option6OptionINtNtB9_6result6ResultuINtNtBV_5boxed3BoxDNtNtB9_3any3AnyNtNtB9_6marker4SendEL_EEEEEE6as_refCsfnYCCstO0CH_18mapped_static_race(i64** noalias readonly align 8 dereferenceable(8) %ptr)
          to label %bb1 unwind label %cleanup, !dbg !1650

bb1:                                              ; preds = %start
  store i64 40, i64* %2, align 8, !dbg !1651
  %size = load i64, i64* %2, align 8, !dbg !1651
  store i64 %size, i64* %size.dbg.spill, align 8, !dbg !1651
  call void @llvm.dbg.declare(metadata i64* %size.dbg.spill, metadata !1641, metadata !DIExpression()), !dbg !1652
  br label %bb2, !dbg !1651

bb2:                                              ; preds = %bb1
; invoke <core::ptr::unique::Unique<alloc::sync::ArcInner<core::cell::UnsafeCell<core::option::Option<core::result::Result<(), alloc::boxed::Box<dyn core::any::Any + core::marker::Send>>>>>>>::as_ref
  %_9 = invoke align 8 dereferenceable(40) %"alloc::sync::ArcInner<std::cell::UnsafeCell<std::option::Option<std::result::Result<(), std::boxed::Box<dyn std::any::Any + std::marker::Send>>>>>"* @_RNvMs1_NtNtCs3p84KrD9aKt_4core3ptr6uniqueINtB5_6UniqueINtNtCs8RW06R9lH2S_5alloc4sync8ArcInnerINtNtB9_4cell10UnsafeCellINtNtB9_6option6OptionINtNtB9_6result6ResultuINtNtBV_5boxed3BoxDNtNtB9_3any3AnyNtNtB9_6marker4SendEL_EEEEEE6as_refCsfnYCCstO0CH_18mapped_static_race(i64** noalias readonly align 8 dereferenceable(8) %ptr)
          to label %bb3 unwind label %cleanup, !dbg !1653

bb3:                                              ; preds = %bb2
  store i64 8, i64* %1, align 8, !dbg !1654
  %align = load i64, i64* %1, align 8, !dbg !1654
  store i64 %align, i64* %align.dbg.spill, align 8, !dbg !1654
  call void @llvm.dbg.declare(metadata i64* %align.dbg.spill, metadata !1643, metadata !DIExpression()), !dbg !1655
  br label %bb4, !dbg !1654

bb4:                                              ; preds = %bb3
; invoke <core::alloc::layout::Layout>::from_size_align_unchecked
  %4 = invoke { i64, i64 } @_RNvMNtNtCs3p84KrD9aKt_4core5alloc6layoutNtB2_6Layout25from_size_align_uncheckedCsfnYCCstO0CH_18mapped_static_race(i64 %size, i64 %align)
          to label %bb5 unwind label %cleanup, !dbg !1656

bb5:                                              ; preds = %bb4
  %layout.0 = extractvalue { i64, i64 } %4, 0, !dbg !1656
  %layout.1 = extractvalue { i64, i64 } %4, 1, !dbg !1656
  %5 = getelementptr inbounds { i64, i64 }, { i64, i64 }* %layout.dbg.spill, i32 0, i32 0, !dbg !1656
  store i64 %layout.0, i64* %5, align 8, !dbg !1656
  %6 = getelementptr inbounds { i64, i64 }, { i64, i64 }* %layout.dbg.spill, i32 0, i32 1, !dbg !1656
  store i64 %layout.1, i64* %6, align 8, !dbg !1656
  call void @llvm.dbg.declare(metadata { i64, i64 }* %layout.dbg.spill, metadata !1645, metadata !DIExpression()), !dbg !1657
  %_17 = load i64*, i64** %ptr, align 8, !dbg !1658, !nonnull !4
; invoke <core::ptr::unique::Unique<alloc::sync::ArcInner<core::cell::UnsafeCell<core::option::Option<core::result::Result<(), alloc::boxed::Box<dyn core::any::Any + core::marker::Send>>>>>>>::cast::<u8>
  %_16 = invoke nonnull i8* @_RINvMs1_NtNtCs3p84KrD9aKt_4core3ptr6uniqueINtB6_6UniqueINtNtCs8RW06R9lH2S_5alloc4sync8ArcInnerINtNtBa_4cell10UnsafeCellINtNtBa_6option6OptionINtNtBa_6result6ResultuINtNtBW_5boxed3BoxDNtNtBa_3any3AnyNtNtBa_6marker4SendEL_EEEEEE4casthECsfnYCCstO0CH_18mapped_static_race(i64* nonnull %_17)
          to label %bb6 unwind label %cleanup, !dbg !1658

bb6:                                              ; preds = %bb5
; invoke <core::ptr::unique::Unique<u8> as core::convert::Into<core::ptr::non_null::NonNull<u8>>>::into
  %_15 = invoke nonnull i8* @_RNvXs1_NtCs3p84KrD9aKt_4core7convertINtNtNtB7_3ptr6unique6UniquehEINtB5_4IntoINtNtBD_8non_null7NonNullhEE4intoCsfnYCCstO0CH_18mapped_static_race(i8* nonnull %_16)
          to label %bb7 unwind label %cleanup, !dbg !1658

bb7:                                              ; preds = %bb6
; invoke <alloc::alloc::Global as core::alloc::Allocator>::deallocate
  invoke void @_RNvXs_NtCs8RW06R9lH2S_5alloc5allocNtB4_6GlobalNtNtCs3p84KrD9aKt_4core5alloc9Allocator10deallocateCsfnYCCstO0CH_18mapped_static_race(%"std::alloc::Global"* noalias nonnull readonly align 1 %alloc, i8* nonnull %_15, i64 %layout.0, i64 %layout.1)
          to label %bb8 unwind label %cleanup, !dbg !1659

bb8:                                              ; preds = %bb7
  br label %bb9, !dbg !1660

bb9:                                              ; preds = %bb8
  ret void, !dbg !1661

bb10:                                             ; preds = %cleanup
  br label %bb11, !dbg !1660

bb11:                                             ; preds = %bb10
  %7 = bitcast { i8*, i32 }* %3 to i8**, !dbg !1662
  %8 = load i8*, i8** %7, align 8, !dbg !1662
  %9 = getelementptr inbounds { i8*, i32 }, { i8*, i32 }* %3, i32 0, i32 1, !dbg !1662
  %10 = load i32, i32* %9, align 8, !dbg !1662
  %11 = insertvalue { i8*, i32 } undef, i8* %8, 0, !dbg !1662
  %12 = insertvalue { i8*, i32 } %11, i32 %10, 1, !dbg !1662
  resume { i8*, i32 } %12, !dbg !1662

cleanup:                                          ; preds = %bb7, %bb6, %bb5, %bb4, %bb2, %start
  %13 = landingpad { i8*, i32 }
          cleanup
  %14 = extractvalue { i8*, i32 } %13, 0
  %15 = extractvalue { i8*, i32 } %13, 1
  %16 = getelementptr inbounds { i8*, i32 }, { i8*, i32 }* %3, i32 0, i32 0
  store i8* %14, i8** %16, align 8
  %17 = getelementptr inbounds { i8*, i32 }, { i8*, i32 }* %3, i32 0, i32 1
  store i32 %15, i32* %17, align 8
  br label %bb10
}

; alloc::alloc::box_free::<std::io::error::Custom, alloc::alloc::Global>
; Function Attrs: inlinehint nonlazybind uwtable
define internal void @_RINvNtCs8RW06R9lH2S_5alloc5alloc8box_freeNtNtNtCs2bNvlddUlXM_3std2io5error6CustomNtB2_6GlobalECsfnYCCstO0CH_18mapped_static_race(i64* nonnull %0) unnamed_addr #1 personality i32 (i32, i32, i64, %"unwind::libunwind::_Unwind_Exception"*, %"unwind::libunwind::_Unwind_Context"*)* @rust_eh_personality !dbg !1663 {
start:
  %layout.dbg.spill = alloca { i64, i64 }, align 8
  %align.dbg.spill = alloca i64, align 8
  %1 = alloca i64, align 8
  %size.dbg.spill = alloca i64, align 8
  %2 = alloca i64, align 8
  %3 = alloca { i8*, i32 }, align 8
  %alloc = alloca %"std::alloc::Global", align 1
  %ptr = alloca i64*, align 8
  store i64* %0, i64** %ptr, align 8
  call void @llvm.dbg.declare(metadata i64** %ptr, metadata !1667, metadata !DIExpression()), !dbg !1676
  call void @llvm.dbg.declare(metadata %"std::alloc::Global"* %alloc, metadata !1668, metadata !DIExpression()), !dbg !1677
; invoke <core::ptr::unique::Unique<std::io::error::Custom>>::as_ref
  %_5 = invoke align 8 dereferenceable(24) %"std::io::error::Custom"* @_RNvMs1_NtNtCs3p84KrD9aKt_4core3ptr6uniqueINtB5_6UniqueNtNtNtCs2bNvlddUlXM_3std2io5error6CustomE6as_refCsfnYCCstO0CH_18mapped_static_race(i64** noalias readonly align 8 dereferenceable(8) %ptr)
          to label %bb1 unwind label %cleanup, !dbg !1678

bb1:                                              ; preds = %start
  store i64 24, i64* %2, align 8, !dbg !1679
  %size = load i64, i64* %2, align 8, !dbg !1679
  store i64 %size, i64* %size.dbg.spill, align 8, !dbg !1679
  call void @llvm.dbg.declare(metadata i64* %size.dbg.spill, metadata !1669, metadata !DIExpression()), !dbg !1680
  br label %bb2, !dbg !1679

bb2:                                              ; preds = %bb1
; invoke <core::ptr::unique::Unique<std::io::error::Custom>>::as_ref
  %_9 = invoke align 8 dereferenceable(24) %"std::io::error::Custom"* @_RNvMs1_NtNtCs3p84KrD9aKt_4core3ptr6uniqueINtB5_6UniqueNtNtNtCs2bNvlddUlXM_3std2io5error6CustomE6as_refCsfnYCCstO0CH_18mapped_static_race(i64** noalias readonly align 8 dereferenceable(8) %ptr)
          to label %bb3 unwind label %cleanup, !dbg !1681

bb3:                                              ; preds = %bb2
  store i64 8, i64* %1, align 8, !dbg !1682
  %align = load i64, i64* %1, align 8, !dbg !1682
  store i64 %align, i64* %align.dbg.spill, align 8, !dbg !1682
  call void @llvm.dbg.declare(metadata i64* %align.dbg.spill, metadata !1671, metadata !DIExpression()), !dbg !1683
  br label %bb4, !dbg !1682

bb4:                                              ; preds = %bb3
; invoke <core::alloc::layout::Layout>::from_size_align_unchecked
  %4 = invoke { i64, i64 } @_RNvMNtNtCs3p84KrD9aKt_4core5alloc6layoutNtB2_6Layout25from_size_align_uncheckedCsfnYCCstO0CH_18mapped_static_race(i64 %size, i64 %align)
          to label %bb5 unwind label %cleanup, !dbg !1684

bb5:                                              ; preds = %bb4
  %layout.0 = extractvalue { i64, i64 } %4, 0, !dbg !1684
  %layout.1 = extractvalue { i64, i64 } %4, 1, !dbg !1684
  %5 = getelementptr inbounds { i64, i64 }, { i64, i64 }* %layout.dbg.spill, i32 0, i32 0, !dbg !1684
  store i64 %layout.0, i64* %5, align 8, !dbg !1684
  %6 = getelementptr inbounds { i64, i64 }, { i64, i64 }* %layout.dbg.spill, i32 0, i32 1, !dbg !1684
  store i64 %layout.1, i64* %6, align 8, !dbg !1684
  call void @llvm.dbg.declare(metadata { i64, i64 }* %layout.dbg.spill, metadata !1673, metadata !DIExpression()), !dbg !1685
  %_17 = load i64*, i64** %ptr, align 8, !dbg !1686, !nonnull !4
; invoke <core::ptr::unique::Unique<std::io::error::Custom>>::cast::<u8>
  %_16 = invoke nonnull i8* @_RINvMs1_NtNtCs3p84KrD9aKt_4core3ptr6uniqueINtB6_6UniqueNtNtNtCs2bNvlddUlXM_3std2io5error6CustomE4casthECsfnYCCstO0CH_18mapped_static_race(i64* nonnull %_17)
          to label %bb6 unwind label %cleanup, !dbg !1686

bb6:                                              ; preds = %bb5
; invoke <core::ptr::unique::Unique<u8> as core::convert::Into<core::ptr::non_null::NonNull<u8>>>::into
  %_15 = invoke nonnull i8* @_RNvXs1_NtCs3p84KrD9aKt_4core7convertINtNtNtB7_3ptr6unique6UniquehEINtB5_4IntoINtNtBD_8non_null7NonNullhEE4intoCsfnYCCstO0CH_18mapped_static_race(i8* nonnull %_16)
          to label %bb7 unwind label %cleanup, !dbg !1686

bb7:                                              ; preds = %bb6
; invoke <alloc::alloc::Global as core::alloc::Allocator>::deallocate
  invoke void @_RNvXs_NtCs8RW06R9lH2S_5alloc5allocNtB4_6GlobalNtNtCs3p84KrD9aKt_4core5alloc9Allocator10deallocateCsfnYCCstO0CH_18mapped_static_race(%"std::alloc::Global"* noalias nonnull readonly align 1 %alloc, i8* nonnull %_15, i64 %layout.0, i64 %layout.1)
          to label %bb8 unwind label %cleanup, !dbg !1687

bb8:                                              ; preds = %bb7
  br label %bb9, !dbg !1688

bb9:                                              ; preds = %bb8
  ret void, !dbg !1689

bb10:                                             ; preds = %cleanup
  br label %bb11, !dbg !1688

bb11:                                             ; preds = %bb10
  %7 = bitcast { i8*, i32 }* %3 to i8**, !dbg !1690
  %8 = load i8*, i8** %7, align 8, !dbg !1690
  %9 = getelementptr inbounds { i8*, i32 }, { i8*, i32 }* %3, i32 0, i32 1, !dbg !1690
  %10 = load i32, i32* %9, align 8, !dbg !1690
  %11 = insertvalue { i8*, i32 } undef, i8* %8, 0, !dbg !1690
  %12 = insertvalue { i8*, i32 } %11, i32 %10, 1, !dbg !1690
  resume { i8*, i32 } %12, !dbg !1690

cleanup:                                          ; preds = %bb7, %bb6, %bb5, %bb4, %bb2, %start
  %13 = landingpad { i8*, i32 }
          cleanup
  %14 = extractvalue { i8*, i32 } %13, 0
  %15 = extractvalue { i8*, i32 } %13, 1
  %16 = getelementptr inbounds { i8*, i32 }, { i8*, i32 }* %3, i32 0, i32 0
  store i8* %14, i8** %16, align 8
  %17 = getelementptr inbounds { i8*, i32 }, { i8*, i32 }* %3, i32 0, i32 1
  store i32 %15, i32* %17, align 8
  br label %bb10
}

; alloc::alloc::box_free::<std::sys::unix::mutex::Mutex, alloc::alloc::Global>
; Function Attrs: inlinehint nonlazybind uwtable
define internal void @_RINvNtCs8RW06R9lH2S_5alloc5alloc8box_freeNtNtNtNtCs2bNvlddUlXM_3std3sys4unix5mutex5MutexNtB2_6GlobalECsfnYCCstO0CH_18mapped_static_race(i64* nonnull %0) unnamed_addr #1 personality i32 (i32, i32, i64, %"unwind::libunwind::_Unwind_Exception"*, %"unwind::libunwind::_Unwind_Context"*)* @rust_eh_personality !dbg !1691 {
start:
  %layout.dbg.spill = alloca { i64, i64 }, align 8
  %align.dbg.spill = alloca i64, align 8
  %1 = alloca i64, align 8
  %size.dbg.spill = alloca i64, align 8
  %2 = alloca i64, align 8
  %3 = alloca { i8*, i32 }, align 8
  %alloc = alloca %"std::alloc::Global", align 1
  %ptr = alloca i64*, align 8
  store i64* %0, i64** %ptr, align 8
  call void @llvm.dbg.declare(metadata i64** %ptr, metadata !1695, metadata !DIExpression()), !dbg !1704
  call void @llvm.dbg.declare(metadata %"std::alloc::Global"* %alloc, metadata !1696, metadata !DIExpression()), !dbg !1705
; invoke <core::ptr::unique::Unique<std::sys::unix::mutex::Mutex>>::as_ref
  %_5 = invoke align 8 dereferenceable(40) %"std::sys::unix::mutex::Mutex"* @_RNvMs1_NtNtCs3p84KrD9aKt_4core3ptr6uniqueINtB5_6UniqueNtNtNtNtCs2bNvlddUlXM_3std3sys4unix5mutex5MutexE6as_refCsfnYCCstO0CH_18mapped_static_race(i64** noalias readonly align 8 dereferenceable(8) %ptr)
          to label %bb1 unwind label %cleanup, !dbg !1706

bb1:                                              ; preds = %start
  store i64 40, i64* %2, align 8, !dbg !1707
  %size = load i64, i64* %2, align 8, !dbg !1707
  store i64 %size, i64* %size.dbg.spill, align 8, !dbg !1707
  call void @llvm.dbg.declare(metadata i64* %size.dbg.spill, metadata !1697, metadata !DIExpression()), !dbg !1708
  br label %bb2, !dbg !1707

bb2:                                              ; preds = %bb1
; invoke <core::ptr::unique::Unique<std::sys::unix::mutex::Mutex>>::as_ref
  %_9 = invoke align 8 dereferenceable(40) %"std::sys::unix::mutex::Mutex"* @_RNvMs1_NtNtCs3p84KrD9aKt_4core3ptr6uniqueINtB5_6UniqueNtNtNtNtCs2bNvlddUlXM_3std3sys4unix5mutex5MutexE6as_refCsfnYCCstO0CH_18mapped_static_race(i64** noalias readonly align 8 dereferenceable(8) %ptr)
          to label %bb3 unwind label %cleanup, !dbg !1709

bb3:                                              ; preds = %bb2
  store i64 8, i64* %1, align 8, !dbg !1710
  %align = load i64, i64* %1, align 8, !dbg !1710
  store i64 %align, i64* %align.dbg.spill, align 8, !dbg !1710
  call void @llvm.dbg.declare(metadata i64* %align.dbg.spill, metadata !1699, metadata !DIExpression()), !dbg !1711
  br label %bb4, !dbg !1710

bb4:                                              ; preds = %bb3
; invoke <core::alloc::layout::Layout>::from_size_align_unchecked
  %4 = invoke { i64, i64 } @_RNvMNtNtCs3p84KrD9aKt_4core5alloc6layoutNtB2_6Layout25from_size_align_uncheckedCsfnYCCstO0CH_18mapped_static_race(i64 %size, i64 %align)
          to label %bb5 unwind label %cleanup, !dbg !1712

bb5:                                              ; preds = %bb4
  %layout.0 = extractvalue { i64, i64 } %4, 0, !dbg !1712
  %layout.1 = extractvalue { i64, i64 } %4, 1, !dbg !1712
  %5 = getelementptr inbounds { i64, i64 }, { i64, i64 }* %layout.dbg.spill, i32 0, i32 0, !dbg !1712
  store i64 %layout.0, i64* %5, align 8, !dbg !1712
  %6 = getelementptr inbounds { i64, i64 }, { i64, i64 }* %layout.dbg.spill, i32 0, i32 1, !dbg !1712
  store i64 %layout.1, i64* %6, align 8, !dbg !1712
  call void @llvm.dbg.declare(metadata { i64, i64 }* %layout.dbg.spill, metadata !1701, metadata !DIExpression()), !dbg !1713
  %_17 = load i64*, i64** %ptr, align 8, !dbg !1714, !nonnull !4
; invoke <core::ptr::unique::Unique<std::sys::unix::mutex::Mutex>>::cast::<u8>
  %_16 = invoke nonnull i8* @_RINvMs1_NtNtCs3p84KrD9aKt_4core3ptr6uniqueINtB6_6UniqueNtNtNtNtCs2bNvlddUlXM_3std3sys4unix5mutex5MutexE4casthECsfnYCCstO0CH_18mapped_static_race(i64* nonnull %_17)
          to label %bb6 unwind label %cleanup, !dbg !1714

bb6:                                              ; preds = %bb5
; invoke <core::ptr::unique::Unique<u8> as core::convert::Into<core::ptr::non_null::NonNull<u8>>>::into
  %_15 = invoke nonnull i8* @_RNvXs1_NtCs3p84KrD9aKt_4core7convertINtNtNtB7_3ptr6unique6UniquehEINtB5_4IntoINtNtBD_8non_null7NonNullhEE4intoCsfnYCCstO0CH_18mapped_static_race(i8* nonnull %_16)
          to label %bb7 unwind label %cleanup, !dbg !1714

bb7:                                              ; preds = %bb6
; invoke <alloc::alloc::Global as core::alloc::Allocator>::deallocate
  invoke void @_RNvXs_NtCs8RW06R9lH2S_5alloc5allocNtB4_6GlobalNtNtCs3p84KrD9aKt_4core5alloc9Allocator10deallocateCsfnYCCstO0CH_18mapped_static_race(%"std::alloc::Global"* noalias nonnull readonly align 1 %alloc, i8* nonnull %_15, i64 %layout.0, i64 %layout.1)
          to label %bb8 unwind label %cleanup, !dbg !1715

bb8:                                              ; preds = %bb7
  br label %bb9, !dbg !1716

bb9:                                              ; preds = %bb8
  ret void, !dbg !1717

bb10:                                             ; preds = %cleanup
  br label %bb11, !dbg !1716

bb11:                                             ; preds = %bb10
  %7 = bitcast { i8*, i32 }* %3 to i8**, !dbg !1718
  %8 = load i8*, i8** %7, align 8, !dbg !1718
  %9 = getelementptr inbounds { i8*, i32 }, { i8*, i32 }* %3, i32 0, i32 1, !dbg !1718
  %10 = load i32, i32* %9, align 8, !dbg !1718
  %11 = insertvalue { i8*, i32 } undef, i8* %8, 0, !dbg !1718
  %12 = insertvalue { i8*, i32 } %11, i32 %10, 1, !dbg !1718
  resume { i8*, i32 } %12, !dbg !1718

cleanup:                                          ; preds = %bb7, %bb6, %bb5, %bb4, %bb2, %start
  %13 = landingpad { i8*, i32 }
          cleanup
  %14 = extractvalue { i8*, i32 } %13, 0
  %15 = extractvalue { i8*, i32 } %13, 1
  %16 = getelementptr inbounds { i8*, i32 }, { i8*, i32 }* %3, i32 0, i32 0
  store i8* %14, i8** %16, align 8
  %17 = getelementptr inbounds { i8*, i32 }, { i8*, i32 }* %3, i32 0, i32 1
  store i32 %15, i32* %17, align 8
  br label %bb10
}

; alloc::alloc::box_free::<[u8], alloc::alloc::Global>
; Function Attrs: inlinehint nonlazybind uwtable
define internal void @_RINvNtCs8RW06R9lH2S_5alloc5alloc8box_freeShNtB2_6GlobalECsfnYCCstO0CH_18mapped_static_race(i8* nonnull %0, i64 %1) unnamed_addr #1 personality i32 (i32, i32, i64, %"unwind::libunwind::_Unwind_Exception"*, %"unwind::libunwind::_Unwind_Context"*)* @rust_eh_personality !dbg !1719 {
start:
  %layout.dbg.spill = alloca { i64, i64 }, align 8
  %align.dbg.spill = alloca i64, align 8
  %2 = alloca i64, align 8
  %size.dbg.spill = alloca i64, align 8
  %3 = alloca i64, align 8
  %4 = alloca { i8*, i32 }, align 8
  %alloc = alloca %"std::alloc::Global", align 1
  %ptr = alloca { i8*, i64 }, align 8
  %5 = getelementptr inbounds { i8*, i64 }, { i8*, i64 }* %ptr, i32 0, i32 0
  store i8* %0, i8** %5, align 8
  %6 = getelementptr inbounds { i8*, i64 }, { i8*, i64 }* %ptr, i32 0, i32 1
  store i64 %1, i64* %6, align 8
  call void @llvm.dbg.declare(metadata { i8*, i64 }* %ptr, metadata !1723, metadata !DIExpression()), !dbg !1731
  call void @llvm.dbg.declare(metadata %"std::alloc::Global"* %alloc, metadata !1724, metadata !DIExpression()), !dbg !1732
; invoke <core::ptr::unique::Unique<[u8]>>::as_ref
  %7 = invoke { [0 x i8]*, i64 } @_RNvMs1_NtNtCs3p84KrD9aKt_4core3ptr6uniqueINtB5_6UniqueShE6as_refCsfnYCCstO0CH_18mapped_static_race({ i8*, i64 }* noalias readonly align 8 dereferenceable(16) %ptr)
          to label %bb1 unwind label %cleanup, !dbg !1733

bb1:                                              ; preds = %start
  %_5.0 = extractvalue { [0 x i8]*, i64 } %7, 0, !dbg !1733
  %_5.1 = extractvalue { [0 x i8]*, i64 } %7, 1, !dbg !1733
  %8 = mul i64 %_5.1, 1, !dbg !1734
  store i64 %8, i64* %3, align 8, !dbg !1734
  %size = load i64, i64* %3, align 8, !dbg !1734
  store i64 %size, i64* %size.dbg.spill, align 8, !dbg !1734
  call void @llvm.dbg.declare(metadata i64* %size.dbg.spill, metadata !1725, metadata !DIExpression()), !dbg !1735
  br label %bb2, !dbg !1734

bb2:                                              ; preds = %bb1
; invoke <core::ptr::unique::Unique<[u8]>>::as_ref
  %9 = invoke { [0 x i8]*, i64 } @_RNvMs1_NtNtCs3p84KrD9aKt_4core3ptr6uniqueINtB5_6UniqueShE6as_refCsfnYCCstO0CH_18mapped_static_race({ i8*, i64 }* noalias readonly align 8 dereferenceable(16) %ptr)
          to label %bb3 unwind label %cleanup, !dbg !1736

bb3:                                              ; preds = %bb2
  %_9.0 = extractvalue { [0 x i8]*, i64 } %9, 0, !dbg !1736
  %_9.1 = extractvalue { [0 x i8]*, i64 } %9, 1, !dbg !1736
  %10 = mul i64 %_9.1, 1, !dbg !1737
  store i64 1, i64* %2, align 8, !dbg !1737
  %align = load i64, i64* %2, align 8, !dbg !1737
  store i64 %align, i64* %align.dbg.spill, align 8, !dbg !1737
  call void @llvm.dbg.declare(metadata i64* %align.dbg.spill, metadata !1727, metadata !DIExpression()), !dbg !1738
  br label %bb4, !dbg !1737

bb4:                                              ; preds = %bb3
; invoke <core::alloc::layout::Layout>::from_size_align_unchecked
  %11 = invoke { i64, i64 } @_RNvMNtNtCs3p84KrD9aKt_4core5alloc6layoutNtB2_6Layout25from_size_align_uncheckedCsfnYCCstO0CH_18mapped_static_race(i64 %size, i64 %align)
          to label %bb5 unwind label %cleanup, !dbg !1739

bb5:                                              ; preds = %bb4
  %layout.0 = extractvalue { i64, i64 } %11, 0, !dbg !1739
  %layout.1 = extractvalue { i64, i64 } %11, 1, !dbg !1739
  %12 = getelementptr inbounds { i64, i64 }, { i64, i64 }* %layout.dbg.spill, i32 0, i32 0, !dbg !1739
  store i64 %layout.0, i64* %12, align 8, !dbg !1739
  %13 = getelementptr inbounds { i64, i64 }, { i64, i64 }* %layout.dbg.spill, i32 0, i32 1, !dbg !1739
  store i64 %layout.1, i64* %13, align 8, !dbg !1739
  call void @llvm.dbg.declare(metadata { i64, i64 }* %layout.dbg.spill, metadata !1729, metadata !DIExpression()), !dbg !1740
  %14 = getelementptr inbounds { i8*, i64 }, { i8*, i64 }* %ptr, i32 0, i32 0, !dbg !1741
  %_17.0 = load i8*, i8** %14, align 8, !dbg !1741, !nonnull !4
  %15 = getelementptr inbounds { i8*, i64 }, { i8*, i64 }* %ptr, i32 0, i32 1, !dbg !1741
  %_17.1 = load i64, i64* %15, align 8, !dbg !1741
; invoke <core::ptr::unique::Unique<[u8]>>::cast::<u8>
  %_16 = invoke nonnull i8* @_RINvMs1_NtNtCs3p84KrD9aKt_4core3ptr6uniqueINtB6_6UniqueShE4casthECsfnYCCstO0CH_18mapped_static_race(i8* nonnull %_17.0, i64 %_17.1)
          to label %bb6 unwind label %cleanup, !dbg !1741

bb6:                                              ; preds = %bb5
; invoke <core::ptr::unique::Unique<u8> as core::convert::Into<core::ptr::non_null::NonNull<u8>>>::into
  %_15 = invoke nonnull i8* @_RNvXs1_NtCs3p84KrD9aKt_4core7convertINtNtNtB7_3ptr6unique6UniquehEINtB5_4IntoINtNtBD_8non_null7NonNullhEE4intoCsfnYCCstO0CH_18mapped_static_race(i8* nonnull %_16)
          to label %bb7 unwind label %cleanup, !dbg !1741

bb7:                                              ; preds = %bb6
; invoke <alloc::alloc::Global as core::alloc::Allocator>::deallocate
  invoke void @_RNvXs_NtCs8RW06R9lH2S_5alloc5allocNtB4_6GlobalNtNtCs3p84KrD9aKt_4core5alloc9Allocator10deallocateCsfnYCCstO0CH_18mapped_static_race(%"std::alloc::Global"* noalias nonnull readonly align 1 %alloc, i8* nonnull %_15, i64 %layout.0, i64 %layout.1)
          to label %bb8 unwind label %cleanup, !dbg !1742

bb8:                                              ; preds = %bb7
  br label %bb9, !dbg !1743

bb9:                                              ; preds = %bb8
  ret void, !dbg !1744

bb10:                                             ; preds = %cleanup
  br label %bb11, !dbg !1743

bb11:                                             ; preds = %bb10
  %16 = bitcast { i8*, i32 }* %4 to i8**, !dbg !1745
  %17 = load i8*, i8** %16, align 8, !dbg !1745
  %18 = getelementptr inbounds { i8*, i32 }, { i8*, i32 }* %4, i32 0, i32 1, !dbg !1745
  %19 = load i32, i32* %18, align 8, !dbg !1745
  %20 = insertvalue { i8*, i32 } undef, i8* %17, 0, !dbg !1745
  %21 = insertvalue { i8*, i32 } %20, i32 %19, 1, !dbg !1745
  resume { i8*, i32 } %21, !dbg !1745

cleanup:                                          ; preds = %bb7, %bb6, %bb5, %bb4, %bb2, %start
  %22 = landingpad { i8*, i32 }
          cleanup
  %23 = extractvalue { i8*, i32 } %22, 0
  %24 = extractvalue { i8*, i32 } %22, 1
  %25 = getelementptr inbounds { i8*, i32 }, { i8*, i32 }* %4, i32 0, i32 0
  store i8* %23, i8** %25, align 8
  %26 = getelementptr inbounds { i8*, i32 }, { i8*, i32 }* %4, i32 0, i32 1
  store i32 %24, i32* %26, align 8
  br label %bb10
}

; std::sys_common::backtrace::__rust_begin_short_backtrace::<fn(), ()>
; Function Attrs: noinline nonlazybind uwtable
define internal void @_RINvNtNtCs2bNvlddUlXM_3std10sys_common9backtrace28___rust_begin_short_backtraceFEuuECsfnYCCstO0CH_18mapped_static_race(void ()* nonnull %f) unnamed_addr #2 personality i32 (i32, i32, i64, %"unwind::libunwind::_Unwind_Exception"*, %"unwind::libunwind::_Unwind_Context"*)* @rust_eh_personality !dbg !1746 {
start:
  %0 = alloca { i8*, i32 }, align 8
  %f.dbg.spill = alloca void ()*, align 8
  %result.dbg.spill = alloca {}, align 1
  %_5 = alloca {}, align 1
  %_3 = alloca {}, align 1
  call void @llvm.dbg.declare(metadata {}* %result.dbg.spill, metadata !1753, metadata !DIExpression()), !dbg !1757
  store void ()* %f, void ()** %f.dbg.spill, align 8
  call void @llvm.dbg.declare(metadata void ()** %f.dbg.spill, metadata !1752, metadata !DIExpression()), !dbg !1758
; call <fn() as core::ops::function::FnOnce<()>>::call_once
  call void @_RNvYFEuINtNtNtCs3p84KrD9aKt_4core3ops8function6FnOnceuE9call_onceCsfnYCCstO0CH_18mapped_static_race(void ()* nonnull %f), !dbg !1759
  br label %bb1, !dbg !1759

bb1:                                              ; preds = %start
; invoke core::hint::black_box::<()>
  invoke void @_RINvNtCs3p84KrD9aKt_4core4hint9black_boxuECsfnYCCstO0CH_18mapped_static_race()
          to label %bb2 unwind label %cleanup, !dbg !1760

bb2:                                              ; preds = %bb1
  ret void, !dbg !1761

bb3:                                              ; preds = %cleanup
  br label %bb4, !dbg !1762

bb4:                                              ; preds = %bb3
  %1 = bitcast { i8*, i32 }* %0 to i8**, !dbg !1763
  %2 = load i8*, i8** %1, align 8, !dbg !1763
  %3 = getelementptr inbounds { i8*, i32 }, { i8*, i32 }* %0, i32 0, i32 1, !dbg !1763
  %4 = load i32, i32* %3, align 8, !dbg !1763
  %5 = insertvalue { i8*, i32 } undef, i8* %2, 0, !dbg !1763
  %6 = insertvalue { i8*, i32 } %5, i32 %4, 1, !dbg !1763
  resume { i8*, i32 } %6, !dbg !1763

cleanup:                                          ; preds = %bb1
  %7 = landingpad { i8*, i32 }
          cleanup
  %8 = extractvalue { i8*, i32 } %7, 0
  %9 = extractvalue { i8*, i32 } %7, 1
  %10 = getelementptr inbounds { i8*, i32 }, { i8*, i32 }* %0, i32 0, i32 0
  store i8* %8, i8** %10, align 8
  %11 = getelementptr inbounds { i8*, i32 }, { i8*, i32 }* %0, i32 0, i32 1
  store i32 %9, i32* %11, align 8
  br label %bb3
}

; std::sys_common::backtrace::__rust_begin_short_backtrace::<mapped_static_race::main::{closure#0}, ()>
; Function Attrs: noinline nonlazybind uwtable
define internal void @_RINvNtNtCs2bNvlddUlXM_3std10sys_common9backtrace28___rust_begin_short_backtraceNCNvCsfnYCCstO0CH_18mapped_static_race4main0uEB1j_() unnamed_addr #2 personality i32 (i32, i32, i64, %"unwind::libunwind::_Unwind_Exception"*, %"unwind::libunwind::_Unwind_Context"*)* @rust_eh_personality !dbg !1764 {
start:
  %0 = alloca { i8*, i32 }, align 8
  %f.dbg.spill = alloca %"[closure@src/main.rs:10:30: 13:3]", align 1
  %result.dbg.spill = alloca {}, align 1
  %_5 = alloca {}, align 1
  %_3 = alloca {}, align 1
  call void @llvm.dbg.declare(metadata {}* %result.dbg.spill, metadata !1769, metadata !DIExpression()), !dbg !1771
  call void @llvm.dbg.declare(metadata %"[closure@src/main.rs:10:30: 13:3]"* %f.dbg.spill, metadata !1768, metadata !DIExpression()), !dbg !1772
; call mapped_static_race::main::{closure#0}
  call void @_RNCNvCsfnYCCstO0CH_18mapped_static_race4main0B3_(), !dbg !1773
  br label %bb1, !dbg !1773

bb1:                                              ; preds = %start
; invoke core::hint::black_box::<()>
  invoke void @_RINvNtCs3p84KrD9aKt_4core4hint9black_boxuECsfnYCCstO0CH_18mapped_static_race()
          to label %bb2 unwind label %cleanup, !dbg !1774

bb2:                                              ; preds = %bb1
  ret void, !dbg !1775

bb3:                                              ; preds = %cleanup
  br label %bb4, !dbg !1776

bb4:                                              ; preds = %bb3
  %1 = bitcast { i8*, i32 }* %0 to i8**, !dbg !1777
  %2 = load i8*, i8** %1, align 8, !dbg !1777
  %3 = getelementptr inbounds { i8*, i32 }, { i8*, i32 }* %0, i32 0, i32 1, !dbg !1777
  %4 = load i32, i32* %3, align 8, !dbg !1777
  %5 = insertvalue { i8*, i32 } undef, i8* %2, 0, !dbg !1777
  %6 = insertvalue { i8*, i32 } %5, i32 %4, 1, !dbg !1777
  resume { i8*, i32 } %6, !dbg !1777

cleanup:                                          ; preds = %bb1
  %7 = landingpad { i8*, i32 }
          cleanup
  %8 = extractvalue { i8*, i32 } %7, 0
  %9 = extractvalue { i8*, i32 } %7, 1
  %10 = getelementptr inbounds { i8*, i32 }, { i8*, i32 }* %0, i32 0, i32 0
  store i8* %8, i8** %10, align 8
  %11 = getelementptr inbounds { i8*, i32 }, { i8*, i32 }* %0, i32 0, i32 1
  store i32 %9, i32* %11, align 8
  br label %bb3
}

; core::sync::atomic::atomic_add::<usize>
; Function Attrs: inlinehint nonlazybind uwtable
define internal i64 @_RINvNtNtCs3p84KrD9aKt_4core4sync6atomic10atomic_addjECsfnYCCstO0CH_18mapped_static_race(i64* %dst, i64 %val, i8 %0) unnamed_addr #1 !dbg !1778 {
start:
  %val.dbg.spill = alloca i64, align 8
  %dst.dbg.spill = alloca i64*, align 8
  %1 = alloca i64, align 8
  %order = alloca i8, align 1
  store i8 %0, i8* %order, align 1
  store i64* %dst, i64** %dst.dbg.spill, align 8
