; ModuleID = '5y0vh82724c081z'
source_filename = "5y0vh82724c081z"
target datalayout = "e-m:e-p270:32:32-p271:32:32-p272:64:64-i64:64-f80:128-n8:16:32:64-S128"
target triple = "x86_64-unknown-linux-gnu"

%"[closure@std::thread::Builder::spawn_unchecked<[closure@src/main.rs:12:26: 18:3], ()>::{closure#0}]" = type { [0 x i64], i64*, [0 x i64], i64*, [0 x i64], i64*, [0 x i64], i64*, [0 x i64] }
%"std::io::Error" = type { [0 x i64], %"std::io::error::Repr", [0 x i64] }
%"std::io::error::Repr" = type { [0 x i8], i8, [15 x i8] }
%"std::fmt::Formatter" = type { [0 x i64], { i64, i64 }, [0 x i64], { i64, i64 }, [0 x i64], { {}*, [3 x i64]* }, [0 x i32], i32, [0 x i32], i32, [0 x i8], i8, [7 x i8] }
%"std::sync::atomic::AtomicUsize" = type { [0 x i64], i64, [0 x i64] }
%"std::result::Result<std::thread::JoinHandle<()>, std::io::Error>" = type { [0 x i64], i64, [4 x i64] }
%"std::thread::Builder" = type { [0 x i64], %"std::option::Option<std::string::String>", [0 x i64], { i64, i64 }, [0 x i64] }
%"std::option::Option<std::string::String>" = type { [0 x i64], {}*, [2 x i64] }
%"std::result::Result<std::sys::unix::thread::Thread, std::io::Error>" = type { [0 x i64], i64, [2 x i64] }
%"std::thread::JoinInner<()>" = type { [0 x i64], { i64, i64 }, [0 x i64], i64*, [0 x i64], i64*, [0 x i64] }
%"std::thread::JoinHandle<()>" = type { [0 x i64], %"std::thread::JoinInner<()>", [0 x i64] }
%"std::option::Option<std::result::Result<(), std::boxed::Box<dyn std::any::Any + std::marker::Send>>>" = type { [0 x i64], i64, [2 x i64] }
%"std::cell::UnsafeCell<std::option::Option<std::result::Result<(), std::boxed::Box<dyn std::any::Any + std::marker::Send>>>>" = type { [0 x i64], %"std::option::Option<std::result::Result<(), std::boxed::Box<dyn std::any::Any + std::marker::Send>>>", [0 x i64] }
%"std::result::Result<std::sys::unix::thread::Thread, std::io::Error>::Ok" = type { [1 x i64], i64, [0 x i64] }
%"std::option::Option<std::sys::unix::thread::Thread>::Some" = type { [1 x i64], i64, [0 x i64] }
%"std::result::Result<std::thread::JoinHandle<()>, std::io::Error>::Ok" = type { [1 x i64], %"std::thread::JoinHandle<()>", [0 x i64] }
%"std::result::Result<std::sys::unix::thread::Thread, std::io::Error>::Err" = type { [1 x i64], %"std::io::Error", [0 x i64] }
%"std::alloc::AllocError" = type {}
%"std::result::Result<std::ptr::NonNull<u8>, std::alloc::AllocError>::Err" = type { [0 x i8], %"std::alloc::AllocError", [0 x i8] }
%"std::option::Option<usize>::Some" = type { [1 x i64], i64, [0 x i64] }
%"alloc::sync::ArcInner<std::cell::UnsafeCell<std::option::Option<std::result::Result<(), std::boxed::Box<dyn std::any::Any + std::marker::Send>>>>>" = type { [0 x i64], %"std::sync::atomic::AtomicUsize", [0 x i64], %"std::sync::atomic::AtomicUsize", [0 x i64], %"std::cell::UnsafeCell<std::option::Option<std::result::Result<(), std::boxed::Box<dyn std::any::Any + std::marker::Send>>>>", [0 x i64] }
%"alloc::sync::ArcInner<std::sync::Mutex<std::vec::Vec<u8>>>" = type { [0 x i64], %"std::sync::atomic::AtomicUsize", [0 x i64], %"std::sync::atomic::AtomicUsize", [0 x i64], %"std::sync::Mutex<std::vec::Vec<u8>>", [0 x i64] }
%"std::sync::Mutex<std::vec::Vec<u8>>" = type { [0 x i64], i64*, [0 x i8], %"std::sys_common::poison::Flag", [7 x i8], %"std::cell::UnsafeCell<std::vec::Vec<u8>>", [0 x i64] }
%"std::sys_common::poison::Flag" = type { [0 x i8], %"std::sync::atomic::AtomicBool", [0 x i8] }
%"std::sync::atomic::AtomicBool" = type { [0 x i8], i8, [0 x i8] }
%"std::cell::UnsafeCell<std::vec::Vec<u8>>" = type { [0 x i64], %"std::vec::Vec<u8>", [0 x i64] }
%"std::vec::Vec<u8>" = type { [0 x i64], { i8*, i64 }, [0 x i64], i64, [0 x i64] }
%"alloc::sync::ArcInner<std::sync::Mutex<i32>>" = type { [0 x i64], %"std::sync::atomic::AtomicUsize", [0 x i64], %"std::sync::atomic::AtomicUsize", [0 x i64], %"std::sync::Mutex<i32>", [0 x i64] }
%"std::sync::Mutex<i32>" = type { [0 x i64], i64*, [0 x i8], %"std::sys_common::poison::Flag", [3 x i8], i32, [0 x i32] }
%"alloc::sync::ArcInner<std::thread::Inner>" = type { [0 x i64], %"std::sync::atomic::AtomicUsize", [0 x i64], %"std::sync::atomic::AtomicUsize", [0 x i64], %"std::thread::Inner", [0 x i64] }
%"std::thread::Inner" = type { [0 x i64], { i8*, i64 }, [0 x i64], i64, [0 x i32], %"std::sys_common::thread_parker::futex::Parker", [1 x i32] }
%"std::sys_common::thread_parker::futex::Parker" = type { [0 x i32], %"std::sync::atomic::AtomicI32", [0 x i32] }
%"std::sync::atomic::AtomicI32" = type { [0 x i32], i32, [0 x i32] }
%"std::io::error::Custom" = type { [0 x i64], { {}*, [3 x i64]* }, [0 x i8], i8, [7 x i8] }
%"std::sys::unix::mutex::Mutex" = type { [0 x i64], %"std::cell::UnsafeCell<libc::unix::linux_like::linux::pthread_mutex_t>", [0 x i64] }
%"std::cell::UnsafeCell<libc::unix::linux_like::linux::pthread_mutex_t>" = type { [0 x i64], %"libc::unix::linux_like::linux::pthread_mutex_t", [0 x i64] }
%"libc::unix::linux_like::linux::pthread_mutex_t" = type { [0 x i8], [40 x i8], [0 x i8] }
%"core::fmt::Opaque" = type {}
%"std::panic::Location" = type { [0 x i64], { [0 x i8]*, i64 }, [0 x i32], i32, [0 x i32], i32, [0 x i32] }
%"std::panicking::r#try::Data<std::panic::AssertUnwindSafe<[closure@std::thread::Builder::spawn_unchecked<[closure@src/main.rs:12:26: 18:3], ()>::{closure#0}::{closure#0}]>, ()>" = type { [2 x i64] }
%"std::mem::ManuallyDrop<()>" = type { [0 x i8], {}, [0 x i8] }
%"std::result::Result<(), std::boxed::Box<dyn std::any::Any + std::marker::Send>>::Ok" = type { [0 x i8], {}, [0 x i8] }
%"std::option::Option<std::result::Result<(), std::boxed::Box<dyn std::any::Any + std::marker::Send>>>::Some" = type { [1 x i64], { i8*, i8* }, [0 x i64] }
%"std::option::Option<std::string::String>::Some" = type { [0 x i64], %"std::string::String", [0 x i64] }
%"std::string::String" = type { [0 x i64], %"std::vec::Vec<u8>", [0 x i64] }
%"std::result::Result<std::thread::JoinHandle<()>, std::io::Error>::Err" = type { [1 x i64], %"std::io::Error", [0 x i64] }
%"std::io::error::Repr::Custom" = type { [1 x i64], %"std::io::error::Custom"*, [0 x i64] }
%"std::ptr::Repr<u8>" = type { [2 x i64] }
%"std::mem::MaybeUninit<std::option::Option<std::result::Result<(), std::boxed::Box<dyn std::any::Any + std::marker::Send>>>>" = type { [3 x i64] }
%"std::mem::ManuallyDrop<std::option::Option<std::result::Result<(), std::boxed::Box<dyn std::any::Any + std::marker::Send>>>>" = type { [0 x i64], %"std::option::Option<std::result::Result<(), std::boxed::Box<dyn std::any::Any + std::marker::Send>>>", [0 x i64] }
%"std::alloc::Global" = type {}
%"std::result::Result<std::sync::MutexGuard<i32>, std::sync::PoisonError<std::sync::MutexGuard<i32>>>" = type { [0 x i64], i64, [2 x i64] }
%"std::result::Result<std::sys_common::poison::Guard, std::sync::PoisonError<std::sys_common::poison::Guard>>::Err" = type { [1 x i8], i8, [0 x i8] }
%"std::result::Result<std::sys_common::poison::Guard, std::sync::PoisonError<std::sys_common::poison::Guard>>::Ok" = type { [1 x i8], i8, [0 x i8] }
%"std::result::Result<std::sync::MutexGuard<i32>, std::sync::PoisonError<std::sync::MutexGuard<i32>>>::Ok" = type { [1 x i64], { i64*, i8 }, [0 x i64] }
%"std::result::Result<std::sync::MutexGuard<i32>, std::sync::PoisonError<std::sync::MutexGuard<i32>>>::Err" = type { [1 x i64], { i64*, i8 }, [0 x i64] }
%"std::ffi::CStr" = type { [0 x i8], [0 x i8] }
%"std::option::Option<std::ops::Range<usize>>" = type { [0 x i64], i64, [2 x i64] }
%"std::fmt::Arguments" = type { [0 x i64], { [0 x { [0 x i8]*, i64 }]*, i64 }, [0 x i64], { i64*, i64 }, [0 x i64], { [0 x { i8*, i64* }]*, i64 }, [0 x i64] }
%"std::marker::PhantomData<u8>" = type {}
%"std::marker::PhantomData<alloc::sync::ArcInner<std::cell::UnsafeCell<std::option::Option<std::result::Result<(), std::boxed::Box<dyn std::any::Any + std::marker::Send>>>>>>" = type {}
%"std::marker::PhantomData<alloc::sync::ArcInner<std::sync::Mutex<std::vec::Vec<u8>>>>" = type {}
%"std::marker::PhantomData<alloc::sync::ArcInner<std::sync::Mutex<i32>>>" = type {}
%"std::marker::PhantomData<alloc::sync::ArcInner<std::thread::Inner>>" = type {}
%"std::option::Option<(std::ptr::NonNull<u8>, std::alloc::Layout)>" = type { [0 x i64], {}*, [2 x i64] }
%"std::option::Option<(std::ptr::NonNull<u8>, std::alloc::Layout)>::Some" = type { [0 x i64], { [0 x i64], i8*, [0 x i64], { i64, i64 }, [0 x i64] }, [0 x i64] }
%"std::mem::MaybeUninit<std::ptr::swap_nonoverlapping_bytes::UnalignedBlock>" = type { [4 x i64] }
%"std::ptr::swap_nonoverlapping_bytes::UnalignedBlock" = type { [0 x i64], i64, [0 x i64], i64, [0 x i64], i64, [0 x i64], i64, [0 x i64] }
%"std::option::Option<i32>::Some" = type { [1 x i32], i32, [0 x i32] }
%"std::result::Result<std::ptr::NonNull<[u8]>, std::alloc::AllocError>::Err" = type { [0 x i8], %"std::alloc::AllocError", [0 x i8] }
%"unwind::libunwind::_Unwind_Exception" = type { [0 x i64], i64, [0 x i64], void (i32, %"unwind::libunwind::_Unwind_Exception"*)*, [0 x i64], [6 x i64], [0 x i64] }
%"unwind::libunwind::_Unwind_Context" = type { [0 x i8] }

@vtable.0 = private unnamed_addr constant { void (%"[closure@std::thread::Builder::spawn_unchecked<[closure@src/main.rs:12:26: 18:3], ()>::{closure#0}]"*)*, i64, i64, void (%"[closure@std::thread::Builder::spawn_unchecked<[closure@src/main.rs:12:26: 18:3], ()>::{closure#0}]"*)* } { void (%"[closure@std::thread::Builder::spawn_unchecked<[closure@src/main.rs:12:26: 18:3], ()>::{closure#0}]"*)* @_RINvNtCs3p84KrD9aKt_4core3ptr13drop_in_placeNCINvMNtCs2bNvlddUlXM_3std6threadNtBM_7Builder15spawn_uncheckedNCNvCsh5b2sQBIbur_14arc_heap_mutex4main0uE0EB1L_, i64 32, i64 8, void (%"[closure@std::thread::Builder::spawn_unchecked<[closure@src/main.rs:12:26: 18:3], ()>::{closure#0}]"*)* @_RNSNvYNCINvMNtCs2bNvlddUlXM_3std6threadNtBa_7Builder15spawn_uncheckedNCNvCsh5b2sQBIbur_14arc_heap_mutex4main0uE0INtNtNtCs3p84KrD9aKt_4core3ops8function6FnOnceuE9call_once6vtableB19_ }, align 8, !dbg !0
@vtable.1 = private unnamed_addr constant { void (i64**)*, i64, i64, i32 (i64**)*, i32 (i64**)*, i32 (i64**)* } { void (i64**)* @_RINvNtCs3p84KrD9aKt_4core3ptr13drop_in_placeNCINvNtCs2bNvlddUlXM_3std2rt10lang_startuE0ECsh5b2sQBIbur_14arc_heap_mutex, i64 8, i64 8, i32 (i64**)* @_RNCINvNtCs2bNvlddUlXM_3std2rt10lang_startuE0Csh5b2sQBIbur_14arc_heap_mutex, i32 (i64**)* @_RNCINvNtCs2bNvlddUlXM_3std2rt10lang_startuE0Csh5b2sQBIbur_14arc_heap_mutex, i32 (i64**)* @_RNSNvYNCINvNtCs2bNvlddUlXM_3std2rt10lang_startuE0INtNtNtCs3p84KrD9aKt_4core3ops8function6FnOnceuE9call_once6vtableCsh5b2sQBIbur_14arc_heap_mutex }, align 8, !dbg !311
@alloc59 = private unnamed_addr constant <{ [22 x i8] }> <{ [22 x i8] c"failed to spawn thread" }>, align 1
@alloc81 = private unnamed_addr constant <{ [77 x i8] }> <{ [77 x i8] c"/rustc/e38fb306b7f5e65cca34df2dab1f0db15e1defb4/library/std/src/thread/mod.rs" }>, align 1
@alloc61 = private unnamed_addr constant <{ i8*, [16 x i8] }> <{ i8* getelementptr inbounds (<{ [77 x i8] }>, <{ [77 x i8] }>* @alloc81, i32 0, i32 0, i32 0), [16 x i8] c"M\00\00\00\00\00\00\00l\02\00\00\1D\00\00\00" }>, align 8
@alloc68 = private unnamed_addr constant <{ [49 x i8] }> <{ [49 x i8] c"there is no such thing as an acquire/release load" }>, align 1
@alloc84 = private unnamed_addr constant <{ [79 x i8] }> <{ [79 x i8] c"/rustc/e38fb306b7f5e65cca34df2dab1f0db15e1defb4/library/core/src/sync/atomic.rs" }>, align 1
@alloc64 = private unnamed_addr constant <{ i8*, [16 x i8] }> <{ i8* getelementptr inbounds (<{ [79 x i8] }>, <{ [79 x i8] }>* @alloc84, i32 0, i32 0, i32 0), [16 x i8] c"O\00\00\00\00\00\00\004\09\00\00\17\00\00\00" }>, align 8
@alloc69 = private unnamed_addr constant <{ [40 x i8] }> <{ [40 x i8] c"there is no such thing as a release load" }>, align 1
@alloc67 = private unnamed_addr constant <{ i8*, [16 x i8] }> <{ i8* getelementptr inbounds (<{ [79 x i8] }>, <{ [79 x i8] }>* @alloc84, i32 0, i32 0, i32 0), [16 x i8] c"O\00\00\00\00\00\00\003\09\00\00\18\00\00\00" }>, align 8
@alloc70 = private unnamed_addr constant <{ [50 x i8] }> <{ [50 x i8] c"there is no such thing as an acquire/release store" }>, align 1
@alloc72 = private unnamed_addr constant <{ i8*, [16 x i8] }> <{ i8* getelementptr inbounds (<{ [79 x i8] }>, <{ [79 x i8] }>* @alloc84, i32 0, i32 0, i32 0), [16 x i8] c"O\00\00\00\00\00\00\00&\09\00\00\17\00\00\00" }>, align 8
@alloc73 = private unnamed_addr constant <{ [42 x i8] }> <{ [42 x i8] c"there is no such thing as an acquire store" }>, align 1
@alloc75 = private unnamed_addr constant <{ i8*, [16 x i8] }> <{ i8* getelementptr inbounds (<{ [79 x i8] }>, <{ [79 x i8] }>* @alloc84, i32 0, i32 0, i32 0), [16 x i8] c"O\00\00\00\00\00\00\00%\09\00\00\18\00\00\00" }>, align 8
@alloc77 = private unnamed_addr constant <{ [43 x i8] }> <{ [43 x i8] c"called `Option::unwrap()` on a `None` value" }>, align 1
@vtable.2 = private unnamed_addr constant { void (%"std::io::Error"*)*, i64, i64, i1 (%"std::io::Error"*, %"std::fmt::Formatter"*)* } { void (%"std::io::Error"*)* @_RINvNtCs3p84KrD9aKt_4core3ptr13drop_in_placeNtNtNtCs2bNvlddUlXM_3std2io5error5ErrorECsh5b2sQBIbur_14arc_heap_mutex, i64 16, i64 8, i1 (%"std::io::Error"*, %"std::fmt::Formatter"*)* @"_ZN58_$LT$std..io..error..Error$u20$as$u20$core..fmt..Debug$GT$3fmt17h9846d30f97792c23E" }, align 8, !dbg !322
@alloc78 = private unnamed_addr constant <{ [43 x i8] }> <{ [43 x i8] c"called `Result::unwrap()` on an `Err` value" }>, align 1
@vtable.3 = private unnamed_addr constant { void ({ i64*, i8 }*)*, i64, i64, i1 ({ i64*, i8 }*, %"std::fmt::Formatter"*)* } { void ({ i64*, i8 }*)* @_RINvNtCs3p84KrD9aKt_4core3ptr13drop_in_placeINtNtNtCs2bNvlddUlXM_3std10sys_common6poison11PoisonErrorINtNtNtBN_4sync5mutex10MutexGuardlEEECsh5b2sQBIbur_14arc_heap_mutex, i64 16, i64 8, i1 ({ i64*, i8 }*, %"std::fmt::Formatter"*)* @_RNvXs_NtNtCs2bNvlddUlXM_3std10sys_common6poisonINtB4_11PoisonErrorINtNtNtB8_4sync5mutex10MutexGuardlEENtNtCs3p84KrD9aKt_4core3fmt5Debug3fmtCsh5b2sQBIbur_14arc_heap_mutex }, align 8, !dbg !383
@alloc80 = private unnamed_addr constant <{ i8*, [16 x i8] }> <{ i8* getelementptr inbounds (<{ [77 x i8] }>, <{ [77 x i8] }>* @alloc81, i32 0, i32 0, i32 0), [16 x i8] c"M\00\00\00\00\00\00\00\E1\04\00\00\1C\00\00\00" }>, align 8
@alloc82 = private unnamed_addr constant <{ i8*, [16 x i8] }> <{ i8* getelementptr inbounds (<{ [77 x i8] }>, <{ [77 x i8] }>* @alloc81, i32 0, i32 0, i32 0), [16 x i8] c"M\00\00\00\00\00\00\00\E2\04\00\000\00\00\00" }>, align 8
@alloc34 = private unnamed_addr constant <{ [0 x i8] }> zeroinitializer, align 1
@_ZN3std9panicking11panic_count18GLOBAL_PANIC_COUNT17he153705974b5d722E = external global %"std::sync::atomic::AtomicUsize"
@alloc83 = private unnamed_addr constant <{ [41 x i8] }> <{ [41 x i8] c"there is no such thing as a relaxed fence" }>, align 1
@alloc85 = private unnamed_addr constant <{ i8*, [16 x i8] }> <{ i8* getelementptr inbounds (<{ [79 x i8] }>, <{ [79 x i8] }>* @alloc84, i32 0, i32 0, i32 0), [16 x i8] c"O\00\00\00\00\00\00\00n\0A\00\00\18\00\00\00" }>, align 8
@alloc86 = private unnamed_addr constant <{ [25 x i8] }> <{ [25 x i8] c"PoisonError { inner: .. }" }>, align 1
@alloc95 = private unnamed_addr constant <{ [11 x i8] }> <{ [11 x i8] c"src/main.rs" }>, align 1
@alloc88 = private unnamed_addr constant <{ i8*, [16 x i8] }> <{ i8* getelementptr inbounds (<{ [11 x i8] }>, <{ [11 x i8] }>* @alloc95, i32 0, i32 0, i32 0), [16 x i8] c"\0B\00\00\00\00\00\00\00\15\00\00\001\00\00\00" }>, align 8
@alloc90 = private unnamed_addr constant <{ i8*, [16 x i8] }> <{ i8* getelementptr inbounds (<{ [11 x i8] }>, <{ [11 x i8] }>* @alloc95, i32 0, i32 0, i32 0), [16 x i8] c"\0B\00\00\00\00\00\00\00\16\00\00\00\09\00\00\00" }>, align 8
@str.4 = internal constant [28 x i8] c"attempt to add with overflow"
@alloc3 = private unnamed_addr constant <{ [32 x i8] }> <{ [32 x i8] c"Parent: After increment, num is " }>, align 1
@alloc27 = private unnamed_addr constant <{ [1 x i8] }> <{ [1 x i8] c"\0A" }>, align 1
@alloc4 = private unnamed_addr constant <{ i8*, [8 x i8], i8*, [8 x i8] }> <{ i8* getelementptr inbounds (<{ [32 x i8] }>, <{ [32 x i8] }>* @alloc3, i32 0, i32 0, i32 0), [8 x i8] c" \00\00\00\00\00\00\00", i8* getelementptr inbounds (<{ [1 x i8] }>, <{ [1 x i8] }>* @alloc27, i32 0, i32 0, i32 0), [8 x i8] c"\01\00\00\00\00\00\00\00" }>, align 8
@alloc9 = private unnamed_addr constant <{ [39 x i8] }> <{ [39 x i8] c"Parent after join with child: value is " }>, align 1
@alloc10 = private unnamed_addr constant <{ i8*, [8 x i8], i8*, [8 x i8] }> <{ i8* getelementptr inbounds (<{ [39 x i8] }>, <{ [39 x i8] }>* @alloc9, i32 0, i32 0, i32 0), [8 x i8] c"'\00\00\00\00\00\00\00", i8* getelementptr inbounds (<{ [1 x i8] }>, <{ [1 x i8] }>* @alloc27, i32 0, i32 0, i32 0), [8 x i8] c"\01\00\00\00\00\00\00\00" }>, align 8
@alloc92 = private unnamed_addr constant <{ i8*, [16 x i8] }> <{ i8* getelementptr inbounds (<{ [11 x i8] }>, <{ [11 x i8] }>* @alloc95, i32 0, i32 0, i32 0), [16 x i8] c"\0B\00\00\00\00\00\00\00\1C\00\00\00Q\00\00\00" }>, align 8
@alloc94 = private unnamed_addr constant <{ i8*, [16 x i8] }> <{ i8* getelementptr inbounds (<{ [11 x i8] }>, <{ [11 x i8] }>* @alloc95, i32 0, i32 0, i32 0), [16 x i8] c"\0B\00\00\00\00\00\00\00\0E\00\00\00$\00\00\00" }>, align 8
@alloc96 = private unnamed_addr constant <{ i8*, [16 x i8] }> <{ i8* getelementptr inbounds (<{ [11 x i8] }>, <{ [11 x i8] }>* @alloc95, i32 0, i32 0, i32 0), [16 x i8] c"\0B\00\00\00\00\00\00\00\10\00\00\00\09\00\00\00" }>, align 8
@alloc25 = private unnamed_addr constant <{ [31 x i8] }> <{ [31 x i8] c"Child: After increment, num is " }>, align 1
@alloc26 = private unnamed_addr constant <{ i8*, [8 x i8], i8*, [8 x i8] }> <{ i8* getelementptr inbounds (<{ [31 x i8] }>, <{ [31 x i8] }>* @alloc25, i32 0, i32 0, i32 0), [8 x i8] c"\1F\00\00\00\00\00\00\00", i8* getelementptr inbounds (<{ [1 x i8] }>, <{ [1 x i8] }>* @alloc27, i32 0, i32 0, i32 0), [8 x i8] c"\01\00\00\00\00\00\00\00" }>, align 8
@__rustc_debug_gdb_scripts_section__ = linkonce_odr unnamed_addr constant [34 x i8] c"\01gdb_load_rust_pretty_printers.py\00", section ".debug_gdb_scripts", align 1

; <std::thread::Builder>::spawn_unchecked::<arc_heap_mutex::main::{closure#0}, ()>
; Function Attrs: nonlazybind uwtable
define internal void @_RINvMNtCs2bNvlddUlXM_3std6threadNtB3_7Builder15spawn_uncheckedNCNvCsh5b2sQBIbur_14arc_heap_mutex4main0uEB12_(%"std::result::Result<std::thread::JoinHandle<()>, std::io::Error>"* noalias nocapture sret dereferenceable(40) %0, %"std::thread::Builder"* noalias nocapture dereferenceable(40) %self, i64* nonnull %1) unnamed_addr #0 personality i32 (i32, i32, i64, %"unwind::libunwind::_Unwind_Exception"*, %"unwind::libunwind::_Unwind_Context"*)* @rust_eh_personality !dbg !428 {
start:
  %val.dbg.spill = alloca i64, align 8
  %2 = alloca i128, align 8
  %3 = alloca { {}*, [3 x i64]* }, align 8
  %stack_size.dbg.spill1 = alloca i64, align 8
  %4 = alloca { i8*, i32 }, align 8
  %stack_size.dbg.spill = alloca { i64, i64 }, align 8
  %_46 = alloca i8, align 1
  %_45 = alloca i8, align 1
  %_44 = alloca i8, align 1
  %_43 = alloca i8, align 1
  %_42 = alloca i8, align 1
  %_40 = alloca i64*, align 8
  %_37 = alloca %"std::io::Error", align 8
  %_36 = alloca %"std::io::Error", align 8
  %err = alloca %"std::io::Error", align 8
  %_33 = alloca %"[closure@std::thread::Builder::spawn_unchecked<[closure@src/main.rs:12:26: 18:3], ()>::{closure#0}]", align 8
  %_27 = alloca %"std::result::Result<std::sys::unix::thread::Thread, std::io::Error>", align 8
  %_26 = alloca %"std::result::Result<std::sys::unix::thread::Thread, std::io::Error>", align 8
  %_24 = alloca { i64, i64 }, align 8
  %_23 = alloca %"std::thread::JoinInner<()>", align 8
  %_22 = alloca %"std::thread::JoinHandle<()>", align 8
  %main = alloca %"[closure@std::thread::Builder::spawn_unchecked<[closure@src/main.rs:12:26: 18:3], ()>::{closure#0}]", align 8
  %_18 = alloca i64*, align 8
  %_17 = alloca i64*, align 8
  %output_capture = alloca i64*, align 8
  %their_packet = alloca i64*, align 8
  %_13 = alloca %"std::option::Option<std::result::Result<(), std::boxed::Box<dyn std::any::Any + std::marker::Send>>>", align 8
  %_12 = alloca %"std::cell::UnsafeCell<std::option::Option<std::result::Result<(), std::boxed::Box<dyn std::any::Any + std::marker::Send>>>>", align 8
  %my_packet = alloca i64*, align 8
  %their_thread = alloca i64*, align 8
  %_8 = alloca %"std::option::Option<std::string::String>", align 8
  %my_thread = alloca i64*, align 8
  %name = alloca %"std::option::Option<std::string::String>", align 8
  %f = alloca i64*, align 8
  store i64* %1, i64** %f, align 8
  call void @llvm.dbg.declare(metadata %"std::thread::Builder"* %self, metadata !506, metadata !DIExpression()), !dbg !531
  call void @llvm.dbg.declare(metadata i64** %f, metadata !507, metadata !DIExpression()), !dbg !532
  call void @llvm.dbg.declare(metadata %"std::option::Option<std::string::String>"* %name, metadata !508, metadata !DIExpression()), !dbg !533
  call void @llvm.dbg.declare(metadata i64** %my_thread, metadata !513, metadata !DIExpression()), !dbg !534
  call void @llvm.dbg.declare(metadata i64** %their_thread, metadata !515, metadata !DIExpression()), !dbg !535
  call void @llvm.dbg.declare(metadata i64** %my_packet, metadata !517, metadata !DIExpression()), !dbg !536
  call void @llvm.dbg.declare(metadata i64** %their_packet, metadata !519, metadata !DIExpression()), !dbg !537
  call void @llvm.dbg.declare(metadata i64** %output_capture, metadata !521, metadata !DIExpression()), !dbg !538
  call void @llvm.dbg.declare(metadata %"[closure@std::thread::Builder::spawn_unchecked<[closure@src/main.rs:12:26: 18:3], ()>::{closure#0}]"* %main, metadata !523, metadata !DIExpression()), !dbg !539
  call void @llvm.dbg.declare(metadata %"std::io::Error"* %err, metadata !525, metadata !DIExpression()), !dbg !540
  store i8 0, i8* %_42, align 1, !dbg !541
  store i8 0, i8* %_46, align 1, !dbg !541
  store i8 0, i8* %_44, align 1, !dbg !541
  store i8 0, i8* %_43, align 1, !dbg !541
  store i8 0, i8* %_45, align 1, !dbg !541
  store i8 1, i8* %_46, align 1, !dbg !541
  store i8 1, i8* %_45, align 1, !dbg !541
  %5 = bitcast %"std::thread::Builder"* %self to %"std::option::Option<std::string::String>"*, !dbg !541
  %6 = bitcast %"std::option::Option<std::string::String>"* %name to i8*, !dbg !541
  %7 = bitcast %"std::option::Option<std::string::String>"* %5 to i8*, !dbg !541
  call void @llvm.memcpy.p0i8.p0i8.i64(i8* align 8 %6, i8* align 8 %7, i64 24, i1 false), !dbg !541
  %8 = getelementptr inbounds %"std::thread::Builder", %"std::thread::Builder"* %self, i32 0, i32 3, !dbg !542
  %9 = getelementptr inbounds { i64, i64 }, { i64, i64 }* %8, i32 0, i32 0, !dbg !542
  %stack_size.0 = load i64, i64* %9, align 8, !dbg !542, !range !543
  %10 = getelementptr inbounds { i64, i64 }, { i64, i64 }* %8, i32 0, i32 1, !dbg !542
  %stack_size.1 = load i64, i64* %10, align 8, !dbg !542
  %11 = getelementptr inbounds { i64, i64 }, { i64, i64 }* %stack_size.dbg.spill, i32 0, i32 0, !dbg !542
  store i64 %stack_size.0, i64* %11, align 8, !dbg !542
  %12 = getelementptr inbounds { i64, i64 }, { i64, i64 }* %stack_size.dbg.spill, i32 0, i32 1, !dbg !542
  store i64 %stack_size.1, i64* %12, align 8, !dbg !542
  call void @llvm.dbg.declare(metadata { i64, i64 }* %stack_size.dbg.spill, metadata !510, metadata !DIExpression()), !dbg !544
; invoke <core::option::Option<usize>>::unwrap_or_else::<std::sys_common::thread::min_stack>
  %stack_size = invoke i64 @_RINvMNtCs3p84KrD9aKt_4core6optionINtB3_6OptionjE14unwrap_or_elseNvNtNtCs2bNvlddUlXM_3std10sys_common6thread9min_stackECsh5b2sQBIbur_14arc_heap_mutex(i64 %stack_size.0, i64 %stack_size.1)
          to label %bb1 unwind label %cleanup, !dbg !545

bb1:                                              ; preds = %start
  store i64 %stack_size, i64* %stack_size.dbg.spill1, align 8, !dbg !545
  call void @llvm.dbg.declare(metadata i64* %stack_size.dbg.spill1, metadata !511, metadata !DIExpression()), !dbg !546
  store i8 0, i8* %_45, align 1, !dbg !547
  %13 = bitcast %"std::option::Option<std::string::String>"* %_8 to i8*, !dbg !547
  %14 = bitcast %"std::option::Option<std::string::String>"* %name to i8*, !dbg !547
  call void @llvm.memcpy.p0i8.p0i8.i64(i8* align 8 %13, i8* align 8 %14, i64 24, i1 false), !dbg !547
; invoke std::thread::Thread::new
  %15 = invoke nonnull i64* @_ZN3std6thread6Thread3new17hb6f98794e2c3d412E(%"std::option::Option<std::string::String>"* noalias nocapture dereferenceable(24) %_8)
          to label %bb2 unwind label %cleanup, !dbg !548

bb2:                                              ; preds = %bb1
  store i64* %15, i64** %my_thread, align 8, !dbg !548
; invoke <std::thread::Thread as core::clone::Clone>::clone
  %16 = invoke nonnull i64* @_RNvXsk_NtCs2bNvlddUlXM_3std6threadNtB5_6ThreadNtNtCs3p84KrD9aKt_4core5clone5Clone5cloneCsh5b2sQBIbur_14arc_heap_mutex(i64** noalias readonly align 8 dereferenceable(8) %my_thread)
          to label %bb3 unwind label %cleanup2, !dbg !549

bb3:                                              ; preds = %bb2
  store i64* %16, i64** %their_thread, align 8, !dbg !549
  store i8 1, i8* %_44, align 1, !dbg !550
  %17 = bitcast %"std::option::Option<std::result::Result<(), std::boxed::Box<dyn std::any::Any + std::marker::Send>>>"* %_13 to i64*, !dbg !551
  store i64 0, i64* %17, align 8, !dbg !551
; invoke <core::cell::UnsafeCell<core::option::Option<core::result::Result<(), alloc::boxed::Box<dyn core::any::Any + core::marker::Send>>>>>::new
  invoke void @_RNvMsJ_NtCs3p84KrD9aKt_4core4cellINtB5_10UnsafeCellINtNtB7_6option6OptionINtNtB7_6result6ResultuINtNtCs8RW06R9lH2S_5alloc5boxed3BoxDNtNtB7_3any3AnyNtNtB7_6marker4SendEL_EEEE3newCsh5b2sQBIbur_14arc_heap_mutex(%"std::cell::UnsafeCell<std::option::Option<std::result::Result<(), std::boxed::Box<dyn std::any::Any + std::marker::Send>>>>"* noalias nocapture sret dereferenceable(24) %_12, %"std::option::Option<std::result::Result<(), std::boxed::Box<dyn std::any::Any + std::marker::Send>>>"* noalias nocapture dereferenceable(24) %_13)
          to label %bb4 unwind label %cleanup3, !dbg !552

bb4:                                              ; preds = %bb3
; invoke <alloc::sync::Arc<core::cell::UnsafeCell<core::option::Option<core::result::Result<(), alloc::boxed::Box<dyn core::any::Any + core::marker::Send>>>>>>::new
  %18 = invoke nonnull i64* @_RNvMsa_NtCs8RW06R9lH2S_5alloc4syncINtB5_3ArcINtNtCs3p84KrD9aKt_4core4cell10UnsafeCellINtNtBL_6option6OptionINtNtBL_6result6ResultuINtNtB7_5boxed3BoxDNtNtBL_3any3AnyNtNtBL_6marker4SendEL_EEEEE3newCsh5b2sQBIbur_14arc_heap_mutex(%"std::cell::UnsafeCell<std::option::Option<std::result::Result<(), std::boxed::Box<dyn std::any::Any + std::marker::Send>>>>"* noalias nocapture dereferenceable(24) %_12)
          to label %bb5 unwind label %cleanup3, !dbg !553

bb5:                                              ; preds = %bb4
  store i64* %18, i64** %my_packet, align 8, !dbg !553
; invoke <alloc::sync::Arc<core::cell::UnsafeCell<core::option::Option<core::result::Result<(), alloc::boxed::Box<dyn core::any::Any + core::marker::Send>>>>> as core::clone::Clone>::clone
  %19 = invoke nonnull i64* @_RNvXsk_NtCs8RW06R9lH2S_5alloc4syncINtB5_3ArcINtNtCs3p84KrD9aKt_4core4cell10UnsafeCellINtNtBL_6option6OptionINtNtBL_6result6ResultuINtNtB7_5boxed3BoxDNtNtBL_3any3AnyNtNtBL_6marker4SendEL_EEEEENtNtBL_5clone5Clone5cloneCsh5b2sQBIbur_14arc_heap_mutex(i64** noalias readonly align 8 dereferenceable(8) %my_packet)
          to label %bb6 unwind label %cleanup4, !dbg !554

bb6:                                              ; preds = %bb5
  store i64* %19, i64** %their_packet, align 8, !dbg !554
  store i8 1, i8* %_43, align 1, !dbg !555
  %20 = bitcast i64** %_17 to {}**, !dbg !556
  store {}* null, {}** %20, align 8, !dbg !556
  %21 = load i64*, i64** %_17, align 8, !dbg !557
; invoke std::io::stdio::set_output_capture
  %22 = invoke i64* @_ZN3std2io5stdio18set_output_capture17he178fcaf92baad96E(i64* %21)
          to label %bb7 unwind label %cleanup5, !dbg !557

bb7:                                              ; preds = %bb6
  store i64* %22, i64** %output_capture, align 8, !dbg !557
  store i8 1, i8* %_42, align 1, !dbg !558
; invoke <core::option::Option<alloc::sync::Arc<std::sync::mutex::Mutex<alloc::vec::Vec<u8>>>> as core::clone::Clone>::clone
  %_19 = invoke i64* @_RNvXs8_NtCs3p84KrD9aKt_4core6optionINtB5_6OptionINtNtCs8RW06R9lH2S_5alloc4sync3ArcINtNtNtCs2bNvlddUlXM_3std4sync5mutex5MutexINtNtBP_3vec3VechEEEENtNtB7_5clone5Clone5cloneCsh5b2sQBIbur_14arc_heap_mutex(i64** noalias readonly align 8 dereferenceable(8) %output_capture)
          to label %bb8 unwind label %cleanup6, !dbg !559

bb8:                                              ; preds = %bb7
; invoke std::io::stdio::set_output_capture
  %23 = invoke i64* @_ZN3std2io5stdio18set_output_capture17he178fcaf92baad96E(i64* %_19)
          to label %bb9 unwind label %cleanup6, !dbg !560

bb9:                                              ; preds = %bb8
  store i64* %23, i64** %_18, align 8, !dbg !560
; invoke core::ptr::drop_in_place::<core::option::Option<alloc::sync::Arc<std::sync::mutex::Mutex<alloc::vec::Vec<u8>>>>>
  invoke void @_RINvNtCs3p84KrD9aKt_4core3ptr13drop_in_placeINtNtB4_6option6OptionINtNtCs8RW06R9lH2S_5alloc4sync3ArcINtNtNtCs2bNvlddUlXM_3std4sync5mutex5MutexINtNtB17_3vec3VechEEEEECsh5b2sQBIbur_14arc_heap_mutex(i64** %_18)
          to label %bb10 unwind label %cleanup6, !dbg !561

bb10:                                             ; preds = %bb9
  store i8 0, i8* %_44, align 1, !dbg !562
  store i8 0, i8* %_42, align 1, !dbg !562
  store i8 0, i8* %_46, align 1, !dbg !562
  store i8 0, i8* %_43, align 1, !dbg !562
  %24 = bitcast %"[closure@std::thread::Builder::spawn_unchecked<[closure@src/main.rs:12:26: 18:3], ()>::{closure#0}]"* %main to i64**, !dbg !562
  %25 = load i64*, i64** %their_thread, align 8, !dbg !562, !nonnull !4
  store i64* %25, i64** %24, align 8, !dbg !562
  %26 = getelementptr inbounds %"[closure@std::thread::Builder::spawn_unchecked<[closure@src/main.rs:12:26: 18:3], ()>::{closure#0}]", %"[closure@std::thread::Builder::spawn_unchecked<[closure@src/main.rs:12:26: 18:3], ()>::{closure#0}]"* %main, i32 0, i32 3, !dbg !562
  %27 = load i64*, i64** %output_capture, align 8, !dbg !562
  store i64* %27, i64** %26, align 8, !dbg !562
  %28 = getelementptr inbounds %"[closure@std::thread::Builder::spawn_unchecked<[closure@src/main.rs:12:26: 18:3], ()>::{closure#0}]", %"[closure@std::thread::Builder::spawn_unchecked<[closure@src/main.rs:12:26: 18:3], ()>::{closure#0}]"* %main, i32 0, i32 5, !dbg !562
  %29 = load i64*, i64** %f, align 8, !dbg !562, !nonnull !4
  store i64* %29, i64** %28, align 8, !dbg !562
  %30 = getelementptr inbounds %"[closure@std::thread::Builder::spawn_unchecked<[closure@src/main.rs:12:26: 18:3], ()>::{closure#0}]", %"[closure@std::thread::Builder::spawn_unchecked<[closure@src/main.rs:12:26: 18:3], ()>::{closure#0}]"* %main, i32 0, i32 7, !dbg !562
  %31 = load i64*, i64** %their_packet, align 8, !dbg !562, !nonnull !4
  store i64* %31, i64** %30, align 8, !dbg !562
  %32 = bitcast %"[closure@std::thread::Builder::spawn_unchecked<[closure@src/main.rs:12:26: 18:3], ()>::{closure#0}]"* %_33 to i8*, !dbg !563
  %33 = bitcast %"[closure@std::thread::Builder::spawn_unchecked<[closure@src/main.rs:12:26: 18:3], ()>::{closure#0}]"* %main to i8*, !dbg !563
  call void @llvm.memcpy.p0i8.p0i8.i64(i8* align 8 %32, i8* align 8 %33, i64 32, i1 false), !dbg !563
  call void @llvm.dbg.declare(metadata %"[closure@std::thread::Builder::spawn_unchecked<[closure@src/main.rs:12:26: 18:3], ()>::{closure#0}]"* %_33, metadata !564, metadata !DIExpression()), !dbg !575
; invoke alloc::alloc::exchange_malloc
  %34 = invoke i8* @_RNvNtCs8RW06R9lH2S_5alloc5alloc15exchange_mallocCsh5b2sQBIbur_14arc_heap_mutex(i64 32, i64 8)
          to label %_RNvMNtCs8RW06R9lH2S_5alloc5boxedINtB2_3BoxNCINvMNtCs2bNvlddUlXM_3std6threadNtBK_7Builder15spawn_uncheckedNCNvCsh5b2sQBIbur_14arc_heap_mutex4main0uE0E3newB1J_.exit unwind label %cleanup6, !dbg !577

_RNvMNtCs8RW06R9lH2S_5alloc5boxedINtB2_3BoxNCINvMNtCs2bNvlddUlXM_3std6threadNtBK_7Builder15spawn_uncheckedNCNvCsh5b2sQBIbur_14arc_heap_mutex4main0uE0E3newB1J_.exit: ; preds = %bb10
  %35 = bitcast i8* %34 to %"[closure@std::thread::Builder::spawn_unchecked<[closure@src/main.rs:12:26: 18:3], ()>::{closure#0}]"*, !dbg !577
  %36 = bitcast %"[closure@std::thread::Builder::spawn_unchecked<[closure@src/main.rs:12:26: 18:3], ()>::{closure#0}]"* %_33 to i8*, !dbg !578
  call void @llvm.memcpy.p0i8.p0i8.i64(i8* align 8 %34, i8* align 8 %36, i64 32, i1 false), !dbg !578
  br label %bb11, !dbg !579

bb11:                                             ; preds = %_RNvMNtCs8RW06R9lH2S_5alloc5boxedINtB2_3BoxNCINvMNtCs2bNvlddUlXM_3std6threadNtBK_7Builder15spawn_uncheckedNCNvCsh5b2sQBIbur_14arc_heap_mutex4main0uE0E3newB1J_.exit
  %37 = bitcast %"[closure@std::thread::Builder::spawn_unchecked<[closure@src/main.rs:12:26: 18:3], ()>::{closure#0}]"* %35 to {}*, !dbg !580
  %38 = bitcast {}* %37 to i8*, !dbg !580
  %_31.0 = bitcast i8* %38 to {}*, !dbg !580
  %39 = getelementptr inbounds { {}*, [3 x i64]* }, { {}*, [3 x i64]* }* %3, i32 0, i32 0, !dbg !581
  store {}* %_31.0, {}** %39, align 8, !dbg !581
  %40 = getelementptr inbounds { {}*, [3 x i64]* }, { {}*, [3 x i64]* }* %3, i32 0, i32 1, !dbg !581
  store [3 x i64]* bitcast ({ void (%"[closure@std::thread::Builder::spawn_unchecked<[closure@src/main.rs:12:26: 18:3], ()>::{closure#0}]"*)*, i64, i64, void (%"[closure@std::thread::Builder::spawn_unchecked<[closure@src/main.rs:12:26: 18:3], ()>::{closure#0}]"*)* }* @vtable.0 to [3 x i64]*), [3 x i64]** %40, align 8, !dbg !581
  %41 = getelementptr inbounds { {}*, [3 x i64]* }, { {}*, [3 x i64]* }* %3, i32 0, i32 0, !dbg !581
  %_30.0 = load {}*, {}** %41, align 8, !dbg !581, !nonnull !4
  %42 = getelementptr inbounds { {}*, [3 x i64]* }, { {}*, [3 x i64]* }* %3, i32 0, i32 1, !dbg !581
  %_30.1 = load [3 x i64]*, [3 x i64]** %42, align 8, !dbg !581, !nonnull !4
  br label %bb12, !dbg !581

bb12:                                             ; preds = %bb11
; invoke std::sys::unix::thread::Thread::new
  invoke void @_ZN3std3sys4unix6thread6Thread3new17h3bc268f2aed68233E(%"std::result::Result<std::sys::unix::thread::Thread, std::io::Error>"* noalias nocapture sret dereferenceable(24) %_27, i64 %stack_size, {}* noalias nonnull align 1 %_30.0, [3 x i64]* noalias readonly align 8 dereferenceable(24) %_30.1)
          to label %bb13 unwind label %cleanup6, !dbg !582

bb13:                                             ; preds = %bb12
; invoke <core::result::Result<std::sys::unix::thread::Thread, std::io::error::Error> as core::ops::try::Try>::into_result
  invoke void @_RNvXsw_NtCs3p84KrD9aKt_4core6resultINtB5_6ResultNtNtNtNtCs2bNvlddUlXM_3std3sys4unix6thread6ThreadNtNtNtBS_2io5error5ErrorENtNtNtB7_3ops3try3Try11into_resultCsh5b2sQBIbur_14arc_heap_mutex(%"std::result::Result<std::sys::unix::thread::Thread, std::io::Error>"* noalias nocapture sret dereferenceable(24) %_26, %"std::result::Result<std::sys::unix::thread::Thread, std::io::Error>"* noalias nocapture dereferenceable(24) %_27)
          to label %bb14 unwind label %cleanup6, !dbg !582

bb14:                                             ; preds = %bb13
  %43 = bitcast %"std::result::Result<std::sys::unix::thread::Thread, std::io::Error>"* %_26 to i64*, !dbg !583
  %_34 = load i64, i64* %43, align 8, !dbg !583, !range !543
  switch i64 %_34, label %bb16 [
    i64 0, label %bb15
    i64 1, label %bb17
  ], !dbg !583

bb15:                                             ; preds = %bb14
  %44 = bitcast %"std::result::Result<std::sys::unix::thread::Thread, std::io::Error>"* %_26 to %"std::result::Result<std::sys::unix::thread::Thread, std::io::Error>::Ok"*, !dbg !582
  %45 = getelementptr inbounds %"std::result::Result<std::sys::unix::thread::Thread, std::io::Error>::Ok", %"std::result::Result<std::sys::unix::thread::Thread, std::io::Error>::Ok"* %44, i32 0, i32 1, !dbg !582
  %val = load i64, i64* %45, align 8, !dbg !582
  store i64 %val, i64* %val.dbg.spill, align 8, !dbg !582
  call void @llvm.dbg.declare(metadata i64* %val.dbg.spill, metadata !527, metadata !DIExpression()), !dbg !584
  %46 = bitcast { i64, i64 }* %_24 to %"std::option::Option<std::sys::unix::thread::Thread>::Some"*, !dbg !585
  %47 = getelementptr inbounds %"std::option::Option<std::sys::unix::thread::Thread>::Some", %"std::option::Option<std::sys::unix::thread::Thread>::Some"* %46, i32 0, i32 1, !dbg !585
  store i64 %val, i64* %47, align 8, !dbg !585
  %48 = bitcast { i64, i64 }* %_24 to i64*, !dbg !585
  store i64 1, i64* %48, align 8, !dbg !585
  %_39 = load i64*, i64** %my_thread, align 8, !dbg !586, !nonnull !4
  %_41 = load i64*, i64** %my_packet, align 8, !dbg !587, !nonnull !4
  store i64* %_41, i64** %_40, align 8, !dbg !588
  %49 = bitcast %"std::thread::JoinInner<()>"* %_23 to { i64, i64 }*, !dbg !589
  %50 = getelementptr inbounds { i64, i64 }, { i64, i64 }* %_24, i32 0, i32 0, !dbg !589
  %51 = load i64, i64* %50, align 8, !dbg !589, !range !543
  %52 = getelementptr inbounds { i64, i64 }, { i64, i64 }* %_24, i32 0, i32 1, !dbg !589
  %53 = load i64, i64* %52, align 8, !dbg !589
  %54 = getelementptr inbounds { i64, i64 }, { i64, i64 }* %49, i32 0, i32 0, !dbg !589
  store i64 %51, i64* %54, align 8, !dbg !589
  %55 = getelementptr inbounds { i64, i64 }, { i64, i64 }* %49, i32 0, i32 1, !dbg !589
  store i64 %53, i64* %55, align 8, !dbg !589
  %56 = getelementptr inbounds %"std::thread::JoinInner<()>", %"std::thread::JoinInner<()>"* %_23, i32 0, i32 3, !dbg !589
  store i64* %_39, i64** %56, align 8, !dbg !589
  %57 = getelementptr inbounds %"std::thread::JoinInner<()>", %"std::thread::JoinInner<()>"* %_23, i32 0, i32 5, !dbg !589
  %58 = load i64*, i64** %_40, align 8, !dbg !589, !nonnull !4
  store i64* %58, i64** %57, align 8, !dbg !589
  %59 = bitcast %"std::thread::JoinHandle<()>"* %_22 to %"std::thread::JoinInner<()>"*, !dbg !590
  %60 = bitcast %"std::thread::JoinInner<()>"* %59 to i8*, !dbg !590
  %61 = bitcast %"std::thread::JoinInner<()>"* %_23 to i8*, !dbg !590
  call void @llvm.memcpy.p0i8.p0i8.i64(i8* align 8 %60, i8* align 8 %61, i64 32, i1 false), !dbg !590
  %62 = bitcast %"std::result::Result<std::thread::JoinHandle<()>, std::io::Error>"* %0 to %"std::result::Result<std::thread::JoinHandle<()>, std::io::Error>::Ok"*, !dbg !591
  %63 = getelementptr inbounds %"std::result::Result<std::thread::JoinHandle<()>, std::io::Error>::Ok", %"std::result::Result<std::thread::JoinHandle<()>, std::io::Error>::Ok"* %62, i32 0, i32 1, !dbg !591
  %64 = bitcast %"std::thread::JoinHandle<()>"* %63 to i8*, !dbg !591
  %65 = bitcast %"std::thread::JoinHandle<()>"* %_22 to i8*, !dbg !591
  call void @llvm.memcpy.p0i8.p0i8.i64(i8* align 8 %64, i8* align 8 %65, i64 32, i1 false), !dbg !591
  %66 = bitcast %"std::result::Result<std::thread::JoinHandle<()>, std::io::Error>"* %0 to i64*, !dbg !591
  store i64 0, i64* %66, align 8, !dbg !591
  store i8 0, i8* %_42, align 1, !dbg !592
  store i8 0, i8* %_43, align 1, !dbg !593
  store i8 0, i8* %_44, align 1, !dbg !594
  store i8 0, i8* %_45, align 1, !dbg !595
  br label %bb22, !dbg !595

bb16:                                             ; preds = %bb14
  unreachable, !dbg !582

bb17:                                             ; preds = %bb14
  %67 = bitcast %"std::result::Result<std::sys::unix::thread::Thread, std::io::Error>"* %_26 to %"std::result::Result<std::sys::unix::thread::Thread, std::io::Error>::Err"*, !dbg !583
  %68 = getelementptr inbounds %"std::result::Result<std::sys::unix::thread::Thread, std::io::Error>::Err", %"std::result::Result<std::sys::unix::thread::Thread, std::io::Error>::Err"* %67, i32 0, i32 1, !dbg !583
  %69 = bitcast %"std::io::Error"* %err to i8*, !dbg !583
  %70 = bitcast %"std::io::Error"* %68 to i8*, !dbg !583
  call void @llvm.memcpy.p0i8.p0i8.i64(i8* align 8 %69, i8* align 8 %70, i64 16, i1 false), !dbg !583
  %71 = bitcast %"std::io::Error"* %_37 to i8*, !dbg !540
  %72 = bitcast %"std::io::Error"* %err to i8*, !dbg !540
  call void @llvm.memcpy.p0i8.p0i8.i64(i8* align 8 %71, i8* align 8 %72, i64 16, i1 false), !dbg !540
  %73 = bitcast %"std::io::Error"* %_37 to i128*, !dbg !540
  %74 = load i128, i128* %73, align 8, !dbg !540
; invoke <std::io::error::Error as core::convert::From<std::io::error::Error>>::from
  %75 = invoke i128 @_RNvXs2_NtCs3p84KrD9aKt_4core7convertNtNtNtCs2bNvlddUlXM_3std2io5error5ErrorINtB5_4FromBy_E4fromCsh5b2sQBIbur_14arc_heap_mutex(i128 %74)
          to label %bb18 unwind label %cleanup7, !dbg !540

bb18:                                             ; preds = %bb17
  store i128 %75, i128* %2, align 8, !dbg !540
  %76 = bitcast %"std::io::Error"* %_36 to i8*, !dbg !540
  %77 = bitcast i128* %2 to i8*, !dbg !540
  call void @llvm.memcpy.p0i8.p0i8.i64(i8* align 8 %76, i8* align 8 %77, i64 16, i1 false), !dbg !540
  %78 = bitcast %"std::io::Error"* %_36 to i128*, !dbg !596
  %79 = load i128, i128* %78, align 8, !dbg !596
; invoke <core::result::Result<std::thread::JoinHandle<()>, std::io::error::Error> as core::ops::try::Try>::from_error
  invoke void @_RNvXsw_NtCs3p84KrD9aKt_4core6resultINtB5_6ResultINtNtCs2bNvlddUlXM_3std6thread10JoinHandleuENtNtNtBP_2io5error5ErrorENtNtNtB7_3ops3try3Try10from_errorCsh5b2sQBIbur_14arc_heap_mutex(%"std::result::Result<std::thread::JoinHandle<()>, std::io::Error>"* noalias nocapture sret dereferenceable(40) %0, i128 %79)
          to label %bb19 unwind label %cleanup7, !dbg !596

bb19:                                             ; preds = %bb18
  store i8 0, i8* %_42, align 1, !dbg !592
  store i8 0, i8* %_43, align 1, !dbg !593
; invoke core::ptr::drop_in_place::<alloc::sync::Arc<core::cell::UnsafeCell<core::option::Option<core::result::Result<(), alloc::boxed::Box<dyn core::any::Any + core::marker::Send>>>>>>
  invoke void @_RINvNtCs3p84KrD9aKt_4core3ptr13drop_in_placeINtNtCs8RW06R9lH2S_5alloc4sync3ArcINtNtB4_4cell10UnsafeCellINtNtB4_6option6OptionINtNtB4_6result6ResultuINtNtBL_5boxed3BoxDNtNtB4_3any3AnyNtNtB4_6marker4SendEL_EEEEEECsh5b2sQBIbur_14arc_heap_mutex(i64** %my_packet)
          to label %bb20 unwind label %cleanup8, !dbg !597

bb20:                                             ; preds = %bb19
  store i8 0, i8* %_44, align 1, !dbg !594
; invoke core::ptr::drop_in_place::<std::thread::Thread>
  invoke void @_RINvNtCs3p84KrD9aKt_4core3ptr13drop_in_placeNtNtCs2bNvlddUlXM_3std6thread6ThreadECsh5b2sQBIbur_14arc_heap_mutex(i64** %my_thread)
          to label %bb21 unwind label %cleanup9, !dbg !598

bb21:                                             ; preds = %bb20
  store i8 0, i8* %_45, align 1, !dbg !595
  br label %bb22, !dbg !595

bb22:                                             ; preds = %bb15, %bb21
  ret void, !dbg !599

bb23:                                             ; preds = %cleanup8
; call core::ptr::drop_in_place::<std::thread::Thread>
  call void @_RINvNtCs3p84KrD9aKt_4core3ptr13drop_in_placeNtNtCs2bNvlddUlXM_3std6thread6ThreadECsh5b2sQBIbur_14arc_heap_mutex(i64** %my_thread) #14, !dbg !598
  br label %bb24, !dbg !598

bb24:                                             ; preds = %cleanup9, %bb23
; call core::ptr::drop_in_place::<core::result::Result<std::thread::JoinHandle<()>, std::io::error::Error>>
  call void @_RINvNtCs3p84KrD9aKt_4core3ptr13drop_in_placeINtNtB4_6result6ResultINtNtCs2bNvlddUlXM_3std6thread10JoinHandleuENtNtNtB17_2io5error5ErrorEECsh5b2sQBIbur_14arc_heap_mutex(%"std::result::Result<std::thread::JoinHandle<()>, std::io::Error>"* %0) #14, !dbg !595
  br label %bb30, !dbg !595

bb25:                                             ; preds = %cleanup7
; call core::ptr::drop_in_place::<alloc::sync::Arc<core::cell::UnsafeCell<core::option::Option<core::result::Result<(), alloc::boxed::Box<dyn core::any::Any + core::marker::Send>>>>>>
  call void @_RINvNtCs3p84KrD9aKt_4core3ptr13drop_in_placeINtNtCs8RW06R9lH2S_5alloc4sync3ArcINtNtB4_4cell10UnsafeCellINtNtB4_6option6OptionINtNtB4_6result6ResultuINtNtBL_5boxed3BoxDNtNtB4_3any3AnyNtNtB4_6marker4SendEL_EEEEEECsh5b2sQBIbur_14arc_heap_mutex(i64** %my_packet) #14, !dbg !597
  br label %bb26, !dbg !597

bb26:                                             ; preds = %bb25
; call core::ptr::drop_in_place::<std::thread::Thread>
  call void @_RINvNtCs3p84KrD9aKt_4core3ptr13drop_in_placeNtNtCs2bNvlddUlXM_3std6thread6ThreadECsh5b2sQBIbur_14arc_heap_mutex(i64** %my_thread) #14, !dbg !598
  br label %bb31, !dbg !598

bb27:                                             ; preds = %bb34, %bb35, %cleanup4
; call core::ptr::drop_in_place::<alloc::sync::Arc<core::cell::UnsafeCell<core::option::Option<core::result::Result<(), alloc::boxed::Box<dyn core::any::Any + core::marker::Send>>>>>>
  call void @_RINvNtCs3p84KrD9aKt_4core3ptr13drop_in_placeINtNtCs8RW06R9lH2S_5alloc4sync3ArcINtNtB4_4cell10UnsafeCellINtNtB4_6option6OptionINtNtB4_6result6ResultuINtNtBL_5boxed3BoxDNtNtB4_3any3AnyNtNtB4_6marker4SendEL_EEEEEECsh5b2sQBIbur_14arc_heap_mutex(i64** %my_packet) #14, !dbg !597
  br label %bb37, !dbg !597

bb28:                                             ; preds = %bb36, %bb37, %cleanup2
; call core::ptr::drop_in_place::<std::thread::Thread>
  call void @_RINvNtCs3p84KrD9aKt_4core3ptr13drop_in_placeNtNtCs2bNvlddUlXM_3std6thread6ThreadECsh5b2sQBIbur_14arc_heap_mutex(i64** %my_thread) #14, !dbg !598
  br label %bb39, !dbg !598

bb29:                                             ; preds = %bb31, %bb38, %bb39
  %80 = load i8, i8* %_46, align 1, !dbg !595, !range !600
  %81 = trunc i8 %80 to i1, !dbg !595
  br i1 %81, label %bb40, label %bb30, !dbg !595

bb30:                                             ; preds = %bb24, %bb40, %bb29
  %82 = bitcast { i8*, i32 }* %4 to i8**, !dbg !601
  %83 = load i8*, i8** %82, align 8, !dbg !601
  %84 = getelementptr inbounds { i8*, i32 }, { i8*, i32 }* %4, i32 0, i32 1, !dbg !601
  %85 = load i32, i32* %84, align 8, !dbg !601
  %86 = insertvalue { i8*, i32 } undef, i8* %83, 0, !dbg !601
  %87 = insertvalue { i8*, i32 } %86, i32 %85, 1, !dbg !601
  resume { i8*, i32 } %87, !dbg !601

bb31:                                             ; preds = %bb26
  br label %bb29, !dbg !595

bb32:                                             ; preds = %bb33
; call core::ptr::drop_in_place::<core::option::Option<alloc::sync::Arc<std::sync::mutex::Mutex<alloc::vec::Vec<u8>>>>>
  call void @_RINvNtCs3p84KrD9aKt_4core3ptr13drop_in_placeINtNtB4_6option6OptionINtNtCs8RW06R9lH2S_5alloc4sync3ArcINtNtNtCs2bNvlddUlXM_3std4sync5mutex5MutexINtNtB17_3vec3VechEEEEECsh5b2sQBIbur_14arc_heap_mutex(i64** %output_capture) #14, !dbg !592
  br label %bb35, !dbg !592

bb33:                                             ; preds = %cleanup6
  %88 = load i8, i8* %_42, align 1, !dbg !592, !range !600
  %89 = trunc i8 %88 to i1, !dbg !592
  br i1 %89, label %bb32, label %bb35, !dbg !592

bb34:                                             ; preds = %bb35
; call core::ptr::drop_in_place::<alloc::sync::Arc<core::cell::UnsafeCell<core::option::Option<core::result::Result<(), alloc::boxed::Box<dyn core::any::Any + core::marker::Send>>>>>>
  call void @_RINvNtCs3p84KrD9aKt_4core3ptr13drop_in_placeINtNtCs8RW06R9lH2S_5alloc4sync3ArcINtNtB4_4cell10UnsafeCellINtNtB4_6option6OptionINtNtB4_6result6ResultuINtNtBL_5boxed3BoxDNtNtB4_3any3AnyNtNtB4_6marker4SendEL_EEEEEECsh5b2sQBIbur_14arc_heap_mutex(i64** %their_packet) #14, !dbg !593
  br label %bb27, !dbg !593

bb35:                                             ; preds = %bb32, %bb33, %cleanup5
  %90 = load i8, i8* %_43, align 1, !dbg !593, !range !600
  %91 = trunc i8 %90 to i1, !dbg !593
  br i1 %91, label %bb34, label %bb27, !dbg !593

bb36:                                             ; preds = %bb37
; call core::ptr::drop_in_place::<std::thread::Thread>
  call void @_RINvNtCs3p84KrD9aKt_4core3ptr13drop_in_placeNtNtCs2bNvlddUlXM_3std6thread6ThreadECsh5b2sQBIbur_14arc_heap_mutex(i64** %their_thread) #14, !dbg !594
  br label %bb28, !dbg !594

bb37:                                             ; preds = %bb27, %cleanup3
  %92 = load i8, i8* %_44, align 1, !dbg !594, !range !600
  %93 = trunc i8 %92 to i1, !dbg !594
  br i1 %93, label %bb36, label %bb28, !dbg !594

bb38:                                             ; preds = %bb39
; call core::ptr::drop_in_place::<core::option::Option<alloc::string::String>>
  call void @_RINvNtCs3p84KrD9aKt_4core3ptr13drop_in_placeINtNtB4_6option6OptionNtNtCs8RW06R9lH2S_5alloc6string6StringEECsh5b2sQBIbur_14arc_heap_mutex(%"std::option::Option<std::string::String>"* %name) #14, !dbg !595
  br label %bb29, !dbg !595

bb39:                                             ; preds = %bb28, %cleanup
  %94 = load i8, i8* %_45, align 1, !dbg !595, !range !600
  %95 = trunc i8 %94 to i1, !dbg !595
  br i1 %95, label %bb38, label %bb29, !dbg !595

bb40:                                             ; preds = %bb29
; call core::ptr::drop_in_place::<arc_heap_mutex::main::{closure#0}>
  call void @_RINvNtCs3p84KrD9aKt_4core3ptr13drop_in_placeNCNvCsh5b2sQBIbur_14arc_heap_mutex4main0EBK_(i64** %f) #14, !dbg !595
  br label %bb30, !dbg !595

cleanup:                                          ; preds = %bb1, %start
  %96 = landingpad { i8*, i32 }
          cleanup
  %97 = extractvalue { i8*, i32 } %96, 0
  %98 = extractvalue { i8*, i32 } %96, 1
  %99 = getelementptr inbounds { i8*, i32 }, { i8*, i32 }* %4, i32 0, i32 0
  store i8* %97, i8** %99, align 8
  %100 = getelementptr inbounds { i8*, i32 }, { i8*, i32 }* %4, i32 0, i32 1
  store i32 %98, i32* %100, align 8
  br label %bb39

cleanup2:                                         ; preds = %bb2
  %101 = landingpad { i8*, i32 }
          cleanup
  %102 = extractvalue { i8*, i32 } %101, 0
  %103 = extractvalue { i8*, i32 } %101, 1
  %104 = getelementptr inbounds { i8*, i32 }, { i8*, i32 }* %4, i32 0, i32 0
  store i8* %102, i8** %104, align 8
  %105 = getelementptr inbounds { i8*, i32 }, { i8*, i32 }* %4, i32 0, i32 1
  store i32 %103, i32* %105, align 8
  br label %bb28

cleanup3:                                         ; preds = %bb4, %bb3
  %106 = landingpad { i8*, i32 }
          cleanup
  %107 = extractvalue { i8*, i32 } %106, 0
  %108 = extractvalue { i8*, i32 } %106, 1
  %109 = getelementptr inbounds { i8*, i32 }, { i8*, i32 }* %4, i32 0, i32 0
  store i8* %107, i8** %109, align 8
  %110 = getelementptr inbounds { i8*, i32 }, { i8*, i32 }* %4, i32 0, i32 1
  store i32 %108, i32* %110, align 8
  br label %bb37

cleanup4:                                         ; preds = %bb5
  %111 = landingpad { i8*, i32 }
          cleanup
  %112 = extractvalue { i8*, i32 } %111, 0
  %113 = extractvalue { i8*, i32 } %111, 1
  %114 = getelementptr inbounds { i8*, i32 }, { i8*, i32 }* %4, i32 0, i32 0
  store i8* %112, i8** %114, align 8
  %115 = getelementptr inbounds { i8*, i32 }, { i8*, i32 }* %4, i32 0, i32 1
  store i32 %113, i32* %115, align 8
  br label %bb27

cleanup5:                                         ; preds = %bb6
  %116 = landingpad { i8*, i32 }
          cleanup
  %117 = extractvalue { i8*, i32 } %116, 0
  %118 = extractvalue { i8*, i32 } %116, 1
  %119 = getelementptr inbounds { i8*, i32 }, { i8*, i32 }* %4, i32 0, i32 0
  store i8* %117, i8** %119, align 8
  %120 = getelementptr inbounds { i8*, i32 }, { i8*, i32 }* %4, i32 0, i32 1
  store i32 %118, i32* %120, align 8
  br label %bb35

cleanup6:                                         ; preds = %bb10, %bb13, %bb12, %bb9, %bb8, %bb7
  %121 = landingpad { i8*, i32 }
          cleanup
  %122 = extractvalue { i8*, i32 } %121, 0
  %123 = extractvalue { i8*, i32 } %121, 1
  %124 = getelementptr inbounds { i8*, i32 }, { i8*, i32 }* %4, i32 0, i32 0
  store i8* %122, i8** %124, align 8
  %125 = getelementptr inbounds { i8*, i32 }, { i8*, i32 }* %4, i32 0, i32 1
  store i32 %123, i32* %125, align 8
  br label %bb33

cleanup7:                                         ; preds = %bb18, %bb17
  %126 = landingpad { i8*, i32 }
          cleanup
  %127 = extractvalue { i8*, i32 } %126, 0
  %128 = extractvalue { i8*, i32 } %126, 1
  %129 = getelementptr inbounds { i8*, i32 }, { i8*, i32 }* %4, i32 0, i32 0
  store i8* %127, i8** %129, align 8
  %130 = getelementptr inbounds { i8*, i32 }, { i8*, i32 }* %4, i32 0, i32 1
  store i32 %128, i32* %130, align 8
  br label %bb25

cleanup8:                                         ; preds = %bb19
  %131 = landingpad { i8*, i32 }
          cleanup
  %132 = extractvalue { i8*, i32 } %131, 0
  %133 = extractvalue { i8*, i32 } %131, 1
  %134 = getelementptr inbounds { i8*, i32 }, { i8*, i32 }* %4, i32 0, i32 0
  store i8* %132, i8** %134, align 8
  %135 = getelementptr inbounds { i8*, i32 }, { i8*, i32 }* %4, i32 0, i32 1
  store i32 %133, i32* %135, align 8
  br label %bb23

cleanup9:                                         ; preds = %bb20
  %136 = landingpad { i8*, i32 }
          cleanup
  %137 = extractvalue { i8*, i32 } %136, 0
  %138 = extractvalue { i8*, i32 } %136, 1
  %139 = getelementptr inbounds { i8*, i32 }, { i8*, i32 }* %4, i32 0, i32 0
  store i8* %137, i8** %139, align 8
  %140 = getelementptr inbounds { i8*, i32 }, { i8*, i32 }* %4, i32 0, i32 1
  store i32 %138, i32* %140, align 8
  br label %bb24
}

; <std::thread::Builder>::spawn::<arc_heap_mutex::main::{closure#0}, ()>
; Function Attrs: nonlazybind uwtable
define internal void @_RINvMNtCs2bNvlddUlXM_3std6threadNtB3_7Builder5spawnNCNvCsh5b2sQBIbur_14arc_heap_mutex4main0uEBR_(%"std::result::Result<std::thread::JoinHandle<()>, std::io::Error>"* noalias nocapture sret dereferenceable(40) %0, %"std::thread::Builder"* noalias nocapture dereferenceable(40) %self, i64* nonnull %f) unnamed_addr #0 !dbg !602 {
start:
  %f.dbg.spill = alloca i64*, align 8
  %_3 = alloca %"std::thread::Builder", align 8
  call void @llvm.dbg.declare(metadata %"std::thread::Builder"* %self, metadata !604, metadata !DIExpression()), !dbg !606
  store i64* %f, i64** %f.dbg.spill, align 8
  call void @llvm.dbg.declare(metadata i64** %f.dbg.spill, metadata !605, metadata !DIExpression()), !dbg !607
  %1 = bitcast %"std::thread::Builder"* %_3 to i8*, !dbg !608
  %2 = bitcast %"std::thread::Builder"* %self to i8*, !dbg !608
  call void @llvm.memcpy.p0i8.p0i8.i64(i8* align 8 %1, i8* align 8 %2, i64 40, i1 false), !dbg !608
; call <std::thread::Builder>::spawn_unchecked::<arc_heap_mutex::main::{closure#0}, ()>
  call void @_RINvMNtCs2bNvlddUlXM_3std6threadNtB3_7Builder15spawn_uncheckedNCNvCsh5b2sQBIbur_14arc_heap_mutex4main0uEB12_(%"std::result::Result<std::thread::JoinHandle<()>, std::io::Error>"* noalias nocapture sret dereferenceable(40) %0, %"std::thread::Builder"* noalias nocapture dereferenceable(40) %_3, i64* nonnull %f), !dbg !608
  br label %bb1, !dbg !608

bb1:                                              ; preds = %start
  ret void, !dbg !609
}

; <[u8]>::get_unchecked_mut::<usize>
; Function Attrs: inlinehint nonlazybind uwtable
define internal align 1 dereferenceable(1) i8* @_RINvMNtCs3p84KrD9aKt_4core5sliceSh17get_unchecked_mutjECsh5b2sQBIbur_14arc_heap_mutex([0 x i8]* nonnull align 1 %self.0, i64 %self.1, i64 %index) unnamed_addr #1 !dbg !610 {
start:
  %index.dbg.spill = alloca i64, align 8
  %self.dbg.spill = alloca { [0 x i8]*, i64 }, align 8
  %0 = getelementptr inbounds { [0 x i8]*, i64 }, { [0 x i8]*, i64 }* %self.dbg.spill, i32 0, i32 0
  store [0 x i8]* %self.0, [0 x i8]** %0, align 8
  %1 = getelementptr inbounds { [0 x i8]*, i64 }, { [0 x i8]*, i64 }* %self.dbg.spill, i32 0, i32 1
  store i64 %self.1, i64* %1, align 8
  call void @llvm.dbg.declare(metadata { [0 x i8]*, i64 }* %self.dbg.spill, metadata !622, metadata !DIExpression()), !dbg !626
  store i64 %index, i64* %index.dbg.spill, align 8
  call void @llvm.dbg.declare(metadata i64* %index.dbg.spill, metadata !623, metadata !DIExpression()), !dbg !627
; call <usize as core::slice::index::SliceIndex<[u8]>>::get_unchecked_mut
  %_6 = call i8* @_RNvXs0_NtNtCs3p84KrD9aKt_4core5slice5indexjINtB5_10SliceIndexShE17get_unchecked_mutCsh5b2sQBIbur_14arc_heap_mutex(i64 %index, [0 x i8]* %self.0, i64 %self.1), !dbg !628
  br label %bb1, !dbg !628

bb1:                                              ; preds = %start
  ret i8* %_6, !dbg !629
}

; <core::option::Option<core::ptr::non_null::NonNull<u8>>>::ok_or::<core::alloc::AllocError>
; Function Attrs: inlinehint nonlazybind uwtable
define internal i8* @_RINvMNtCs3p84KrD9aKt_4core6optionINtB3_6OptionINtNtNtB5_3ptr8non_null7NonNullhEE5ok_orNtNtB5_5alloc10AllocErrorECsh5b2sQBIbur_14arc_heap_mutex(i8* %0) unnamed_addr #1 personality i32 (i32, i32, i64, %"unwind::libunwind::_Unwind_Exception"*, %"unwind::libunwind::_Unwind_Context"*)* @rust_eh_personality !dbg !630 {
start:
  %1 = alloca { i8*, i32 }, align 8
  %v.dbg.spill = alloca i8*, align 8
  %err.dbg.spill = alloca %"std::alloc::AllocError", align 1
  %_7 = alloca i8, align 1
  %2 = alloca i8*, align 8
  %self = alloca i8*, align 8
  store i8* %0, i8** %self, align 8
  call void @llvm.dbg.declare(metadata i8** %self, metadata !666, metadata !DIExpression()), !dbg !670
  call void @llvm.dbg.declare(metadata %"std::alloc::AllocError"* %err.dbg.spill, metadata !667, metadata !DIExpression()), !dbg !671
  store i8 0, i8* %_7, align 1, !dbg !672
  store i8 1, i8* %_7, align 1, !dbg !672
  %3 = bitcast i8** %self to {}**, !dbg !672
  %4 = load {}*, {}** %3, align 8, !dbg !672
  %5 = icmp eq {}* %4, null, !dbg !672
  %_3 = select i1 %5, i64 0, i64 1, !dbg !672
  switch i64 %_3, label %bb2 [
    i64 0, label %bb1
    i64 1, label %bb3
  ], !dbg !672

bb1:                                              ; preds = %start
  store i8 0, i8* %_7, align 1, !dbg !673
  %6 = bitcast i8** %2 to %"std::result::Result<std::ptr::NonNull<u8>, std::alloc::AllocError>::Err"*, !dbg !674
  %7 = bitcast %"std::result::Result<std::ptr::NonNull<u8>, std::alloc::AllocError>::Err"* %6 to %"std::alloc::AllocError"*, !dbg !674
  %8 = bitcast i8** %2 to {}**, !dbg !674
  store {}* null, {}** %8, align 8, !dbg !674
  br label %bb8, !dbg !675

bb2:                                              ; preds = %start
  unreachable, !dbg !676

bb3:                                              ; preds = %start
  %v = load i8*, i8** %self, align 8, !dbg !677, !nonnull !4
  store i8* %v, i8** %v.dbg.spill, align 8, !dbg !677
  call void @llvm.dbg.declare(metadata i8** %v.dbg.spill, metadata !668, metadata !DIExpression()), !dbg !678
  store i8* %v, i8** %2, align 8, !dbg !679
  br label %bb8, !dbg !680

bb4:                                              ; preds = %bb7, %bb8
  %9 = load i8*, i8** %2, align 8, !dbg !681
  ret i8* %9, !dbg !681

bb5:                                              ; No predecessors!
  br label %bb6, !dbg !680

bb6:                                              ; preds = %bb5
  %10 = bitcast { i8*, i32 }* %1 to i8**, !dbg !682
  %11 = load i8*, i8** %10, align 8, !dbg !682
  %12 = getelementptr inbounds { i8*, i32 }, { i8*, i32 }* %1, i32 0, i32 1, !dbg !682
  %13 = load i32, i32* %12, align 8, !dbg !682
  %14 = insertvalue { i8*, i32 } undef, i8* %11, 0, !dbg !682
  %15 = insertvalue { i8*, i32 } %14, i32 %13, 1, !dbg !682
  resume { i8*, i32 } %15, !dbg !682

bb7:                                              ; preds = %bb8
  br label %bb4, !dbg !680

bb8:                                              ; preds = %bb1, %bb3
  %16 = load i8, i8* %_7, align 1, !dbg !680, !range !600
  %17 = trunc i8 %16 to i1, !dbg !680
  br i1 %17, label %bb7, label %bb4, !dbg !680
}

; <core::option::Option<usize>>::unwrap_or_else::<std::sys_common::thread::min_stack>
; Function Attrs: inlinehint nonlazybind uwtable
define internal i64 @_RINvMNtCs3p84KrD9aKt_4core6optionINtB3_6OptionjE14unwrap_or_elseNvNtNtCs2bNvlddUlXM_3std10sys_common6thread9min_stackECsh5b2sQBIbur_14arc_heap_mutex(i64 %0, i64 %1) unnamed_addr #1 personality i32 (i32, i32, i64, %"unwind::libunwind::_Unwind_Exception"*, %"unwind::libunwind::_Unwind_Context"*)* @rust_eh_personality !dbg !683 {
start:
  %2 = alloca { i8*, i32 }, align 8
  %x.dbg.spill = alloca i64, align 8
  %f.dbg.spill = alloca {}, align 1
  %_7 = alloca i8, align 1
  %_6 = alloca {}, align 1
  %3 = alloca i64, align 8
  %self = alloca { i64, i64 }, align 8
  %4 = getelementptr inbounds { i64, i64 }, { i64, i64 }* %self, i32 0, i32 0
  store i64 %0, i64* %4, align 8
  %5 = getelementptr inbounds { i64, i64 }, { i64, i64 }* %self, i32 0, i32 1
  store i64 %1, i64* %5, align 8
  call void @llvm.dbg.declare(metadata { i64, i64 }* %self, metadata !690, metadata !DIExpression()), !dbg !696
  call void @llvm.dbg.declare(metadata {}* %f.dbg.spill, metadata !691, metadata !DIExpression()), !dbg !697
  store i8 0, i8* %_7, align 1, !dbg !698
  store i8 1, i8* %_7, align 1, !dbg !698
  %6 = bitcast { i64, i64 }* %self to i64*, !dbg !698
  %_3 = load i64, i64* %6, align 8, !dbg !698, !range !543
  switch i64 %_3, label %bb2 [
    i64 0, label %bb1
    i64 1, label %bb3
  ], !dbg !698

bb1:                                              ; preds = %start
  store i8 0, i8* %_7, align 1, !dbg !699
; call <std::sys_common::thread::min_stack as core::ops::function::FnOnce<()>>::call_once
  %7 = call i64 @_RNvYNvNtNtCs2bNvlddUlXM_3std10sys_common6thread9min_stackINtNtNtCs3p84KrD9aKt_4core3ops8function6FnOnceuE9call_onceCsh5b2sQBIbur_14arc_heap_mutex(), !dbg !699
  store i64 %7, i64* %3, align 8, !dbg !699
  br label %bb4, !dbg !699

bb2:                                              ; preds = %start
  unreachable, !dbg !700

bb3:                                              ; preds = %start
  %8 = bitcast { i64, i64 }* %self to %"std::option::Option<usize>::Some"*, !dbg !701
  %9 = getelementptr inbounds %"std::option::Option<usize>::Some", %"std::option::Option<usize>::Some"* %8, i32 0, i32 1, !dbg !701
  %x = load i64, i64* %9, align 8, !dbg !701
  store i64 %x, i64* %x.dbg.spill, align 8, !dbg !701
  call void @llvm.dbg.declare(metadata i64* %x.dbg.spill, metadata !692, metadata !DIExpression()), !dbg !702
  store i64 %x, i64* %3, align 8, !dbg !703
  br label %bb9, !dbg !704

bb4:                                              ; preds = %bb1
  br label %bb9, !dbg !704

bb5:                                              ; preds = %bb8, %bb9
  %10 = load i64, i64* %3, align 8, !dbg !705
  ret i64 %10, !dbg !705

bb6:                                              ; No predecessors!
  br label %bb7, !dbg !706

bb7:                                              ; preds = %bb6
  %11 = bitcast { i8*, i32 }* %2 to i8**, !dbg !707
  %12 = load i8*, i8** %11, align 8, !dbg !707
  %13 = getelementptr inbounds { i8*, i32 }, { i8*, i32 }* %2, i32 0, i32 1, !dbg !707
  %14 = load i32, i32* %13, align 8, !dbg !707
  %15 = insertvalue { i8*, i32 } undef, i8* %12, 0, !dbg !707
  %16 = insertvalue { i8*, i32 } %15, i32 %14, 1, !dbg !707
  resume { i8*, i32 } %16, !dbg !707

bb8:                                              ; preds = %bb9
  br label %bb5, !dbg !706

bb9:                                              ; preds = %bb4, %bb3
  %17 = load i8, i8* %_7, align 1, !dbg !706, !range !600
  %18 = trunc i8 %17 to i1, !dbg !706
  br i1 %18, label %bb8, label %bb5, !dbg !706
}

; <core::alloc::layout::Layout>::for_value_raw::<alloc::sync::ArcInner<core::cell::UnsafeCell<core::option::Option<core::result::Result<(), alloc::boxed::Box<dyn core::any::Any + core::marker::Send>>>>>>
; Function Attrs: nonlazybind uwtable
define internal { i64, i64 } @_RINvMNtNtCs3p84KrD9aKt_4core5alloc6layoutNtB3_6Layout13for_value_rawINtNtCs8RW06R9lH2S_5alloc4sync8ArcInnerINtNtB7_4cell10UnsafeCellINtNtB7_6option6OptionINtNtB7_6result6ResultuINtNtB19_5boxed3BoxDNtNtB7_3any3AnyNtNtB7_6marker4SendEL_EEEEEECsh5b2sQBIbur_14arc_heap_mutex(%"alloc::sync::ArcInner<std::cell::UnsafeCell<std::option::Option<std::result::Result<(), std::boxed::Box<dyn std::any::Any + std::marker::Send>>>>>"* %t) unnamed_addr #0 !dbg !708 {
start:
  %align.dbg.spill = alloca i64, align 8
  %size.dbg.spill = alloca i64, align 8
  %t.dbg.spill = alloca %"alloc::sync::ArcInner<std::cell::UnsafeCell<std::option::Option<std::result::Result<(), std::boxed::Box<dyn std::any::Any + std::marker::Send>>>>>"*, align 8
  %_4 = alloca { i64, i64 }, align 8
  store %"alloc::sync::ArcInner<std::cell::UnsafeCell<std::option::Option<std::result::Result<(), std::boxed::Box<dyn std::any::Any + std::marker::Send>>>>>"* %t, %"alloc::sync::ArcInner<std::cell::UnsafeCell<std::option::Option<std::result::Result<(), std::boxed::Box<dyn std::any::Any + std::marker::Send>>>>>"** %t.dbg.spill, align 8
  call void @llvm.dbg.declare(metadata %"alloc::sync::ArcInner<std::cell::UnsafeCell<std::option::Option<std::result::Result<(), std::boxed::Box<dyn std::any::Any + std::marker::Send>>>>>"** %t.dbg.spill, metadata !721, metadata !DIExpression()), !dbg !725
; call core::mem::size_of_val_raw::<alloc::sync::ArcInner<core::cell::UnsafeCell<core::option::Option<core::result::Result<(), alloc::boxed::Box<dyn core::any::Any + core::marker::Send>>>>>>
  %_5 = call i64 @_RINvNtCs3p84KrD9aKt_4core3mem15size_of_val_rawINtNtCs8RW06R9lH2S_5alloc4sync8ArcInnerINtNtB4_4cell10UnsafeCellINtNtB4_6option6OptionINtNtB4_6result6ResultuINtNtBN_5boxed3BoxDNtNtB4_3any3AnyNtNtB4_6marker4SendEL_EEEEEECsh5b2sQBIbur_14arc_heap_mutex(%"alloc::sync::ArcInner<std::cell::UnsafeCell<std::option::Option<std::result::Result<(), std::boxed::Box<dyn std::any::Any + std::marker::Send>>>>>"* %t), !dbg !726
  br label %bb1, !dbg !726

bb1:                                              ; preds = %start
; call core::mem::align_of_val_raw::<alloc::sync::ArcInner<core::cell::UnsafeCell<core::option::Option<core::result::Result<(), alloc::boxed::Box<dyn core::any::Any + core::marker::Send>>>>>>
  %_7 = call i64 @_RINvNtCs3p84KrD9aKt_4core3mem16align_of_val_rawINtNtCs8RW06R9lH2S_5alloc4sync8ArcInnerINtNtB4_4cell10UnsafeCellINtNtB4_6option6OptionINtNtB4_6result6ResultuINtNtBO_5boxed3BoxDNtNtB4_3any3AnyNtNtB4_6marker4SendEL_EEEEEECsh5b2sQBIbur_14arc_heap_mutex(%"alloc::sync::ArcInner<std::cell::UnsafeCell<std::option::Option<std::result::Result<(), std::boxed::Box<dyn std::any::Any + std::marker::Send>>>>>"* %t), !dbg !727
  br label %bb2, !dbg !727

bb2:                                              ; preds = %bb1
  %0 = bitcast { i64, i64 }* %_4 to i64*, !dbg !728
  store i64 %_5, i64* %0, align 8, !dbg !728
  %1 = getelementptr inbounds { i64, i64 }, { i64, i64 }* %_4, i32 0, i32 1, !dbg !728
  store i64 %_7, i64* %1, align 8, !dbg !728
  %2 = bitcast { i64, i64 }* %_4 to i64*, !dbg !729
  %size = load i64, i64* %2, align 8, !dbg !729
  store i64 %size, i64* %size.dbg.spill, align 8, !dbg !729
  call void @llvm.dbg.declare(metadata i64* %size.dbg.spill, metadata !722, metadata !DIExpression()), !dbg !730
  %3 = getelementptr inbounds { i64, i64 }, { i64, i64 }* %_4, i32 0, i32 1, !dbg !731
  %align = load i64, i64* %3, align 8, !dbg !731
  store i64 %align, i64* %align.dbg.spill, align 8, !dbg !731
  call void @llvm.dbg.declare(metadata i64* %align.dbg.spill, metadata !724, metadata !DIExpression()), !dbg !732
; call <core::alloc::layout::Layout>::from_size_align_unchecked
  %4 = call { i64, i64 } @_RNvMNtNtCs3p84KrD9aKt_4core5alloc6layoutNtB2_6Layout25from_size_align_uncheckedCsh5b2sQBIbur_14arc_heap_mutex(i64 %size, i64 %align), !dbg !733
  %5 = extractvalue { i64, i64 } %4, 0, !dbg !733
  %6 = extractvalue { i64, i64 } %4, 1, !dbg !733
  br label %bb3, !dbg !733

bb3:                                              ; preds = %bb2
  %7 = insertvalue { i64, i64 } undef, i64 %5, 0, !dbg !734
  %8 = insertvalue { i64, i64 } %7, i64 %6, 1, !dbg !734
  ret { i64, i64 } %8, !dbg !734
}

; <core::alloc::layout::Layout>::for_value_raw::<alloc::sync::ArcInner<std::sync::mutex::Mutex<alloc::vec::Vec<u8>>>>
; Function Attrs: nonlazybind uwtable
define internal { i64, i64 } @_RINvMNtNtCs3p84KrD9aKt_4core5alloc6layoutNtB3_6Layout13for_value_rawINtNtCs8RW06R9lH2S_5alloc4sync8ArcInnerINtNtNtCs2bNvlddUlXM_3std4sync5mutex5MutexINtNtB19_3vec3VechEEEECsh5b2sQBIbur_14arc_heap_mutex(%"alloc::sync::ArcInner<std::sync::Mutex<std::vec::Vec<u8>>>"* %t) unnamed_addr #0 !dbg !735 {
start:
  %align.dbg.spill = alloca i64, align 8
  %size.dbg.spill = alloca i64, align 8
  %t.dbg.spill = alloca %"alloc::sync::ArcInner<std::sync::Mutex<std::vec::Vec<u8>>>"*, align 8
  %_4 = alloca { i64, i64 }, align 8
  store %"alloc::sync::ArcInner<std::sync::Mutex<std::vec::Vec<u8>>>"* %t, %"alloc::sync::ArcInner<std::sync::Mutex<std::vec::Vec<u8>>>"** %t.dbg.spill, align 8
  call void @llvm.dbg.declare(metadata %"alloc::sync::ArcInner<std::sync::Mutex<std::vec::Vec<u8>>>"** %t.dbg.spill, metadata !739, metadata !DIExpression()), !dbg !743
; call core::mem::size_of_val_raw::<alloc::sync::ArcInner<std::sync::mutex::Mutex<alloc::vec::Vec<u8>>>>
  %_5 = call i64 @_RINvNtCs3p84KrD9aKt_4core3mem15size_of_val_rawINtNtCs8RW06R9lH2S_5alloc4sync8ArcInnerINtNtNtCs2bNvlddUlXM_3std4sync5mutex5MutexINtNtBN_3vec3VechEEEECsh5b2sQBIbur_14arc_heap_mutex(%"alloc::sync::ArcInner<std::sync::Mutex<std::vec::Vec<u8>>>"* %t), !dbg !744
  br label %bb1, !dbg !744

bb1:                                              ; preds = %start
; call core::mem::align_of_val_raw::<alloc::sync::ArcInner<std::sync::mutex::Mutex<alloc::vec::Vec<u8>>>>
  %_7 = call i64 @_RINvNtCs3p84KrD9aKt_4core3mem16align_of_val_rawINtNtCs8RW06R9lH2S_5alloc4sync8ArcInnerINtNtNtCs2bNvlddUlXM_3std4sync5mutex5MutexINtNtBO_3vec3VechEEEECsh5b2sQBIbur_14arc_heap_mutex(%"alloc::sync::ArcInner<std::sync::Mutex<std::vec::Vec<u8>>>"* %t), !dbg !745
  br label %bb2, !dbg !745

bb2:                                              ; preds = %bb1
  %0 = bitcast { i64, i64 }* %_4 to i64*, !dbg !746
  store i64 %_5, i64* %0, align 8, !dbg !746
  %1 = getelementptr inbounds { i64, i64 }, { i64, i64 }* %_4, i32 0, i32 1, !dbg !746
  store i64 %_7, i64* %1, align 8, !dbg !746
  %2 = bitcast { i64, i64 }* %_4 to i64*, !dbg !747
  %size = load i64, i64* %2, align 8, !dbg !747
  store i64 %size, i64* %size.dbg.spill, align 8, !dbg !747
  call void @llvm.dbg.declare(metadata i64* %size.dbg.spill, metadata !740, metadata !DIExpression()), !dbg !748
  %3 = getelementptr inbounds { i64, i64 }, { i64, i64 }* %_4, i32 0, i32 1, !dbg !749
  %align = load i64, i64* %3, align 8, !dbg !749
  store i64 %align, i64* %align.dbg.spill, align 8, !dbg !749
  call void @llvm.dbg.declare(metadata i64* %align.dbg.spill, metadata !742, metadata !DIExpression()), !dbg !750
; call <core::alloc::layout::Layout>::from_size_align_unchecked
  %4 = call { i64, i64 } @_RNvMNtNtCs3p84KrD9aKt_4core5alloc6layoutNtB2_6Layout25from_size_align_uncheckedCsh5b2sQBIbur_14arc_heap_mutex(i64 %size, i64 %align), !dbg !751
  %5 = extractvalue { i64, i64 } %4, 0, !dbg !751
  %6 = extractvalue { i64, i64 } %4, 1, !dbg !751
  br label %bb3, !dbg !751

bb3:                                              ; preds = %bb2
  %7 = insertvalue { i64, i64 } undef, i64 %5, 0, !dbg !752
  %8 = insertvalue { i64, i64 } %7, i64 %6, 1, !dbg !752
  ret { i64, i64 } %8, !dbg !752
}

; <core::alloc::layout::Layout>::for_value_raw::<alloc::sync::ArcInner<std::sync::mutex::Mutex<i32>>>
; Function Attrs: nonlazybind uwtable
define internal { i64, i64 } @_RINvMNtNtCs3p84KrD9aKt_4core5alloc6layoutNtB3_6Layout13for_value_rawINtNtCs8RW06R9lH2S_5alloc4sync8ArcInnerINtNtNtCs2bNvlddUlXM_3std4sync5mutex5MutexlEEECsh5b2sQBIbur_14arc_heap_mutex(%"alloc::sync::ArcInner<std::sync::Mutex<i32>>"* %t) unnamed_addr #0 !dbg !753 {
start:
  %align.dbg.spill = alloca i64, align 8
  %size.dbg.spill = alloca i64, align 8
  %t.dbg.spill = alloca %"alloc::sync::ArcInner<std::sync::Mutex<i32>>"*, align 8
  %_4 = alloca { i64, i64 }, align 8
  store %"alloc::sync::ArcInner<std::sync::Mutex<i32>>"* %t, %"alloc::sync::ArcInner<std::sync::Mutex<i32>>"** %t.dbg.spill, align 8
  call void @llvm.dbg.declare(metadata %"alloc::sync::ArcInner<std::sync::Mutex<i32>>"** %t.dbg.spill, metadata !757, metadata !DIExpression()), !dbg !761
; call core::mem::size_of_val_raw::<alloc::sync::ArcInner<std::sync::mutex::Mutex<i32>>>
  %_5 = call i64 @_RINvNtCs3p84KrD9aKt_4core3mem15size_of_val_rawINtNtCs8RW06R9lH2S_5alloc4sync8ArcInnerINtNtNtCs2bNvlddUlXM_3std4sync5mutex5MutexlEEECsh5b2sQBIbur_14arc_heap_mutex(%"alloc::sync::ArcInner<std::sync::Mutex<i32>>"* %t), !dbg !762
  br label %bb1, !dbg !762

bb1:                                              ; preds = %start
; call core::mem::align_of_val_raw::<alloc::sync::ArcInner<std::sync::mutex::Mutex<i32>>>
  %_7 = call i64 @_RINvNtCs3p84KrD9aKt_4core3mem16align_of_val_rawINtNtCs8RW06R9lH2S_5alloc4sync8ArcInnerINtNtNtCs2bNvlddUlXM_3std4sync5mutex5MutexlEEECsh5b2sQBIbur_14arc_heap_mutex(%"alloc::sync::ArcInner<std::sync::Mutex<i32>>"* %t), !dbg !763
  br label %bb2, !dbg !763

bb2:                                              ; preds = %bb1
  %0 = bitcast { i64, i64 }* %_4 to i64*, !dbg !764
  store i64 %_5, i64* %0, align 8, !dbg !764
  %1 = getelementptr inbounds { i64, i64 }, { i64, i64 }* %_4, i32 0, i32 1, !dbg !764
  store i64 %_7, i64* %1, align 8, !dbg !764
  %2 = bitcast { i64, i64 }* %_4 to i64*, !dbg !765
  %size = load i64, i64* %2, align 8, !dbg !765
  store i64 %size, i64* %size.dbg.spill, align 8, !dbg !765
  call void @llvm.dbg.declare(metadata i64* %size.dbg.spill, metadata !758, metadata !DIExpression()), !dbg !766
  %3 = getelementptr inbounds { i64, i64 }, { i64, i64 }* %_4, i32 0, i32 1, !dbg !767
  %align = load i64, i64* %3, align 8, !dbg !767
  store i64 %align, i64* %align.dbg.spill, align 8, !dbg !767
  call void @llvm.dbg.declare(metadata i64* %align.dbg.spill, metadata !760, metadata !DIExpression()), !dbg !768
; call <core::alloc::layout::Layout>::from_size_align_unchecked
  %4 = call { i64, i64 } @_RNvMNtNtCs3p84KrD9aKt_4core5alloc6layoutNtB2_6Layout25from_size_align_uncheckedCsh5b2sQBIbur_14arc_heap_mutex(i64 %size, i64 %align), !dbg !769
  %5 = extractvalue { i64, i64 } %4, 0, !dbg !769
  %6 = extractvalue { i64, i64 } %4, 1, !dbg !769
  br label %bb3, !dbg !769

bb3:                                              ; preds = %bb2
  %7 = insertvalue { i64, i64 } undef, i64 %5, 0, !dbg !770
  %8 = insertvalue { i64, i64 } %7, i64 %6, 1, !dbg !770
  ret { i64, i64 } %8, !dbg !770
}

; <core::alloc::layout::Layout>::for_value_raw::<alloc::sync::ArcInner<std::thread::Inner>>
; Function Attrs: nonlazybind uwtable
define internal { i64, i64 } @_RINvMNtNtCs3p84KrD9aKt_4core5alloc6layoutNtB3_6Layout13for_value_rawINtNtCs8RW06R9lH2S_5alloc4sync8ArcInnerNtNtCs2bNvlddUlXM_3std6thread5InnerEECsh5b2sQBIbur_14arc_heap_mutex(%"alloc::sync::ArcInner<std::thread::Inner>"* %t) unnamed_addr #0 !dbg !771 {
start:
  %align.dbg.spill = alloca i64, align 8
  %size.dbg.spill = alloca i64, align 8
  %t.dbg.spill = alloca %"alloc::sync::ArcInner<std::thread::Inner>"*, align 8
  %_4 = alloca { i64, i64 }, align 8
  store %"alloc::sync::ArcInner<std::thread::Inner>"* %t, %"alloc::sync::ArcInner<std::thread::Inner>"** %t.dbg.spill, align 8
  call void @llvm.dbg.declare(metadata %"alloc::sync::ArcInner<std::thread::Inner>"** %t.dbg.spill, metadata !775, metadata !DIExpression()), !dbg !779
; call core::mem::size_of_val_raw::<alloc::sync::ArcInner<std::thread::Inner>>
  %_5 = call i64 @_RINvNtCs3p84KrD9aKt_4core3mem15size_of_val_rawINtNtCs8RW06R9lH2S_5alloc4sync8ArcInnerNtNtCs2bNvlddUlXM_3std6thread5InnerEECsh5b2sQBIbur_14arc_heap_mutex(%"alloc::sync::ArcInner<std::thread::Inner>"* %t), !dbg !780
  br label %bb1, !dbg !780

bb1:                                              ; preds = %start
; call core::mem::align_of_val_raw::<alloc::sync::ArcInner<std::thread::Inner>>
  %_7 = call i64 @_RINvNtCs3p84KrD9aKt_4core3mem16align_of_val_rawINtNtCs8RW06R9lH2S_5alloc4sync8ArcInnerNtNtCs2bNvlddUlXM_3std6thread5InnerEECsh5b2sQBIbur_14arc_heap_mutex(%"alloc::sync::ArcInner<std::thread::Inner>"* %t), !dbg !781
  br label %bb2, !dbg !781

bb2:                                              ; preds = %bb1
  %0 = bitcast { i64, i64 }* %_4 to i64*, !dbg !782
  store i64 %_5, i64* %0, align 8, !dbg !782
  %1 = getelementptr inbounds { i64, i64 }, { i64, i64 }* %_4, i32 0, i32 1, !dbg !782
  store i64 %_7, i64* %1, align 8, !dbg !782
  %2 = bitcast { i64, i64 }* %_4 to i64*, !dbg !783
  %size = load i64, i64* %2, align 8, !dbg !783
  store i64 %size, i64* %size.dbg.spill, align 8, !dbg !783
  call void @llvm.dbg.declare(metadata i64* %size.dbg.spill, metadata !776, metadata !DIExpression()), !dbg !784
  %3 = getelementptr inbounds { i64, i64 }, { i64, i64 }* %_4, i32 0, i32 1, !dbg !785
  %align = load i64, i64* %3, align 8, !dbg !785
  store i64 %align, i64* %align.dbg.spill, align 8, !dbg !785
  call void @llvm.dbg.declare(metadata i64* %align.dbg.spill, metadata !778, metadata !DIExpression()), !dbg !786
; call <core::alloc::layout::Layout>::from_size_align_unchecked
  %4 = call { i64, i64 } @_RNvMNtNtCs3p84KrD9aKt_4core5alloc6layoutNtB2_6Layout25from_size_align_uncheckedCsh5b2sQBIbur_14arc_heap_mutex(i64 %size, i64 %align), !dbg !787
  %5 = extractvalue { i64, i64 } %4, 0, !dbg !787
  %6 = extractvalue { i64, i64 } %4, 1, !dbg !787
  br label %bb3, !dbg !787

bb3:                                              ; preds = %bb2
  %7 = insertvalue { i64, i64 } undef, i64 %5, 0, !dbg !788
  %8 = insertvalue { i64, i64 } %7, i64 %6, 1, !dbg !788
  ret { i64, i64 } %8, !dbg !788
}

; <core::ptr::unique::Unique<dyn core::any::Any + core::marker::Send>>::cast::<u8>
; Function Attrs: inlinehint nonlazybind uwtable
define internal nonnull i8* @_RINvMs1_NtNtCs3p84KrD9aKt_4core3ptr6uniqueINtB6_6UniqueDNtNtBa_3any3AnyNtNtBa_6marker4SendEL_E4casthECsh5b2sQBIbur_14arc_heap_mutex(i8* nonnull %self.0, i64* noalias readonly align 8 dereferenceable(24) %self.1) unnamed_addr #1 !dbg !789 {
start:
  %self.dbg.spill = alloca { i8*, i64* }, align 8
  %0 = getelementptr inbounds { i8*, i64* }, { i8*, i64* }* %self.dbg.spill, i32 0, i32 0
  store i8* %self.0, i8** %0, align 8
  %1 = getelementptr inbounds { i8*, i64* }, { i8*, i64* }* %self.dbg.spill, i32 0, i32 1
  store i64* %self.1, i64** %1, align 8
  call void @llvm.dbg.declare(metadata { i8*, i64* }* %self.dbg.spill, metadata !804, metadata !DIExpression()), !dbg !807
; call <core::ptr::unique::Unique<dyn core::any::Any + core::marker::Send>>::as_ptr
  %2 = call { {}*, [3 x i64]* } @_RNvMs1_NtNtCs3p84KrD9aKt_4core3ptr6uniqueINtB5_6UniqueDNtNtB9_3any3AnyNtNtB9_6marker4SendEL_E6as_ptrCsh5b2sQBIbur_14arc_heap_mutex(i8* nonnull %self.0, i64* noalias readonly align 8 dereferenceable(24) %self.1), !dbg !808
  %_3.0 = extractvalue { {}*, [3 x i64]* } %2, 0, !dbg !808
  %_3.1 = extractvalue { {}*, [3 x i64]* } %2, 1, !dbg !808
  br label %bb1, !dbg !808

bb1:                                              ; preds = %start
  %_2 = bitcast {}* %_3.0 to i8*, !dbg !808
; call <core::ptr::unique::Unique<u8>>::new_unchecked
  %3 = call nonnull i8* @_RNvMs1_NtNtCs3p84KrD9aKt_4core3ptr6uniqueINtB5_6UniquehE13new_uncheckedCsh5b2sQBIbur_14arc_heap_mutex(i8* %_2), !dbg !809
  br label %bb2, !dbg !809

bb2:                                              ; preds = %bb1
  ret i8* %3, !dbg !810
}

; <core::ptr::unique::Unique<dyn std::error::Error + core::marker::Send + core::marker::Sync>>::cast::<u8>
; Function Attrs: inlinehint nonlazybind uwtable
define internal nonnull i8* @_RINvMs1_NtNtCs3p84KrD9aKt_4core3ptr6uniqueINtB6_6UniqueDNtNtCs2bNvlddUlXM_3std5error5ErrorNtNtBa_6marker4SendNtB1s_4SyncEL_E4casthECsh5b2sQBIbur_14arc_heap_mutex(i8* nonnull %self.0, i64* noalias readonly align 8 dereferenceable(24) %self.1) unnamed_addr #1 !dbg !811 {
start:
  %self.dbg.spill = alloca { i8*, i64* }, align 8
  %0 = getelementptr inbounds { i8*, i64* }, { i8*, i64* }* %self.dbg.spill, i32 0, i32 0
  store i8* %self.0, i8** %0, align 8
  %1 = getelementptr inbounds { i8*, i64* }, { i8*, i64* }* %self.dbg.spill, i32 0, i32 1
  store i64* %self.1, i64** %1, align 8
  call void @llvm.dbg.declare(metadata { i8*, i64* }* %self.dbg.spill, metadata !825, metadata !DIExpression()), !dbg !827
; call <core::ptr::unique::Unique<dyn std::error::Error + core::marker::Send + core::marker::Sync>>::as_ptr
  %2 = call { {}*, [3 x i64]* } @_RNvMs1_NtNtCs3p84KrD9aKt_4core3ptr6uniqueINtB5_6UniqueDNtNtCs2bNvlddUlXM_3std5error5ErrorNtNtB9_6marker4SendNtB1r_4SyncEL_E6as_ptrCsh5b2sQBIbur_14arc_heap_mutex(i8* nonnull %self.0, i64* noalias readonly align 8 dereferenceable(24) %self.1), !dbg !828
  %_3.0 = extractvalue { {}*, [3 x i64]* } %2, 0, !dbg !828
  %_3.1 = extractvalue { {}*, [3 x i64]* } %2, 1, !dbg !828
  br label %bb1, !dbg !828

bb1:                                              ; preds = %start
  %_2 = bitcast {}* %_3.0 to i8*, !dbg !828
; call <core::ptr::unique::Unique<u8>>::new_unchecked
  %3 = call nonnull i8* @_RNvMs1_NtNtCs3p84KrD9aKt_4core3ptr6uniqueINtB5_6UniquehE13new_uncheckedCsh5b2sQBIbur_14arc_heap_mutex(i8* %_2), !dbg !829
  br label %bb2, !dbg !829

bb2:                                              ; preds = %bb1
  ret i8* %3, !dbg !830
}

; <core::ptr::unique::Unique<alloc::sync::ArcInner<core::cell::UnsafeCell<core::option::Option<core::result::Result<(), alloc::boxed::Box<dyn core::any::Any + core::marker::Send>>>>>>>::cast::<u8>
; Function Attrs: inlinehint nonlazybind uwtable
define internal nonnull i8* @_RINvMs1_NtNtCs3p84KrD9aKt_4core3ptr6uniqueINtB6_6UniqueINtNtCs8RW06R9lH2S_5alloc4sync8ArcInnerINtNtBa_4cell10UnsafeCellINtNtBa_6option6OptionINtNtBa_6result6ResultuINtNtBW_5boxed3BoxDNtNtBa_3any3AnyNtNtBa_6marker4SendEL_EEEEEE4casthECsh5b2sQBIbur_14arc_heap_mutex(i64* nonnull %self) unnamed_addr #1 !dbg !831 {
start:
  %self.dbg.spill = alloca i64*, align 8
  store i64* %self, i64** %self.dbg.spill, align 8
  call void @llvm.dbg.declare(metadata i64** %self.dbg.spill, metadata !839, metadata !DIExpression()), !dbg !841
; call <core::ptr::unique::Unique<alloc::sync::ArcInner<core::cell::UnsafeCell<core::option::Option<core::result::Result<(), alloc::boxed::Box<dyn core::any::Any + core::marker::Send>>>>>>>::as_ptr
  %_3 = call %"alloc::sync::ArcInner<std::cell::UnsafeCell<std::option::Option<std::result::Result<(), std::boxed::Box<dyn std::any::Any + std::marker::Send>>>>>"* @_RNvMs1_NtNtCs3p84KrD9aKt_4core3ptr6uniqueINtB5_6UniqueINtNtCs8RW06R9lH2S_5alloc4sync8ArcInnerINtNtB9_4cell10UnsafeCellINtNtB9_6option6OptionINtNtB9_6result6ResultuINtNtBV_5boxed3BoxDNtNtB9_3any3AnyNtNtB9_6marker4SendEL_EEEEEE6as_ptrCsh5b2sQBIbur_14arc_heap_mutex(i64* nonnull %self), !dbg !842
  br label %bb1, !dbg !842

bb1:                                              ; preds = %start
  %_2 = bitcast %"alloc::sync::ArcInner<std::cell::UnsafeCell<std::option::Option<std::result::Result<(), std::boxed::Box<dyn std::any::Any + std::marker::Send>>>>>"* %_3 to i8*, !dbg !842
; call <core::ptr::unique::Unique<u8>>::new_unchecked
  %0 = call nonnull i8* @_RNvMs1_NtNtCs3p84KrD9aKt_4core3ptr6uniqueINtB5_6UniquehE13new_uncheckedCsh5b2sQBIbur_14arc_heap_mutex(i8* %_2), !dbg !843
  br label %bb2, !dbg !843

bb2:                                              ; preds = %bb1
  ret i8* %0, !dbg !844
}

; <core::ptr::unique::Unique<alloc::sync::ArcInner<std::sync::mutex::Mutex<i32>>>>::cast::<u8>
; Function Attrs: inlinehint nonlazybind uwtable
define internal nonnull i8* @_RINvMs1_NtNtCs3p84KrD9aKt_4core3ptr6uniqueINtB6_6UniqueINtNtCs8RW06R9lH2S_5alloc4sync8ArcInnerINtNtNtCs2bNvlddUlXM_3std4sync5mutex5MutexlEEE4casthECsh5b2sQBIbur_14arc_heap_mutex(i64* nonnull %self) unnamed_addr #1 !dbg !845 {
start:
  %self.dbg.spill = alloca i64*, align 8
  store i64* %self, i64** %self.dbg.spill, align 8
  call void @llvm.dbg.declare(metadata i64** %self.dbg.spill, metadata !853, metadata !DIExpression()), !dbg !855
; call <core::ptr::unique::Unique<alloc::sync::ArcInner<std::sync::mutex::Mutex<i32>>>>::as_ptr
  %_3 = call %"alloc::sync::ArcInner<std::sync::Mutex<i32>>"* @_RNvMs1_NtNtCs3p84KrD9aKt_4core3ptr6uniqueINtB5_6UniqueINtNtCs8RW06R9lH2S_5alloc4sync8ArcInnerINtNtNtCs2bNvlddUlXM_3std4sync5mutex5MutexlEEE6as_ptrCsh5b2sQBIbur_14arc_heap_mutex(i64* nonnull %self), !dbg !856
  br label %bb1, !dbg !856

bb1:                                              ; preds = %start
  %_2 = bitcast %"alloc::sync::ArcInner<std::sync::Mutex<i32>>"* %_3 to i8*, !dbg !856
; call <core::ptr::unique::Unique<u8>>::new_unchecked
  %0 = call nonnull i8* @_RNvMs1_NtNtCs3p84KrD9aKt_4core3ptr6uniqueINtB5_6UniquehE13new_uncheckedCsh5b2sQBIbur_14arc_heap_mutex(i8* %_2), !dbg !857
  br label %bb2, !dbg !857

bb2:                                              ; preds = %bb1
  ret i8* %0, !dbg !858
}

; <core::ptr::unique::Unique<std::io::error::Custom>>::cast::<u8>
; Function Attrs: inlinehint nonlazybind uwtable
define internal nonnull i8* @_RINvMs1_NtNtCs3p84KrD9aKt_4core3ptr6uniqueINtB6_6UniqueNtNtNtCs2bNvlddUlXM_3std2io5error6CustomE4casthECsh5b2sQBIbur_14arc_heap_mutex(i64* nonnull %self) unnamed_addr #1 !dbg !859 {
start:
  %self.dbg.spill = alloca i64*, align 8
  store i64* %self, i64** %self.dbg.spill, align 8
  call void @llvm.dbg.declare(metadata i64** %self.dbg.spill, metadata !871, metadata !DIExpression()), !dbg !873
; call <core::ptr::unique::Unique<std::io::error::Custom>>::as_ptr
  %_3 = call %"std::io::error::Custom"* @_RNvMs1_NtNtCs3p84KrD9aKt_4core3ptr6uniqueINtB5_6UniqueNtNtNtCs2bNvlddUlXM_3std2io5error6CustomE6as_ptrCsh5b2sQBIbur_14arc_heap_mutex(i64* nonnull %self), !dbg !874
  br label %bb1, !dbg !874

bb1:                                              ; preds = %start
  %_2 = bitcast %"std::io::error::Custom"* %_3 to i8*, !dbg !874
; call <core::ptr::unique::Unique<u8>>::new_unchecked
  %0 = call nonnull i8* @_RNvMs1_NtNtCs3p84KrD9aKt_4core3ptr6uniqueINtB5_6UniquehE13new_uncheckedCsh5b2sQBIbur_14arc_heap_mutex(i8* %_2), !dbg !875
  br label %bb2, !dbg !875

bb2:                                              ; preds = %bb1
  ret i8* %0, !dbg !876
}

; <core::ptr::unique::Unique<std::sys::unix::mutex::Mutex>>::cast::<u8>
; Function Attrs: inlinehint nonlazybind uwtable
define internal nonnull i8* @_RINvMs1_NtNtCs3p84KrD9aKt_4core3ptr6uniqueINtB6_6UniqueNtNtNtNtCs2bNvlddUlXM_3std3sys4unix5mutex5MutexE4casthECsh5b2sQBIbur_14arc_heap_mutex(i64* nonnull %self) unnamed_addr #1 !dbg !877 {
start:
  %self.dbg.spill = alloca i64*, align 8
  store i64* %self, i64** %self.dbg.spill, align 8
  call void @llvm.dbg.declare(metadata i64** %self.dbg.spill, metadata !889, metadata !DIExpression()), !dbg !891
; call <core::ptr::unique::Unique<std::sys::unix::mutex::Mutex>>::as_ptr
  %_3 = call %"std::sys::unix::mutex::Mutex"* @_RNvMs1_NtNtCs3p84KrD9aKt_4core3ptr6uniqueINtB5_6UniqueNtNtNtNtCs2bNvlddUlXM_3std3sys4unix5mutex5MutexE6as_ptrCsh5b2sQBIbur_14arc_heap_mutex(i64* nonnull %self), !dbg !892
  br label %bb1, !dbg !892

bb1:                                              ; preds = %start
  %_2 = bitcast %"std::sys::unix::mutex::Mutex"* %_3 to i8*, !dbg !892
; call <core::ptr::unique::Unique<u8>>::new_unchecked
  %0 = call nonnull i8* @_RNvMs1_NtNtCs3p84KrD9aKt_4core3ptr6uniqueINtB5_6UniquehE13new_uncheckedCsh5b2sQBIbur_14arc_heap_mutex(i8* %_2), !dbg !893
  br label %bb2, !dbg !893

bb2:                                              ; preds = %bb1
  ret i8* %0, !dbg !894
}

; <core::ptr::unique::Unique<[u8]>>::cast::<u8>
; Function Attrs: inlinehint nonlazybind uwtable
define internal nonnull i8* @_RINvMs1_NtNtCs3p84KrD9aKt_4core3ptr6uniqueINtB6_6UniqueShE4casthECsh5b2sQBIbur_14arc_heap_mutex(i8* nonnull %self.0, i64 %self.1) unnamed_addr #1 !dbg !895 {
start:
  %self.dbg.spill = alloca { i8*, i64 }, align 8
  %0 = getelementptr inbounds { i8*, i64 }, { i8*, i64 }* %self.dbg.spill, i32 0, i32 0
  store i8* %self.0, i8** %0, align 8
  %1 = getelementptr inbounds { i8*, i64 }, { i8*, i64 }* %self.dbg.spill, i32 0, i32 1
  store i64 %self.1, i64* %1, align 8
  call void @llvm.dbg.declare(metadata { i8*, i64 }* %self.dbg.spill, metadata !909, metadata !DIExpression()), !dbg !911
; call <core::ptr::unique::Unique<[u8]>>::as_ptr
  %2 = call { [0 x i8]*, i64 } @_RNvMs1_NtNtCs3p84KrD9aKt_4core3ptr6uniqueINtB5_6UniqueShE6as_ptrCsh5b2sQBIbur_14arc_heap_mutex(i8* nonnull %self.0, i64 %self.1), !dbg !912
  %_3.0 = extractvalue { [0 x i8]*, i64 } %2, 0, !dbg !912
  %_3.1 = extractvalue { [0 x i8]*, i64 } %2, 1, !dbg !912
  br label %bb1, !dbg !912

bb1:                                              ; preds = %start
  %_2 = bitcast [0 x i8]* %_3.0 to i8*, !dbg !912
; call <core::ptr::unique::Unique<u8>>::new_unchecked
  %3 = call nonnull i8* @_RNvMs1_NtNtCs3p84KrD9aKt_4core3ptr6uniqueINtB5_6UniquehE13new_uncheckedCsh5b2sQBIbur_14arc_heap_mutex(i8* %_2), !dbg !913
  br label %bb2, !dbg !913

bb2:                                              ; preds = %bb1
  ret i8* %3, !dbg !914
}

; <core::ptr::unique::Unique<u8>>::cast::<u8>
; Function Attrs: inlinehint nonlazybind uwtable
define internal nonnull i8* @_RINvMs1_NtNtCs3p84KrD9aKt_4core3ptr6uniqueINtB6_6UniquehE4casthECsh5b2sQBIbur_14arc_heap_mutex(i8* nonnull %self) unnamed_addr #1 !dbg !915 {
start:
  %self.dbg.spill = alloca i8*, align 8
  store i8* %self, i8** %self.dbg.spill, align 8
  call void @llvm.dbg.declare(metadata i8** %self.dbg.spill, metadata !919, metadata !DIExpression()), !dbg !921
; call <core::ptr::unique::Unique<u8>>::as_ptr
  %_3 = call i8* @_RNvMs1_NtNtCs3p84KrD9aKt_4core3ptr6uniqueINtB5_6UniquehE6as_ptrCsh5b2sQBIbur_14arc_heap_mutex(i8* nonnull %self), !dbg !922
  br label %bb1, !dbg !922

bb1:                                              ; preds = %start
; call <core::ptr::unique::Unique<u8>>::new_unchecked
  %0 = call nonnull i8* @_RNvMs1_NtNtCs3p84KrD9aKt_4core3ptr6uniqueINtB5_6UniquehE13new_uncheckedCsh5b2sQBIbur_14arc_heap_mutex(i8* %_3), !dbg !923
  br label %bb2, !dbg !923

bb2:                                              ; preds = %bb1
  ret i8* %0, !dbg !924
}

; <core::ptr::non_null::NonNull<alloc::sync::ArcInner<core::cell::UnsafeCell<core::option::Option<core::result::Result<(), alloc::boxed::Box<dyn core::any::Any + core::marker::Send>>>>>>>::cast::<u8>
; Function Attrs: inlinehint nonlazybind uwtable
define internal nonnull i8* @_RINvMs1_NtNtCs3p84KrD9aKt_4core3ptr8non_nullINtB6_7NonNullINtNtCs8RW06R9lH2S_5alloc4sync8ArcInnerINtNtBa_4cell10UnsafeCellINtNtBa_6option6OptionINtNtBa_6result6ResultuINtNtBZ_5boxed3BoxDNtNtBa_3any3AnyNtNtBa_6marker4SendEL_EEEEEE4casthECsh5b2sQBIbur_14arc_heap_mutex(i64* nonnull %self) unnamed_addr #1 !dbg !925 {
start:
  %self.dbg.spill = alloca i64*, align 8
  store i64* %self, i64** %self.dbg.spill, align 8
  call void @llvm.dbg.declare(metadata i64** %self.dbg.spill, metadata !930, metadata !DIExpression()), !dbg !931
; call <core::ptr::non_null::NonNull<alloc::sync::ArcInner<core::cell::UnsafeCell<core::option::Option<core::result::Result<(), alloc::boxed::Box<dyn core::any::Any + core::marker::Send>>>>>>>::as_ptr
  %_3 = call %"alloc::sync::ArcInner<std::cell::UnsafeCell<std::option::Option<std::result::Result<(), std::boxed::Box<dyn std::any::Any + std::marker::Send>>>>>"* @_RNvMs1_NtNtCs3p84KrD9aKt_4core3ptr8non_nullINtB5_7NonNullINtNtCs8RW06R9lH2S_5alloc4sync8ArcInnerINtNtB9_4cell10UnsafeCellINtNtB9_6option6OptionINtNtB9_6result6ResultuINtNtBY_5boxed3BoxDNtNtB9_3any3AnyNtNtB9_6marker4SendEL_EEEEEE6as_ptrCsh5b2sQBIbur_14arc_heap_mutex(i64* nonnull %self), !dbg !932
  br label %bb1, !dbg !932

bb1:                                              ; preds = %start
  %_2 = bitcast %"alloc::sync::ArcInner<std::cell::UnsafeCell<std::option::Option<std::result::Result<(), std::boxed::Box<dyn std::any::Any + std::marker::Send>>>>>"* %_3 to i8*, !dbg !932
; call <core::ptr::non_null::NonNull<u8>>::new_unchecked
  %0 = call nonnull i8* @_RNvMs1_NtNtCs3p84KrD9aKt_4core3ptr8non_nullINtB5_7NonNullhE13new_uncheckedCsh5b2sQBIbur_14arc_heap_mutex(i8* %_2), !dbg !933
  br label %bb2, !dbg !933

bb2:                                              ; preds = %bb1
  ret i8* %0, !dbg !934
}

; <core::ptr::non_null::NonNull<alloc::sync::ArcInner<std::sync::mutex::Mutex<alloc::vec::Vec<u8>>>>>::cast::<u8>
; Function Attrs: inlinehint nonlazybind uwtable
define internal nonnull i8* @_RINvMs1_NtNtCs3p84KrD9aKt_4core3ptr8non_nullINtB6_7NonNullINtNtCs8RW06R9lH2S_5alloc4sync8ArcInnerINtNtNtCs2bNvlddUlXM_3std4sync5mutex5MutexINtNtBZ_3vec3VechEEEE4casthECsh5b2sQBIbur_14arc_heap_mutex(i64* nonnull %self) unnamed_addr #1 !dbg !935 {
start:
  %self.dbg.spill = alloca i64*, align 8
  store i64* %self, i64** %self.dbg.spill, align 8
  call void @llvm.dbg.declare(metadata i64** %self.dbg.spill, metadata !939, metadata !DIExpression()), !dbg !941
; call <core::ptr::non_null::NonNull<alloc::sync::ArcInner<std::sync::mutex::Mutex<alloc::vec::Vec<u8>>>>>::as_ptr
  %_3 = call %"alloc::sync::ArcInner<std::sync::Mutex<std::vec::Vec<u8>>>"* @_RNvMs1_NtNtCs3p84KrD9aKt_4core3ptr8non_nullINtB5_7NonNullINtNtCs8RW06R9lH2S_5alloc4sync8ArcInnerINtNtNtCs2bNvlddUlXM_3std4sync5mutex5MutexINtNtBY_3vec3VechEEEE6as_ptrCsh5b2sQBIbur_14arc_heap_mutex(i64* nonnull %self), !dbg !942
  br label %bb1, !dbg !942

bb1:                                              ; preds = %start
  %_2 = bitcast %"alloc::sync::ArcInner<std::sync::Mutex<std::vec::Vec<u8>>>"* %_3 to i8*, !dbg !942
; call <core::ptr::non_null::NonNull<u8>>::new_unchecked
  %0 = call nonnull i8* @_RNvMs1_NtNtCs3p84KrD9aKt_4core3ptr8non_nullINtB5_7NonNullhE13new_uncheckedCsh5b2sQBIbur_14arc_heap_mutex(i8* %_2), !dbg !943
  br label %bb2, !dbg !943

bb2:                                              ; preds = %bb1
  ret i8* %0, !dbg !944
}

; <core::ptr::non_null::NonNull<alloc::sync::ArcInner<std::sync::mutex::Mutex<i32>>>>::cast::<u8>
; Function Attrs: inlinehint nonlazybind uwtable
define internal nonnull i8* @_RINvMs1_NtNtCs3p84KrD9aKt_4core3ptr8non_nullINtB6_7NonNullINtNtCs8RW06R9lH2S_5alloc4sync8ArcInnerINtNtNtCs2bNvlddUlXM_3std4sync5mutex5MutexlEEE4casthECsh5b2sQBIbur_14arc_heap_mutex(i64* nonnull %self) unnamed_addr #1 !dbg !945 {
start:
  %self.dbg.spill = alloca i64*, align 8
  store i64* %self, i64** %self.dbg.spill, align 8
  call void @llvm.dbg.declare(metadata i64** %self.dbg.spill, metadata !949, metadata !DIExpression()), !dbg !950
; call <core::ptr::non_null::NonNull<alloc::sync::ArcInner<std::sync::mutex::Mutex<i32>>>>::as_ptr
  %_3 = call %"alloc::sync::ArcInner<std::sync::Mutex<i32>>"* @_RNvMs1_NtNtCs3p84KrD9aKt_4core3ptr8non_nullINtB5_7NonNullINtNtCs8RW06R9lH2S_5alloc4sync8ArcInnerINtNtNtCs2bNvlddUlXM_3std4sync5mutex5MutexlEEE6as_ptrCsh5b2sQBIbur_14arc_heap_mutex(i64* nonnull %self), !dbg !951
  br label %bb1, !dbg !951

bb1:                                              ; preds = %start
  %_2 = bitcast %"alloc::sync::ArcInner<std::sync::Mutex<i32>>"* %_3 to i8*, !dbg !951
; call <core::ptr::non_null::NonNull<u8>>::new_unchecked
  %0 = call nonnull i8* @_RNvMs1_NtNtCs3p84KrD9aKt_4core3ptr8non_nullINtB5_7NonNullhE13new_uncheckedCsh5b2sQBIbur_14arc_heap_mutex(i8* %_2), !dbg !952
  br label %bb2, !dbg !952

bb2:                                              ; preds = %bb1
  ret i8* %0, !dbg !953
}

; <core::ptr::non_null::NonNull<alloc::sync::ArcInner<std::thread::Inner>>>::cast::<u8>
; Function Attrs: inlinehint nonlazybind uwtable
define internal nonnull i8* @_RINvMs1_NtNtCs3p84KrD9aKt_4core3ptr8non_nullINtB6_7NonNullINtNtCs8RW06R9lH2S_5alloc4sync8ArcInnerNtNtCs2bNvlddUlXM_3std6thread5InnerEE4casthECsh5b2sQBIbur_14arc_heap_mutex(i64* nonnull %self) unnamed_addr #1 !dbg !954 {
start:
  %self.dbg.spill = alloca i64*, align 8
  store i64* %self, i64** %self.dbg.spill, align 8
  call void @llvm.dbg.declare(metadata i64** %self.dbg.spill, metadata !958, metadata !DIExpression()), !dbg !960
; call <core::ptr::non_null::NonNull<alloc::sync::ArcInner<std::thread::Inner>>>::as_ptr
  %_3 = call %"alloc::sync::ArcInner<std::thread::Inner>"* @_RNvMs1_NtNtCs3p84KrD9aKt_4core3ptr8non_nullINtB5_7NonNullINtNtCs8RW06R9lH2S_5alloc4sync8ArcInnerNtNtCs2bNvlddUlXM_3std6thread5InnerEE6as_ptrCsh5b2sQBIbur_14arc_heap_mutex(i64* nonnull %self), !dbg !961
  br label %bb1, !dbg !961

bb1:                                              ; preds = %start
  %_2 = bitcast %"alloc::sync::ArcInner<std::thread::Inner>"* %_3 to i8*, !dbg !961
; call <core::ptr::non_null::NonNull<u8>>::new_unchecked
  %0 = call nonnull i8* @_RNvMs1_NtNtCs3p84KrD9aKt_4core3ptr8non_nullINtB5_7NonNullhE13new_uncheckedCsh5b2sQBIbur_14arc_heap_mutex(i8* %_2), !dbg !962
  br label %bb2, !dbg !962

bb2:                                              ; preds = %bb1
  ret i8* %0, !dbg !963
}

; <core::fmt::ArgumentV1>::new::<i32>
; Function Attrs: nonlazybind uwtable
define internal { i8*, i64* } @_RINvMs_NtCs3p84KrD9aKt_4core3fmtNtB5_10ArgumentV13newlECsh5b2sQBIbur_14arc_heap_mutex(i32* noalias readonly align 4 dereferenceable(4) %x, i1 (i32*, %"std::fmt::Formatter"*)* nonnull %f) unnamed_addr #0 !dbg !964 {
start:
  %0 = alloca %"core::fmt::Opaque"*, align 8
  %1 = alloca i1 (%"core::fmt::Opaque"*, %"std::fmt::Formatter"*)*, align 8
  %f.dbg.spill = alloca i1 (i32*, %"std::fmt::Formatter"*)*, align 8
  %x.dbg.spill = alloca i32*, align 8
  %2 = alloca { i8*, i64* }, align 8
  store i32* %x, i32** %x.dbg.spill, align 8
  call void @llvm.dbg.declare(metadata i32** %x.dbg.spill, metadata !997, metadata !DIExpression()), !dbg !999
  store i1 (i32*, %"std::fmt::Formatter"*)* %f, i1 (i32*, %"std::fmt::Formatter"*)** %f.dbg.spill, align 8
  call void @llvm.dbg.declare(metadata i1 (i32*, %"std::fmt::Formatter"*)** %f.dbg.spill, metadata !998, metadata !DIExpression()), !dbg !1000
  %3 = bitcast i1 (i32*, %"std::fmt::Formatter"*)* %f to i1 (%"core::fmt::Opaque"*, %"std::fmt::Formatter"*)*, !dbg !1001
  store i1 (%"core::fmt::Opaque"*, %"std::fmt::Formatter"*)* %3, i1 (%"core::fmt::Opaque"*, %"std::fmt::Formatter"*)** %1, align 8, !dbg !1001
  %_3 = load i1 (%"core::fmt::Opaque"*, %"std::fmt::Formatter"*)*, i1 (%"core::fmt::Opaque"*, %"std::fmt::Formatter"*)** %1, align 8, !dbg !1001, !nonnull !4
  br label %bb1, !dbg !1001

bb1:                                              ; preds = %start
  %4 = bitcast i32* %x to %"core::fmt::Opaque"*, !dbg !1002
  store %"core::fmt::Opaque"* %4, %"core::fmt::Opaque"** %0, align 8, !dbg !1002
  %_5 = load %"core::fmt::Opaque"*, %"core::fmt::Opaque"** %0, align 8, !dbg !1002, !nonnull !4
  br label %bb2, !dbg !1002

bb2:                                              ; preds = %bb1
  %5 = bitcast { i8*, i64* }* %2 to %"core::fmt::Opaque"**, !dbg !1003
  store %"core::fmt::Opaque"* %_5, %"core::fmt::Opaque"** %5, align 8, !dbg !1003
  %6 = getelementptr inbounds { i8*, i64* }, { i8*, i64* }* %2, i32 0, i32 1, !dbg !1003
  %7 = bitcast i64** %6 to i1 (%"core::fmt::Opaque"*, %"std::fmt::Formatter"*)**, !dbg !1003
  store i1 (%"core::fmt::Opaque"*, %"std::fmt::Formatter"*)* %_3, i1 (%"core::fmt::Opaque"*, %"std::fmt::Formatter"*)** %7, align 8, !dbg !1003
  %8 = getelementptr inbounds { i8*, i64* }, { i8*, i64* }* %2, i32 0, i32 0, !dbg !1004
  %9 = load i8*, i8** %8, align 8, !dbg !1004, !nonnull !4
  %10 = getelementptr inbounds { i8*, i64* }, { i8*, i64* }* %2, i32 0, i32 1, !dbg !1004
  %11 = load i64*, i64** %10, align 8, !dbg !1004, !nonnull !4
  %12 = insertvalue { i8*, i64* } undef, i8* %9, 0, !dbg !1004
  %13 = insertvalue { i8*, i64* } %12, i64* %11, 1, !dbg !1004
  ret { i8*, i64* } %13, !dbg !1004
}

; std::rt::lang_start::<()>
; Function Attrs: nonlazybind uwtable
define hidden i64 @_RINvNtCs2bNvlddUlXM_3std2rt10lang_startuECsh5b2sQBIbur_14arc_heap_mutex(void ()* nonnull %main, i64 %argc, i8** %argv) unnamed_addr #0 !dbg !1005 {
start:
  %argv.dbg.spill = alloca i8**, align 8
  %argc.dbg.spill = alloca i64, align 8
  %main.dbg.spill = alloca void ()*, align 8
  %_7 = alloca i64*, align 8
  store void ()* %main, void ()** %main.dbg.spill, align 8
  call void @llvm.dbg.declare(metadata void ()** %main.dbg.spill, metadata !1012, metadata !DIExpression()), !dbg !1015
  store i64 %argc, i64* %argc.dbg.spill, align 8
  call void @llvm.dbg.declare(metadata i64* %argc.dbg.spill, metadata !1013, metadata !DIExpression()), !dbg !1016
  store i8** %argv, i8*** %argv.dbg.spill, align 8
  call void @llvm.dbg.declare(metadata i8*** %argv.dbg.spill, metadata !1014, metadata !DIExpression()), !dbg !1017
  %0 = bitcast i64** %_7 to void ()**, !dbg !1018
  store void ()* %main, void ()** %0, align 8, !dbg !1018
  %_4.0 = bitcast i64** %_7 to {}*, !dbg !1019
; call std::rt::lang_start_internal
  %1 = call i64 @_ZN3std2rt19lang_start_internal17he4958117ec6901fdE({}* nonnull align 1 %_4.0, [3 x i64]* noalias readonly align 8 dereferenceable(24) bitcast ({ void (i64**)*, i64, i64, i32 (i64**)*, i32 (i64**)*, i32 (i64**)* }* @vtable.1 to [3 x i64]*), i64 %argc, i8** %argv), !dbg !1020
  br label %bb1, !dbg !1020

bb1:                                              ; preds = %start
  ret i64 %1, !dbg !1021
}

; std::panic::catch_unwind::<std::panic::AssertUnwindSafe<<std::thread::Builder>::spawn_unchecked<arc_heap_mutex::main::{closure#0}, ()>::{closure#0}::{closure#0}>, ()>
; Function Attrs: nonlazybind uwtable
define internal { i8*, i8* } @_RINvNtCs2bNvlddUlXM_3std5panic12catch_unwindINtB2_16AssertUnwindSafeNCNCINvMNtB4_6threadNtB1c_7Builder15spawn_uncheckedNCNvCsh5b2sQBIbur_14arc_heap_mutex4main0uE00EuEB1X_(i64* nonnull %f) unnamed_addr #0 !dbg !1022 {
start:
  %f.dbg.spill = alloca i64*, align 8
  store i64* %f, i64** %f.dbg.spill, align 8
  call void @llvm.dbg.declare(metadata i64** %f.dbg.spill, metadata !1037, metadata !DIExpression()), !dbg !1041
; call std::panicking::try::<(), std::panic::AssertUnwindSafe<<std::thread::Builder>::spawn_unchecked<arc_heap_mutex::main::{closure#0}, ()>::{closure#0}::{closure#0}>>
  %0 = call { i8*, i8* } @_RINvNtCs2bNvlddUlXM_3std9panicking3tryuINtNtB4_5panic16AssertUnwindSafeNCNCINvMNtB4_6threadNtB1f_7Builder15spawn_uncheckedNCNvCsh5b2sQBIbur_14arc_heap_mutex4main0uE00EEB20_(i64* nonnull %f), !dbg !1042
  %1 = extractvalue { i8*, i8* } %0, 0, !dbg !1042
  %2 = extractvalue { i8*, i8* } %0, 1, !dbg !1042
  br label %bb1, !dbg !1042

bb1:                                              ; preds = %start
  %3 = insertvalue { i8*, i8* } undef, i8* %1, 0, !dbg !1043
  %4 = insertvalue { i8*, i8* } %3, i8* %2, 1, !dbg !1043
  ret { i8*, i8* } %4, !dbg !1043
}

; std::thread::spawn::<arc_heap_mutex::main::{closure#0}, ()>
; Function Attrs: nonlazybind uwtable
define internal void @_RINvNtCs2bNvlddUlXM_3std6thread5spawnNCNvCsh5b2sQBIbur_14arc_heap_mutex4main0uEBD_(%"std::thread::JoinHandle<()>"* noalias nocapture sret dereferenceable(32) %0, i64* nonnull %1) unnamed_addr #0 personality i32 (i32, i32, i64, %"unwind::libunwind::_Unwind_Exception"*, %"unwind::libunwind::_Unwind_Context"*)* @rust_eh_personality !dbg !1044 {
start:
  %2 = alloca { i8*, i32 }, align 8
  %_7 = alloca i8, align 1
  %_3 = alloca %"std::thread::Builder", align 8
  %_2 = alloca %"std::result::Result<std::thread::JoinHandle<()>, std::io::Error>", align 8
  %f = alloca i64*, align 8
  store i64* %1, i64** %f, align 8
  call void @llvm.dbg.declare(metadata i64** %f, metadata !1048, metadata !DIExpression()), !dbg !1049
  store i8 0, i8* %_7, align 1, !dbg !1050
  store i8 1, i8* %_7, align 1, !dbg !1050
; invoke std::thread::Builder::new
  invoke void @_ZN3std6thread7Builder3new17h18aec502241fcaefE(%"std::thread::Builder"* noalias nocapture sret dereferenceable(40) %_3)
          to label %bb1 unwind label %cleanup, !dbg !1050

bb1:                                              ; preds = %start
  store i8 0, i8* %_7, align 1, !dbg !1051
  %_4 = load i64*, i64** %f, align 8, !dbg !1051, !nonnull !4
; invoke <std::thread::Builder>::spawn::<arc_heap_mutex::main::{closure#0}, ()>
  invoke void @_RINvMNtCs2bNvlddUlXM_3std6threadNtB3_7Builder5spawnNCNvCsh5b2sQBIbur_14arc_heap_mutex4main0uEBR_(%"std::result::Result<std::thread::JoinHandle<()>, std::io::Error>"* noalias nocapture sret dereferenceable(40) %_2, %"std::thread::Builder"* noalias nocapture dereferenceable(40) %_3, i64* nonnull %_4)
          to label %bb2 unwind label %cleanup, !dbg !1050

bb2:                                              ; preds = %bb1
; invoke <core::result::Result<std::thread::JoinHandle<()>, std::io::error::Error>>::expect
  invoke void @_RNvMs3_NtCs3p84KrD9aKt_4core6resultINtB5_6ResultINtNtCs2bNvlddUlXM_3std6thread10JoinHandleuENtNtNtBP_2io5error5ErrorE6expectCsh5b2sQBIbur_14arc_heap_mutex(%"std::thread::JoinHandle<()>"* noalias nocapture sret dereferenceable(32) %0, %"std::result::Result<std::thread::JoinHandle<()>, std::io::Error>"* noalias nocapture dereferenceable(40) %_2, [0 x i8]* noalias nonnull readonly align 1 bitcast (<{ [22 x i8] }>* @alloc59 to [0 x i8]*), i64 22, %"std::panic::Location"* noalias readonly align 8 dereferenceable(24) bitcast (<{ i8*, [16 x i8] }>* @alloc61 to %"std::panic::Location"*))
          to label %bb3 unwind label %cleanup, !dbg !1050

bb3:                                              ; preds = %bb2
  ret void, !dbg !1052

bb4:                                              ; preds = %bb5, %bb6
  %3 = bitcast { i8*, i32 }* %2 to i8**, !dbg !1053
  %4 = load i8*, i8** %3, align 8, !dbg !1053
  %5 = getelementptr inbounds { i8*, i32 }, { i8*, i32 }* %2, i32 0, i32 1, !dbg !1053
  %6 = load i32, i32* %5, align 8, !dbg !1053
  %7 = insertvalue { i8*, i32 } undef, i8* %4, 0, !dbg !1053
  %8 = insertvalue { i8*, i32 } %7, i32 %6, 1, !dbg !1053
  resume { i8*, i32 } %8, !dbg !1053

bb5:                                              ; preds = %bb6
; call core::ptr::drop_in_place::<arc_heap_mutex::main::{closure#0}>
  call void @_RINvNtCs3p84KrD9aKt_4core3ptr13drop_in_placeNCNvCsh5b2sQBIbur_14arc_heap_mutex4main0EBK_(i64** %f) #14, !dbg !1054
  br label %bb4, !dbg !1054

bb6:                                              ; preds = %cleanup
  %9 = load i8, i8* %_7, align 1, !dbg !1054, !range !600
  %10 = trunc i8 %9 to i1, !dbg !1054
  br i1 %10, label %bb5, label %bb4, !dbg !1054

cleanup:                                          ; preds = %bb2, %bb1, %start
  %11 = landingpad { i8*, i32 }
          cleanup
  %12 = extractvalue { i8*, i32 } %11, 0
  %13 = extractvalue { i8*, i32 } %11, 1
  %14 = getelementptr inbounds { i8*, i32 }, { i8*, i32 }* %2, i32 0, i32 0
  store i8* %12, i8** %14, align 8
  %15 = getelementptr inbounds { i8*, i32 }, { i8*, i32 }* %2, i32 0, i32 1
  store i32 %13, i32* %15, align 8
  br label %bb6
}

; std::panicking::try::<(), std::panic::AssertUnwindSafe<<std::thread::Builder>::spawn_unchecked<arc_heap_mutex::main::{closure#0}, ()>::{closure#0}::{closure#0}>>
; Function Attrs: nonlazybind uwtable
define internal { i8*, i8* } @_RINvNtCs2bNvlddUlXM_3std9panicking3tryuINtNtB4_5panic16AssertUnwindSafeNCNCINvMNtB4_6threadNtB1f_7Builder15spawn_uncheckedNCNvCsh5b2sQBIbur_14arc_heap_mutex4main0uE00EEB20_(i64* nonnull %f) unnamed_addr #0 !dbg !1055 {
start:
  %slot.dbg.spill.i = alloca { i8*, i64* }, align 8
  %value.dbg.spill.i = alloca i64*, align 8
  %0 = alloca i64*, align 8
  %1 = alloca i32, align 4
  %data_ptr.dbg.spill = alloca i8*, align 8
  %f.dbg.spill = alloca i64*, align 8
  %data = alloca %"std::panicking::r#try::Data<std::panic::AssertUnwindSafe<[closure@std::thread::Builder::spawn_unchecked<[closure@src/main.rs:12:26: 18:3], ()>::{closure#0}::{closure#0}]>, ()>", align 8
  %2 = alloca { i8*, i8* }, align 8
  store i64* %f, i64** %f.dbg.spill, align 8
  call void @llvm.dbg.declare(metadata i64** %f.dbg.spill, metadata !1059, metadata !DIExpression()), !dbg !1086
  call void @llvm.dbg.declare(metadata %"std::panicking::r#try::Data<std::panic::AssertUnwindSafe<[closure@std::thread::Builder::spawn_unchecked<[closure@src/main.rs:12:26: 18:3], ()>::{closure#0}::{closure#0}]>, ()>"* %data, metadata !1060, metadata !DIExpression()), !dbg !1087
  store i64* %f, i64** %value.dbg.spill.i, align 8
  call void @llvm.dbg.declare(metadata i64** %value.dbg.spill.i, metadata !1088, metadata !DIExpression()), !dbg !1094
  store i64* %f, i64** %0, align 8, !dbg !1096
  %3 = load i64*, i64** %0, align 8, !dbg !1097, !nonnull !4
  br label %bb1, !dbg !1098

bb1:                                              ; preds = %start
  %4 = bitcast %"std::panicking::r#try::Data<std::panic::AssertUnwindSafe<[closure@std::thread::Builder::spawn_unchecked<[closure@src/main.rs:12:26: 18:3], ()>::{closure#0}::{closure#0}]>, ()>"* %data to i64**, !dbg !1099
  store i64* %3, i64** %4, align 8, !dbg !1099
  %data_ptr = bitcast %"std::panicking::r#try::Data<std::panic::AssertUnwindSafe<[closure@std::thread::Builder::spawn_unchecked<[closure@src/main.rs:12:26: 18:3], ()>::{closure#0}::{closure#0}]>, ()>"* %data to i8*, !dbg !1100
  store i8* %data_ptr, i8** %data_ptr.dbg.spill, align 8, !dbg !1100
  call void @llvm.dbg.declare(metadata i8** %data_ptr.dbg.spill, metadata !1083, metadata !DIExpression()), !dbg !1101
  %5 = call i32 @__rust_try(void (i8*)* @_RINvNvNtCs2bNvlddUlXM_3std9panicking3try7do_callINtNtB6_5panic16AssertUnwindSafeNCNCINvMNtB6_6threadNtB1o_7Builder15spawn_uncheckedNCNvCsh5b2sQBIbur_14arc_heap_mutex4main0uE00EuEB29_, i8* %data_ptr, void (i8*, i8*)* @_RINvNvNtCs2bNvlddUlXM_3std9panicking3try8do_catchINtNtB6_5panic16AssertUnwindSafeNCNCINvMNtB6_6threadNtB1p_7Builder15spawn_uncheckedNCNvCsh5b2sQBIbur_14arc_heap_mutex4main0uE00EuEB2a_), !dbg !1102
  store i32 %5, i32* %1, align 4, !dbg !1102
  %_9 = load i32, i32* %1, align 4, !dbg !1102
  br label %bb2, !dbg !1102

bb2:                                              ; preds = %bb1
  %6 = icmp eq i32 %_9, 0, !dbg !1103
  br i1 %6, label %bb3, label %bb4, !dbg !1103

bb3:                                              ; preds = %bb2
  call void @llvm.dbg.declare(metadata %"std::mem::ManuallyDrop<()>"* undef, metadata !1104, metadata !DIExpression()), !dbg !1109
  br label %bb5, !dbg !1111

bb4:                                              ; preds = %bb2
  %7 = bitcast %"std::panicking::r#try::Data<std::panic::AssertUnwindSafe<[closure@std::thread::Builder::spawn_unchecked<[closure@src/main.rs:12:26: 18:3], ()>::{closure#0}::{closure#0}]>, ()>"* %data to { i8*, i64* }*, !dbg !1112
  %8 = getelementptr inbounds { i8*, i64* }, { i8*, i64* }* %7, i32 0, i32 0, !dbg !1112
  %_17.0 = load i8*, i8** %8, align 8, !dbg !1112, !nonnull !4
  %9 = getelementptr inbounds { i8*, i64* }, { i8*, i64* }* %7, i32 0, i32 1, !dbg !1112
  %_17.1 = load i64*, i64** %9, align 8, !dbg !1112, !nonnull !4
  %10 = getelementptr inbounds { i8*, i64* }, { i8*, i64* }* %slot.dbg.spill.i, i32 0, i32 0
  store i8* %_17.0, i8** %10, align 8, !noalias !1113
  %11 = getelementptr inbounds { i8*, i64* }, { i8*, i64* }* %slot.dbg.spill.i, i32 0, i32 1
  store i64* %_17.1, i64** %11, align 8, !noalias !1113
  call void @llvm.dbg.declare(metadata { i8*, i64* }* %slot.dbg.spill.i, metadata !1117, metadata !DIExpression()), !dbg !1122
  %12 = bitcast i8* %_17.0 to {}*, !dbg !1124
  %13 = bitcast i64* %_17.1 to [3 x i64]*, !dbg !1124
  %14 = insertvalue { {}*, [3 x i64]* } undef, {}* %12, 0, !dbg !1125
  %15 = insertvalue { {}*, [3 x i64]* } %14, [3 x i64]* %13, 1, !dbg !1125
  %_16.0 = extractvalue { {}*, [3 x i64]* } %15, 0, !dbg !1126
  %_16.1 = extractvalue { {}*, [3 x i64]* } %15, 1, !dbg !1126
  br label %bb6, !dbg !1126

bb5:                                              ; preds = %bb3
  %16 = bitcast { i8*, i8* }* %2 to %"std::result::Result<(), std::boxed::Box<dyn std::any::Any + std::marker::Send>>::Ok"*, !dbg !1127
  %17 = bitcast %"std::result::Result<(), std::boxed::Box<dyn std::any::Any + std::marker::Send>>::Ok"* %16 to {}*, !dbg !1127
  %18 = bitcast { i8*, i8* }* %2 to {}**, !dbg !1127
  store {}* null, {}** %18, align 8, !dbg !1127
  br label %bb7, !dbg !1103

bb6:                                              ; preds = %bb4
  %19 = bitcast { i8*, i8* }* %2 to { {}*, [3 x i64]* }*, !dbg !1128
  %20 = getelementptr inbounds { {}*, [3 x i64]* }, { {}*, [3 x i64]* }* %19, i32 0, i32 0, !dbg !1128
  store {}* %_16.0, {}** %20, align 8, !dbg !1128
  %21 = getelementptr inbounds { {}*, [3 x i64]* }, { {}*, [3 x i64]* }* %19, i32 0, i32 1, !dbg !1128
  store [3 x i64]* %_16.1, [3 x i64]** %21, align 8, !dbg !1128
  br label %bb7, !dbg !1103

bb7:                                              ; preds = %bb5, %bb6
  %22 = getelementptr inbounds { i8*, i8* }, { i8*, i8* }* %2, i32 0, i32 0, !dbg !1129
  %23 = load i8*, i8** %22, align 8, !dbg !1129
  %24 = getelementptr inbounds { i8*, i8* }, { i8*, i8* }* %2, i32 0, i32 1, !dbg !1129
  %25 = load i8*, i8** %24, align 8, !dbg !1129
  %26 = insertvalue { i8*, i8* } undef, i8* %23, 0, !dbg !1129
  %27 = insertvalue { i8*, i8* } %26, i8* %25, 1, !dbg !1129
  ret { i8*, i8* } %27, !dbg !1129
}

; core::intrinsics::copy_nonoverlapping::<core::option::Option<core::result::Result<(), alloc::boxed::Box<dyn core::any::Any + core::marker::Send>>>>
; Function Attrs: inlinehint nonlazybind uwtable
define internal void @_RINvNtCs3p84KrD9aKt_4core10intrinsics19copy_nonoverlappingINtNtB4_6option6OptionINtNtB4_6result6ResultuINtNtCs8RW06R9lH2S_5alloc5boxed3BoxDNtNtB4_3any3AnyNtNtB4_6marker4SendEL_EEEECsh5b2sQBIbur_14arc_heap_mutex(%"std::option::Option<std::result::Result<(), std::boxed::Box<dyn std::any::Any + std::marker::Send>>>"* %src, %"std::option::Option<std::result::Result<(), std::boxed::Box<dyn std::any::Any + std::marker::Send>>>"* %dst, i64 %count) unnamed_addr #1 !dbg !1130 {
start:
  %count.dbg.spill = alloca i64, align 8
  %dst.dbg.spill = alloca %"std::option::Option<std::result::Result<(), std::boxed::Box<dyn std::any::Any + std::marker::Send>>>"*, align 8
  %src.dbg.spill = alloca %"std::option::Option<std::result::Result<(), std::boxed::Box<dyn std::any::Any + std::marker::Send>>>"*, align 8
  store %"std::option::Option<std::result::Result<(), std::boxed::Box<dyn std::any::Any + std::marker::Send>>>"* %src, %"std::option::Option<std::result::Result<(), std::boxed::Box<dyn std::any::Any + std::marker::Send>>>"** %src.dbg.spill, align 8
  call void @llvm.dbg.declare(metadata %"std::option::Option<std::result::Result<(), std::boxed::Box<dyn std::any::Any + std::marker::Send>>>"** %src.dbg.spill, metadata !1138, metadata !DIExpression()), !dbg !1141
  store %"std::option::Option<std::result::Result<(), std::boxed::Box<dyn std::any::Any + std::marker::Send>>>"* %dst, %"std::option::Option<std::result::Result<(), std::boxed::Box<dyn std::any::Any + std::marker::Send>>>"** %dst.dbg.spill, align 8
  call void @llvm.dbg.declare(metadata %"std::option::Option<std::result::Result<(), std::boxed::Box<dyn std::any::Any + std::marker::Send>>>"** %dst.dbg.spill, metadata !1139, metadata !DIExpression()), !dbg !1142
  store i64 %count, i64* %count.dbg.spill, align 8
  call void @llvm.dbg.declare(metadata i64* %count.dbg.spill, metadata !1140, metadata !DIExpression()), !dbg !1143
  %0 = mul i64 24, %count, !dbg !1144
  %1 = bitcast %"std::option::Option<std::result::Result<(), std::boxed::Box<dyn std::any::Any + std::marker::Send>>>"* %dst to i8*, !dbg !1144
  %2 = bitcast %"std::option::Option<std::result::Result<(), std::boxed::Box<dyn std::any::Any + std::marker::Send>>>"* %src to i8*, !dbg !1144
  call void @llvm.memcpy.p0i8.p0i8.i64(i8* align 8 %1, i8* align 8 %2, i64 %0, i1 false), !dbg !1144
  br label %bb1, !dbg !1144

bb1:                                              ; preds = %start
  ret void, !dbg !1145
}

; core::intrinsics::copy_nonoverlapping::<core::option::Option<std::sys::unix::thread::Thread>>
; Function Attrs: inlinehint nonlazybind uwtable
define internal void @_RINvNtCs3p84KrD9aKt_4core10intrinsics19copy_nonoverlappingINtNtB4_6option6OptionNtNtNtNtCs2bNvlddUlXM_3std3sys4unix6thread6ThreadEECsh5b2sQBIbur_14arc_heap_mutex({ i64, i64 }* %src, { i64, i64 }* %dst, i64 %count) unnamed_addr #1 !dbg !1146 {
start:
  %count.dbg.spill = alloca i64, align 8
  %dst.dbg.spill = alloca { i64, i64 }*, align 8
  %src.dbg.spill = alloca { i64, i64 }*, align 8
  store { i64, i64 }* %src, { i64, i64 }** %src.dbg.spill, align 8
  call void @llvm.dbg.declare(metadata { i64, i64 }** %src.dbg.spill, metadata !1152, metadata !DIExpression()), !dbg !1157
  store { i64, i64 }* %dst, { i64, i64 }** %dst.dbg.spill, align 8
  call void @llvm.dbg.declare(metadata { i64, i64 }** %dst.dbg.spill, metadata !1153, metadata !DIExpression()), !dbg !1158
  store i64 %count, i64* %count.dbg.spill, align 8
  call void @llvm.dbg.declare(metadata i64* %count.dbg.spill, metadata !1154, metadata !DIExpression()), !dbg !1159
  %0 = mul i64 16, %count, !dbg !1160
  %1 = bitcast { i64, i64 }* %dst to i8*, !dbg !1160
  %2 = bitcast { i64, i64 }* %src to i8*, !dbg !1160
  call void @llvm.memcpy.p0i8.p0i8.i64(i8* align 8 %1, i8* align 8 %2, i64 %0, i1 false), !dbg !1160
  br label %bb1, !dbg !1160

bb1:                                              ; preds = %start
  ret void, !dbg !1161
}

; core::intrinsics::copy_nonoverlapping::<std::panic::AssertUnwindSafe<<std::thread::Builder>::spawn_unchecked<arc_heap_mutex::main::{closure#0}, ()>::{closure#0}::{closure#0}>>
; Function Attrs: inlinehint nonlazybind uwtable
define internal void @_RINvNtCs3p84KrD9aKt_4core10intrinsics19copy_nonoverlappingINtNtCs2bNvlddUlXM_3std5panic16AssertUnwindSafeNCNCINvMNtBZ_6threadNtB1N_7Builder15spawn_uncheckedNCNvCsh5b2sQBIbur_14arc_heap_mutex4main0uE00EEB2y_(i64** %src, i64** %dst, i64 %count) unnamed_addr #1 !dbg !1162 {
start:
  %count.dbg.spill = alloca i64, align 8
  %dst.dbg.spill = alloca i64**, align 8
  %src.dbg.spill = alloca i64**, align 8
  store i64** %src, i64*** %src.dbg.spill, align 8
  call void @llvm.dbg.declare(metadata i64*** %src.dbg.spill, metadata !1168, metadata !DIExpression()), !dbg !1171
  store i64** %dst, i64*** %dst.dbg.spill, align 8
  call void @llvm.dbg.declare(metadata i64*** %dst.dbg.spill, metadata !1169, metadata !DIExpression()), !dbg !1172
  store i64 %count, i64* %count.dbg.spill, align 8
  call void @llvm.dbg.declare(metadata i64* %count.dbg.spill, metadata !1170, metadata !DIExpression()), !dbg !1173
  %0 = mul i64 8, %count, !dbg !1174
  %1 = bitcast i64** %dst to i8*, !dbg !1174
  %2 = bitcast i64** %src to i8*, !dbg !1174
  call void @llvm.memcpy.p0i8.p0i8.i64(i8* align 8 %1, i8* align 8 %2, i64 %0, i1 false), !dbg !1174
  br label %bb1, !dbg !1174

bb1:                                              ; preds = %start
  ret void, !dbg !1175
}

; core::intrinsics::copy_nonoverlapping::<u8>
; Function Attrs: inlinehint nonlazybind uwtable
define internal void @_RINvNtCs3p84KrD9aKt_4core10intrinsics19copy_nonoverlappinghECsh5b2sQBIbur_14arc_heap_mutex(i8* %src, i8* %dst, i64 %count) unnamed_addr #1 !dbg !1176 {
start:
  %count.dbg.spill = alloca i64, align 8
  %dst.dbg.spill = alloca i8*, align 8
  %src.dbg.spill = alloca i8*, align 8
  store i8* %src, i8** %src.dbg.spill, align 8
  call void @llvm.dbg.declare(metadata i8** %src.dbg.spill, metadata !1180, metadata !DIExpression()), !dbg !1183
  store i8* %dst, i8** %dst.dbg.spill, align 8
  call void @llvm.dbg.declare(metadata i8** %dst.dbg.spill, metadata !1181, metadata !DIExpression()), !dbg !1184
  store i64 %count, i64* %count.dbg.spill, align 8
  call void @llvm.dbg.declare(metadata i64* %count.dbg.spill, metadata !1182, metadata !DIExpression()), !dbg !1185
  %0 = mul i64 1, %count, !dbg !1186
  call void @llvm.memcpy.p0i8.p0i8.i64(i8* align 1 %dst, i8* align 1 %src, i64 %0, i1 false), !dbg !1186
  br label %bb1, !dbg !1186

bb1:                                              ; preds = %start
  ret void, !dbg !1187
}

; core::intrinsics::copy_nonoverlapping::<i32>
; Function Attrs: inlinehint nonlazybind uwtable
define internal void @_RINvNtCs3p84KrD9aKt_4core10intrinsics19copy_nonoverlappinglECsh5b2sQBIbur_14arc_heap_mutex(i32* %src, i32* %dst, i64 %count) unnamed_addr #1 !dbg !1188 {
start:
  %count.dbg.spill = alloca i64, align 8
  %dst.dbg.spill = alloca i32*, align 8
  %src.dbg.spill = alloca i32*, align 8
  store i32* %src, i32** %src.dbg.spill, align 8
  call void @llvm.dbg.declare(metadata i32** %src.dbg.spill, metadata !1194, metadata !DIExpression()), !dbg !1197
  store i32* %dst, i32** %dst.dbg.spill, align 8
  call void @llvm.dbg.declare(metadata i32** %dst.dbg.spill, metadata !1195, metadata !DIExpression()), !dbg !1198
  store i64 %count, i64* %count.dbg.spill, align 8
  call void @llvm.dbg.declare(metadata i64* %count.dbg.spill, metadata !1196, metadata !DIExpression()), !dbg !1199
  %0 = mul i64 4, %count, !dbg !1200
  %1 = bitcast i32* %dst to i8*, !dbg !1200
  %2 = bitcast i32* %src to i8*, !dbg !1200
  call void @llvm.memcpy.p0i8.p0i8.i64(i8* align 4 %1, i8* align 4 %2, i64 %0, i1 false), !dbg !1200
  br label %bb1, !dbg !1200

bb1:                                              ; preds = %start
  ret void, !dbg !1201
}

; core::mem::size_of_val_raw::<alloc::sync::ArcInner<core::cell::UnsafeCell<core::option::Option<core::result::Result<(), alloc::boxed::Box<dyn core::any::Any + core::marker::Send>>>>>>
; Function Attrs: inlinehint nonlazybind uwtable
define internal i64 @_RINvNtCs3p84KrD9aKt_4core3mem15size_of_val_rawINtNtCs8RW06R9lH2S_5alloc4sync8ArcInnerINtNtB4_4cell10UnsafeCellINtNtB4_6option6OptionINtNtB4_6result6ResultuINtNtBN_5boxed3BoxDNtNtB4_3any3AnyNtNtB4_6marker4SendEL_EEEEEECsh5b2sQBIbur_14arc_heap_mutex(%"alloc::sync::ArcInner<std::cell::UnsafeCell<std::option::Option<std::result::Result<(), std::boxed::Box<dyn std::any::Any + std::marker::Send>>>>>"* %val) unnamed_addr #1 !dbg !1202 {
start:
  %0 = alloca i64, align 8
  %val.dbg.spill = alloca %"alloc::sync::ArcInner<std::cell::UnsafeCell<std::option::Option<std::result::Result<(), std::boxed::Box<dyn std::any::Any + std::marker::Send>>>>>"*, align 8
  store %"alloc::sync::ArcInner<std::cell::UnsafeCell<std::option::Option<std::result::Result<(), std::boxed::Box<dyn std::any::Any + std::marker::Send>>>>>"* %val, %"alloc::sync::ArcInner<std::cell::UnsafeCell<std::option::Option<std::result::Result<(), std::boxed::Box<dyn std::any::Any + std::marker::Send>>>>>"** %val.dbg.spill, align 8
  call void @llvm.dbg.declare(metadata %"alloc::sync::ArcInner<std::cell::UnsafeCell<std::option::Option<std::result::Result<(), std::boxed::Box<dyn std::any::Any + std::marker::Send>>>>>"** %val.dbg.spill, metadata !1207, metadata !DIExpression()), !dbg !1208
  store i64 40, i64* %0, align 8, !dbg !1209
  %1 = load i64, i64* %0, align 8, !dbg !1209
  br label %bb1, !dbg !1209

bb1:                                              ; preds = %start
  ret i64 %1, !dbg !1210
}

; core::mem::size_of_val_raw::<alloc::sync::ArcInner<std::sync::mutex::Mutex<alloc::vec::Vec<u8>>>>
; Function Attrs: inlinehint nonlazybind uwtable
define internal i64 @_RINvNtCs3p84KrD9aKt_4core3mem15size_of_val_rawINtNtCs8RW06R9lH2S_5alloc4sync8ArcInnerINtNtNtCs2bNvlddUlXM_3std4sync5mutex5MutexINtNtBN_3vec3VechEEEECsh5b2sQBIbur_14arc_heap_mutex(%"alloc::sync::ArcInner<std::sync::Mutex<std::vec::Vec<u8>>>"* %val) unnamed_addr #1 !dbg !1211 {
start:
  %0 = alloca i64, align 8
  %val.dbg.spill = alloca %"alloc::sync::ArcInner<std::sync::Mutex<std::vec::Vec<u8>>>"*, align 8
  store %"alloc::sync::ArcInner<std::sync::Mutex<std::vec::Vec<u8>>>"* %val, %"alloc::sync::ArcInner<std::sync::Mutex<std::vec::Vec<u8>>>"** %val.dbg.spill, align 8
  call void @llvm.dbg.declare(metadata %"alloc::sync::ArcInner<std::sync::Mutex<std::vec::Vec<u8>>>"** %val.dbg.spill, metadata !1215, metadata !DIExpression()), !dbg !1216
  store i64 56, i64* %0, align 8, !dbg !1217
  %1 = load i64, i64* %0, align 8, !dbg !1217
  br label %bb1, !dbg !1217

bb1:                                              ; preds = %start
  ret i64 %1, !dbg !1218
}

; core::mem::size_of_val_raw::<alloc::sync::ArcInner<std::sync::mutex::Mutex<i32>>>
; Function Attrs: inlinehint nonlazybind uwtable
define internal i64 @_RINvNtCs3p84KrD9aKt_4core3mem15size_of_val_rawINtNtCs8RW06R9lH2S_5alloc4sync8ArcInnerINtNtNtCs2bNvlddUlXM_3std4sync5mutex5MutexlEEECsh5b2sQBIbur_14arc_heap_mutex(%"alloc::sync::ArcInner<std::sync::Mutex<i32>>"* %val) unnamed_addr #1 !dbg !1219 {
start:
  %0 = alloca i64, align 8
  %val.dbg.spill = alloca %"alloc::sync::ArcInner<std::sync::Mutex<i32>>"*, align 8
  store %"alloc::sync::ArcInner<std::sync::Mutex<i32>>"* %val, %"alloc::sync::ArcInner<std::sync::Mutex<i32>>"** %val.dbg.spill, align 8
  call void @llvm.dbg.declare(metadata %"alloc::sync::ArcInner<std::sync::Mutex<i32>>"** %val.dbg.spill, metadata !1223, metadata !DIExpression()), !dbg !1224
  store i64 32, i64* %0, align 8, !dbg !1225
  %1 = load i64, i64* %0, align 8, !dbg !1225
  br label %bb1, !dbg !1225

bb1:                                              ; preds = %start
  ret i64 %1, !dbg !1226
}

; core::mem::size_of_val_raw::<alloc::sync::ArcInner<std::thread::Inner>>
; Function Attrs: inlinehint nonlazybind uwtable
define internal i64 @_RINvNtCs3p84KrD9aKt_4core3mem15size_of_val_rawINtNtCs8RW06R9lH2S_5alloc4sync8ArcInnerNtNtCs2bNvlddUlXM_3std6thread5InnerEECsh5b2sQBIbur_14arc_heap_mutex(%"alloc::sync::ArcInner<std::thread::Inner>"* %val) unnamed_addr #1 !dbg !1227 {
start:
  %0 = alloca i64, align 8
  %val.dbg.spill = alloca %"alloc::sync::ArcInner<std::thread::Inner>"*, align 8
  store %"alloc::sync::ArcInner<std::thread::Inner>"* %val, %"alloc::sync::ArcInner<std::thread::Inner>"** %val.dbg.spill, align 8
  call void @llvm.dbg.declare(metadata %"alloc::sync::ArcInner<std::thread::Inner>"** %val.dbg.spill, metadata !1231, metadata !DIExpression()), !dbg !1232
  store i64 48, i64* %0, align 8, !dbg !1233
  %1 = load i64, i64* %0, align 8, !dbg !1233
  br label %bb1, !dbg !1233

bb1:                                              ; preds = %start
  ret i64 %1, !dbg !1234
}

; core::mem::align_of_val_raw::<alloc::sync::ArcInner<core::cell::UnsafeCell<core::option::Option<core::result::Result<(), alloc::boxed::Box<dyn core::any::Any + core::marker::Send>>>>>>
; Function Attrs: inlinehint nonlazybind uwtable
define internal i64 @_RINvNtCs3p84KrD9aKt_4core3mem16align_of_val_rawINtNtCs8RW06R9lH2S_5alloc4sync8ArcInnerINtNtB4_4cell10UnsafeCellINtNtB4_6option6OptionINtNtB4_6result6ResultuINtNtBO_5boxed3BoxDNtNtB4_3any3AnyNtNtB4_6marker4SendEL_EEEEEECsh5b2sQBIbur_14arc_heap_mutex(%"alloc::sync::ArcInner<std::cell::UnsafeCell<std::option::Option<std::result::Result<(), std::boxed::Box<dyn std::any::Any + std::marker::Send>>>>>"* %val) unnamed_addr #1 !dbg !1235 {
start:
  %0 = alloca i64, align 8
  %val.dbg.spill = alloca %"alloc::sync::ArcInner<std::cell::UnsafeCell<std::option::Option<std::result::Result<(), std::boxed::Box<dyn std::any::Any + std::marker::Send>>>>>"*, align 8
  store %"alloc::sync::ArcInner<std::cell::UnsafeCell<std::option::Option<std::result::Result<(), std::boxed::Box<dyn std::any::Any + std::marker::Send>>>>>"* %val, %"alloc::sync::ArcInner<std::cell::UnsafeCell<std::option::Option<std::result::Result<(), std::boxed::Box<dyn std::any::Any + std::marker::Send>>>>>"** %val.dbg.spill, align 8
  call void @llvm.dbg.declare(metadata %"alloc::sync::ArcInner<std::cell::UnsafeCell<std::option::Option<std::result::Result<(), std::boxed::Box<dyn std::any::Any + std::marker::Send>>>>>"** %val.dbg.spill, metadata !1237, metadata !DIExpression()), !dbg !1238
  store i64 8, i64* %0, align 8, !dbg !1239
  %1 = load i64, i64* %0, align 8, !dbg !1239
  br label %bb1, !dbg !1239

bb1:                                              ; preds = %start
  ret i64 %1, !dbg !1240
}

; core::mem::align_of_val_raw::<alloc::sync::ArcInner<std::sync::mutex::Mutex<alloc::vec::Vec<u8>>>>
; Function Attrs: inlinehint nonlazybind uwtable
define internal i64 @_RINvNtCs3p84KrD9aKt_4core3mem16align_of_val_rawINtNtCs8RW06R9lH2S_5alloc4sync8ArcInnerINtNtNtCs2bNvlddUlXM_3std4sync5mutex5MutexINtNtBO_3vec3VechEEEECsh5b2sQBIbur_14arc_heap_mutex(%"alloc::sync::ArcInner<std::sync::Mutex<std::vec::Vec<u8>>>"* %val) unnamed_addr #1 !dbg !1241 {
start:
  %0 = alloca i64, align 8
  %val.dbg.spill = alloca %"alloc::sync::ArcInner<std::sync::Mutex<std::vec::Vec<u8>>>"*, align 8
  store %"alloc::sync::ArcInner<std::sync::Mutex<std::vec::Vec<u8>>>"* %val, %"alloc::sync::ArcInner<std::sync::Mutex<std::vec::Vec<u8>>>"** %val.dbg.spill, align 8
  call void @llvm.dbg.declare(metadata %"alloc::sync::ArcInner<std::sync::Mutex<std::vec::Vec<u8>>>"** %val.dbg.spill, metadata !1243, metadata !DIExpression()), !dbg !1244
  store i64 8, i64* %0, align 8, !dbg !1245
  %1 = load i64, i64* %0, align 8, !dbg !1245
  br label %bb1, !dbg !1245

bb1:                                              ; preds = %start
  ret i64 %1, !dbg !1246
}

; core::mem::align_of_val_raw::<alloc::sync::ArcInner<std::sync::mutex::Mutex<i32>>>
; Function Attrs: inlinehint nonlazybind uwtable
define internal i64 @_RINvNtCs3p84KrD9aKt_4core3mem16align_of_val_rawINtNtCs8RW06R9lH2S_5alloc4sync8ArcInnerINtNtNtCs2bNvlddUlXM_3std4sync5mutex5MutexlEEECsh5b2sQBIbur_14arc_heap_mutex(%"alloc::sync::ArcInner<std::sync::Mutex<i32>>"* %val) unnamed_addr #1 !dbg !1247 {
start:
  %0 = alloca i64, align 8
  %val.dbg.spill = alloca %"alloc::sync::ArcInner<std::sync::Mutex<i32>>"*, align 8
  store %"alloc::sync::ArcInner<std::sync::Mutex<i32>>"* %val, %"alloc::sync::ArcInner<std::sync::Mutex<i32>>"** %val.dbg.spill, align 8
  call void @llvm.dbg.declare(metadata %"alloc::sync::ArcInner<std::sync::Mutex<i32>>"** %val.dbg.spill, metadata !1249, metadata !DIExpression()), !dbg !1250
  store i64 8, i64* %0, align 8, !dbg !1251
  %1 = load i64, i64* %0, align 8, !dbg !1251
  br label %bb1, !dbg !1251

bb1:                                              ; preds = %start
  ret i64 %1, !dbg !1252
}

; core::mem::align_of_val_raw::<alloc::sync::ArcInner<std::thread::Inner>>
; Function Attrs: inlinehint nonlazybind uwtable
define internal i64 @_RINvNtCs3p84KrD9aKt_4core3mem16align_of_val_rawINtNtCs8RW06R9lH2S_5alloc4sync8ArcInnerNtNtCs2bNvlddUlXM_3std6thread5InnerEECsh5b2sQBIbur_14arc_heap_mutex(%"alloc::sync::ArcInner<std::thread::Inner>"* %val) unnamed_addr #1 !dbg !1253 {
start:
  %0 = alloca i64, align 8
  %val.dbg.spill = alloca %"alloc::sync::ArcInner<std::thread::Inner>"*, align 8
  store %"alloc::sync::ArcInner<std::thread::Inner>"* %val, %"alloc::sync::ArcInner<std::thread::Inner>"** %val.dbg.spill, align 8
  call void @llvm.dbg.declare(metadata %"alloc::sync::ArcInner<std::thread::Inner>"** %val.dbg.spill, metadata !1255, metadata !DIExpression()), !dbg !1256
  store i64 8, i64* %0, align 8, !dbg !1257
  %1 = load i64, i64* %0, align 8, !dbg !1257
  br label %bb1, !dbg !1257

bb1:                                              ; preds = %start
  ret i64 %1, !dbg !1258
}

; core::mem::drop::<alloc::sync::Weak<core::cell::UnsafeCell<core::option::Option<core::result::Result<(), alloc::boxed::Box<dyn core::any::Any + core::marker::Send>>>>>>
; Function Attrs: inlinehint nonlazybind uwtable
define internal void @_RINvNtCs3p84KrD9aKt_4core3mem4dropINtNtCs8RW06R9lH2S_5alloc4sync4WeakINtNtB4_4cell10UnsafeCellINtNtB4_6option6OptionINtNtB4_6result6ResultuINtNtBB_5boxed3BoxDNtNtB4_3any3AnyNtNtB4_6marker4SendEL_EEEEEECsh5b2sQBIbur_14arc_heap_mutex(i64* nonnull %0) unnamed_addr #1 !dbg !1259 {
start:
  %_x = alloca i64*, align 8
  store i64* %0, i64** %_x, align 8
  call void @llvm.dbg.declare(metadata i64** %_x, metadata !1266, metadata !DIExpression()), !dbg !1269
; call core::ptr::drop_in_place::<alloc::sync::Weak<core::cell::UnsafeCell<core::option::Option<core::result::Result<(), alloc::boxed::Box<dyn core::any::Any + core::marker::Send>>>>>>
  call void @_RINvNtCs3p84KrD9aKt_4core3ptr13drop_in_placeINtNtCs8RW06R9lH2S_5alloc4sync4WeakINtNtB4_4cell10UnsafeCellINtNtB4_6option6OptionINtNtB4_6result6ResultuINtNtBL_5boxed3BoxDNtNtB4_3any3AnyNtNtB4_6marker4SendEL_EEEEEECsh5b2sQBIbur_14arc_heap_mutex(i64** %_x), !dbg !1270
  br label %bb1, !dbg !1270

bb1:                                              ; preds = %start
  ret void, !dbg !1271
}

; core::mem::drop::<alloc::sync::Weak<std::sync::mutex::Mutex<alloc::vec::Vec<u8>>>>
; Function Attrs: inlinehint nonlazybind uwtable
define internal void @_RINvNtCs3p84KrD9aKt_4core3mem4dropINtNtCs8RW06R9lH2S_5alloc4sync4WeakINtNtNtCs2bNvlddUlXM_3std4sync5mutex5MutexINtNtBB_3vec3VechEEEECsh5b2sQBIbur_14arc_heap_mutex(i64* nonnull %0) unnamed_addr #1 !dbg !1272 {
start:
  %_x = alloca i64*, align 8
  store i64* %0, i64** %_x, align 8
  call void @llvm.dbg.declare(metadata i64** %_x, metadata !1279, metadata !DIExpression()), !dbg !1282
; call core::ptr::drop_in_place::<alloc::sync::Weak<std::sync::mutex::Mutex<alloc::vec::Vec<u8>>>>
  call void @_RINvNtCs3p84KrD9aKt_4core3ptr13drop_in_placeINtNtCs8RW06R9lH2S_5alloc4sync4WeakINtNtNtCs2bNvlddUlXM_3std4sync5mutex5MutexINtNtBL_3vec3VechEEEECsh5b2sQBIbur_14arc_heap_mutex(i64** %_x), !dbg !1283
  br label %bb1, !dbg !1283

bb1:                                              ; preds = %start
  ret void, !dbg !1284
}

; core::mem::drop::<alloc::sync::Weak<std::sync::mutex::Mutex<i32>>>
; Function Attrs: inlinehint nonlazybind uwtable
define internal void @_RINvNtCs3p84KrD9aKt_4core3mem4dropINtNtCs8RW06R9lH2S_5alloc4sync4WeakINtNtNtCs2bNvlddUlXM_3std4sync5mutex5MutexlEEECsh5b2sQBIbur_14arc_heap_mutex(i64* nonnull %0) unnamed_addr #1 !dbg !1285 {
start:
  %_x = alloca i64*, align 8
  store i64* %0, i64** %_x, align 8
  call void @llvm.dbg.declare(metadata i64** %_x, metadata !1292, metadata !DIExpression()), !dbg !1295
; call core::ptr::drop_in_place::<alloc::sync::Weak<std::sync::mutex::Mutex<i32>>>
  call void @_RINvNtCs3p84KrD9aKt_4core3ptr13drop_in_placeINtNtCs8RW06R9lH2S_5alloc4sync4WeakINtNtNtCs2bNvlddUlXM_3std4sync5mutex5MutexlEEECsh5b2sQBIbur_14arc_heap_mutex(i64** %_x), !dbg !1296
  br label %bb1, !dbg !1296

bb1:                                              ; preds = %start
  ret void, !dbg !1297
}

; core::mem::drop::<alloc::sync::Weak<std::thread::Inner>>
; Function Attrs: inlinehint nonlazybind uwtable
define internal void @_RINvNtCs3p84KrD9aKt_4core3mem4dropINtNtCs8RW06R9lH2S_5alloc4sync4WeakNtNtCs2bNvlddUlXM_3std6thread5InnerEECsh5b2sQBIbur_14arc_heap_mutex(i64* nonnull %0) unnamed_addr #1 !dbg !1298 {
start:
  %_x = alloca i64*, align 8
  store i64* %0, i64** %_x, align 8
  call void @llvm.dbg.declare(metadata i64** %_x, metadata !1305, metadata !DIExpression()), !dbg !1308
; call core::ptr::drop_in_place::<alloc::sync::Weak<std::thread::Inner>>
  call void @_RINvNtCs3p84KrD9aKt_4core3ptr13drop_in_placeINtNtCs8RW06R9lH2S_5alloc4sync4WeakNtNtCs2bNvlddUlXM_3std6thread5InnerEECsh5b2sQBIbur_14arc_heap_mutex(i64** %_x), !dbg !1309
  br label %bb1, !dbg !1309

bb1:                                              ; preds = %start
  ret void, !dbg !1310
}

; core::mem::swap::<core::option::Option<core::result::Result<(), alloc::boxed::Box<dyn core::any::Any + core::marker::Send>>>>
; Function Attrs: inlinehint nonlazybind uwtable
define internal void @_RINvNtCs3p84KrD9aKt_4core3mem4swapINtNtB4_6option6OptionINtNtB4_6result6ResultuINtNtCs8RW06R9lH2S_5alloc5boxed3BoxDNtNtB4_3any3AnyNtNtB4_6marker4SendEL_EEEECsh5b2sQBIbur_14arc_heap_mutex(%"std::option::Option<std::result::Result<(), std::boxed::Box<dyn std::any::Any + std::marker::Send>>>"* align 8 dereferenceable(24) %x, %"std::option::Option<std::result::Result<(), std::boxed::Box<dyn std::any::Any + std::marker::Send>>>"* align 8 dereferenceable(24) %y) unnamed_addr #1 !dbg !1311 {
start:
  %y.dbg.spill = alloca %"std::option::Option<std::result::Result<(), std::boxed::Box<dyn std::any::Any + std::marker::Send>>>"*, align 8
  %x.dbg.spill = alloca %"std::option::Option<std::result::Result<(), std::boxed::Box<dyn std::any::Any + std::marker::Send>>>"*, align 8
  store %"std::option::Option<std::result::Result<(), std::boxed::Box<dyn std::any::Any + std::marker::Send>>>"* %x, %"std::option::Option<std::result::Result<(), std::boxed::Box<dyn std::any::Any + std::marker::Send>>>"** %x.dbg.spill, align 8
  call void @llvm.dbg.declare(metadata %"std::option::Option<std::result::Result<(), std::boxed::Box<dyn std::any::Any + std::marker::Send>>>"** %x.dbg.spill, metadata !1316, metadata !DIExpression()), !dbg !1318
  store %"std::option::Option<std::result::Result<(), std::boxed::Box<dyn std::any::Any + std::marker::Send>>>"* %y, %"std::option::Option<std::result::Result<(), std::boxed::Box<dyn std::any::Any + std::marker::Send>>>"** %y.dbg.spill, align 8
  call void @llvm.dbg.declare(metadata %"std::option::Option<std::result::Result<(), std::boxed::Box<dyn std::any::Any + std::marker::Send>>>"** %y.dbg.spill, metadata !1317, metadata !DIExpression()), !dbg !1319
; call core::ptr::swap_nonoverlapping_one::<core::option::Option<core::result::Result<(), alloc::boxed::Box<dyn core::any::Any + core::marker::Send>>>>
  call void @_RINvNtCs3p84KrD9aKt_4core3ptr23swap_nonoverlapping_oneINtNtB4_6option6OptionINtNtB4_6result6ResultuINtNtCs8RW06R9lH2S_5alloc5boxed3BoxDNtNtB4_3any3AnyNtNtB4_6marker4SendEL_EEEECsh5b2sQBIbur_14arc_heap_mutex(%"std::option::Option<std::result::Result<(), std::boxed::Box<dyn std::any::Any + std::marker::Send>>>"* %x, %"std::option::Option<std::result::Result<(), std::boxed::Box<dyn std::any::Any + std::marker::Send>>>"* %y), !dbg !1320
  br label %bb1, !dbg !1320

bb1:                                              ; preds = %start
  ret void, !dbg !1321
}

; core::mem::swap::<core::option::Option<std::sys::unix::thread::Thread>>
; Function Attrs: inlinehint nonlazybind uwtable
define internal void @_RINvNtCs3p84KrD9aKt_4core3mem4swapINtNtB4_6option6OptionNtNtNtNtCs2bNvlddUlXM_3std3sys4unix6thread6ThreadEECsh5b2sQBIbur_14arc_heap_mutex({ i64, i64 }* align 8 dereferenceable(16) %x, { i64, i64 }* align 8 dereferenceable(16) %y) unnamed_addr #1 !dbg !1322 {
start:
  %y.dbg.spill = alloca { i64, i64 }*, align 8
  %x.dbg.spill = alloca { i64, i64 }*, align 8
  store { i64, i64 }* %x, { i64, i64 }** %x.dbg.spill, align 8
  call void @llvm.dbg.declare(metadata { i64, i64 }** %x.dbg.spill, metadata !1327, metadata !DIExpression()), !dbg !1329
  store { i64, i64 }* %y, { i64, i64 }** %y.dbg.spill, align 8
  call void @llvm.dbg.declare(metadata { i64, i64 }** %y.dbg.spill, metadata !1328, metadata !DIExpression()), !dbg !1330
; call core::ptr::swap_nonoverlapping_one::<core::option::Option<std::sys::unix::thread::Thread>>
  call void @_RINvNtCs3p84KrD9aKt_4core3ptr23swap_nonoverlapping_oneINtNtB4_6option6OptionNtNtNtNtCs2bNvlddUlXM_3std3sys4unix6thread6ThreadEECsh5b2sQBIbur_14arc_heap_mutex({ i64, i64 }* %x, { i64, i64 }* %y), !dbg !1331
  br label %bb1, !dbg !1331

bb1:                                              ; preds = %start
  ret void, !dbg !1332
}

; core::mem::swap::<i32>
; Function Attrs: inlinehint nonlazybind uwtable
define internal void @_RINvNtCs3p84KrD9aKt_4core3mem4swaplECsh5b2sQBIbur_14arc_heap_mutex(i32* align 4 dereferenceable(4) %x, i32* align 4 dereferenceable(4) %y) unnamed_addr #1 !dbg !1333 {
start:
  %y.dbg.spill = alloca i32*, align 8
  %x.dbg.spill = alloca i32*, align 8
  store i32* %x, i32** %x.dbg.spill, align 8
  call void @llvm.dbg.declare(metadata i32** %x.dbg.spill, metadata !1338, metadata !DIExpression()), !dbg !1340
  store i32* %y, i32** %y.dbg.spill, align 8
  call void @llvm.dbg.declare(metadata i32** %y.dbg.spill, metadata !1339, metadata !DIExpression()), !dbg !1341
; call core::ptr::swap_nonoverlapping_one::<i32>
  call void @_RINvNtCs3p84KrD9aKt_4core3ptr23swap_nonoverlapping_onelECsh5b2sQBIbur_14arc_heap_mutex(i32* %x, i32* %y), !dbg !1342
  br label %bb1, !dbg !1342

bb1:                                              ; preds = %start
  ret void, !dbg !1343
}

; core::mem::take::<core::option::Option<core::result::Result<(), alloc::boxed::Box<dyn core::any::Any + core::marker::Send>>>>
; Function Attrs: inlinehint nonlazybind uwtable
define internal void @_RINvNtCs3p84KrD9aKt_4core3mem4takeINtNtB4_6option6OptionINtNtB4_6result6ResultuINtNtCs8RW06R9lH2S_5alloc5boxed3BoxDNtNtB4_3any3AnyNtNtB4_6marker4SendEL_EEEECsh5b2sQBIbur_14arc_heap_mutex(%"std::option::Option<std::result::Result<(), std::boxed::Box<dyn std::any::Any + std::marker::Send>>>"* noalias nocapture sret dereferenceable(24) %0, %"std::option::Option<std::result::Result<(), std::boxed::Box<dyn std::any::Any + std::marker::Send>>>"* align 8 dereferenceable(24) %dest) unnamed_addr #1 !dbg !1344 {
start:
  %dest.dbg.spill = alloca %"std::option::Option<std::result::Result<(), std::boxed::Box<dyn std::any::Any + std::marker::Send>>>"*, align 8
  %_3 = alloca %"std::option::Option<std::result::Result<(), std::boxed::Box<dyn std::any::Any + std::marker::Send>>>", align 8
  store %"std::option::Option<std::result::Result<(), std::boxed::Box<dyn std::any::Any + std::marker::Send>>>"* %dest, %"std::option::Option<std::result::Result<(), std::boxed::Box<dyn std::any::Any + std::marker::Send>>>"** %dest.dbg.spill, align 8
  call void @llvm.dbg.declare(metadata %"std::option::Option<std::result::Result<(), std::boxed::Box<dyn std::any::Any + std::marker::Send>>>"** %dest.dbg.spill, metadata !1348, metadata !DIExpression()), !dbg !1349
; call <core::option::Option<core::result::Result<(), alloc::boxed::Box<dyn core::any::Any + core::marker::Send>>> as core::default::Default>::default
  call void @_RNvXs9_NtCs3p84KrD9aKt_4core6optionINtB5_6OptionINtNtB7_6result6ResultuINtNtCs8RW06R9lH2S_5alloc5boxed3BoxDNtNtB7_3any3AnyNtNtB7_6marker4SendEL_EEENtNtB7_7default7Default7defaultCsh5b2sQBIbur_14arc_heap_mutex(%"std::option::Option<std::result::Result<(), std::boxed::Box<dyn std::any::Any + std::marker::Send>>>"* noalias nocapture sret dereferenceable(24) %_3), !dbg !1350
  br label %bb1, !dbg !1350

bb1:                                              ; preds = %start
; call core::mem::replace::<core::option::Option<core::result::Result<(), alloc::boxed::Box<dyn core::any::Any + core::marker::Send>>>>
  call void @_RINvNtCs3p84KrD9aKt_4core3mem7replaceINtNtB4_6option6OptionINtNtB4_6result6ResultuINtNtCs8RW06R9lH2S_5alloc5boxed3BoxDNtNtB4_3any3AnyNtNtB4_6marker4SendEL_EEEECsh5b2sQBIbur_14arc_heap_mutex(%"std::option::Option<std::result::Result<(), std::boxed::Box<dyn std::any::Any + std::marker::Send>>>"* noalias nocapture sret dereferenceable(24) %0, %"std::option::Option<std::result::Result<(), std::boxed::Box<dyn std::any::Any + std::marker::Send>>>"* align 8 dereferenceable(24) %dest, %"std::option::Option<std::result::Result<(), std::boxed::Box<dyn std::any::Any + std::marker::Send>>>"* noalias nocapture dereferenceable(24) %_3), !dbg !1351
  br label %bb2, !dbg !1351

bb2:                                              ; preds = %bb1
  ret void, !dbg !1352
}

; core::mem::take::<core::option::Option<std::sys::unix::thread::Thread>>
; Function Attrs: inlinehint nonlazybind uwtable
define internal { i64, i64 } @_RINvNtCs3p84KrD9aKt_4core3mem4takeINtNtB4_6option6OptionNtNtNtNtCs2bNvlddUlXM_3std3sys4unix6thread6ThreadEECsh5b2sQBIbur_14arc_heap_mutex({ i64, i64 }* align 8 dereferenceable(16) %dest) unnamed_addr #1 !dbg !1353 {
start:
  %dest.dbg.spill = alloca { i64, i64 }*, align 8
  store { i64, i64 }* %dest, { i64, i64 }** %dest.dbg.spill, align 8
  call void @llvm.dbg.declare(metadata { i64, i64 }** %dest.dbg.spill, metadata !1357, metadata !DIExpression()), !dbg !1358
; call <core::option::Option<std::sys::unix::thread::Thread> as core::default::Default>::default
  %0 = call { i64, i64 } @_RNvXs9_NtCs3p84KrD9aKt_4core6optionINtB5_6OptionNtNtNtNtCs2bNvlddUlXM_3std3sys4unix6thread6ThreadENtNtB7_7default7Default7defaultCsh5b2sQBIbur_14arc_heap_mutex(), !dbg !1359
  %_3.0 = extractvalue { i64, i64 } %0, 0, !dbg !1359
  %_3.1 = extractvalue { i64, i64 } %0, 1, !dbg !1359
  br label %bb1, !dbg !1359

bb1:                                              ; preds = %start
; call core::mem::replace::<core::option::Option<std::sys::unix::thread::Thread>>
  %1 = call { i64, i64 } @_RINvNtCs3p84KrD9aKt_4core3mem7replaceINtNtB4_6option6OptionNtNtNtNtCs2bNvlddUlXM_3std3sys4unix6thread6ThreadEECsh5b2sQBIbur_14arc_heap_mutex({ i64, i64 }* align 8 dereferenceable(16) %dest, i64 %_3.0, i64 %_3.1), !dbg !1360
  %2 = extractvalue { i64, i64 } %1, 0, !dbg !1360
  %3 = extractvalue { i64, i64 } %1, 1, !dbg !1360
  br label %bb2, !dbg !1360

bb2:                                              ; preds = %bb1
  %4 = insertvalue { i64, i64 } undef, i64 %2, 0, !dbg !1361
  %5 = insertvalue { i64, i64 } %4, i64 %3, 1, !dbg !1361
  ret { i64, i64 } %5, !dbg !1361
}

; core::mem::replace::<core::option::Option<core::result::Result<(), alloc::boxed::Box<dyn core::any::Any + core::marker::Send>>>>
; Function Attrs: inlinehint nonlazybind uwtable
define internal void @_RINvNtCs3p84KrD9aKt_4core3mem7replaceINtNtB4_6option6OptionINtNtB4_6result6ResultuINtNtCs8RW06R9lH2S_5alloc5boxed3BoxDNtNtB4_3any3AnyNtNtB4_6marker4SendEL_EEEECsh5b2sQBIbur_14arc_heap_mutex(%"std::option::Option<std::result::Result<(), std::boxed::Box<dyn std::any::Any + std::marker::Send>>>"* noalias nocapture sret dereferenceable(24) %0, %"std::option::Option<std::result::Result<(), std::boxed::Box<dyn std::any::Any + std::marker::Send>>>"* align 8 dereferenceable(24) %dest, %"std::option::Option<std::result::Result<(), std::boxed::Box<dyn std::any::Any + std::marker::Send>>>"* noalias nocapture dereferenceable(24) %src) unnamed_addr #1 personality i32 (i32, i32, i64, %"unwind::libunwind::_Unwind_Exception"*, %"unwind::libunwind::_Unwind_Context"*)* @rust_eh_personality !dbg !1362 {
start:
  %1 = alloca { i8*, i32 }, align 8
  %dest.dbg.spill = alloca %"std::option::Option<std::result::Result<(), std::boxed::Box<dyn std::any::Any + std::marker::Send>>>"*, align 8
  store %"std::option::Option<std::result::Result<(), std::boxed::Box<dyn std::any::Any + std::marker::Send>>>"* %dest, %"std::option::Option<std::result::Result<(), std::boxed::Box<dyn std::any::Any + std::marker::Send>>>"** %dest.dbg.spill, align 8
  call void @llvm.dbg.declare(metadata %"std::option::Option<std::result::Result<(), std::boxed::Box<dyn std::any::Any + std::marker::Send>>>"** %dest.dbg.spill, metadata !1366, metadata !DIExpression()), !dbg !1368
  call void @llvm.dbg.declare(metadata %"std::option::Option<std::result::Result<(), std::boxed::Box<dyn std::any::Any + std::marker::Send>>>"* %src, metadata !1367, metadata !DIExpression()), !dbg !1369
; invoke core::mem::swap::<core::option::Option<core::result::Result<(), alloc::boxed::Box<dyn core::any::Any + core::marker::Send>>>>
  invoke void @_RINvNtCs3p84KrD9aKt_4core3mem4swapINtNtB4_6option6OptionINtNtB4_6result6ResultuINtNtCs8RW06R9lH2S_5alloc5boxed3BoxDNtNtB4_3any3AnyNtNtB4_6marker4SendEL_EEEECsh5b2sQBIbur_14arc_heap_mutex(%"std::option::Option<std::result::Result<(), std::boxed::Box<dyn std::any::Any + std::marker::Send>>>"* align 8 dereferenceable(24) %dest, %"std::option::Option<std::result::Result<(), std::boxed::Box<dyn std::any::Any + std::marker::Send>>>"* align 8 dereferenceable(24) %src)
          to label %bb1 unwind label %cleanup, !dbg !1370

bb1:                                              ; preds = %start
  %2 = bitcast %"std::option::Option<std::result::Result<(), std::boxed::Box<dyn std::any::Any + std::marker::Send>>>"* %0 to i8*, !dbg !1371
  %3 = bitcast %"std::option::Option<std::result::Result<(), std::boxed::Box<dyn std::any::Any + std::marker::Send>>>"* %src to i8*, !dbg !1371
  call void @llvm.memcpy.p0i8.p0i8.i64(i8* align 8 %2, i8* align 8 %3, i64 24, i1 false), !dbg !1371
  ret void, !dbg !1372

bb2:                                              ; preds = %cleanup
; call core::ptr::drop_in_place::<core::option::Option<core::result::Result<(), alloc::boxed::Box<dyn core::any::Any + core::marker::Send>>>>
  call void @_RINvNtCs3p84KrD9aKt_4core3ptr13drop_in_placeINtNtB4_6option6OptionINtNtB4_6result6ResultuINtNtCs8RW06R9lH2S_5alloc5boxed3BoxDNtNtB4_3any3AnyNtNtB4_6marker4SendEL_EEEECsh5b2sQBIbur_14arc_heap_mutex(%"std::option::Option<std::result::Result<(), std::boxed::Box<dyn std::any::Any + std::marker::Send>>>"* %src) #14, !dbg !1373
  br label %bb3, !dbg !1373

bb3:                                              ; preds = %bb2
  %4 = bitcast { i8*, i32 }* %1 to i8**, !dbg !1374
  %5 = load i8*, i8** %4, align 8, !dbg !1374
  %6 = getelementptr inbounds { i8*, i32 }, { i8*, i32 }* %1, i32 0, i32 1, !dbg !1374
  %7 = load i32, i32* %6, align 8, !dbg !1374
  %8 = insertvalue { i8*, i32 } undef, i8* %5, 0, !dbg !1374
  %9 = insertvalue { i8*, i32 } %8, i32 %7, 1, !dbg !1374
  resume { i8*, i32 } %9, !dbg !1374

cleanup:                                          ; preds = %start
  %10 = landingpad { i8*, i32 }
          cleanup
  %11 = extractvalue { i8*, i32 } %10, 0
  %12 = extractvalue { i8*, i32 } %10, 1
  %13 = getelementptr inbounds { i8*, i32 }, { i8*, i32 }* %1, i32 0, i32 0
  store i8* %11, i8** %13, align 8
  %14 = getelementptr inbounds { i8*, i32 }, { i8*, i32 }* %1, i32 0, i32 1
  store i32 %12, i32* %14, align 8
  br label %bb2
}

; core::mem::replace::<core::option::Option<std::sys::unix::thread::Thread>>
; Function Attrs: inlinehint nonlazybind uwtable
define internal { i64, i64 } @_RINvNtCs3p84KrD9aKt_4core3mem7replaceINtNtB4_6option6OptionNtNtNtNtCs2bNvlddUlXM_3std3sys4unix6thread6ThreadEECsh5b2sQBIbur_14arc_heap_mutex({ i64, i64 }* align 8 dereferenceable(16) %dest, i64 %0, i64 %1) unnamed_addr #1 personality i32 (i32, i32, i64, %"unwind::libunwind::_Unwind_Exception"*, %"unwind::libunwind::_Unwind_Context"*)* @rust_eh_personality !dbg !1375 {
start:
  %2 = alloca { i8*, i32 }, align 8
  %dest.dbg.spill = alloca { i64, i64 }*, align 8
  %src = alloca { i64, i64 }, align 8
  %3 = getelementptr inbounds { i64, i64 }, { i64, i64 }* %src, i32 0, i32 0
  store i64 %0, i64* %3, align 8
  %4 = getelementptr inbounds { i64, i64 }, { i64, i64 }* %src, i32 0, i32 1
  store i64 %1, i64* %4, align 8
  store { i64, i64 }* %dest, { i64, i64 }** %dest.dbg.spill, align 8
  call void @llvm.dbg.declare(metadata { i64, i64 }** %dest.dbg.spill, metadata !1379, metadata !DIExpression()), !dbg !1381
  call void @llvm.dbg.declare(metadata { i64, i64 }* %src, metadata !1380, metadata !DIExpression()), !dbg !1382
; invoke core::mem::swap::<core::option::Option<std::sys::unix::thread::Thread>>
  invoke void @_RINvNtCs3p84KrD9aKt_4core3mem4swapINtNtB4_6option6OptionNtNtNtNtCs2bNvlddUlXM_3std3sys4unix6thread6ThreadEECsh5b2sQBIbur_14arc_heap_mutex({ i64, i64 }* align 8 dereferenceable(16) %dest, { i64, i64 }* align 8 dereferenceable(16) %src)
          to label %bb1 unwind label %cleanup, !dbg !1383

bb1:                                              ; preds = %start
  %5 = getelementptr inbounds { i64, i64 }, { i64, i64 }* %src, i32 0, i32 0, !dbg !1384
  %6 = load i64, i64* %5, align 8, !dbg !1384, !range !543
  %7 = getelementptr inbounds { i64, i64 }, { i64, i64 }* %src, i32 0, i32 1, !dbg !1384
  %8 = load i64, i64* %7, align 8, !dbg !1384
  %9 = insertvalue { i64, i64 } undef, i64 %6, 0, !dbg !1385
  %10 = insertvalue { i64, i64 } %9, i64 %8, 1, !dbg !1385
  ret { i64, i64 } %10, !dbg !1385

bb2:                                              ; preds = %cleanup
; call core::ptr::drop_in_place::<core::option::Option<std::sys::unix::thread::Thread>>
  call void @_RINvNtCs3p84KrD9aKt_4core3ptr13drop_in_placeINtNtB4_6option6OptionNtNtNtNtCs2bNvlddUlXM_3std3sys4unix6thread6ThreadEECsh5b2sQBIbur_14arc_heap_mutex({ i64, i64 }* %src) #14, !dbg !1386
  br label %bb3, !dbg !1386

bb3:                                              ; preds = %bb2
  %11 = bitcast { i8*, i32 }* %2 to i8**, !dbg !1387
  %12 = load i8*, i8** %11, align 8, !dbg !1387
  %13 = getelementptr inbounds { i8*, i32 }, { i8*, i32 }* %2, i32 0, i32 1, !dbg !1387
  %14 = load i32, i32* %13, align 8, !dbg !1387
  %15 = insertvalue { i8*, i32 } undef, i8* %12, 0, !dbg !1387
  %16 = insertvalue { i8*, i32 } %15, i32 %14, 1, !dbg !1387
  resume { i8*, i32 } %16, !dbg !1387

cleanup:                                          ; preds = %start
  %17 = landingpad { i8*, i32 }
          cleanup
  %18 = extractvalue { i8*, i32 } %17, 0
  %19 = extractvalue { i8*, i32 } %17, 1
  %20 = getelementptr inbounds { i8*, i32 }, { i8*, i32 }* %2, i32 0, i32 0
  store i8* %18, i8** %20, align 8
  %21 = getelementptr inbounds { i8*, i32 }, { i8*, i32 }* %2, i32 0, i32 1
  store i32 %19, i32* %21, align 8
  br label %bb2
}

; core::mem::replace::<i32>
; Function Attrs: inlinehint nonlazybind uwtable
define internal i32 @_RINvNtCs3p84KrD9aKt_4core3mem7replacelECsh5b2sQBIbur_14arc_heap_mutex(i32* align 4 dereferenceable(4) %dest, i32 %0) unnamed_addr #1 personality i32 (i32, i32, i64, %"unwind::libunwind::_Unwind_Exception"*, %"unwind::libunwind::_Unwind_Context"*)* @rust_eh_personality !dbg !1388 {
start:
  %1 = alloca { i8*, i32 }, align 8
  %dest.dbg.spill = alloca i32*, align 8
  %src = alloca i32, align 4
  store i32 %0, i32* %src, align 4
  store i32* %dest, i32** %dest.dbg.spill, align 8
  call void @llvm.dbg.declare(metadata i32** %dest.dbg.spill, metadata !1392, metadata !DIExpression()), !dbg !1394
  call void @llvm.dbg.declare(metadata i32* %src, metadata !1393, metadata !DIExpression()), !dbg !1395
; invoke core::mem::swap::<i32>
  invoke void @_RINvNtCs3p84KrD9aKt_4core3mem4swaplECsh5b2sQBIbur_14arc_heap_mutex(i32* align 4 dereferenceable(4) %dest, i32* align 4 dereferenceable(4) %src)
          to label %bb1 unwind label %cleanup, !dbg !1396

bb1:                                              ; preds = %start
  %2 = load i32, i32* %src, align 4, !dbg !1397
  ret i32 %2, !dbg !1398

bb2:                                              ; preds = %cleanup
  br label %bb3, !dbg !1399

bb3:                                              ; preds = %bb2
  %3 = bitcast { i8*, i32 }* %1 to i8**, !dbg !1400
  %4 = load i8*, i8** %3, align 8, !dbg !1400
  %5 = getelementptr inbounds { i8*, i32 }, { i8*, i32 }* %1, i32 0, i32 1, !dbg !1400
  %6 = load i32, i32* %5, align 8, !dbg !1400
  %7 = insertvalue { i8*, i32 } undef, i8* %4, 0, !dbg !1400
  %8 = insertvalue { i8*, i32 } %7, i32 %6, 1, !dbg !1400
  resume { i8*, i32 } %8, !dbg !1400

cleanup:                                          ; preds = %start
  %9 = landingpad { i8*, i32 }
          cleanup
  %10 = extractvalue { i8*, i32 } %9, 0
  %11 = extractvalue { i8*, i32 } %9, 1
  %12 = getelementptr inbounds { i8*, i32 }, { i8*, i32 }* %1, i32 0, i32 0
  store i8* %10, i8** %12, align 8
  %13 = getelementptr inbounds { i8*, i32 }, { i8*, i32 }* %1, i32 0, i32 1
  store i32 %11, i32* %13, align 8
  br label %bb2
}

; core::ptr::drop_in_place::<dyn core::any::Any + core::marker::Send>
; Function Attrs: nonlazybind uwtable
define internal void @_RINvNtCs3p84KrD9aKt_4core3ptr13drop_in_placeDNtNtB4_3any3AnyNtNtB4_6marker4SendEL_ECsh5b2sQBIbur_14arc_heap_mutex({}* %_1.0, [3 x i64]* noalias readonly align 8 dereferenceable(24) %_1.1) unnamed_addr #0 !dbg !1401 {
start:
  %_1.dbg.spill = alloca { {}*, [3 x i64]* }, align 8
  %0 = alloca {}, align 1
  %1 = getelementptr inbounds { {}*, [3 x i64]* }, { {}*, [3 x i64]* }* %_1.dbg.spill, i32 0, i32 0
  store {}* %_1.0, {}** %1, align 8
  %2 = getelementptr inbounds { {}*, [3 x i64]* }, { {}*, [3 x i64]* }* %_1.dbg.spill, i32 0, i32 1
  store [3 x i64]* %_1.1, [3 x i64]** %2, align 8
  call void @llvm.dbg.declare(metadata { {}*, [3 x i64]* }* %_1.dbg.spill, metadata !1410, metadata !DIExpression()), !dbg !1411
  %3 = bitcast [3 x i64]* %_1.1 to void ({}*)**, !dbg !1411
  %4 = getelementptr inbounds void ({}*)*, void ({}*)** %3, i64 0, !dbg !1411
  %5 = load void ({}*)*, void ({}*)** %4, align 8, !dbg !1411, !invariant.load !4, !nonnull !4
  call void %5({}* %_1.0), !dbg !1411
  br label %bb1, !dbg !1411

bb1:                                              ; preds = %start
  ret void, !dbg !1411
}

; core::ptr::drop_in_place::<dyn std::error::Error + core::marker::Send + core::marker::Sync>
; Function Attrs: nonlazybind uwtable
define internal void @_RINvNtCs3p84KrD9aKt_4core3ptr13drop_in_placeDNtNtCs2bNvlddUlXM_3std5error5ErrorNtNtB4_6marker4SendNtB1h_4SyncEL_ECsh5b2sQBIbur_14arc_heap_mutex({}* %_1.0, [3 x i64]* noalias readonly align 8 dereferenceable(24) %_1.1) unnamed_addr #0 !dbg !1412 {
start:
  %_1.dbg.spill = alloca { {}*, [3 x i64]* }, align 8
  %0 = alloca {}, align 1
  %1 = getelementptr inbounds { {}*, [3 x i64]* }, { {}*, [3 x i64]* }* %_1.dbg.spill, i32 0, i32 0
  store {}* %_1.0, {}** %1, align 8
  %2 = getelementptr inbounds { {}*, [3 x i64]* }, { {}*, [3 x i64]* }* %_1.dbg.spill, i32 0, i32 1
  store [3 x i64]* %_1.1, [3 x i64]** %2, align 8
  call void @llvm.dbg.declare(metadata { {}*, [3 x i64]* }* %_1.dbg.spill, metadata !1420, metadata !DIExpression()), !dbg !1421
  %3 = bitcast [3 x i64]* %_1.1 to void ({}*)**, !dbg !1421
  %4 = getelementptr inbounds void ({}*)*, void ({}*)** %3, i64 0, !dbg !1421
  %5 = load void ({}*)*, void ({}*)** %4, align 8, !dbg !1421, !invariant.load !4, !nonnull !4
  call void %5({}* %_1.0), !dbg !1421
  br label %bb1, !dbg !1421

bb1:                                              ; preds = %start
  ret void, !dbg !1421
}

; core::ptr::drop_in_place::<core::cell::UnsafeCell<core::option::Option<core::result::Result<(), alloc::boxed::Box<dyn core::any::Any + core::marker::Send>>>>>
; Function Attrs: nonlazybind uwtable
define internal void @_RINvNtCs3p84KrD9aKt_4core3ptr13drop_in_placeINtNtB4_4cell10UnsafeCellINtNtB4_6option6OptionINtNtB4_6result6ResultuINtNtCs8RW06R9lH2S_5alloc5boxed3BoxDNtNtB4_3any3AnyNtNtB4_6marker4SendEL_EEEEECsh5b2sQBIbur_14arc_heap_mutex(%"std::cell::UnsafeCell<std::option::Option<std::result::Result<(), std::boxed::Box<dyn std::any::Any + std::marker::Send>>>>"* %_1) unnamed_addr #0 !dbg !1422 {
start:
  %_1.dbg.spill = alloca %"std::cell::UnsafeCell<std::option::Option<std::result::Result<(), std::boxed::Box<dyn std::any::Any + std::marker::Send>>>>"*, align 8
  %0 = alloca {}, align 1
  store %"std::cell::UnsafeCell<std::option::Option<std::result::Result<(), std::boxed::Box<dyn std::any::Any + std::marker::Send>>>>"* %_1, %"std::cell::UnsafeCell<std::option::Option<std::result::Result<(), std::boxed::Box<dyn std::any::Any + std::marker::Send>>>>"** %_1.dbg.spill, align 8
  call void @llvm.dbg.declare(metadata %"std::cell::UnsafeCell<std::option::Option<std::result::Result<(), std::boxed::Box<dyn std::any::Any + std::marker::Send>>>>"** %_1.dbg.spill, metadata !1427, metadata !DIExpression()), !dbg !1428
  %1 = bitcast %"std::cell::UnsafeCell<std::option::Option<std::result::Result<(), std::boxed::Box<dyn std::any::Any + std::marker::Send>>>>"* %_1 to %"std::option::Option<std::result::Result<(), std::boxed::Box<dyn std::any::Any + std::marker::Send>>>"*, !dbg !1428
; call core::ptr::drop_in_place::<core::option::Option<core::result::Result<(), alloc::boxed::Box<dyn core::any::Any + core::marker::Send>>>>
  call void @_RINvNtCs3p84KrD9aKt_4core3ptr13drop_in_placeINtNtB4_6option6OptionINtNtB4_6result6ResultuINtNtCs8RW06R9lH2S_5alloc5boxed3BoxDNtNtB4_3any3AnyNtNtB4_6marker4SendEL_EEEECsh5b2sQBIbur_14arc_heap_mutex(%"std::option::Option<std::result::Result<(), std::boxed::Box<dyn std::any::Any + std::marker::Send>>>"* %1), !dbg !1428
  br label %bb1, !dbg !1428

bb1:                                              ; preds = %start
  ret void, !dbg !1428
}

; core::ptr::drop_in_place::<core::cell::UnsafeCell<alloc::vec::Vec<u8>>>
; Function Attrs: nonlazybind uwtable
define internal void @_RINvNtCs3p84KrD9aKt_4core3ptr13drop_in_placeINtNtB4_4cell10UnsafeCellINtNtCs8RW06R9lH2S_5alloc3vec3VechEEECsh5b2sQBIbur_14arc_heap_mutex(%"std::cell::UnsafeCell<std::vec::Vec<u8>>"* %_1) unnamed_addr #0 !dbg !1429 {
start:
  %_1.dbg.spill = alloca %"std::cell::UnsafeCell<std::vec::Vec<u8>>"*, align 8
  %0 = alloca {}, align 1
  store %"std::cell::UnsafeCell<std::vec::Vec<u8>>"* %_1, %"std::cell::UnsafeCell<std::vec::Vec<u8>>"** %_1.dbg.spill, align 8
  call void @llvm.dbg.declare(metadata %"std::cell::UnsafeCell<std::vec::Vec<u8>>"** %_1.dbg.spill, metadata !1434, metadata !DIExpression()), !dbg !1437
  %1 = bitcast %"std::cell::UnsafeCell<std::vec::Vec<u8>>"* %_1 to %"std::vec::Vec<u8>"*, !dbg !1437
; call core::ptr::drop_in_place::<alloc::vec::Vec<u8>>
  call void @_RINvNtCs3p84KrD9aKt_4core3ptr13drop_in_placeINtNtCs8RW06R9lH2S_5alloc3vec3VechEECsh5b2sQBIbur_14arc_heap_mutex(%"std::vec::Vec<u8>"* %1), !dbg !1437
  br label %bb1, !dbg !1437

bb1:                                              ; preds = %start
  ret void, !dbg !1437
}

; core::ptr::drop_in_place::<core::option::Option<core::result::Result<(), alloc::boxed::Box<dyn core::any::Any + core::marker::Send>>>>
; Function Attrs: nonlazybind uwtable
define internal void @_RINvNtCs3p84KrD9aKt_4core3ptr13drop_in_placeINtNtB4_6option6OptionINtNtB4_6result6ResultuINtNtCs8RW06R9lH2S_5alloc5boxed3BoxDNtNtB4_3any3AnyNtNtB4_6marker4SendEL_EEEECsh5b2sQBIbur_14arc_heap_mutex(%"std::option::Option<std::result::Result<(), std::boxed::Box<dyn std::any::Any + std::marker::Send>>>"* %_1) unnamed_addr #0 !dbg !1438 {
start:
  %_1.dbg.spill = alloca %"std::option::Option<std::result::Result<(), std::boxed::Box<dyn std::any::Any + std::marker::Send>>>"*, align 8
  %0 = alloca {}, align 1
  store %"std::option::Option<std::result::Result<(), std::boxed::Box<dyn std::any::Any + std::marker::Send>>>"* %_1, %"std::option::Option<std::result::Result<(), std::boxed::Box<dyn std::any::Any + std::marker::Send>>>"** %_1.dbg.spill, align 8
  call void @llvm.dbg.declare(metadata %"std::option::Option<std::result::Result<(), std::boxed::Box<dyn std::any::Any + std::marker::Send>>>"** %_1.dbg.spill, metadata !1442, metadata !DIExpression()), !dbg !1443
  %1 = bitcast %"std::option::Option<std::result::Result<(), std::boxed::Box<dyn std::any::Any + std::marker::Send>>>"* %_1 to i64*, !dbg !1443
  %_2 = load i64, i64* %1, align 8, !dbg !1443, !range !543
  %2 = icmp eq i64 %_2, 0, !dbg !1443
  br i1 %2, label %bb1, label %bb2, !dbg !1443

bb1:                                              ; preds = %bb2, %start
  ret void, !dbg !1443

bb2:                                              ; preds = %start
  %3 = bitcast %"std::option::Option<std::result::Result<(), std::boxed::Box<dyn std::any::Any + std::marker::Send>>>"* %_1 to %"std::option::Option<std::result::Result<(), std::boxed::Box<dyn std::any::Any + std::marker::Send>>>::Some"*, !dbg !1443
  %4 = getelementptr inbounds %"std::option::Option<std::result::Result<(), std::boxed::Box<dyn std::any::Any + std::marker::Send>>>::Some", %"std::option::Option<std::result::Result<(), std::boxed::Box<dyn std::any::Any + std::marker::Send>>>::Some"* %3, i32 0, i32 1, !dbg !1443
; call core::ptr::drop_in_place::<core::result::Result<(), alloc::boxed::Box<dyn core::any::Any + core::marker::Send>>>
  call void @_RINvNtCs3p84KrD9aKt_4core3ptr13drop_in_placeINtNtB4_6result6ResultuINtNtCs8RW06R9lH2S_5alloc5boxed3BoxDNtNtB4_3any3AnyNtNtB4_6marker4SendEL_EEECsh5b2sQBIbur_14arc_heap_mutex({ i8*, i8* }* %4), !dbg !1443
  br label %bb1, !dbg !1443
}

; core::ptr::drop_in_place::<core::option::Option<alloc::sync::Arc<std::sync::mutex::Mutex<alloc::vec::Vec<u8>>>>>
; Function Attrs: nonlazybind uwtable
define internal void @_RINvNtCs3p84KrD9aKt_4core3ptr13drop_in_placeINtNtB4_6option6OptionINtNtCs8RW06R9lH2S_5alloc4sync3ArcINtNtNtCs2bNvlddUlXM_3std4sync5mutex5MutexINtNtB17_3vec3VechEEEEECsh5b2sQBIbur_14arc_heap_mutex(i64** %_1) unnamed_addr #0 !dbg !1444 {
start:
  %_1.dbg.spill = alloca i64**, align 8
  %0 = alloca {}, align 1
  store i64** %_1, i64*** %_1.dbg.spill, align 8
  call void @llvm.dbg.declare(metadata i64*** %_1.dbg.spill, metadata !1449, metadata !DIExpression()), !dbg !1452
  %1 = bitcast i64** %_1 to {}**, !dbg !1452
  %2 = load {}*, {}** %1, align 8, !dbg !1452
  %3 = icmp eq {}* %2, null, !dbg !1452
  %_2 = select i1 %3, i64 0, i64 1, !dbg !1452
  %4 = icmp eq i64 %_2, 0, !dbg !1452
  br i1 %4, label %bb1, label %bb2, !dbg !1452

bb1:                                              ; preds = %bb2, %start
  ret void, !dbg !1452

bb2:                                              ; preds = %start
; call core::ptr::drop_in_place::<alloc::sync::Arc<std::sync::mutex::Mutex<alloc::vec::Vec<u8>>>>
  call void @_RINvNtCs3p84KrD9aKt_4core3ptr13drop_in_placeINtNtCs8RW06R9lH2S_5alloc4sync3ArcINtNtNtCs2bNvlddUlXM_3std4sync5mutex5MutexINtNtBL_3vec3VechEEEECsh5b2sQBIbur_14arc_heap_mutex(i64** %_1), !dbg !1452
  br label %bb1, !dbg !1452
}

; core::ptr::drop_in_place::<core::option::Option<alloc::string::String>>
; Function Attrs: nonlazybind uwtable
define internal void @_RINvNtCs3p84KrD9aKt_4core3ptr13drop_in_placeINtNtB4_6option6OptionNtNtCs8RW06R9lH2S_5alloc6string6StringEECsh5b2sQBIbur_14arc_heap_mutex(%"std::option::Option<std::string::String>"* %_1) unnamed_addr #0 !dbg !1453 {
start:
  %_1.dbg.spill = alloca %"std::option::Option<std::string::String>"*, align 8
  %0 = alloca {}, align 1
  store %"std::option::Option<std::string::String>"* %_1, %"std::option::Option<std::string::String>"** %_1.dbg.spill, align 8
  call void @llvm.dbg.declare(metadata %"std::option::Option<std::string::String>"** %_1.dbg.spill, metadata !1458, metadata !DIExpression()), !dbg !1461
  %1 = bitcast %"std::option::Option<std::string::String>"* %_1 to {}**, !dbg !1461
  %2 = load {}*, {}** %1, align 8, !dbg !1461
  %3 = icmp eq {}* %2, null, !dbg !1461
  %_2 = select i1 %3, i64 0, i64 1, !dbg !1461
  %4 = icmp eq i64 %_2, 0, !dbg !1461
  br i1 %4, label %bb1, label %bb2, !dbg !1461

bb1:                                              ; preds = %bb2, %start
  ret void, !dbg !1461

bb2:                                              ; preds = %start
  %5 = bitcast %"std::option::Option<std::string::String>"* %_1 to %"std::option::Option<std::string::String>::Some"*, !dbg !1461
  %6 = bitcast %"std::option::Option<std::string::String>::Some"* %5 to %"std::string::String"*, !dbg !1461
; call core::ptr::drop_in_place::<alloc::string::String>
  call void @_RINvNtCs3p84KrD9aKt_4core3ptr13drop_in_placeNtNtCs8RW06R9lH2S_5alloc6string6StringECsh5b2sQBIbur_14arc_heap_mutex(%"std::string::String"* %6), !dbg !1461
  br label %bb1, !dbg !1461
}

; core::ptr::drop_in_place::<core::option::Option<std::ffi::c_str::CString>>
; Function Attrs: nonlazybind uwtable
define internal void @_RINvNtCs3p84KrD9aKt_4core3ptr13drop_in_placeINtNtB4_6option6OptionNtNtNtCs2bNvlddUlXM_3std3ffi5c_str7CStringEECsh5b2sQBIbur_14arc_heap_mutex({ i8*, i64 }* %_1) unnamed_addr #0 !dbg !1462 {
start:
  %_1.dbg.spill = alloca { i8*, i64 }*, align 8
  %0 = alloca {}, align 1
  store { i8*, i64 }* %_1, { i8*, i64 }** %_1.dbg.spill, align 8
  call void @llvm.dbg.declare(metadata { i8*, i64 }** %_1.dbg.spill, metadata !1467, metadata !DIExpression()), !dbg !1470
  %1 = bitcast { i8*, i64 }* %_1 to {}**, !dbg !1470
  %2 = load {}*, {}** %1, align 8, !dbg !1470
  %3 = icmp eq {}* %2, null, !dbg !1470
  %_2 = select i1 %3, i64 0, i64 1, !dbg !1470
  %4 = icmp eq i64 %_2, 0, !dbg !1470
  br i1 %4, label %bb1, label %bb2, !dbg !1470

bb1:                                              ; preds = %bb2, %start
  ret void, !dbg !1470

bb2:                                              ; preds = %start
; call core::ptr::drop_in_place::<std::ffi::c_str::CString>
  call void @_RINvNtCs3p84KrD9aKt_4core3ptr13drop_in_placeNtNtNtCs2bNvlddUlXM_3std3ffi5c_str7CStringECsh5b2sQBIbur_14arc_heap_mutex({ i8*, i64 }* %_1), !dbg !1470
  br label %bb1, !dbg !1470
}

; core::ptr::drop_in_place::<core::option::Option<std::sys::unix::thread::Thread>>
; Function Attrs: nonlazybind uwtable
define internal void @_RINvNtCs3p84KrD9aKt_4core3ptr13drop_in_placeINtNtB4_6option6OptionNtNtNtNtCs2bNvlddUlXM_3std3sys4unix6thread6ThreadEECsh5b2sQBIbur_14arc_heap_mutex({ i64, i64 }* %_1) unnamed_addr #0 !dbg !1471 {
start:
  %_1.dbg.spill = alloca { i64, i64 }*, align 8
  %0 = alloca {}, align 1
  store { i64, i64 }* %_1, { i64, i64 }** %_1.dbg.spill, align 8
  call void @llvm.dbg.declare(metadata { i64, i64 }** %_1.dbg.spill, metadata !1475, metadata !DIExpression()), !dbg !1476
  %1 = bitcast { i64, i64 }* %_1 to i64*, !dbg !1476
  %_2 = load i64, i64* %1, align 8, !dbg !1476, !range !543
  %2 = icmp eq i64 %_2, 0, !dbg !1476
  br i1 %2, label %bb1, label %bb2, !dbg !1476

bb1:                                              ; preds = %bb2, %start
  ret void, !dbg !1476

bb2:                                              ; preds = %start
  %3 = bitcast { i64, i64 }* %_1 to %"std::option::Option<std::sys::unix::thread::Thread>::Some"*, !dbg !1476
  %4 = getelementptr inbounds %"std::option::Option<std::sys::unix::thread::Thread>::Some", %"std::option::Option<std::sys::unix::thread::Thread>::Some"* %3, i32 0, i32 1, !dbg !1476
; call core::ptr::drop_in_place::<std::sys::unix::thread::Thread>
  call void @_RINvNtCs3p84KrD9aKt_4core3ptr13drop_in_placeNtNtNtNtCs2bNvlddUlXM_3std3sys4unix6thread6ThreadECsh5b2sQBIbur_14arc_heap_mutex(i64* %4), !dbg !1476
  br label %bb1, !dbg !1476
}

; core::ptr::drop_in_place::<core::result::Result<std::thread::JoinHandle<()>, std::io::error::Error>>
; Function Attrs: nonlazybind uwtable
define internal void @_RINvNtCs3p84KrD9aKt_4core3ptr13drop_in_placeINtNtB4_6result6ResultINtNtCs2bNvlddUlXM_3std6thread10JoinHandleuENtNtNtB17_2io5error5ErrorEECsh5b2sQBIbur_14arc_heap_mutex(%"std::result::Result<std::thread::JoinHandle<()>, std::io::Error>"* %_1) unnamed_addr #0 !dbg !1477 {
start:
  %_1.dbg.spill = alloca %"std::result::Result<std::thread::JoinHandle<()>, std::io::Error>"*, align 8
  %0 = alloca {}, align 1
  store %"std::result::Result<std::thread::JoinHandle<()>, std::io::Error>"* %_1, %"std::result::Result<std::thread::JoinHandle<()>, std::io::Error>"** %_1.dbg.spill, align 8
  call void @llvm.dbg.declare(metadata %"std::result::Result<std::thread::JoinHandle<()>, std::io::Error>"** %_1.dbg.spill, metadata !1482, metadata !DIExpression()), !dbg !1485
  %1 = bitcast %"std::result::Result<std::thread::JoinHandle<()>, std::io::Error>"* %_1 to i64*, !dbg !1485
  %_2 = load i64, i64* %1, align 8, !dbg !1485, !range !543
  %2 = icmp eq i64 %_2, 0, !dbg !1485
  br i1 %2, label %bb2, label %bb3, !dbg !1485

bb1:                                              ; preds = %bb2, %bb3
  ret void, !dbg !1485

bb2:                                              ; preds = %start
  %3 = bitcast %"std::result::Result<std::thread::JoinHandle<()>, std::io::Error>"* %_1 to %"std::result::Result<std::thread::JoinHandle<()>, std::io::Error>::Ok"*, !dbg !1485
  %4 = getelementptr inbounds %"std::result::Result<std::thread::JoinHandle<()>, std::io::Error>::Ok", %"std::result::Result<std::thread::JoinHandle<()>, std::io::Error>::Ok"* %3, i32 0, i32 1, !dbg !1485
; call core::ptr::drop_in_place::<std::thread::JoinHandle<()>>
  call void @_RINvNtCs3p84KrD9aKt_4core3ptr13drop_in_placeINtNtCs2bNvlddUlXM_3std6thread10JoinHandleuEECsh5b2sQBIbur_14arc_heap_mutex(%"std::thread::JoinHandle<()>"* %4), !dbg !1485
  br label %bb1, !dbg !1485

bb3:                                              ; preds = %start
  %5 = bitcast %"std::result::Result<std::thread::JoinHandle<()>, std::io::Error>"* %_1 to %"std::result::Result<std::thread::JoinHandle<()>, std::io::Error>::Err"*, !dbg !1485
  %6 = getelementptr inbounds %"std::result::Result<std::thread::JoinHandle<()>, std::io::Error>::Err", %"std::result::Result<std::thread::JoinHandle<()>, std::io::Error>::Err"* %5, i32 0, i32 1, !dbg !1485
; call core::ptr::drop_in_place::<std::io::error::Error>
  call void @_RINvNtCs3p84KrD9aKt_4core3ptr13drop_in_placeNtNtNtCs2bNvlddUlXM_3std2io5error5ErrorECsh5b2sQBIbur_14arc_heap_mutex(%"std::io::Error"* %6), !dbg !1485
  br label %bb1, !dbg !1485
}

; core::ptr::drop_in_place::<core::result::Result<(), alloc::boxed::Box<dyn core::any::Any + core::marker::Send>>>
; Function Attrs: nonlazybind uwtable
define internal void @_RINvNtCs3p84KrD9aKt_4core3ptr13drop_in_placeINtNtB4_6result6ResultuINtNtCs8RW06R9lH2S_5alloc5boxed3BoxDNtNtB4_3any3AnyNtNtB4_6marker4SendEL_EEECsh5b2sQBIbur_14arc_heap_mutex({ i8*, i8* }* %_1) unnamed_addr #0 !dbg !1486 {
start:
  %_1.dbg.spill = alloca { i8*, i8* }*, align 8
  %0 = alloca {}, align 1
  store { i8*, i8* }* %_1, { i8*, i8* }** %_1.dbg.spill, align 8
  call void @llvm.dbg.declare(metadata { i8*, i8* }** %_1.dbg.spill, metadata !1491, metadata !DIExpression()), !dbg !1492
  %1 = bitcast { i8*, i8* }* %_1 to {}**, !dbg !1492
  %2 = load {}*, {}** %1, align 8, !dbg !1492
  %3 = icmp eq {}* %2, null, !dbg !1492
  %_2 = select i1 %3, i64 0, i64 1, !dbg !1492
  %4 = icmp eq i64 %_2, 0, !dbg !1492
  br i1 %4, label %bb1, label %bb2, !dbg !1492

bb1:                                              ; preds = %bb2, %start
  ret void, !dbg !1492

bb2:                                              ; preds = %start
  %5 = bitcast { i8*, i8* }* %_1 to { {}*, [3 x i64]* }*, !dbg !1492
; call core::ptr::drop_in_place::<alloc::boxed::Box<dyn core::any::Any + core::marker::Send>>
  call void @_RINvNtCs3p84KrD9aKt_4core3ptr13drop_in_placeINtNtCs8RW06R9lH2S_5alloc5boxed3BoxDNtNtB4_3any3AnyNtNtB4_6marker4SendEL_EECsh5b2sQBIbur_14arc_heap_mutex({ {}*, [3 x i64]* }* %5), !dbg !1492
  br label %bb1, !dbg !1492
}

; core::ptr::drop_in_place::<std::thread::JoinHandle<()>>
; Function Attrs: nonlazybind uwtable
define internal void @_RINvNtCs3p84KrD9aKt_4core3ptr13drop_in_placeINtNtCs2bNvlddUlXM_3std6thread10JoinHandleuEECsh5b2sQBIbur_14arc_heap_mutex(%"std::thread::JoinHandle<()>"* %_1) unnamed_addr #0 !dbg !1493 {
start:
  %_1.dbg.spill = alloca %"std::thread::JoinHandle<()>"*, align 8
  %0 = alloca {}, align 1
  store %"std::thread::JoinHandle<()>"* %_1, %"std::thread::JoinHandle<()>"** %_1.dbg.spill, align 8
  call void @llvm.dbg.declare(metadata %"std::thread::JoinHandle<()>"** %_1.dbg.spill, metadata !1498, metadata !DIExpression()), !dbg !1500
  %1 = bitcast %"std::thread::JoinHandle<()>"* %_1 to %"std::thread::JoinInner<()>"*, !dbg !1500
; call core::ptr::drop_in_place::<std::thread::JoinInner<()>>
  call void @_RINvNtCs3p84KrD9aKt_4core3ptr13drop_in_placeINtNtCs2bNvlddUlXM_3std6thread9JoinInneruEECsh5b2sQBIbur_14arc_heap_mutex(%"std::thread::JoinInner<()>"* %1), !dbg !1500
  br label %bb1, !dbg !1500

bb1:                                              ; preds = %start
  ret void, !dbg !1500
}

; core::ptr::drop_in_place::<std::thread::Packet<()>>
; Function Attrs: nonlazybind uwtable
define internal void @_RINvNtCs3p84KrD9aKt_4core3ptr13drop_in_placeINtNtCs2bNvlddUlXM_3std6thread6PacketuEECsh5b2sQBIbur_14arc_heap_mutex(i64** %_1) unnamed_addr #0 !dbg !1501 {
start:
  %_1.dbg.spill = alloca i64**, align 8
  %0 = alloca {}, align 1
  store i64** %_1, i64*** %_1.dbg.spill, align 8
  call void @llvm.dbg.declare(metadata i64*** %_1.dbg.spill, metadata !1506, metadata !DIExpression()), !dbg !1509
; call core::ptr::drop_in_place::<alloc::sync::Arc<core::cell::UnsafeCell<core::option::Option<core::result::Result<(), alloc::boxed::Box<dyn core::any::Any + core::marker::Send>>>>>>
  call void @_RINvNtCs3p84KrD9aKt_4core3ptr13drop_in_placeINtNtCs8RW06R9lH2S_5alloc4sync3ArcINtNtB4_4cell10UnsafeCellINtNtB4_6option6OptionINtNtB4_6result6ResultuINtNtBL_5boxed3BoxDNtNtB4_3any3AnyNtNtB4_6marker4SendEL_EEEEEECsh5b2sQBIbur_14arc_heap_mutex(i64** %_1), !dbg !1509
  br label %bb1, !dbg !1509

bb1:                                              ; preds = %start
  ret void, !dbg !1509
}

; core::ptr::drop_in_place::<std::thread::JoinInner<()>>
; Function Attrs: nonlazybind uwtable
define internal void @_RINvNtCs3p84KrD9aKt_4core3ptr13drop_in_placeINtNtCs2bNvlddUlXM_3std6thread9JoinInneruEECsh5b2sQBIbur_14arc_heap_mutex(%"std::thread::JoinInner<()>"* %_1) unnamed_addr #0 personality i32 (i32, i32, i64, %"unwind::libunwind::_Unwind_Exception"*, %"unwind::libunwind::_Unwind_Context"*)* @rust_eh_personality !dbg !1510 {
start:
  %0 = alloca { i8*, i32 }, align 8
  %_1.dbg.spill = alloca %"std::thread::JoinInner<()>"*, align 8
  %1 = alloca {}, align 1
  store %"std::thread::JoinInner<()>"* %_1, %"std::thread::JoinInner<()>"** %_1.dbg.spill, align 8
  call void @llvm.dbg.declare(metadata %"std::thread::JoinInner<()>"** %_1.dbg.spill, metadata !1515, metadata !DIExpression()), !dbg !1518
  %2 = bitcast %"std::thread::JoinInner<()>"* %_1 to { i64, i64 }*, !dbg !1518
; invoke core::ptr::drop_in_place::<core::option::Option<std::sys::unix::thread::Thread>>
  invoke void @_RINvNtCs3p84KrD9aKt_4core3ptr13drop_in_placeINtNtB4_6option6OptionNtNtNtNtCs2bNvlddUlXM_3std3sys4unix6thread6ThreadEECsh5b2sQBIbur_14arc_heap_mutex({ i64, i64 }* %2)
          to label %bb6 unwind label %cleanup, !dbg !1518

bb1:                                              ; preds = %bb3
  %3 = bitcast { i8*, i32 }* %0 to i8**, !dbg !1518
  %4 = load i8*, i8** %3, align 8, !dbg !1518
  %5 = getelementptr inbounds { i8*, i32 }, { i8*, i32 }* %0, i32 0, i32 1, !dbg !1518
  %6 = load i32, i32* %5, align 8, !dbg !1518
  %7 = insertvalue { i8*, i32 } undef, i8* %4, 0, !dbg !1518
  %8 = insertvalue { i8*, i32 } %7, i32 %6, 1, !dbg !1518
  resume { i8*, i32 } %8, !dbg !1518

bb2:                                              ; preds = %bb5
  ret void, !dbg !1518

bb3:                                              ; preds = %cleanup1, %bb4
  %9 = getelementptr inbounds %"std::thread::JoinInner<()>", %"std::thread::JoinInner<()>"* %_1, i32 0, i32 5, !dbg !1518
; call core::ptr::drop_in_place::<std::thread::Packet<()>>
  call void @_RINvNtCs3p84KrD9aKt_4core3ptr13drop_in_placeINtNtCs2bNvlddUlXM_3std6thread6PacketuEECsh5b2sQBIbur_14arc_heap_mutex(i64** %9) #14, !dbg !1518
  br label %bb1, !dbg !1518

bb4:                                              ; preds = %cleanup
  %10 = getelementptr inbounds %"std::thread::JoinInner<()>", %"std::thread::JoinInner<()>"* %_1, i32 0, i32 3, !dbg !1518
; call core::ptr::drop_in_place::<std::thread::Thread>
  call void @_RINvNtCs3p84KrD9aKt_4core3ptr13drop_in_placeNtNtCs2bNvlddUlXM_3std6thread6ThreadECsh5b2sQBIbur_14arc_heap_mutex(i64** %10) #14, !dbg !1518
  br label %bb3, !dbg !1518

bb5:                                              ; preds = %bb6
  %11 = getelementptr inbounds %"std::thread::JoinInner<()>", %"std::thread::JoinInner<()>"* %_1, i32 0, i32 5, !dbg !1518
; call core::ptr::drop_in_place::<std::thread::Packet<()>>
  call void @_RINvNtCs3p84KrD9aKt_4core3ptr13drop_in_placeINtNtCs2bNvlddUlXM_3std6thread6PacketuEECsh5b2sQBIbur_14arc_heap_mutex(i64** %11), !dbg !1518
  br label %bb2, !dbg !1518

bb6:                                              ; preds = %start
  %12 = getelementptr inbounds %"std::thread::JoinInner<()>", %"std::thread::JoinInner<()>"* %_1, i32 0, i32 3, !dbg !1518
; invoke core::ptr::drop_in_place::<std::thread::Thread>
  invoke void @_RINvNtCs3p84KrD9aKt_4core3ptr13drop_in_placeNtNtCs2bNvlddUlXM_3std6thread6ThreadECsh5b2sQBIbur_14arc_heap_mutex(i64** %12)
          to label %bb5 unwind label %cleanup1, !dbg !1518

cleanup:                                          ; preds = %start
  %13 = landingpad { i8*, i32 }
          cleanup
  %14 = extractvalue { i8*, i32 } %13, 0
  %15 = extractvalue { i8*, i32 } %13, 1
  %16 = getelementptr inbounds { i8*, i32 }, { i8*, i32 }* %0, i32 0, i32 0
  store i8* %14, i8** %16, align 8
  %17 = getelementptr inbounds { i8*, i32 }, { i8*, i32 }* %0, i32 0, i32 1
  store i32 %15, i32* %17, align 8
  br label %bb4

cleanup1:                                         ; preds = %bb6
  %18 = landingpad { i8*, i32 }
          cleanup
  %19 = extractvalue { i8*, i32 } %18, 0
  %20 = extractvalue { i8*, i32 } %18, 1
  %21 = getelementptr inbounds { i8*, i32 }, { i8*, i32 }* %0, i32 0, i32 0
  store i8* %19, i8** %21, align 8
  %22 = getelementptr inbounds { i8*, i32 }, { i8*, i32 }* %0, i32 0, i32 1
  store i32 %20, i32* %22, align 8
  br label %bb3
}

; core::ptr::drop_in_place::<alloc::vec::Vec<u8>>
; Function Attrs: nonlazybind uwtable
define internal void @_RINvNtCs3p84KrD9aKt_4core3ptr13drop_in_placeINtNtCs8RW06R9lH2S_5alloc3vec3VechEECsh5b2sQBIbur_14arc_heap_mutex(%"std::vec::Vec<u8>"* %_1) unnamed_addr #0 personality i32 (i32, i32, i64, %"unwind::libunwind::_Unwind_Exception"*, %"unwind::libunwind::_Unwind_Context"*)* @rust_eh_personality !dbg !1519 {
start:
  %0 = alloca { i8*, i32 }, align 8
  %_1.dbg.spill = alloca %"std::vec::Vec<u8>"*, align 8
  %1 = alloca {}, align 1
  store %"std::vec::Vec<u8>"* %_1, %"std::vec::Vec<u8>"** %_1.dbg.spill, align 8
  call void @llvm.dbg.declare(metadata %"std::vec::Vec<u8>"** %_1.dbg.spill, metadata !1524, metadata !DIExpression()), !dbg !1525
; invoke <alloc::vec::Vec<u8> as core::ops::drop::Drop>::drop
  invoke void @_RNvXsm_NtCs8RW06R9lH2S_5alloc3vecINtB5_3VechENtNtNtCs3p84KrD9aKt_4core3ops4drop4Drop4dropCsh5b2sQBIbur_14arc_heap_mutex(%"std::vec::Vec<u8>"* align 8 dereferenceable(24) %_1)
          to label %bb4 unwind label %cleanup, !dbg !1525

bb1:                                              ; preds = %bb3
  %2 = bitcast { i8*, i32 }* %0 to i8**, !dbg !1525
  %3 = load i8*, i8** %2, align 8, !dbg !1525
  %4 = getelementptr inbounds { i8*, i32 }, { i8*, i32 }* %0, i32 0, i32 1, !dbg !1525
  %5 = load i32, i32* %4, align 8, !dbg !1525
  %6 = insertvalue { i8*, i32 } undef, i8* %3, 0, !dbg !1525
  %7 = insertvalue { i8*, i32 } %6, i32 %5, 1, !dbg !1525
  resume { i8*, i32 } %7, !dbg !1525

bb2:                                              ; preds = %bb4
  ret void, !dbg !1525

bb3:                                              ; preds = %cleanup
  %8 = bitcast %"std::vec::Vec<u8>"* %_1 to { i8*, i64 }*, !dbg !1525
; call core::ptr::drop_in_place::<alloc::raw_vec::RawVec<u8>>
  call void @_RINvNtCs3p84KrD9aKt_4core3ptr13drop_in_placeINtNtCs8RW06R9lH2S_5alloc7raw_vec6RawVechEECsh5b2sQBIbur_14arc_heap_mutex({ i8*, i64 }* %8) #14, !dbg !1525
  br label %bb1, !dbg !1525

bb4:                                              ; preds = %start
  %9 = bitcast %"std::vec::Vec<u8>"* %_1 to { i8*, i64 }*, !dbg !1525
; call core::ptr::drop_in_place::<alloc::raw_vec::RawVec<u8>>
  call void @_RINvNtCs3p84KrD9aKt_4core3ptr13drop_in_placeINtNtCs8RW06R9lH2S_5alloc7raw_vec6RawVechEECsh5b2sQBIbur_14arc_heap_mutex({ i8*, i64 }* %9), !dbg !1525
  br label %bb2, !dbg !1525

cleanup:                                          ; preds = %start
  %10 = landingpad { i8*, i32 }
          cleanup
  %11 = extractvalue { i8*, i32 } %10, 0
  %12 = extractvalue { i8*, i32 } %10, 1
  %13 = getelementptr inbounds { i8*, i32 }, { i8*, i32 }* %0, i32 0, i32 0
  store i8* %11, i8** %13, align 8
  %14 = getelementptr inbounds { i8*, i32 }, { i8*, i32 }* %0, i32 0, i32 1
  store i32 %12, i32* %14, align 8
  br label %bb3
}

; core::ptr::drop_in_place::<alloc::sync::Arc<core::cell::UnsafeCell<core::option::Option<core::result::Result<(), alloc::boxed::Box<dyn core::any::Any + core::marker::Send>>>>>>
; Function Attrs: nonlazybind uwtable
define internal void @_RINvNtCs3p84KrD9aKt_4core3ptr13drop_in_placeINtNtCs8RW06R9lH2S_5alloc4sync3ArcINtNtB4_4cell10UnsafeCellINtNtB4_6option6OptionINtNtB4_6result6ResultuINtNtBL_5boxed3BoxDNtNtB4_3any3AnyNtNtB4_6marker4SendEL_EEEEEECsh5b2sQBIbur_14arc_heap_mutex(i64** %_1) unnamed_addr #0 !dbg !1526 {
start:
  %_1.dbg.spill = alloca i64**, align 8
  %0 = alloca {}, align 1
  store i64** %_1, i64*** %_1.dbg.spill, align 8
  call void @llvm.dbg.declare(metadata i64*** %_1.dbg.spill, metadata !1531, metadata !DIExpression()), !dbg !1534
; call <alloc::sync::Arc<core::cell::UnsafeCell<core::option::Option<core::result::Result<(), alloc::boxed::Box<dyn core::any::Any + core::marker::Send>>>>> as core::ops::drop::Drop>::drop
  call void @_RNvXsp_NtCs8RW06R9lH2S_5alloc4syncINtB5_3ArcINtNtCs3p84KrD9aKt_4core4cell10UnsafeCellINtNtBL_6option6OptionINtNtBL_6result6ResultuINtNtB7_5boxed3BoxDNtNtBL_3any3AnyNtNtBL_6marker4SendEL_EEEEENtNtNtBL_3ops4drop4Drop4dropCsh5b2sQBIbur_14arc_heap_mutex(i64** align 8 dereferenceable(8) %_1), !dbg !1534
  br label %bb1, !dbg !1534

bb1:                                              ; preds = %start
  ret void, !dbg !1534
}

; core::ptr::drop_in_place::<alloc::sync::Arc<std::sync::mutex::Mutex<alloc::vec::Vec<u8>>>>
; Function Attrs: nonlazybind uwtable
define internal void @_RINvNtCs3p84KrD9aKt_4core3ptr13drop_in_placeINtNtCs8RW06R9lH2S_5alloc4sync3ArcINtNtNtCs2bNvlddUlXM_3std4sync5mutex5MutexINtNtBL_3vec3VechEEEECsh5b2sQBIbur_14arc_heap_mutex(i64** %_1) unnamed_addr #0 !dbg !1535 {
start:
  %_1.dbg.spill = alloca i64**, align 8
  %0 = alloca {}, align 1
  store i64** %_1, i64*** %_1.dbg.spill, align 8
  call void @llvm.dbg.declare(metadata i64*** %_1.dbg.spill, metadata !1540, metadata !DIExpression()), !dbg !1541
; call <alloc::sync::Arc<std::sync::mutex::Mutex<alloc::vec::Vec<u8>>> as core::ops::drop::Drop>::drop
  call void @_RNvXsp_NtCs8RW06R9lH2S_5alloc4syncINtB5_3ArcINtNtNtCs2bNvlddUlXM_3std4sync5mutex5MutexINtNtB7_3vec3VechEEENtNtNtCs3p84KrD9aKt_4core3ops4drop4Drop4dropCsh5b2sQBIbur_14arc_heap_mutex(i64** align 8 dereferenceable(8) %_1), !dbg !1541
  br label %bb1, !dbg !1541

bb1:                                              ; preds = %start
  ret void, !dbg !1541
}

; core::ptr::drop_in_place::<alloc::sync::Arc<std::sync::mutex::Mutex<i32>>>
; Function Attrs: nonlazybind uwtable
define internal void @_RINvNtCs3p84KrD9aKt_4core3ptr13drop_in_placeINtNtCs8RW06R9lH2S_5alloc4sync3ArcINtNtNtCs2bNvlddUlXM_3std4sync5mutex5MutexlEEECsh5b2sQBIbur_14arc_heap_mutex(i64** %_1) unnamed_addr #0 !dbg !1542 {
start:
  %_1.dbg.spill = alloca i64**, align 8
  %0 = alloca {}, align 1
  store i64** %_1, i64*** %_1.dbg.spill, align 8
  call void @llvm.dbg.declare(metadata i64*** %_1.dbg.spill, metadata !1547, metadata !DIExpression()), !dbg !1550
; call <alloc::sync::Arc<std::sync::mutex::Mutex<i32>> as core::ops::drop::Drop>::drop
  call void @_RNvXsp_NtCs8RW06R9lH2S_5alloc4syncINtB5_3ArcINtNtNtCs2bNvlddUlXM_3std4sync5mutex5MutexlEENtNtNtCs3p84KrD9aKt_4core3ops4drop4Drop4dropCsh5b2sQBIbur_14arc_heap_mutex(i64** align 8 dereferenceable(8) %_1), !dbg !1550
  br label %bb1, !dbg !1550

bb1:                                              ; preds = %start
  ret void, !dbg !1550
}

; core::ptr::drop_in_place::<alloc::sync::Arc<std::thread::Inner>>
; Function Attrs: nonlazybind uwtable
define internal void @_RINvNtCs3p84KrD9aKt_4core3ptr13drop_in_placeINtNtCs8RW06R9lH2S_5alloc4sync3ArcNtNtCs2bNvlddUlXM_3std6thread5InnerEECsh5b2sQBIbur_14arc_heap_mutex(i64** %_1) unnamed_addr #0 !dbg !1551 {
start:
  %_1.dbg.spill = alloca i64**, align 8
  %0 = alloca {}, align 1
  store i64** %_1, i64*** %_1.dbg.spill, align 8
  call void @llvm.dbg.declare(metadata i64*** %_1.dbg.spill, metadata !1556, metadata !DIExpression()), !dbg !1559
; call <alloc::sync::Arc<std::thread::Inner> as core::ops::drop::Drop>::drop
  call void @_RNvXsp_NtCs8RW06R9lH2S_5alloc4syncINtB5_3ArcNtNtCs2bNvlddUlXM_3std6thread5InnerENtNtNtCs3p84KrD9aKt_4core3ops4drop4Drop4dropCsh5b2sQBIbur_14arc_heap_mutex(i64** align 8 dereferenceable(8) %_1), !dbg !1559
  br label %bb1, !dbg !1559

bb1:                                              ; preds = %start
  ret void, !dbg !1559
}

; core::ptr::drop_in_place::<alloc::sync::Weak<core::cell::UnsafeCell<core::option::Option<core::result::Result<(), alloc::boxed::Box<dyn core::any::Any + core::marker::Send>>>>>>
; Function Attrs: nonlazybind uwtable
define internal void @_RINvNtCs3p84KrD9aKt_4core3ptr13drop_in_placeINtNtCs8RW06R9lH2S_5alloc4sync4WeakINtNtB4_4cell10UnsafeCellINtNtB4_6option6OptionINtNtB4_6result6ResultuINtNtBL_5boxed3BoxDNtNtB4_3any3AnyNtNtB4_6marker4SendEL_EEEEEECsh5b2sQBIbur_14arc_heap_mutex(i64** %_1) unnamed_addr #0 !dbg !1560 {
start:
  %_1.dbg.spill = alloca i64**, align 8
  %0 = alloca {}, align 1
  store i64** %_1, i64*** %_1.dbg.spill, align 8
  call void @llvm.dbg.declare(metadata i64*** %_1.dbg.spill, metadata !1565, metadata !DIExpression()), !dbg !1566
; call <alloc::sync::Weak<core::cell::UnsafeCell<core::option::Option<core::result::Result<(), alloc::boxed::Box<dyn core::any::Any + core::marker::Send>>>>> as core::ops::drop::Drop>::drop
  call void @_RNvXsw_NtCs8RW06R9lH2S_5alloc4syncINtB5_4WeakINtNtCs3p84KrD9aKt_4core4cell10UnsafeCellINtNtBM_6option6OptionINtNtBM_6result6ResultuINtNtB7_5boxed3BoxDNtNtBM_3any3AnyNtNtBM_6marker4SendEL_EEEEENtNtNtBM_3ops4drop4Drop4dropCsh5b2sQBIbur_14arc_heap_mutex(i64** align 8 dereferenceable(8) %_1), !dbg !1566
  br label %bb1, !dbg !1566

bb1:                                              ; preds = %start
  ret void, !dbg !1566
}

; core::ptr::drop_in_place::<alloc::sync::Weak<std::sync::mutex::Mutex<alloc::vec::Vec<u8>>>>
; Function Attrs: nonlazybind uwtable
define internal void @_RINvNtCs3p84KrD9aKt_4core3ptr13drop_in_placeINtNtCs8RW06R9lH2S_5alloc4sync4WeakINtNtNtCs2bNvlddUlXM_3std4sync5mutex5MutexINtNtBL_3vec3VechEEEECsh5b2sQBIbur_14arc_heap_mutex(i64** %_1) unnamed_addr #0 !dbg !1567 {
start:
  %_1.dbg.spill = alloca i64**, align 8
  %0 = alloca {}, align 1
  store i64** %_1, i64*** %_1.dbg.spill, align 8
  call void @llvm.dbg.declare(metadata i64*** %_1.dbg.spill, metadata !1572, metadata !DIExpression()), !dbg !1573
; call <alloc::sync::Weak<std::sync::mutex::Mutex<alloc::vec::Vec<u8>>> as core::ops::drop::Drop>::drop
  call void @_RNvXsw_NtCs8RW06R9lH2S_5alloc4syncINtB5_4WeakINtNtNtCs2bNvlddUlXM_3std4sync5mutex5MutexINtNtB7_3vec3VechEEENtNtNtCs3p84KrD9aKt_4core3ops4drop4Drop4dropCsh5b2sQBIbur_14arc_heap_mutex(i64** align 8 dereferenceable(8) %_1), !dbg !1573
  br label %bb1, !dbg !1573

bb1:                                              ; preds = %start
  ret void, !dbg !1573
}

; core::ptr::drop_in_place::<alloc::sync::Weak<std::sync::mutex::Mutex<i32>>>
; Function Attrs: nonlazybind uwtable
define internal void @_RINvNtCs3p84KrD9aKt_4core3ptr13drop_in_placeINtNtCs8RW06R9lH2S_5alloc4sync4WeakINtNtNtCs2bNvlddUlXM_3std4sync5mutex5MutexlEEECsh5b2sQBIbur_14arc_heap_mutex(i64** %_1) unnamed_addr #0 !dbg !1574 {
start:
  %_1.dbg.spill = alloca i64**, align 8
  %0 = alloca {}, align 1
  store i64** %_1, i64*** %_1.dbg.spill, align 8
  call void @llvm.dbg.declare(metadata i64*** %_1.dbg.spill, metadata !1579, metadata !DIExpression()), !dbg !1580
; call <alloc::sync::Weak<std::sync::mutex::Mutex<i32>> as core::ops::drop::Drop>::drop
  call void @_RNvXsw_NtCs8RW06R9lH2S_5alloc4syncINtB5_4WeakINtNtNtCs2bNvlddUlXM_3std4sync5mutex5MutexlEENtNtNtCs3p84KrD9aKt_4core3ops4drop4Drop4dropCsh5b2sQBIbur_14arc_heap_mutex(i64** align 8 dereferenceable(8) %_1), !dbg !1580
  br label %bb1, !dbg !1580

bb1:                                              ; preds = %start
  ret void, !dbg !1580
}

; core::ptr::drop_in_place::<alloc::sync::Weak<std::thread::Inner>>
; Function Attrs: nonlazybind uwtable
define internal void @_RINvNtCs3p84KrD9aKt_4core3ptr13drop_in_placeINtNtCs8RW06R9lH2S_5alloc4sync4WeakNtNtCs2bNvlddUlXM_3std6thread5InnerEECsh5b2sQBIbur_14arc_heap_mutex(i64** %_1) unnamed_addr #0 !dbg !1581 {
start:
  %_1.dbg.spill = alloca i64**, align 8
  %0 = alloca {}, align 1
  store i64** %_1, i64*** %_1.dbg.spill, align 8
  call void @llvm.dbg.declare(metadata i64*** %_1.dbg.spill, metadata !1586, metadata !DIExpression()), !dbg !1587
; call <alloc::sync::Weak<std::thread::Inner> as core::ops::drop::Drop>::drop
  call void @_RNvXsw_NtCs8RW06R9lH2S_5alloc4syncINtB5_4WeakNtNtCs2bNvlddUlXM_3std6thread5InnerENtNtNtCs3p84KrD9aKt_4core3ops4drop4Drop4dropCsh5b2sQBIbur_14arc_heap_mutex(i64** align 8 dereferenceable(8) %_1), !dbg !1587
  br label %bb1, !dbg !1587

bb1:                                              ; preds = %start
  ret void, !dbg !1587
}

; core::ptr::drop_in_place::<alloc::boxed::Box<dyn core::any::Any + core::marker::Send>>
; Function Attrs: nonlazybind uwtable
define internal void @_RINvNtCs3p84KrD9aKt_4core3ptr13drop_in_placeINtNtCs8RW06R9lH2S_5alloc5boxed3BoxDNtNtB4_3any3AnyNtNtB4_6marker4SendEL_EECsh5b2sQBIbur_14arc_heap_mutex({ {}*, [3 x i64]* }* %_1) unnamed_addr #0 personality i32 (i32, i32, i64, %"unwind::libunwind::_Unwind_Exception"*, %"unwind::libunwind::_Unwind_Context"*)* @rust_eh_personality !dbg !1588 {
start:
  %0 = alloca { i8*, i32 }, align 8
  %_1.dbg.spill = alloca { {}*, [3 x i64]* }*, align 8
  %1 = alloca {}, align 1
  store { {}*, [3 x i64]* }* %_1, { {}*, [3 x i64]* }** %_1.dbg.spill, align 8
  call void @llvm.dbg.declare(metadata { {}*, [3 x i64]* }** %_1.dbg.spill, metadata !1593, metadata !DIExpression()), !dbg !1594
  %2 = getelementptr inbounds { {}*, [3 x i64]* }, { {}*, [3 x i64]* }* %_1, i32 0, i32 0, !dbg !1594
  %3 = load {}*, {}** %2, align 8, !dbg !1594, !nonnull !4
  %4 = getelementptr inbounds { {}*, [3 x i64]* }, { {}*, [3 x i64]* }* %_1, i32 0, i32 1, !dbg !1594
  %5 = load [3 x i64]*, [3 x i64]** %4, align 8, !dbg !1594, !nonnull !4
  %6 = bitcast [3 x i64]* %5 to void ({}*)**, !dbg !1594
  %7 = getelementptr inbounds void ({}*)*, void ({}*)** %6, i64 0, !dbg !1594
  %8 = load void ({}*)*, void ({}*)** %7, align 8, !dbg !1594, !invariant.load !4, !nonnull !4
  invoke void %8({}* %3)
          to label %bb3 unwind label %cleanup, !dbg !1594

bb1:                                              ; preds = %bb3
  ret void, !dbg !1594

bb2:                                              ; preds = %bb4
  %9 = bitcast { i8*, i32 }* %0 to i8**, !dbg !1594
  %10 = load i8*, i8** %9, align 8, !dbg !1594
  %11 = getelementptr inbounds { i8*, i32 }, { i8*, i32 }* %0, i32 0, i32 1, !dbg !1594
  %12 = load i32, i32* %11, align 8, !dbg !1594
  %13 = insertvalue { i8*, i32 } undef, i8* %10, 0, !dbg !1594
  %14 = insertvalue { i8*, i32 } %13, i32 %12, 1, !dbg !1594
  resume { i8*, i32 } %14, !dbg !1594

bb3:                                              ; preds = %start
  %15 = bitcast { {}*, [3 x i64]* }* %_1 to { i8*, i64* }*, !dbg !1594
  %16 = getelementptr inbounds { i8*, i64* }, { i8*, i64* }* %15, i32 0, i32 0, !dbg !1594
  %17 = load i8*, i8** %16, align 8, !dbg !1594, !nonnull !4
  %18 = getelementptr inbounds { i8*, i64* }, { i8*, i64* }* %15, i32 0, i32 1, !dbg !1594
  %19 = load i64*, i64** %18, align 8, !dbg !1594, !nonnull !4
; call alloc::alloc::box_free::<dyn core::any::Any + core::marker::Send, alloc::alloc::Global>
  call void @_RINvNtCs8RW06R9lH2S_5alloc5alloc8box_freeDNtNtCs3p84KrD9aKt_4core3any3AnyNtNtBI_6marker4SendEL_NtB2_6GlobalECsh5b2sQBIbur_14arc_heap_mutex(i8* nonnull %17, i64* noalias readonly align 8 dereferenceable(24) %19), !dbg !1594
  br label %bb1, !dbg !1594

bb4:                                              ; preds = %cleanup
  %20 = bitcast { {}*, [3 x i64]* }* %_1 to { i8*, i64* }*, !dbg !1594
  %21 = getelementptr inbounds { i8*, i64* }, { i8*, i64* }* %20, i32 0, i32 0, !dbg !1594
  %22 = load i8*, i8** %21, align 8, !dbg !1594, !nonnull !4
  %23 = getelementptr inbounds { i8*, i64* }, { i8*, i64* }* %20, i32 0, i32 1, !dbg !1594
  %24 = load i64*, i64** %23, align 8, !dbg !1594, !nonnull !4
; call alloc::alloc::box_free::<dyn core::any::Any + core::marker::Send, alloc::alloc::Global>
  call void @_RINvNtCs8RW06R9lH2S_5alloc5alloc8box_freeDNtNtCs3p84KrD9aKt_4core3any3AnyNtNtBI_6marker4SendEL_NtB2_6GlobalECsh5b2sQBIbur_14arc_heap_mutex(i8* nonnull %22, i64* noalias readonly align 8 dereferenceable(24) %24) #14, !dbg !1594
  br label %bb2, !dbg !1594

cleanup:                                          ; preds = %start
  %25 = landingpad { i8*, i32 }
          cleanup
  %26 = extractvalue { i8*, i32 } %25, 0
  %27 = extractvalue { i8*, i32 } %25, 1
  %28 = getelementptr inbounds { i8*, i32 }, { i8*, i32 }* %0, i32 0, i32 0
  store i8* %26, i8** %28, align 8
  %29 = getelementptr inbounds { i8*, i32 }, { i8*, i32 }* %0, i32 0, i32 1
  store i32 %27, i32* %29, align 8
  br label %bb4
}

; core::ptr::drop_in_place::<alloc::boxed::Box<dyn std::error::Error + core::marker::Send + core::marker::Sync>>
; Function Attrs: nonlazybind uwtable
define internal void @_RINvNtCs3p84KrD9aKt_4core3ptr13drop_in_placeINtNtCs8RW06R9lH2S_5alloc5boxed3BoxDNtNtCs2bNvlddUlXM_3std5error5ErrorNtNtB4_6marker4SendNtB1Q_4SyncEL_EECsh5b2sQBIbur_14arc_heap_mutex({ {}*, [3 x i64]* }* %_1) unnamed_addr #0 personality i32 (i32, i32, i64, %"unwind::libunwind::_Unwind_Exception"*, %"unwind::libunwind::_Unwind_Context"*)* @rust_eh_personality !dbg !1595 {
start:
  %0 = alloca { i8*, i32 }, align 8
  %_1.dbg.spill = alloca { {}*, [3 x i64]* }*, align 8
  %1 = alloca {}, align 1
  store { {}*, [3 x i64]* }* %_1, { {}*, [3 x i64]* }** %_1.dbg.spill, align 8
  call void @llvm.dbg.declare(metadata { {}*, [3 x i64]* }** %_1.dbg.spill, metadata !1600, metadata !DIExpression()), !dbg !1603
  %2 = getelementptr inbounds { {}*, [3 x i64]* }, { {}*, [3 x i64]* }* %_1, i32 0, i32 0, !dbg !1603
  %3 = load {}*, {}** %2, align 8, !dbg !1603, !nonnull !4
  %4 = getelementptr inbounds { {}*, [3 x i64]* }, { {}*, [3 x i64]* }* %_1, i32 0, i32 1, !dbg !1603
  %5 = load [3 x i64]*, [3 x i64]** %4, align 8, !dbg !1603, !nonnull !4
  %6 = bitcast [3 x i64]* %5 to void ({}*)**, !dbg !1603
  %7 = getelementptr inbounds void ({}*)*, void ({}*)** %6, i64 0, !dbg !1603
  %8 = load void ({}*)*, void ({}*)** %7, align 8, !dbg !1603, !invariant.load !4, !nonnull !4
  invoke void %8({}* %3)
          to label %bb3 unwind label %cleanup, !dbg !1603

bb1:                                              ; preds = %bb3
  ret void, !dbg !1603

bb2:                                              ; preds = %bb4
  %9 = bitcast { i8*, i32 }* %0 to i8**, !dbg !1603
  %10 = load i8*, i8** %9, align 8, !dbg !1603
  %11 = getelementptr inbounds { i8*, i32 }, { i8*, i32 }* %0, i32 0, i32 1, !dbg !1603
  %12 = load i32, i32* %11, align 8, !dbg !1603
  %13 = insertvalue { i8*, i32 } undef, i8* %10, 0, !dbg !1603
  %14 = insertvalue { i8*, i32 } %13, i32 %12, 1, !dbg !1603
  resume { i8*, i32 } %14, !dbg !1603

bb3:                                              ; preds = %start
  %15 = bitcast { {}*, [3 x i64]* }* %_1 to { i8*, i64* }*, !dbg !1603
  %16 = getelementptr inbounds { i8*, i64* }, { i8*, i64* }* %15, i32 0, i32 0, !dbg !1603
  %17 = load i8*, i8** %16, align 8, !dbg !1603, !nonnull !4
  %18 = getelementptr inbounds { i8*, i64* }, { i8*, i64* }* %15, i32 0, i32 1, !dbg !1603
  %19 = load i64*, i64** %18, align 8, !dbg !1603, !nonnull !4
; call alloc::alloc::box_free::<dyn std::error::Error + core::marker::Send + core::marker::Sync, alloc::alloc::Global>
  call void @_RINvNtCs8RW06R9lH2S_5alloc5alloc8box_freeDNtNtCs2bNvlddUlXM_3std5error5ErrorNtNtCs3p84KrD9aKt_4core6marker4SendNtB1e_4SyncEL_NtB2_6GlobalECsh5b2sQBIbur_14arc_heap_mutex(i8* nonnull %17, i64* noalias readonly align 8 dereferenceable(24) %19), !dbg !1603
  br label %bb1, !dbg !1603

bb4:                                              ; preds = %cleanup
  %20 = bitcast { {}*, [3 x i64]* }* %_1 to { i8*, i64* }*, !dbg !1603
  %21 = getelementptr inbounds { i8*, i64* }, { i8*, i64* }* %20, i32 0, i32 0, !dbg !1603
  %22 = load i8*, i8** %21, align 8, !dbg !1603, !nonnull !4
  %23 = getelementptr inbounds { i8*, i64* }, { i8*, i64* }* %20, i32 0, i32 1, !dbg !1603
  %24 = load i64*, i64** %23, align 8, !dbg !1603, !nonnull !4
; call alloc::alloc::box_free::<dyn std::error::Error + core::marker::Send + core::marker::Sync, alloc::alloc::Global>
  call void @_RINvNtCs8RW06R9lH2S_5alloc5alloc8box_freeDNtNtCs2bNvlddUlXM_3std5error5ErrorNtNtCs3p84KrD9aKt_4core6marker4SendNtB1e_4SyncEL_NtB2_6GlobalECsh5b2sQBIbur_14arc_heap_mutex(i8* nonnull %22, i64* noalias readonly align 8 dereferenceable(24) %24) #14, !dbg !1603
  br label %bb2, !dbg !1603

cleanup:                                          ; preds = %start
  %25 = landingpad { i8*, i32 }
          cleanup
  %26 = extractvalue { i8*, i32 } %25, 0
  %27 = extractvalue { i8*, i32 } %25, 1
  %28 = getelementptr inbounds { i8*, i32 }, { i8*, i32 }* %0, i32 0, i32 0
  store i8* %26, i8** %28, align 8
  %29 = getelementptr inbounds { i8*, i32 }, { i8*, i32 }* %0, i32 0, i32 1
  store i32 %27, i32* %29, align 8
  br label %bb4
}

; core::ptr::drop_in_place::<alloc::boxed::Box<std::io::error::Custom>>
; Function Attrs: nonlazybind uwtable
define internal void @_RINvNtCs3p84KrD9aKt_4core3ptr13drop_in_placeINtNtCs8RW06R9lH2S_5alloc5boxed3BoxNtNtNtCs2bNvlddUlXM_3std2io5error6CustomEECsh5b2sQBIbur_14arc_heap_mutex(%"std::io::error::Custom"** %_1) unnamed_addr #0 personality i32 (i32, i32, i64, %"unwind::libunwind::_Unwind_Exception"*, %"unwind::libunwind::_Unwind_Context"*)* @rust_eh_personality !dbg !1604 {
start:
  %0 = alloca { i8*, i32 }, align 8
  %_1.dbg.spill = alloca %"std::io::error::Custom"**, align 8
  %1 = alloca {}, align 1
  store %"std::io::error::Custom"** %_1, %"std::io::error::Custom"*** %_1.dbg.spill, align 8
  call void @llvm.dbg.declare(metadata %"std::io::error::Custom"*** %_1.dbg.spill, metadata !1609, metadata !DIExpression()), !dbg !1612
  %2 = load %"std::io::error::Custom"*, %"std::io::error::Custom"** %_1, align 8, !dbg !1612, !nonnull !4
; invoke core::ptr::drop_in_place::<std::io::error::Custom>
  invoke void @_RINvNtCs3p84KrD9aKt_4core3ptr13drop_in_placeNtNtNtCs2bNvlddUlXM_3std2io5error6CustomECsh5b2sQBIbur_14arc_heap_mutex(%"std::io::error::Custom"* %2)
          to label %bb3 unwind label %cleanup, !dbg !1612

bb1:                                              ; preds = %bb3
  ret void, !dbg !1612

bb2:                                              ; preds = %bb4
  %3 = bitcast { i8*, i32 }* %0 to i8**, !dbg !1612
  %4 = load i8*, i8** %3, align 8, !dbg !1612
  %5 = getelementptr inbounds { i8*, i32 }, { i8*, i32 }* %0, i32 0, i32 1, !dbg !1612
  %6 = load i32, i32* %5, align 8, !dbg !1612
  %7 = insertvalue { i8*, i32 } undef, i8* %4, 0, !dbg !1612
  %8 = insertvalue { i8*, i32 } %7, i32 %6, 1, !dbg !1612
  resume { i8*, i32 } %8, !dbg !1612

bb3:                                              ; preds = %start
  %9 = bitcast %"std::io::error::Custom"** %_1 to i64**, !dbg !1612
  %10 = load i64*, i64** %9, align 8, !dbg !1612, !nonnull !4
; call alloc::alloc::box_free::<std::io::error::Custom, alloc::alloc::Global>
  call void @_RINvNtCs8RW06R9lH2S_5alloc5alloc8box_freeNtNtNtCs2bNvlddUlXM_3std2io5error6CustomNtB2_6GlobalECsh5b2sQBIbur_14arc_heap_mutex(i64* nonnull %10), !dbg !1612
  br label %bb1, !dbg !1612

bb4:                                              ; preds = %cleanup
  %11 = bitcast %"std::io::error::Custom"** %_1 to i64**, !dbg !1612
  %12 = load i64*, i64** %11, align 8, !dbg !1612, !nonnull !4
; call alloc::alloc::box_free::<std::io::error::Custom, alloc::alloc::Global>
  call void @_RINvNtCs8RW06R9lH2S_5alloc5alloc8box_freeNtNtNtCs2bNvlddUlXM_3std2io5error6CustomNtB2_6GlobalECsh5b2sQBIbur_14arc_heap_mutex(i64* nonnull %12) #14, !dbg !1612
  br label %bb2, !dbg !1612

cleanup:                                          ; preds = %start
  %13 = landingpad { i8*, i32 }
          cleanup
  %14 = extractvalue { i8*, i32 } %13, 0
  %15 = extractvalue { i8*, i32 } %13, 1
  %16 = getelementptr inbounds { i8*, i32 }, { i8*, i32 }* %0, i32 0, i32 0
  store i8* %14, i8** %16, align 8
  %17 = getelementptr inbounds { i8*, i32 }, { i8*, i32 }* %0, i32 0, i32 1
  store i32 %15, i32* %17, align 8
  br label %bb4
}

; core::ptr::drop_in_place::<alloc::boxed::Box<std::sys::unix::mutex::Mutex>>
; Function Attrs: nonlazybind uwtable
define internal void @_RINvNtCs3p84KrD9aKt_4core3ptr13drop_in_placeINtNtCs8RW06R9lH2S_5alloc5boxed3BoxNtNtNtNtCs2bNvlddUlXM_3std3sys4unix5mutex5MutexEECsh5b2sQBIbur_14arc_heap_mutex(%"std::sys::unix::mutex::Mutex"** %_1) unnamed_addr #0 personality i32 (i32, i32, i64, %"unwind::libunwind::_Unwind_Exception"*, %"unwind::libunwind::_Unwind_Context"*)* @rust_eh_personality !dbg !1613 {
start:
  %0 = alloca { i8*, i32 }, align 8
  %_1.dbg.spill = alloca %"std::sys::unix::mutex::Mutex"**, align 8
  %1 = alloca {}, align 1
  store %"std::sys::unix::mutex::Mutex"** %_1, %"std::sys::unix::mutex::Mutex"*** %_1.dbg.spill, align 8
  call void @llvm.dbg.declare(metadata %"std::sys::unix::mutex::Mutex"*** %_1.dbg.spill, metadata !1618, metadata !DIExpression()), !dbg !1621
  br label %bb3, !dbg !1621

bb1:                                              ; preds = %bb3
  ret void, !dbg !1621

bb2:                                              ; preds = %bb4
  %2 = bitcast { i8*, i32 }* %0 to i8**, !dbg !1621
  %3 = load i8*, i8** %2, align 8, !dbg !1621
  %4 = getelementptr inbounds { i8*, i32 }, { i8*, i32 }* %0, i32 0, i32 1, !dbg !1621
  %5 = load i32, i32* %4, align 8, !dbg !1621
  %6 = insertvalue { i8*, i32 } undef, i8* %3, 0, !dbg !1621
  %7 = insertvalue { i8*, i32 } %6, i32 %5, 1, !dbg !1621
  resume { i8*, i32 } %7, !dbg !1621

bb3:                                              ; preds = %start
  %8 = bitcast %"std::sys::unix::mutex::Mutex"** %_1 to i64**, !dbg !1621
  %9 = load i64*, i64** %8, align 8, !dbg !1621, !nonnull !4
; call alloc::alloc::box_free::<std::sys::unix::mutex::Mutex, alloc::alloc::Global>
  call void @_RINvNtCs8RW06R9lH2S_5alloc5alloc8box_freeNtNtNtNtCs2bNvlddUlXM_3std3sys4unix5mutex5MutexNtB2_6GlobalECsh5b2sQBIbur_14arc_heap_mutex(i64* nonnull %9), !dbg !1621
  br label %bb1, !dbg !1621

bb4:                                              ; No predecessors!
  %10 = bitcast %"std::sys::unix::mutex::Mutex"** %_1 to i64**, !dbg !1621
  %11 = load i64*, i64** %10, align 8, !dbg !1621, !nonnull !4
; call alloc::alloc::box_free::<std::sys::unix::mutex::Mutex, alloc::alloc::Global>
  call void @_RINvNtCs8RW06R9lH2S_5alloc5alloc8box_freeNtNtNtNtCs2bNvlddUlXM_3std3sys4unix5mutex5MutexNtB2_6GlobalECsh5b2sQBIbur_14arc_heap_mutex(i64* nonnull %11) #14, !dbg !1621
  br label %bb2, !dbg !1621
}

; core::ptr::drop_in_place::<alloc::boxed::Box<[u8]>>
; Function Attrs: nonlazybind uwtable
define internal void @_RINvNtCs3p84KrD9aKt_4core3ptr13drop_in_placeINtNtCs8RW06R9lH2S_5alloc5boxed3BoxShEECsh5b2sQBIbur_14arc_heap_mutex({ [0 x i8]*, i64 }* %_1) unnamed_addr #0 personality i32 (i32, i32, i64, %"unwind::libunwind::_Unwind_Exception"*, %"unwind::libunwind::_Unwind_Context"*)* @rust_eh_personality !dbg !1622 {
start:
  %0 = alloca { i8*, i32 }, align 8
  %_1.dbg.spill = alloca { [0 x i8]*, i64 }*, align 8
  %1 = alloca {}, align 1
  store { [0 x i8]*, i64 }* %_1, { [0 x i8]*, i64 }** %_1.dbg.spill, align 8
  call void @llvm.dbg.declare(metadata { [0 x i8]*, i64 }** %_1.dbg.spill, metadata !1627, metadata !DIExpression()), !dbg !1630
  br label %bb3, !dbg !1630

bb1:                                              ; preds = %bb3
  ret void, !dbg !1630

bb2:                                              ; preds = %bb4
  %2 = bitcast { i8*, i32 }* %0 to i8**, !dbg !1630
  %3 = load i8*, i8** %2, align 8, !dbg !1630
  %4 = getelementptr inbounds { i8*, i32 }, { i8*, i32 }* %0, i32 0, i32 1, !dbg !1630
  %5 = load i32, i32* %4, align 8, !dbg !1630
  %6 = insertvalue { i8*, i32 } undef, i8* %3, 0, !dbg !1630
  %7 = insertvalue { i8*, i32 } %6, i32 %5, 1, !dbg !1630
  resume { i8*, i32 } %7, !dbg !1630

bb3:                                              ; preds = %start
  %8 = bitcast { [0 x i8]*, i64 }* %_1 to { i8*, i64 }*, !dbg !1630
  %9 = getelementptr inbounds { i8*, i64 }, { i8*, i64 }* %8, i32 0, i32 0, !dbg !1630
  %10 = load i8*, i8** %9, align 8, !dbg !1630, !nonnull !4
  %11 = getelementptr inbounds { i8*, i64 }, { i8*, i64 }* %8, i32 0, i32 1, !dbg !1630
  %12 = load i64, i64* %11, align 8, !dbg !1630
; call alloc::alloc::box_free::<[u8], alloc::alloc::Global>
  call void @_RINvNtCs8RW06R9lH2S_5alloc5alloc8box_freeShNtB2_6GlobalECsh5b2sQBIbur_14arc_heap_mutex(i8* nonnull %10, i64 %12), !dbg !1630
  br label %bb1, !dbg !1630

bb4:                                              ; No predecessors!
  %13 = bitcast { [0 x i8]*, i64 }* %_1 to { i8*, i64 }*, !dbg !1630
  %14 = getelementptr inbounds { i8*, i64 }, { i8*, i64 }* %13, i32 0, i32 0, !dbg !1630
  %15 = load i8*, i8** %14, align 8, !dbg !1630, !nonnull !4
  %16 = getelementptr inbounds { i8*, i64 }, { i8*, i64 }* %13, i32 0, i32 1, !dbg !1630
  %17 = load i64, i64* %16, align 8, !dbg !1630
; call alloc::alloc::box_free::<[u8], alloc::alloc::Global>
  call void @_RINvNtCs8RW06R9lH2S_5alloc5alloc8box_freeShNtB2_6GlobalECsh5b2sQBIbur_14arc_heap_mutex(i8* nonnull %15, i64 %17) #14, !dbg !1630
  br label %bb2, !dbg !1630
}

; core::ptr::drop_in_place::<alloc::raw_vec::RawVec<u8>>
; Function Attrs: nonlazybind uwtable
define internal void @_RINvNtCs3p84KrD9aKt_4core3ptr13drop_in_placeINtNtCs8RW06R9lH2S_5alloc7raw_vec6RawVechEECsh5b2sQBIbur_14arc_heap_mutex({ i8*, i64 }* %_1) unnamed_addr #0 !dbg !1631 {
start:
  %_1.dbg.spill = alloca { i8*, i64 }*, align 8
  %0 = alloca {}, align 1
  store { i8*, i64 }* %_1, { i8*, i64 }** %_1.dbg.spill, align 8
  call void @llvm.dbg.declare(metadata { i8*, i64 }** %_1.dbg.spill, metadata !1636, metadata !DIExpression()), !dbg !1639
; call <alloc::raw_vec::RawVec<u8> as core::ops::drop::Drop>::drop
  call void @_RNvXs1_NtCs8RW06R9lH2S_5alloc7raw_vecINtB5_6RawVechENtNtNtCs3p84KrD9aKt_4core3ops4drop4Drop4dropCsh5b2sQBIbur_14arc_heap_mutex({ i8*, i64 }* align 8 dereferenceable(16) %_1), !dbg !1639
  br label %bb1, !dbg !1639

bb1:                                              ; preds = %start
  ret void, !dbg !1639
}

; core::ptr::drop_in_place::<std::sys_common::poison::PoisonError<std::sync::mutex::MutexGuard<i32>>>
; Function Attrs: nonlazybind uwtable
define internal void @_RINvNtCs3p84KrD9aKt_4core3ptr13drop_in_placeINtNtNtCs2bNvlddUlXM_3std10sys_common6poison11PoisonErrorINtNtNtBN_4sync5mutex10MutexGuardlEEECsh5b2sQBIbur_14arc_heap_mutex({ i64*, i8 }* %_1) unnamed_addr #0 !dbg !1640 {
start:
  %_1.dbg.spill = alloca { i64*, i8 }*, align 8
  %0 = alloca {}, align 1
  store { i64*, i8 }* %_1, { i64*, i8 }** %_1.dbg.spill, align 8
  call void @llvm.dbg.declare(metadata { i64*, i8 }** %_1.dbg.spill, metadata !1645, metadata !DIExpression()), !dbg !1648
; call core::ptr::drop_in_place::<std::sync::mutex::MutexGuard<i32>>
  call void @_RINvNtCs3p84KrD9aKt_4core3ptr13drop_in_placeINtNtNtCs2bNvlddUlXM_3std4sync5mutex10MutexGuardlEECsh5b2sQBIbur_14arc_heap_mutex({ i64*, i8 }* %_1), !dbg !1648
  br label %bb1, !dbg !1648

bb1:                                              ; preds = %start
  ret void, !dbg !1648
}

; core::ptr::drop_in_place::<std::sync::mutex::MutexGuard<i32>>
; Function Attrs: nonlazybind uwtable
define internal void @_RINvNtCs3p84KrD9aKt_4core3ptr13drop_in_placeINtNtNtCs2bNvlddUlXM_3std4sync5mutex10MutexGuardlEECsh5b2sQBIbur_14arc_heap_mutex({ i64*, i8 }* %_1) unnamed_addr #0 !dbg !1649 {
start:
  %_1.dbg.spill = alloca { i64*, i8 }*, align 8
  %0 = alloca {}, align 1
  store { i64*, i8 }* %_1, { i64*, i8 }** %_1.dbg.spill, align 8
  call void @llvm.dbg.declare(metadata { i64*, i8 }** %_1.dbg.spill, metadata !1654, metadata !DIExpression()), !dbg !1655
; call <std::sync::mutex::MutexGuard<i32> as core::ops::drop::Drop>::drop
  call void @_RNvXsa_NtNtCs2bNvlddUlXM_3std4sync5mutexINtB5_10MutexGuardlENtNtNtCs3p84KrD9aKt_4core3ops4drop4Drop4dropCsh5b2sQBIbur_14arc_heap_mutex({ i64*, i8 }* align 8 dereferenceable(16) %_1), !dbg !1655
  br label %bb1, !dbg !1655

bb1:                                              ; preds = %start
  ret void, !dbg !1655
}

; core::ptr::drop_in_place::<std::sync::mutex::Mutex<alloc::vec::Vec<u8>>>
; Function Attrs: nonlazybind uwtable
define internal void @_RINvNtCs3p84KrD9aKt_4core3ptr13drop_in_placeINtNtNtCs2bNvlddUlXM_3std4sync5mutex5MutexINtNtCs8RW06R9lH2S_5alloc3vec3VechEEECsh5b2sQBIbur_14arc_heap_mutex(%"std::sync::Mutex<std::vec::Vec<u8>>"* %_1) unnamed_addr #0 personality i32 (i32, i32, i64, %"unwind::libunwind::_Unwind_Exception"*, %"unwind::libunwind::_Unwind_Context"*)* @rust_eh_personality !dbg !1656 {
start:
  %0 = alloca { i8*, i32 }, align 8
  %_1.dbg.spill = alloca %"std::sync::Mutex<std::vec::Vec<u8>>"*, align 8
  %1 = alloca {}, align 1
  store %"std::sync::Mutex<std::vec::Vec<u8>>"* %_1, %"std::sync::Mutex<std::vec::Vec<u8>>"** %_1.dbg.spill, align 8
  call void @llvm.dbg.declare(metadata %"std::sync::Mutex<std::vec::Vec<u8>>"** %_1.dbg.spill, metadata !1661, metadata !DIExpression()), !dbg !1662
  %2 = bitcast %"std::sync::Mutex<std::vec::Vec<u8>>"* %_1 to i64**, !dbg !1662
; invoke core::ptr::drop_in_place::<std::sys_common::mutex::MovableMutex>
  invoke void @_RINvNtCs3p84KrD9aKt_4core3ptr13drop_in_placeNtNtNtCs2bNvlddUlXM_3std10sys_common5mutex12MovableMutexECsh5b2sQBIbur_14arc_heap_mutex(i64** %2)
          to label %bb4 unwind label %cleanup, !dbg !1662

bb1:                                              ; preds = %bb3
  %3 = bitcast { i8*, i32 }* %0 to i8**, !dbg !1662
  %4 = load i8*, i8** %3, align 8, !dbg !1662
  %5 = getelementptr inbounds { i8*, i32 }, { i8*, i32 }* %0, i32 0, i32 1, !dbg !1662
  %6 = load i32, i32* %5, align 8, !dbg !1662
  %7 = insertvalue { i8*, i32 } undef, i8* %4, 0, !dbg !1662
  %8 = insertvalue { i8*, i32 } %7, i32 %6, 1, !dbg !1662
  resume { i8*, i32 } %8, !dbg !1662

bb2:                                              ; preds = %bb4
  ret void, !dbg !1662

bb3:                                              ; preds = %cleanup
  %9 = getelementptr inbounds %"std::sync::Mutex<std::vec::Vec<u8>>", %"std::sync::Mutex<std::vec::Vec<u8>>"* %_1, i32 0, i32 5, !dbg !1662
; call core::ptr::drop_in_place::<core::cell::UnsafeCell<alloc::vec::Vec<u8>>>
  call void @_RINvNtCs3p84KrD9aKt_4core3ptr13drop_in_placeINtNtB4_4cell10UnsafeCellINtNtCs8RW06R9lH2S_5alloc3vec3VechEEECsh5b2sQBIbur_14arc_heap_mutex(%"std::cell::UnsafeCell<std::vec::Vec<u8>>"* %9) #14, !dbg !1662
  br label %bb1, !dbg !1662

bb4:                                              ; preds = %start
  %10 = getelementptr inbounds %"std::sync::Mutex<std::vec::Vec<u8>>", %"std::sync::Mutex<std::vec::Vec<u8>>"* %_1, i32 0, i32 5, !dbg !1662
; call core::ptr::drop_in_place::<core::cell::UnsafeCell<alloc::vec::Vec<u8>>>
  call void @_RINvNtCs3p84KrD9aKt_4core3ptr13drop_in_placeINtNtB4_4cell10UnsafeCellINtNtCs8RW06R9lH2S_5alloc3vec3VechEEECsh5b2sQBIbur_14arc_heap_mutex(%"std::cell::UnsafeCell<std::vec::Vec<u8>>"* %10), !dbg !1662
  br label %bb2, !dbg !1662

cleanup:                                          ; preds = %start
  %11 = landingpad { i8*, i32 }
          cleanup
  %12 = extractvalue { i8*, i32 } %11, 0
  %13 = extractvalue { i8*, i32 } %11, 1
  %14 = getelementptr inbounds { i8*, i32 }, { i8*, i32 }* %0, i32 0, i32 0
  store i8* %12, i8** %14, align 8
  %15 = getelementptr inbounds { i8*, i32 }, { i8*, i32 }* %0, i32 0, i32 1
  store i32 %13, i32* %15, align 8
  br label %bb3
}

; core::ptr::drop_in_place::<std::sync::mutex::Mutex<i32>>
; Function Attrs: nonlazybind uwtable
define internal void @_RINvNtCs3p84KrD9aKt_4core3ptr13drop_in_placeINtNtNtCs2bNvlddUlXM_3std4sync5mutex5MutexlEECsh5b2sQBIbur_14arc_heap_mutex(%"std::sync::Mutex<i32>"* %_1) unnamed_addr #0 !dbg !1663 {
start:
  %_1.dbg.spill = alloca %"std::sync::Mutex<i32>"*, align 8
  %0 = alloca {}, align 1
  store %"std::sync::Mutex<i32>"* %_1, %"std::sync::Mutex<i32>"** %_1.dbg.spill, align 8
  call void @llvm.dbg.declare(metadata %"std::sync::Mutex<i32>"** %_1.dbg.spill, metadata !1668, metadata !DIExpression()), !dbg !1669
  %1 = bitcast %"std::sync::Mutex<i32>"* %_1 to i64**, !dbg !1669
; call core::ptr::drop_in_place::<std::sys_common::mutex::MovableMutex>
  call void @_RINvNtCs3p84KrD9aKt_4core3ptr13drop_in_placeNtNtNtCs2bNvlddUlXM_3std10sys_common5mutex12MovableMutexECsh5b2sQBIbur_14arc_heap_mutex(i64** %1), !dbg !1669
  br label %bb1, !dbg !1669

bb1:                                              ; preds = %start
  ret void, !dbg !1669
}

; core::ptr::drop_in_place::<<std::thread::Builder>::spawn_unchecked<arc_heap_mutex::main::{closure#0}, ()>::{closure#0}>
; Function Attrs: nonlazybind uwtable
define internal void @_RINvNtCs3p84KrD9aKt_4core3ptr13drop_in_placeNCINvMNtCs2bNvlddUlXM_3std6threadNtBM_7Builder15spawn_uncheckedNCNvCsh5b2sQBIbur_14arc_heap_mutex4main0uE0EB1L_(%"[closure@std::thread::Builder::spawn_unchecked<[closure@src/main.rs:12:26: 18:3], ()>::{closure#0}]"* %_1) unnamed_addr #0 personality i32 (i32, i32, i64, %"unwind::libunwind::_Unwind_Exception"*, %"unwind::libunwind::_Unwind_Context"*)* @rust_eh_personality !dbg !1670 {
start:
  %0 = alloca { i8*, i32 }, align 8
  %_1.dbg.spill = alloca %"[closure@std::thread::Builder::spawn_unchecked<[closure@src/main.rs:12:26: 18:3], ()>::{closure#0}]"*, align 8
  %1 = alloca {}, align 1
  store %"[closure@std::thread::Builder::spawn_unchecked<[closure@src/main.rs:12:26: 18:3], ()>::{closure#0}]"* %_1, %"[closure@std::thread::Builder::spawn_unchecked<[closure@src/main.rs:12:26: 18:3], ()>::{closure#0}]"** %_1.dbg.spill, align 8
  call void @llvm.dbg.declare(metadata %"[closure@std::thread::Builder::spawn_unchecked<[closure@src/main.rs:12:26: 18:3], ()>::{closure#0}]"** %_1.dbg.spill, metadata !1675, metadata !DIExpression()), !dbg !1676
  %2 = bitcast %"[closure@std::thread::Builder::spawn_unchecked<[closure@src/main.rs:12:26: 18:3], ()>::{closure#0}]"* %_1 to i64**, !dbg !1676
; invoke core::ptr::drop_in_place::<std::thread::Thread>
  invoke void @_RINvNtCs3p84KrD9aKt_4core3ptr13drop_in_placeNtNtCs2bNvlddUlXM_3std6thread6ThreadECsh5b2sQBIbur_14arc_heap_mutex(i64** %2)
          to label %bb8 unwind label %cleanup, !dbg !1676

bb1:                                              ; preds = %bb3
  %3 = bitcast { i8*, i32 }* %0 to i8**, !dbg !1676
  %4 = load i8*, i8** %3, align 8, !dbg !1676
  %5 = getelementptr inbounds { i8*, i32 }, { i8*, i32 }* %0, i32 0, i32 1, !dbg !1676
  %6 = load i32, i32* %5, align 8, !dbg !1676
  %7 = insertvalue { i8*, i32 } undef, i8* %4, 0, !dbg !1676
  %8 = insertvalue { i8*, i32 } %7, i32 %6, 1, !dbg !1676
  resume { i8*, i32 } %8, !dbg !1676

bb2:                                              ; preds = %bb6
  ret void, !dbg !1676

bb3:                                              ; preds = %cleanup2, %bb4
  %9 = getelementptr inbounds %"[closure@std::thread::Builder::spawn_unchecked<[closure@src/main.rs:12:26: 18:3], ()>::{closure#0}]", %"[closure@std::thread::Builder::spawn_unchecked<[closure@src/main.rs:12:26: 18:3], ()>::{closure#0}]"* %_1, i32 0, i32 7, !dbg !1676
; call core::ptr::drop_in_place::<alloc::sync::Arc<core::cell::UnsafeCell<core::option::Option<core::result::Result<(), alloc::boxed::Box<dyn core::any::Any + core::marker::Send>>>>>>
  call void @_RINvNtCs3p84KrD9aKt_4core3ptr13drop_in_placeINtNtCs8RW06R9lH2S_5alloc4sync3ArcINtNtB4_4cell10UnsafeCellINtNtB4_6option6OptionINtNtB4_6result6ResultuINtNtBL_5boxed3BoxDNtNtB4_3any3AnyNtNtB4_6marker4SendEL_EEEEEECsh5b2sQBIbur_14arc_heap_mutex(i64** %9) #14, !dbg !1676
  br label %bb1, !dbg !1676

bb4:                                              ; preds = %cleanup1, %bb5
  %10 = getelementptr inbounds %"[closure@std::thread::Builder::spawn_unchecked<[closure@src/main.rs:12:26: 18:3], ()>::{closure#0}]", %"[closure@std::thread::Builder::spawn_unchecked<[closure@src/main.rs:12:26: 18:3], ()>::{closure#0}]"* %_1, i32 0, i32 5, !dbg !1676
; call core::ptr::drop_in_place::<arc_heap_mutex::main::{closure#0}>
  call void @_RINvNtCs3p84KrD9aKt_4core3ptr13drop_in_placeNCNvCsh5b2sQBIbur_14arc_heap_mutex4main0EBK_(i64** %10) #14, !dbg !1676
  br label %bb3, !dbg !1676

bb5:                                              ; preds = %cleanup
  %11 = getelementptr inbounds %"[closure@std::thread::Builder::spawn_unchecked<[closure@src/main.rs:12:26: 18:3], ()>::{closure#0}]", %"[closure@std::thread::Builder::spawn_unchecked<[closure@src/main.rs:12:26: 18:3], ()>::{closure#0}]"* %_1, i32 0, i32 3, !dbg !1676
; call core::ptr::drop_in_place::<core::option::Option<alloc::sync::Arc<std::sync::mutex::Mutex<alloc::vec::Vec<u8>>>>>
  call void @_RINvNtCs3p84KrD9aKt_4core3ptr13drop_in_placeINtNtB4_6option6OptionINtNtCs8RW06R9lH2S_5alloc4sync3ArcINtNtNtCs2bNvlddUlXM_3std4sync5mutex5MutexINtNtB17_3vec3VechEEEEECsh5b2sQBIbur_14arc_heap_mutex(i64** %11) #14, !dbg !1676
  br label %bb4, !dbg !1676

bb6:                                              ; preds = %bb7
  %12 = getelementptr inbounds %"[closure@std::thread::Builder::spawn_unchecked<[closure@src/main.rs:12:26: 18:3], ()>::{closure#0}]", %"[closure@std::thread::Builder::spawn_unchecked<[closure@src/main.rs:12:26: 18:3], ()>::{closure#0}]"* %_1, i32 0, i32 7, !dbg !1676
; call core::ptr::drop_in_place::<alloc::sync::Arc<core::cell::UnsafeCell<core::option::Option<core::result::Result<(), alloc::boxed::Box<dyn core::any::Any + core::marker::Send>>>>>>
  call void @_RINvNtCs3p84KrD9aKt_4core3ptr13drop_in_placeINtNtCs8RW06R9lH2S_5alloc4sync3ArcINtNtB4_4cell10UnsafeCellINtNtB4_6option6OptionINtNtB4_6result6ResultuINtNtBL_5boxed3BoxDNtNtB4_3any3AnyNtNtB4_6marker4SendEL_EEEEEECsh5b2sQBIbur_14arc_heap_mutex(i64** %12), !dbg !1676
  br label %bb2, !dbg !1676

bb7:                                              ; preds = %bb8
  %13 = getelementptr inbounds %"[closure@std::thread::Builder::spawn_unchecked<[closure@src/main.rs:12:26: 18:3], ()>::{closure#0}]", %"[closure@std::thread::Builder::spawn_unchecked<[closure@src/main.rs:12:26: 18:3], ()>::{closure#0}]"* %_1, i32 0, i32 5, !dbg !1676
; invoke core::ptr::drop_in_place::<arc_heap_mutex::main::{closure#0}>
  invoke void @_RINvNtCs3p84KrD9aKt_4core3ptr13drop_in_placeNCNvCsh5b2sQBIbur_14arc_heap_mutex4main0EBK_(i64** %13)
          to label %bb6 unwind label %cleanup2, !dbg !1676

bb8:                                              ; preds = %start
  %14 = getelementptr inbounds %"[closure@std::thread::Builder::spawn_unchecked<[closure@src/main.rs:12:26: 18:3], ()>::{closure#0}]", %"[closure@std::thread::Builder::spawn_unchecked<[closure@src/main.rs:12:26: 18:3], ()>::{closure#0}]"* %_1, i32 0, i32 3, !dbg !1676
; invoke core::ptr::drop_in_place::<core::option::Option<alloc::sync::Arc<std::sync::mutex::Mutex<alloc::vec::Vec<u8>>>>>
  invoke void @_RINvNtCs3p84KrD9aKt_4core3ptr13drop_in_placeINtNtB4_6option6OptionINtNtCs8RW06R9lH2S_5alloc4sync3ArcINtNtNtCs2bNvlddUlXM_3std4sync5mutex5MutexINtNtB17_3vec3VechEEEEECsh5b2sQBIbur_14arc_heap_mutex(i64** %14)
          to label %bb7 unwind label %cleanup1, !dbg !1676

cleanup:                                          ; preds = %start
  %15 = landingpad { i8*, i32 }
          cleanup
  %16 = extractvalue { i8*, i32 } %15, 0
  %17 = extractvalue { i8*, i32 } %15, 1
  %18 = getelementptr inbounds { i8*, i32 }, { i8*, i32 }* %0, i32 0, i32 0
  store i8* %16, i8** %18, align 8
  %19 = getelementptr inbounds { i8*, i32 }, { i8*, i32 }* %0, i32 0, i32 1
  store i32 %17, i32* %19, align 8
  br label %bb5

cleanup1:                                         ; preds = %bb8
  %20 = landingpad { i8*, i32 }
          cleanup
  %21 = extractvalue { i8*, i32 } %20, 0
  %22 = extractvalue { i8*, i32 } %20, 1
  %23 = getelementptr inbounds { i8*, i32 }, { i8*, i32 }* %0, i32 0, i32 0
  store i8* %21, i8** %23, align 8
  %24 = getelementptr inbounds { i8*, i32 }, { i8*, i32 }* %0, i32 0, i32 1
  store i32 %22, i32* %24, align 8
  br label %bb4

cleanup2:                                         ; preds = %bb7
  %25 = landingpad { i8*, i32 }
          cleanup
  %26 = extractvalue { i8*, i32 } %25, 0
  %27 = extractvalue { i8*, i32 } %25, 1
  %28 = getelementptr inbounds { i8*, i32 }, { i8*, i32 }* %0, i32 0, i32 0
  store i8* %26, i8** %28, align 8
  %29 = getelementptr inbounds { i8*, i32 }, { i8*, i32 }* %0, i32 0, i32 1
  store i32 %27, i32* %29, align 8
  br label %bb3
}

; core::ptr::drop_in_place::<std::rt::lang_start<()>::{closure#0}>
; Function Attrs: inlinehint nonlazybind uwtable
define internal void @_RINvNtCs3p84KrD9aKt_4core3ptr13drop_in_placeNCINvNtCs2bNvlddUlXM_3std2rt10lang_startuE0ECsh5b2sQBIbur_14arc_heap_mutex(i64** %_1) unnamed_addr #1 !dbg !1677 {
start:
  %_1.dbg.spill = alloca i64**, align 8
  %0 = alloca {}, align 1
  store i64** %_1, i64*** %_1.dbg.spill, align 8
  call void @llvm.dbg.declare(metadata i64*** %_1.dbg.spill, metadata !1682, metadata !DIExpression()), !dbg !1685
  ret void, !dbg !1685
}

; core::ptr::drop_in_place::<arc_heap_mutex::main::{closure#0}>
; Function Attrs: nonlazybind uwtable
define internal void @_RINvNtCs3p84KrD9aKt_4core3ptr13drop_in_placeNCNvCsh5b2sQBIbur_14arc_heap_mutex4main0EBK_(i64** %_1) unnamed_addr #0 !dbg !1686 {
start:
  %_1.dbg.spill = alloca i64**, align 8
  %0 = alloca {}, align 1
  store i64** %_1, i64*** %_1.dbg.spill, align 8
  call void @llvm.dbg.declare(metadata i64*** %_1.dbg.spill, metadata !1691, metadata !DIExpression()), !dbg !1694
; call core::ptr::drop_in_place::<alloc::sync::Arc<std::sync::mutex::Mutex<i32>>>
  call void @_RINvNtCs3p84KrD9aKt_4core3ptr13drop_in_placeINtNtCs8RW06R9lH2S_5alloc4sync3ArcINtNtNtCs2bNvlddUlXM_3std4sync5mutex5MutexlEEECsh5b2sQBIbur_14arc_heap_mutex(i64** %_1), !dbg !1694
  br label %bb1, !dbg !1694

bb1:                                              ; preds = %start
  ret void, !dbg !1694
}

; core::ptr::drop_in_place::<std::thread::Inner>
; Function Attrs: nonlazybind uwtable
define internal void @_RINvNtCs3p84KrD9aKt_4core3ptr13drop_in_placeNtNtCs2bNvlddUlXM_3std6thread5InnerECsh5b2sQBIbur_14arc_heap_mutex(%"std::thread::Inner"* %_1) unnamed_addr #0 !dbg !1695 {
start:
  %_1.dbg.spill = alloca %"std::thread::Inner"*, align 8
  %0 = alloca {}, align 1
  store %"std::thread::Inner"* %_1, %"std::thread::Inner"** %_1.dbg.spill, align 8
  call void @llvm.dbg.declare(metadata %"std::thread::Inner"** %_1.dbg.spill, metadata !1700, metadata !DIExpression()), !dbg !1701
  %1 = bitcast %"std::thread::Inner"* %_1 to { i8*, i64 }*, !dbg !1701
; call core::ptr::drop_in_place::<core::option::Option<std::ffi::c_str::CString>>
  call void @_RINvNtCs3p84KrD9aKt_4core3ptr13drop_in_placeINtNtB4_6option6OptionNtNtNtCs2bNvlddUlXM_3std3ffi5c_str7CStringEECsh5b2sQBIbur_14arc_heap_mutex({ i8*, i64 }* %1), !dbg !1701
  br label %bb1, !dbg !1701

bb1:                                              ; preds = %start
  ret void, !dbg !1701
}

; core::ptr::drop_in_place::<std::thread::Thread>
; Function Attrs: nonlazybind uwtable
define internal void @_RINvNtCs3p84KrD9aKt_4core3ptr13drop_in_placeNtNtCs2bNvlddUlXM_3std6thread6ThreadECsh5b2sQBIbur_14arc_heap_mutex(i64** %_1) unnamed_addr #0 !dbg !1702 {
start:
  %_1.dbg.spill = alloca i64**, align 8
  %0 = alloca {}, align 1
  store i64** %_1, i64*** %_1.dbg.spill, align 8
  call void @llvm.dbg.declare(metadata i64*** %_1.dbg.spill, metadata !1707, metadata !DIExpression()), !dbg !1710
; call core::ptr::drop_in_place::<alloc::sync::Arc<std::thread::Inner>>
  call void @_RINvNtCs3p84KrD9aKt_4core3ptr13drop_in_placeINtNtCs8RW06R9lH2S_5alloc4sync3ArcNtNtCs2bNvlddUlXM_3std6thread5InnerEECsh5b2sQBIbur_14arc_heap_mutex(i64** %_1), !dbg !1710
  br label %bb1, !dbg !1710

bb1:                                              ; preds = %start
  ret void, !dbg !1710
}

; core::ptr::drop_in_place::<alloc::string::String>
; Function Attrs: nonlazybind uwtable
define internal void @_RINvNtCs3p84KrD9aKt_4core3ptr13drop_in_placeNtNtCs8RW06R9lH2S_5alloc6string6StringECsh5b2sQBIbur_14arc_heap_mutex(%"std::string::String"* %_1) unnamed_addr #0 !dbg !1711 {
start:
  %_1.dbg.spill = alloca %"std::string::String"*, align 8
  %0 = alloca {}, align 1
  store %"std::string::String"* %_1, %"std::string::String"** %_1.dbg.spill, align 8
  call void @llvm.dbg.declare(metadata %"std::string::String"** %_1.dbg.spill, metadata !1716, metadata !DIExpression()), !dbg !1717
  %1 = bitcast %"std::string::String"* %_1 to %"std::vec::Vec<u8>"*, !dbg !1717
; call core::ptr::drop_in_place::<alloc::vec::Vec<u8>>
  call void @_RINvNtCs3p84KrD9aKt_4core3ptr13drop_in_placeINtNtCs8RW06R9lH2S_5alloc3vec3VechEECsh5b2sQBIbur_14arc_heap_mutex(%"std::vec::Vec<u8>"* %1), !dbg !1717
  br label %bb1, !dbg !1717

bb1:                                              ; preds = %start
  ret void, !dbg !1717
}

; core::ptr::drop_in_place::<std::sys_common::mutex::MovableMutex>
; Function Attrs: nonlazybind uwtable
define internal void @_RINvNtCs3p84KrD9aKt_4core3ptr13drop_in_placeNtNtNtCs2bNvlddUlXM_3std10sys_common5mutex12MovableMutexECsh5b2sQBIbur_14arc_heap_mutex(i64** %_1) unnamed_addr #0 personality i32 (i32, i32, i64, %"unwind::libunwind::_Unwind_Exception"*, %"unwind::libunwind::_Unwind_Context"*)* @rust_eh_personality !dbg !1718 {
start:
  %0 = alloca { i8*, i32 }, align 8
  %_1.dbg.spill = alloca i64**, align 8
  %1 = alloca {}, align 1
  store i64** %_1, i64*** %_1.dbg.spill, align 8
  call void @llvm.dbg.declare(metadata i64*** %_1.dbg.spill, metadata !1723, metadata !DIExpression()), !dbg !1726
; invoke <std::sys_common::mutex::MovableMutex as core::ops::drop::Drop>::drop
  invoke void @"_ZN78_$LT$std..sys_common..mutex..MovableMutex$u20$as$u20$core..ops..drop..Drop$GT$4drop17ha5cab95367ffc0fcE"(i64** align 8 dereferenceable(8) %_1)
          to label %bb4 unwind label %cleanup, !dbg !1726

bb1:                                              ; preds = %bb3
  %2 = bitcast { i8*, i32 }* %0 to i8**, !dbg !1726
  %3 = load i8*, i8** %2, align 8, !dbg !1726
  %4 = getelementptr inbounds { i8*, i32 }, { i8*, i32 }* %0, i32 0, i32 1, !dbg !1726
  %5 = load i32, i32* %4, align 8, !dbg !1726
  %6 = insertvalue { i8*, i32 } undef, i8* %3, 0, !dbg !1726
  %7 = insertvalue { i8*, i32 } %6, i32 %5, 1, !dbg !1726
  resume { i8*, i32 } %7, !dbg !1726

bb2:                                              ; preds = %bb4
  ret void, !dbg !1726

bb3:                                              ; preds = %cleanup
  %8 = bitcast i64** %_1 to %"std::sys::unix::mutex::Mutex"**, !dbg !1726
; call core::ptr::drop_in_place::<alloc::boxed::Box<std::sys::unix::mutex::Mutex>>
  call void @_RINvNtCs3p84KrD9aKt_4core3ptr13drop_in_placeINtNtCs8RW06R9lH2S_5alloc5boxed3BoxNtNtNtNtCs2bNvlddUlXM_3std3sys4unix5mutex5MutexEECsh5b2sQBIbur_14arc_heap_mutex(%"std::sys::unix::mutex::Mutex"** %8) #14, !dbg !1726
  br label %bb1, !dbg !1726

bb4:                                              ; preds = %start
  %9 = bitcast i64** %_1 to %"std::sys::unix::mutex::Mutex"**, !dbg !1726
; call core::ptr::drop_in_place::<alloc::boxed::Box<std::sys::unix::mutex::Mutex>>
  call void @_RINvNtCs3p84KrD9aKt_4core3ptr13drop_in_placeINtNtCs8RW06R9lH2S_5alloc5boxed3BoxNtNtNtNtCs2bNvlddUlXM_3std3sys4unix5mutex5MutexEECsh5b2sQBIbur_14arc_heap_mutex(%"std::sys::unix::mutex::Mutex"** %9), !dbg !1726
  br label %bb2, !dbg !1726

cleanup:                                          ; preds = %start
  %10 = landingpad { i8*, i32 }
          cleanup
  %11 = extractvalue { i8*, i32 } %10, 0
  %12 = extractvalue { i8*, i32 } %10, 1
  %13 = getelementptr inbounds { i8*, i32 }, { i8*, i32 }* %0, i32 0, i32 0
  store i8* %11, i8** %13, align 8
  %14 = getelementptr inbounds { i8*, i32 }, { i8*, i32 }* %0, i32 0, i32 1
  store i32 %12, i32* %14, align 8
  br label %bb3
}

; core::ptr::drop_in_place::<std::io::error::Repr>
; Function Attrs: nonlazybind uwtable
define internal void @_RINvNtCs3p84KrD9aKt_4core3ptr13drop_in_placeNtNtNtCs2bNvlddUlXM_3std2io5error4ReprECsh5b2sQBIbur_14arc_heap_mutex(%"std::io::error::Repr"* %_1) unnamed_addr #0 !dbg !1727 {
start:
  %_1.dbg.spill = alloca %"std::io::error::Repr"*, align 8
  %0 = alloca {}, align 1
  store %"std::io::error::Repr"* %_1, %"std::io::error::Repr"** %_1.dbg.spill, align 8
  call void @llvm.dbg.declare(metadata %"std::io::error::Repr"** %_1.dbg.spill, metadata !1732, metadata !DIExpression()), !dbg !1735
  %1 = bitcast %"std::io::error::Repr"* %_1 to i8*, !dbg !1735
  %2 = load i8, i8* %1, align 8, !dbg !1735, !range !1736
  %_2 = zext i8 %2 to i64, !dbg !1735
  switch i64 %_2, label %bb2 [
    i64 0, label %bb1
    i64 1, label %bb1
  ], !dbg !1735

bb1:                                              ; preds = %bb2, %start, %start
  ret void, !dbg !1735

bb2:                                              ; preds = %start
  %3 = bitcast %"std::io::error::Repr"* %_1 to %"std::io::error::Repr::Custom"*, !dbg !1735
  %4 = getelementptr inbounds %"std::io::error::Repr::Custom", %"std::io::error::Repr::Custom"* %3, i32 0, i32 1, !dbg !1735
; call core::ptr::drop_in_place::<alloc::boxed::Box<std::io::error::Custom>>
  call void @_RINvNtCs3p84KrD9aKt_4core3ptr13drop_in_placeINtNtCs8RW06R9lH2S_5alloc5boxed3BoxNtNtNtCs2bNvlddUlXM_3std2io5error6CustomEECsh5b2sQBIbur_14arc_heap_mutex(%"std::io::error::Custom"** %4), !dbg !1735
  br label %bb1, !dbg !1735
}

; core::ptr::drop_in_place::<std::io::error::Error>
; Function Attrs: nonlazybind uwtable
define internal void @_RINvNtCs3p84KrD9aKt_4core3ptr13drop_in_placeNtNtNtCs2bNvlddUlXM_3std2io5error5ErrorECsh5b2sQBIbur_14arc_heap_mutex(%"std::io::Error"* %_1) unnamed_addr #0 !dbg !1737 {
start:
  %_1.dbg.spill = alloca %"std::io::Error"*, align 8
  %0 = alloca {}, align 1
  store %"std::io::Error"* %_1, %"std::io::Error"** %_1.dbg.spill, align 8
  call void @llvm.dbg.declare(metadata %"std::io::Error"** %_1.dbg.spill, metadata !1742, metadata !DIExpression()), !dbg !1745
  %1 = bitcast %"std::io::Error"* %_1 to %"std::io::error::Repr"*, !dbg !1745
; call core::ptr::drop_in_place::<std::io::error::Repr>
  call void @_RINvNtCs3p84KrD9aKt_4core3ptr13drop_in_placeNtNtNtCs2bNvlddUlXM_3std2io5error4ReprECsh5b2sQBIbur_14arc_heap_mutex(%"std::io::error::Repr"* %1), !dbg !1745
  br label %bb1, !dbg !1745

bb1:                                              ; preds = %start
  ret void, !dbg !1745
}

; core::ptr::drop_in_place::<std::io::error::Custom>
; Function Attrs: nonlazybind uwtable
define internal void @_RINvNtCs3p84KrD9aKt_4core3ptr13drop_in_placeNtNtNtCs2bNvlddUlXM_3std2io5error6CustomECsh5b2sQBIbur_14arc_heap_mutex(%"std::io::error::Custom"* %_1) unnamed_addr #0 !dbg !1746 {
start:
  %_1.dbg.spill = alloca %"std::io::error::Custom"*, align 8
  %0 = alloca {}, align 1
  store %"std::io::error::Custom"* %_1, %"std::io::error::Custom"** %_1.dbg.spill, align 8
  call void @llvm.dbg.declare(metadata %"std::io::error::Custom"** %_1.dbg.spill, metadata !1751, metadata !DIExpression()), !dbg !1752
  %1 = bitcast %"std::io::error::Custom"* %_1 to { {}*, [3 x i64]* }*, !dbg !1752
; call core::ptr::drop_in_place::<alloc::boxed::Box<dyn std::error::Error + core::marker::Send + core::marker::Sync>>
  call void @_RINvNtCs3p84KrD9aKt_4core3ptr13drop_in_placeINtNtCs8RW06R9lH2S_5alloc5boxed3BoxDNtNtCs2bNvlddUlXM_3std5error5ErrorNtNtB4_6marker4SendNtB1Q_4SyncEL_EECsh5b2sQBIbur_14arc_heap_mutex({ {}*, [3 x i64]* }* %1), !dbg !1752
  br label %bb1, !dbg !1752

bb1:                                              ; preds = %start
  ret void, !dbg !1752
}

; core::ptr::drop_in_place::<std::ffi::c_str::CString>
; Function Attrs: nonlazybind uwtable
define internal void @_RINvNtCs3p84KrD9aKt_4core3ptr13drop_in_placeNtNtNtCs2bNvlddUlXM_3std3ffi5c_str7CStringECsh5b2sQBIbur_14arc_heap_mutex({ i8*, i64 }* %_1) unnamed_addr #0 personality i32 (i32, i32, i64, %"unwind::libunwind::_Unwind_Exception"*, %"unwind::libunwind::_Unwind_Context"*)* @rust_eh_personality !dbg !1753 {
start:
  %0 = alloca { i8*, i32 }, align 8
  %_1.dbg.spill = alloca { i8*, i64 }*, align 8
  %1 = alloca {}, align 1
  store { i8*, i64 }* %_1, { i8*, i64 }** %_1.dbg.spill, align 8
  call void @llvm.dbg.declare(metadata { i8*, i64 }** %_1.dbg.spill, metadata !1758, metadata !DIExpression()), !dbg !1759
; invoke <std::ffi::c_str::CString as core::ops::drop::Drop>::drop
  invoke void @_RNvXs1_NtNtCs2bNvlddUlXM_3std3ffi5c_strNtB5_7CStringNtNtNtCs3p84KrD9aKt_4core3ops4drop4Drop4dropCsh5b2sQBIbur_14arc_heap_mutex({ i8*, i64 }* align 8 dereferenceable(16) %_1)
          to label %bb4 unwind label %cleanup, !dbg !1759

bb1:                                              ; preds = %bb3
  %2 = bitcast { i8*, i32 }* %0 to i8**, !dbg !1759
  %3 = load i8*, i8** %2, align 8, !dbg !1759
  %4 = getelementptr inbounds { i8*, i32 }, { i8*, i32 }* %0, i32 0, i32 1, !dbg !1759
  %5 = load i32, i32* %4, align 8, !dbg !1759
  %6 = insertvalue { i8*, i32 } undef, i8* %3, 0, !dbg !1759
  %7 = insertvalue { i8*, i32 } %6, i32 %5, 1, !dbg !1759
  resume { i8*, i32 } %7, !dbg !1759

bb2:                                              ; preds = %bb4
  ret void, !dbg !1759

bb3:                                              ; preds = %cleanup
  %8 = bitcast { i8*, i64 }* %_1 to { [0 x i8]*, i64 }*, !dbg !1759
; call core::ptr::drop_in_place::<alloc::boxed::Box<[u8]>>
  call void @_RINvNtCs3p84KrD9aKt_4core3ptr13drop_in_placeINtNtCs8RW06R9lH2S_5alloc5boxed3BoxShEECsh5b2sQBIbur_14arc_heap_mutex({ [0 x i8]*, i64 }* %8) #14, !dbg !1759
  br label %bb1, !dbg !1759

bb4:                                              ; preds = %start
  %9 = bitcast { i8*, i64 }* %_1 to { [0 x i8]*, i64 }*, !dbg !1759
; call core::ptr::drop_in_place::<alloc::boxed::Box<[u8]>>
  call void @_RINvNtCs3p84KrD9aKt_4core3ptr13drop_in_placeINtNtCs8RW06R9lH2S_5alloc5boxed3BoxShEECsh5b2sQBIbur_14arc_heap_mutex({ [0 x i8]*, i64 }* %9), !dbg !1759
  br label %bb2, !dbg !1759

cleanup:                                          ; preds = %start
  %10 = landingpad { i8*, i32 }
          cleanup
  %11 = extractvalue { i8*, i32 } %10, 0
  %12 = extractvalue { i8*, i32 } %10, 1
  %13 = getelementptr inbounds { i8*, i32 }, { i8*, i32 }* %0, i32 0, i32 0
  store i8* %11, i8** %13, align 8
  %14 = getelementptr inbounds { i8*, i32 }, { i8*, i32 }* %0, i32 0, i32 1
  store i32 %12, i32* %14, align 8
  br label %bb3
}

; core::ptr::drop_in_place::<std::sys::unix::thread::Thread>
; Function Attrs: nonlazybind uwtable
define internal void @_RINvNtCs3p84KrD9aKt_4core3ptr13drop_in_placeNtNtNtNtCs2bNvlddUlXM_3std3sys4unix6thread6ThreadECsh5b2sQBIbur_14arc_heap_mutex(i64* %_1) unnamed_addr #0 !dbg !1760 {
start:
  %_1.dbg.spill = alloca i64*, align 8
  %0 = alloca {}, align 1
  store i64* %_1, i64** %_1.dbg.spill, align 8
  call void @llvm.dbg.declare(metadata i64** %_1.dbg.spill, metadata !1765, metadata !DIExpression()), !dbg !1766
; call <std::sys::unix::thread::Thread as core::ops::drop::Drop>::drop
  call void @"_ZN72_$LT$std..sys..unix..thread..Thread$u20$as$u20$core..ops..drop..Drop$GT$4drop17h5cc7e8cf02e8d2d3E"(i64* align 8 dereferenceable(8) %_1), !dbg !1766
  br label %bb1, !dbg !1766

bb1:                                              ; preds = %start
  ret void, !dbg !1766
}

; core::ptr::swap_nonoverlapping::<core::option::Option<core::result::Result<(), alloc::boxed::Box<dyn core::any::Any + core::marker::Send>>>>
; Function Attrs: inlinehint nonlazybind uwtable
define internal void @_RINvNtCs3p84KrD9aKt_4core3ptr19swap_nonoverlappingINtNtB4_6option6OptionINtNtB4_6result6ResultuINtNtCs8RW06R9lH2S_5alloc5boxed3BoxDNtNtB4_3any3AnyNtNtB4_6marker4SendEL_EEEECsh5b2sQBIbur_14arc_heap_mutex(%"std::option::Option<std::result::Result<(), std::boxed::Box<dyn std::any::Any + std::marker::Send>>>"* %x, %"std::option::Option<std::result::Result<(), std::boxed::Box<dyn std::any::Any + std::marker::Send>>>"* %y, i64 %count) unnamed_addr #1 !dbg !1767 {
start:
  %len.dbg.spill = alloca i64, align 8
  %y.dbg.spill4 = alloca i8*, align 8
  %x.dbg.spill2 = alloca i8*, align 8
  %count.dbg.spill = alloca i64, align 8
  %y.dbg.spill = alloca %"std::option::Option<std::result::Result<(), std::boxed::Box<dyn std::any::Any + std::marker::Send>>>"*, align 8
  %x.dbg.spill = alloca %"std::option::Option<std::result::Result<(), std::boxed::Box<dyn std::any::Any + std::marker::Send>>>"*, align 8
  store %"std::option::Option<std::result::Result<(), std::boxed::Box<dyn std::any::Any + std::marker::Send>>>"* %x, %"std::option::Option<std::result::Result<(), std::boxed::Box<dyn std::any::Any + std::marker::Send>>>"** %x.dbg.spill, align 8
  call void @llvm.dbg.declare(metadata %"std::option::Option<std::result::Result<(), std::boxed::Box<dyn std::any::Any + std::marker::Send>>>"** %x.dbg.spill, metadata !1771, metadata !DIExpression()), !dbg !1780
  store %"std::option::Option<std::result::Result<(), std::boxed::Box<dyn std::any::Any + std::marker::Send>>>"* %y, %"std::option::Option<std::result::Result<(), std::boxed::Box<dyn std::any::Any + std::marker::Send>>>"** %y.dbg.spill, align 8
  call void @llvm.dbg.declare(metadata %"std::option::Option<std::result::Result<(), std::boxed::Box<dyn std::any::Any + std::marker::Send>>>"** %y.dbg.spill, metadata !1772, metadata !DIExpression()), !dbg !1781
  store i64 %count, i64* %count.dbg.spill, align 8
  call void @llvm.dbg.declare(metadata i64* %count.dbg.spill, metadata !1773, metadata !DIExpression()), !dbg !1782
  %x1 = bitcast %"std::option::Option<std::result::Result<(), std::boxed::Box<dyn std::any::Any + std::marker::Send>>>"* %x to i8*, !dbg !1783
  store i8* %x1, i8** %x.dbg.spill2, align 8, !dbg !1783
  call void @llvm.dbg.declare(metadata i8** %x.dbg.spill2, metadata !1774, metadata !DIExpression()), !dbg !1784
  %y3 = bitcast %"std::option::Option<std::result::Result<(), std::boxed::Box<dyn std::any::Any + std::marker::Send>>>"* %y to i8*, !dbg !1785
  store i8* %y3, i8** %y.dbg.spill4, align 8, !dbg !1785
  call void @llvm.dbg.declare(metadata i8** %y.dbg.spill4, metadata !1776, metadata !DIExpression()), !dbg !1786
  br label %bb1, !dbg !1787

bb1:                                              ; preds = %start
  %len = mul i64 24, %count, !dbg !1787
  store i64 %len, i64* %len.dbg.spill, align 8, !dbg !1787
  call void @llvm.dbg.declare(metadata i64* %len.dbg.spill, metadata !1778, metadata !DIExpression()), !dbg !1788
; call core::ptr::swap_nonoverlapping_bytes
  call void @_RNvNtCs3p84KrD9aKt_4core3ptr25swap_nonoverlapping_bytesCsh5b2sQBIbur_14arc_heap_mutex(i8* %x1, i8* %y3, i64 %len), !dbg !1789
  br label %bb2, !dbg !1789

bb2:                                              ; preds = %bb1
  ret void, !dbg !1790
}

; core::ptr::swap_nonoverlapping::<core::option::Option<std::sys::unix::thread::Thread>>
; Function Attrs: inlinehint nonlazybind uwtable
define internal void @_RINvNtCs3p84KrD9aKt_4core3ptr19swap_nonoverlappingINtNtB4_6option6OptionNtNtNtNtCs2bNvlddUlXM_3std3sys4unix6thread6ThreadEECsh5b2sQBIbur_14arc_heap_mutex({ i64, i64 }* %x, { i64, i64 }* %y, i64 %count) unnamed_addr #1 !dbg !1791 {
start:
  %len.dbg.spill = alloca i64, align 8
  %y.dbg.spill4 = alloca i8*, align 8
  %x.dbg.spill2 = alloca i8*, align 8
  %count.dbg.spill = alloca i64, align 8
  %y.dbg.spill = alloca { i64, i64 }*, align 8
  %x.dbg.spill = alloca { i64, i64 }*, align 8
  store { i64, i64 }* %x, { i64, i64 }** %x.dbg.spill, align 8
  call void @llvm.dbg.declare(metadata { i64, i64 }** %x.dbg.spill, metadata !1795, metadata !DIExpression()), !dbg !1804
  store { i64, i64 }* %y, { i64, i64 }** %y.dbg.spill, align 8
  call void @llvm.dbg.declare(metadata { i64, i64 }** %y.dbg.spill, metadata !1796, metadata !DIExpression()), !dbg !1805
  store i64 %count, i64* %count.dbg.spill, align 8
  call void @llvm.dbg.declare(metadata i64* %count.dbg.spill, metadata !1797, metadata !DIExpression()), !dbg !1806
  %x1 = bitcast { i64, i64 }* %x to i8*, !dbg !1807
  store i8* %x1, i8** %x.dbg.spill2, align 8, !dbg !1807
  call void @llvm.dbg.declare(metadata i8** %x.dbg.spill2, metadata !1798, metadata !DIExpression()), !dbg !1808
  %y3 = bitcast { i64, i64 }* %y to i8*, !dbg !1809
  store i8* %y3, i8** %y.dbg.spill4, align 8, !dbg !1809
  call void @llvm.dbg.declare(metadata i8** %y.dbg.spill4, metadata !1800, metadata !DIExpression()), !dbg !1810
  br label %bb1, !dbg !1811

bb1:                                              ; preds = %start
  %len = mul i64 16, %count, !dbg !1811
  store i64 %len, i64* %len.dbg.spill, align 8, !dbg !1811
  call void @llvm.dbg.declare(metadata i64* %len.dbg.spill, metadata !1802, metadata !DIExpression()), !dbg !1812
; call core::ptr::swap_nonoverlapping_bytes
  call void @_RNvNtCs3p84KrD9aKt_4core3ptr25swap_nonoverlapping_bytesCsh5b2sQBIbur_14arc_heap_mutex(i8* %x1, i8* %y3, i64 %len), !dbg !1813
  br label %bb2, !dbg !1813

bb2:                                              ; preds = %bb1
  ret void, !dbg !1814
}

; core::ptr::swap_nonoverlapping::<i32>
; Function Attrs: inlinehint nonlazybind uwtable
define internal void @_RINvNtCs3p84KrD9aKt_4core3ptr19swap_nonoverlappinglECsh5b2sQBIbur_14arc_heap_mutex(i32* %x, i32* %y, i64 %count) unnamed_addr #1 !dbg !1815 {
start:
  %len.dbg.spill = alloca i64, align 8
  %y.dbg.spill4 = alloca i8*, align 8
  %x.dbg.spill2 = alloca i8*, align 8
  %count.dbg.spill = alloca i64, align 8
  %y.dbg.spill = alloca i32*, align 8
  %x.dbg.spill = alloca i32*, align 8
  store i32* %x, i32** %x.dbg.spill, align 8
  call void @llvm.dbg.declare(metadata i32** %x.dbg.spill, metadata !1819, metadata !DIExpression()), !dbg !1828
  store i32* %y, i32** %y.dbg.spill, align 8
  call void @llvm.dbg.declare(metadata i32** %y.dbg.spill, metadata !1820, metadata !DIExpression()), !dbg !1829
  store i64 %count, i64* %count.dbg.spill, align 8
  call void @llvm.dbg.declare(metadata i64* %count.dbg.spill, metadata !1821, metadata !DIExpression()), !dbg !1830
  %x1 = bitcast i32* %x to i8*, !dbg !1831
  store i8* %x1, i8** %x.dbg.spill2, align 8, !dbg !1831
  call void @llvm.dbg.declare(metadata i8** %x.dbg.spill2, metadata !1822, metadata !DIExpression()), !dbg !1832
  %y3 = bitcast i32* %y to i8*, !dbg !1833
  store i8* %y3, i8** %y.dbg.spill4, align 8, !dbg !1833
  call void @llvm.dbg.declare(metadata i8** %y.dbg.spill4, metadata !1824, metadata !DIExpression()), !dbg !1834
  br label %bb1, !dbg !1835

bb1:                                              ; preds = %start
  %len = mul i64 4, %count, !dbg !1835
  store i64 %len, i64* %len.dbg.spill, align 8, !dbg !1835
  call void @llvm.dbg.declare(metadata i64* %len.dbg.spill, metadata !1826, metadata !DIExpression()), !dbg !1836
; call core::ptr::swap_nonoverlapping_bytes
  call void @_RNvNtCs3p84KrD9aKt_4core3ptr25swap_nonoverlapping_bytesCsh5b2sQBIbur_14arc_heap_mutex(i8* %x1, i8* %y3, i64 %len), !dbg !1837
  br label %bb2, !dbg !1837

bb2:                                              ; preds = %bb1
  ret void, !dbg !1838
}

; core::ptr::swap_nonoverlapping_one::<core::option::Option<core::result::Result<(), alloc::boxed::Box<dyn core::any::Any + core::marker::Send>>>>
; Function Attrs: inlinehint nonlazybind uwtable
define internal void @_RINvNtCs3p84KrD9aKt_4core3ptr23swap_nonoverlapping_oneINtNtB4_6option6OptionINtNtB4_6result6ResultuINtNtCs8RW06R9lH2S_5alloc5boxed3BoxDNtNtB4_3any3AnyNtNtB4_6marker4SendEL_EEEECsh5b2sQBIbur_14arc_heap_mutex(%"std::option::Option<std::result::Result<(), std::boxed::Box<dyn std::any::Any + std::marker::Send>>>"* %x, %"std::option::Option<std::result::Result<(), std::boxed::Box<dyn std::any::Any + std::marker::Send>>>"* %y) unnamed_addr #1 personality i32 (i32, i32, i64, %"unwind::libunwind::_Unwind_Exception"*, %"unwind::libunwind::_Unwind_Context"*)* @rust_eh_personality !dbg !1839 {
start:
  %0 = alloca { i8*, i32 }, align 8
  %y.dbg.spill = alloca %"std::option::Option<std::result::Result<(), std::boxed::Box<dyn std::any::Any + std::marker::Send>>>"*, align 8
  %x.dbg.spill = alloca %"std::option::Option<std::result::Result<(), std::boxed::Box<dyn std::any::Any + std::marker::Send>>>"*, align 8
  %_18 = alloca i8, align 1
  %_14 = alloca %"std::option::Option<std::result::Result<(), std::boxed::Box<dyn std::any::Any + std::marker::Send>>>", align 8
  %z = alloca %"std::option::Option<std::result::Result<(), std::boxed::Box<dyn std::any::Any + std::marker::Send>>>", align 8
  %1 = alloca {}, align 1
  store %"std::option::Option<std::result::Result<(), std::boxed::Box<dyn std::any::Any + std::marker::Send>>>"* %x, %"std::option::Option<std::result::Result<(), std::boxed::Box<dyn std::any::Any + std::marker::Send>>>"** %x.dbg.spill, align 8
  call void @llvm.dbg.declare(metadata %"std::option::Option<std::result::Result<(), std::boxed::Box<dyn std::any::Any + std::marker::Send>>>"** %x.dbg.spill, metadata !1843, metadata !DIExpression()), !dbg !1847
  store %"std::option::Option<std::result::Result<(), std::boxed::Box<dyn std::any::Any + std::marker::Send>>>"* %y, %"std::option::Option<std::result::Result<(), std::boxed::Box<dyn std::any::Any + std::marker::Send>>>"** %y.dbg.spill, align 8
  call void @llvm.dbg.declare(metadata %"std::option::Option<std::result::Result<(), std::boxed::Box<dyn std::any::Any + std::marker::Send>>>"** %y.dbg.spill, metadata !1844, metadata !DIExpression()), !dbg !1848
  call void @llvm.dbg.declare(metadata %"std::option::Option<std::result::Result<(), std::boxed::Box<dyn std::any::Any + std::marker::Send>>>"* %z, metadata !1845, metadata !DIExpression()), !dbg !1849
  store i8 0, i8* %_18, align 1, !dbg !1850
  br label %bb1, !dbg !1850

bb1:                                              ; preds = %start
  %_3 = icmp ult i64 24, 32, !dbg !1850
  br i1 %_3, label %bb2, label %bb3, !dbg !1851

bb2:                                              ; preds = %bb1
  store i8 1, i8* %_18, align 1, !dbg !1852
; call core::ptr::read::<core::option::Option<core::result::Result<(), alloc::boxed::Box<dyn core::any::Any + core::marker::Send>>>>
  call void @_RINvNtCs3p84KrD9aKt_4core3ptr4readINtNtB4_6option6OptionINtNtB4_6result6ResultuINtNtCs8RW06R9lH2S_5alloc5boxed3BoxDNtNtB4_3any3AnyNtNtB4_6marker4SendEL_EEEECsh5b2sQBIbur_14arc_heap_mutex(%"std::option::Option<std::result::Result<(), std::boxed::Box<dyn std::any::Any + std::marker::Send>>>"* noalias nocapture sret dereferenceable(24) %z, %"std::option::Option<std::result::Result<(), std::boxed::Box<dyn std::any::Any + std::marker::Send>>>"* %x), !dbg !1852
  br label %bb4, !dbg !1852

bb3:                                              ; preds = %bb1
; call core::ptr::swap_nonoverlapping::<core::option::Option<core::result::Result<(), alloc::boxed::Box<dyn core::any::Any + core::marker::Send>>>>
  call void @_RINvNtCs3p84KrD9aKt_4core3ptr19swap_nonoverlappingINtNtB4_6option6OptionINtNtB4_6result6ResultuINtNtCs8RW06R9lH2S_5alloc5boxed3BoxDNtNtB4_3any3AnyNtNtB4_6marker4SendEL_EEEECsh5b2sQBIbur_14arc_heap_mutex(%"std::option::Option<std::result::Result<(), std::boxed::Box<dyn std::any::Any + std::marker::Send>>>"* %x, %"std::option::Option<std::result::Result<(), std::boxed::Box<dyn std::any::Any + std::marker::Send>>>"* %y, i64 1), !dbg !1853
  br label %bb7, !dbg !1853

bb4:                                              ; preds = %bb2
; invoke core::intrinsics::copy_nonoverlapping::<core::option::Option<core::result::Result<(), alloc::boxed::Box<dyn core::any::Any + core::marker::Send>>>>
  invoke void @_RINvNtCs3p84KrD9aKt_4core10intrinsics19copy_nonoverlappingINtNtB4_6option6OptionINtNtB4_6result6ResultuINtNtCs8RW06R9lH2S_5alloc5boxed3BoxDNtNtB4_3any3AnyNtNtB4_6marker4SendEL_EEEECsh5b2sQBIbur_14arc_heap_mutex(%"std::option::Option<std::result::Result<(), std::boxed::Box<dyn std::any::Any + std::marker::Send>>>"* %y, %"std::option::Option<std::result::Result<(), std::boxed::Box<dyn std::any::Any + std::marker::Send>>>"* %x, i64 1)
          to label %bb5 unwind label %cleanup, !dbg !1854

bb5:                                              ; preds = %bb4
  store i8 0, i8* %_18, align 1, !dbg !1855
