; ModuleID = '3uifuwrt2lwed5vi'
source_filename = "3uifuwrt2lwed5vi"
target datalayout = "e-m:e-p270:32:32-p271:32:32-p272:64:64-i64:64-f80:128-n8:16:32:64-S128"
target triple = "x86_64-unknown-linux-gnu"

%"[closure@std::thread::Builder::spawn_unchecked<[closure@src/main.rs:12:28: 21:3], ()>::{closure#0}]" = type { [0 x i8], %"[closure@src/main.rs:12:28: 21:3]", [0 x i8], i64*, [0 x i64], i64*, [0 x i64], i64*, [0 x i64] }
%"[closure@src/main.rs:12:28: 21:3]" = type {}
%"std::io::Error" = type { [0 x i64], %"std::io::error::Repr", [0 x i64] }
%"std::io::error::Repr" = type { [0 x i8], i8, [15 x i8] }
%"std::fmt::Formatter" = type { [0 x i64], { i64, i64 }, [0 x i64], { i64, i64 }, [0 x i64], { {}*, [3 x i64]* }, [0 x i32], i32, [0 x i32], i32, [0 x i8], i8, [7 x i8] }
%"std::result::Result<std::thread::JoinHandle<()>, std::io::Error>" = type { [0 x i64], i64, [4 x i64] }
%"std::thread::Builder" = type { [0 x i64], %"std::option::Option<std::string::String>", [0 x i64], { i64, i64 }, [0 x i64] }
%"std::option::Option<std::string::String>" = type { [0 x i64], {}*, [2 x i64] }
%"std::result::Result<std::sys::unix::thread::Thread, std::io::Error>" = type { [0 x i64], i64, [2 x i64] }
%"std::thread::JoinInner<()>" = type { [0 x i64], { i64, i64 }, [0 x i64], i64*, [0 x i64], i64*, [0 x i64] }
%"std::thread::JoinHandle<()>" = type { [0 x i64], %"std::thread::JoinInner<()>", [0 x i64] }
%"std::option::Option<std::result::Result<(), std::boxed::Box<dyn std::any::Any + std::marker::Send>>>" = type { [0 x i64], i64, [2 x i64] }
%"std::cell::UnsafeCell<std::option::Option<std::result::Result<(), std::boxed::Box<dyn std::any::Any + std::marker::Send>>>>" = type { [0 x i64], %"std::option::Option<std::result::Result<(), std::boxed::Box<dyn std::any::Any + std::marker::Send>>>", [0 x i64] }
%"std::result::Result<std::sys::unix::thread::Thread, std::io::Error>::Ok" = type { [1 x i64], i64, [0 x i64] }
%"std::option::Option<std::sys::unix::thread::Thread>::Some" = type { [1 x i64], i64, [0 x i64] }
%"std::result::Result<std::thread::JoinHandle<()>, std::io::Error>::Ok" = type { [1 x i64], %"std::thread::JoinHandle<()>", [0 x i64] }
%"std::result::Result<std::sys::unix::thread::Thread, std::io::Error>::Err" = type { [1 x i64], %"std::io::Error", [0 x i64] }
%"std::alloc::AllocError" = type {}
%"std::result::Result<std::ptr::NonNull<u8>, std::alloc::AllocError>::Err" = type { [0 x i8], %"std::alloc::AllocError", [0 x i8] }
%"std::option::Option<usize>::Some" = type { [1 x i64], i64, [0 x i64] }
%"alloc::sync::ArcInner<std::cell::UnsafeCell<std::option::Option<std::result::Result<(), std::boxed::Box<dyn std::any::Any + std::marker::Send>>>>>" = type { [0 x i64], %"std::sync::atomic::AtomicUsize", [0 x i64], %"std::sync::atomic::AtomicUsize", [0 x i64], %"std::cell::UnsafeCell<std::option::Option<std::result::Result<(), std::boxed::Box<dyn std::any::Any + std::marker::Send>>>>", [0 x i64] }
%"std::sync::atomic::AtomicUsize" = type { [0 x i64], i64, [0 x i64] }
%"alloc::sync::ArcInner<std::sync::Mutex<std::vec::Vec<u8>>>" = type { [0 x i64], %"std::sync::atomic::AtomicUsize", [0 x i64], %"std::sync::atomic::AtomicUsize", [0 x i64], %"std::sync::Mutex<std::vec::Vec<u8>>", [0 x i64] }
%"std::sync::Mutex<std::vec::Vec<u8>>" = type { [0 x i64], i64*, [0 x i8], %"std::sys_common::poison::Flag", [7 x i8], %"std::cell::UnsafeCell<std::vec::Vec<u8>>", [0 x i64] }
%"std::sys_common::poison::Flag" = type { [0 x i8], %"std::sync::atomic::AtomicBool", [0 x i8] }
%"std::sync::atomic::AtomicBool" = type { [0 x i8], i8, [0 x i8] }
%"std::cell::UnsafeCell<std::vec::Vec<u8>>" = type { [0 x i64], %"std::vec::Vec<u8>", [0 x i64] }
%"std::vec::Vec<u8>" = type { [0 x i64], { i8*, i64 }, [0 x i64], i64, [0 x i64] }
%"alloc::sync::ArcInner<std::thread::Inner>" = type { [0 x i64], %"std::sync::atomic::AtomicUsize", [0 x i64], %"std::sync::atomic::AtomicUsize", [0 x i64], %"std::thread::Inner", [0 x i64] }
%"std::thread::Inner" = type { [0 x i64], { i8*, i64 }, [0 x i64], i64, [0 x i32], %"std::sys_common::thread_parker::futex::Parker", [1 x i32] }
%"std::sys_common::thread_parker::futex::Parker" = type { [0 x i32], %"std::sync::atomic::AtomicI32", [0 x i32] }
%"std::sync::atomic::AtomicI32" = type { [0 x i32], i32, [0 x i32] }
%"std::io::error::Custom" = type { [0 x i64], { {}*, [3 x i64]* }, [0 x i8], i8, [7 x i8] }
%"std::sys::unix::mutex::Mutex" = type { [0 x i64], %"std::cell::UnsafeCell<libc::unix::linux_like::linux::pthread_mutex_t>", [0 x i64] }
%"std::cell::UnsafeCell<libc::unix::linux_like::linux::pthread_mutex_t>" = type { [0 x i64], %"libc::unix::linux_like::linux::pthread_mutex_t", [0 x i64] }
%"libc::unix::linux_like::linux::pthread_mutex_t" = type { [0 x i8], [40 x i8], [0 x i8] }
%"std::panic::AssertUnwindSafe<[closure@std::thread::Builder::spawn_unchecked<[closure@src/main.rs:12:28: 21:3], ()>::{closure#0}::{closure#0}]>" = type { [0 x i8], %"[closure@std::thread::Builder::spawn_unchecked<[closure@src/main.rs:12:28: 21:3], ()>::{closure#0}::{closure#0}]", [0 x i8] }
%"[closure@std::thread::Builder::spawn_unchecked<[closure@src/main.rs:12:28: 21:3], ()>::{closure#0}::{closure#0}]" = type { [0 x i8], %"[closure@src/main.rs:12:28: 21:3]", [0 x i8] }
%"std::panic::Location" = type { [0 x i64], { [0 x i8]*, i64 }, [0 x i32], i32, [0 x i32], i32, [0 x i32] }
%"std::mem::ManuallyDrop<std::panic::AssertUnwindSafe<[closure@std::thread::Builder::spawn_unchecked<[closure@src/main.rs:12:28: 21:3], ()>::{closure#0}::{closure#0}]>>" = type { [0 x i8], %"std::panic::AssertUnwindSafe<[closure@std::thread::Builder::spawn_unchecked<[closure@src/main.rs:12:28: 21:3], ()>::{closure#0}::{closure#0}]>", [0 x i8] }
%"std::mem::ManuallyDrop<()>" = type { [0 x i8], {}, [0 x i8] }
%"std::result::Result<(), std::boxed::Box<dyn std::any::Any + std::marker::Send>>::Ok" = type { [0 x i8], {}, [0 x i8] }
%"std::option::Option<std::result::Result<(), std::boxed::Box<dyn std::any::Any + std::marker::Send>>>::Some" = type { [1 x i64], { i8*, i8* }, [0 x i64] }
%"std::option::Option<std::string::String>::Some" = type { [0 x i64], %"std::string::String", [0 x i64] }
%"std::string::String" = type { [0 x i64], %"std::vec::Vec<u8>", [0 x i64] }
%"std::result::Result<std::thread::JoinHandle<()>, std::io::Error>::Err" = type { [1 x i64], %"std::io::Error", [0 x i64] }
%"std::io::error::Repr::Custom" = type { [1 x i64], %"std::io::error::Custom"*, [0 x i64] }
%"std::ptr::Repr<u8>" = type { [2 x i64] }
%"std::mem::MaybeUninit<std::option::Option<std::result::Result<(), std::boxed::Box<dyn std::any::Any + std::marker::Send>>>>" = type { [3 x i64] }
%"std::mem::ManuallyDrop<std::option::Option<std::result::Result<(), std::boxed::Box<dyn std::any::Any + std::marker::Send>>>>" = type { [0 x i64], %"std::option::Option<std::result::Result<(), std::boxed::Box<dyn std::any::Any + std::marker::Send>>>", [0 x i64] }
%"std::mem::MaybeUninit<std::panic::AssertUnwindSafe<[closure@std::thread::Builder::spawn_unchecked<[closure@src/main.rs:12:28: 21:3], ()>::{closure#0}::{closure#0}]>>" = type { [0 x i8] }
%"std::alloc::Global" = type {}
%"std::ffi::CStr" = type { [0 x i8], [0 x i8] }
%"std::option::Option<std::ops::Range<usize>>" = type { [0 x i64], i64, [2 x i64] }
%"std::marker::PhantomData<u8>" = type {}
%"std::marker::PhantomData<alloc::sync::ArcInner<std::cell::UnsafeCell<std::option::Option<std::result::Result<(), std::boxed::Box<dyn std::any::Any + std::marker::Send>>>>>>" = type {}
%"std::marker::PhantomData<alloc::sync::ArcInner<std::sync::Mutex<std::vec::Vec<u8>>>>" = type {}
%"std::marker::PhantomData<alloc::sync::ArcInner<std::thread::Inner>>" = type {}
%"std::option::Option<(std::ptr::NonNull<u8>, std::alloc::Layout)>" = type { [0 x i64], {}*, [2 x i64] }
%"std::option::Option<(std::ptr::NonNull<u8>, std::alloc::Layout)>::Some" = type { [0 x i64], { [0 x i64], i8*, [0 x i64], { i64, i64 }, [0 x i64] }, [0 x i64] }
%"std::mem::MaybeUninit<std::ptr::swap_nonoverlapping_bytes::UnalignedBlock>" = type { [4 x i64] }
%"std::ptr::swap_nonoverlapping_bytes::UnalignedBlock" = type { [0 x i64], i64, [0 x i64], i64, [0 x i64], i64, [0 x i64], i64, [0 x i64] }
%"std::result::Result<std::ptr::NonNull<[u8]>, std::alloc::AllocError>::Err" = type { [0 x i8], %"std::alloc::AllocError", [0 x i8] }
%"unwind::libunwind::_Unwind_Exception" = type { [0 x i64], i64, [0 x i64], void (i32, %"unwind::libunwind::_Unwind_Exception"*)*, [0 x i64], [6 x i64], [0 x i64] }
%"unwind::libunwind::_Unwind_Context" = type { [0 x i8] }

@vtable.0 = private unnamed_addr constant { void (%"[closure@std::thread::Builder::spawn_unchecked<[closure@src/main.rs:12:28: 21:3], ()>::{closure#0}]"*)*, i64, i64, void (%"[closure@std::thread::Builder::spawn_unchecked<[closure@src/main.rs:12:28: 21:3], ()>::{closure#0}]"*)* } { void (%"[closure@std::thread::Builder::spawn_unchecked<[closure@src/main.rs:12:28: 21:3], ()>::{closure#0}]"*)* @_RINvNtCs3p84KrD9aKt_4core3ptr13drop_in_placeNCINvMNtCs2bNvlddUlXM_3std6threadNtBM_7Builder15spawn_uncheckedNCNvCs3Xe6qK9kNBx_21static_map_and_mutate4main0uE0EB1L_, i64 24, i64 8, void (%"[closure@std::thread::Builder::spawn_unchecked<[closure@src/main.rs:12:28: 21:3], ()>::{closure#0}]"*)* @_RNSNvYNCINvMNtCs2bNvlddUlXM_3std6threadNtBa_7Builder15spawn_uncheckedNCNvCs3Xe6qK9kNBx_21static_map_and_mutate4main0uE0INtNtNtCs3p84KrD9aKt_4core3ops8function6FnOnceuE9call_once6vtableB19_ }, align 8, !dbg !0
@vtable.1 = private unnamed_addr constant { void (i64**)*, i64, i64, i32 (i64**)*, i32 (i64**)*, i32 (i64**)* } { void (i64**)* @_RINvNtCs3p84KrD9aKt_4core3ptr13drop_in_placeNCINvNtCs2bNvlddUlXM_3std2rt10lang_startuE0ECs3Xe6qK9kNBx_21static_map_and_mutate, i64 8, i64 8, i32 (i64**)* @_RNCINvNtCs2bNvlddUlXM_3std2rt10lang_startuE0Cs3Xe6qK9kNBx_21static_map_and_mutate, i32 (i64**)* @_RNCINvNtCs2bNvlddUlXM_3std2rt10lang_startuE0Cs3Xe6qK9kNBx_21static_map_and_mutate, i32 (i64**)* @_RNSNvYNCINvNtCs2bNvlddUlXM_3std2rt10lang_startuE0INtNtNtCs3p84KrD9aKt_4core3ops8function6FnOnceuE9call_once6vtableCs3Xe6qK9kNBx_21static_map_and_mutate }, align 8, !dbg !286
@alloc39 = private unnamed_addr constant <{ [22 x i8] }> <{ [22 x i8] c"failed to spawn thread" }>, align 1
@alloc46 = private unnamed_addr constant <{ [77 x i8] }> <{ [77 x i8] c"/rustc/e38fb306b7f5e65cca34df2dab1f0db15e1defb4/library/std/src/thread/mod.rs" }>, align 1
@alloc41 = private unnamed_addr constant <{ i8*, [16 x i8] }> <{ i8* getelementptr inbounds (<{ [77 x i8] }>, <{ [77 x i8] }>* @alloc46, i32 0, i32 0, i32 0), [16 x i8] c"M\00\00\00\00\00\00\00l\02\00\00\1D\00\00\00" }>, align 8
@alloc43 = private unnamed_addr constant <{ [43 x i8] }> <{ [43 x i8] c"called `Option::unwrap()` on a `None` value" }>, align 1
@vtable.2 = private unnamed_addr constant { void (%"std::io::Error"*)*, i64, i64, i1 (%"std::io::Error"*, %"std::fmt::Formatter"*)* } { void (%"std::io::Error"*)* @_RINvNtCs3p84KrD9aKt_4core3ptr13drop_in_placeNtNtNtCs2bNvlddUlXM_3std2io5error5ErrorECs3Xe6qK9kNBx_21static_map_and_mutate, i64 16, i64 8, i1 (%"std::io::Error"*, %"std::fmt::Formatter"*)* @"_ZN58_$LT$std..io..error..Error$u20$as$u20$core..fmt..Debug$GT$3fmt17h9846d30f97792c23E" }, align 8, !dbg !297
@alloc45 = private unnamed_addr constant <{ i8*, [16 x i8] }> <{ i8* getelementptr inbounds (<{ [77 x i8] }>, <{ [77 x i8] }>* @alloc46, i32 0, i32 0, i32 0), [16 x i8] c"M\00\00\00\00\00\00\00\E1\04\00\00\1C\00\00\00" }>, align 8
@alloc47 = private unnamed_addr constant <{ i8*, [16 x i8] }> <{ i8* getelementptr inbounds (<{ [77 x i8] }>, <{ [77 x i8] }>* @alloc46, i32 0, i32 0, i32 0), [16 x i8] c"M\00\00\00\00\00\00\00\E2\04\00\000\00\00\00" }>, align 8
@alloc14 = private unnamed_addr constant <{ [0 x i8] }> zeroinitializer, align 1
@alloc48 = private unnamed_addr constant <{ [41 x i8] }> <{ [41 x i8] c"there is no such thing as a relaxed fence" }>, align 1
@alloc49 = private unnamed_addr constant <{ [79 x i8] }> <{ [79 x i8] c"/rustc/e38fb306b7f5e65cca34df2dab1f0db15e1defb4/library/core/src/sync/atomic.rs" }>, align 1
@alloc50 = private unnamed_addr constant <{ i8*, [16 x i8] }> <{ i8* getelementptr inbounds (<{ [79 x i8] }>, <{ [79 x i8] }>* @alloc49, i32 0, i32 0, i32 0), [16 x i8] c"O\00\00\00\00\00\00\00n\0A\00\00\18\00\00\00" }>, align 8
@alloc53 = private unnamed_addr constant <{ [11 x i8] }> <{ [11 x i8] c"src/main.rs" }>, align 1
@alloc52 = private unnamed_addr constant <{ i8*, [16 x i8] }> <{ i8* getelementptr inbounds (<{ [11 x i8] }>, <{ [11 x i8] }>* @alloc53, i32 0, i32 0, i32 0), [16 x i8] c"\0B\00\00\00\00\00\00\00\1C\00\00\00\09\00\00\00" }>, align 8
@str.3 = internal constant [28 x i8] c"attempt to add with overflow"
@alloc54 = private unnamed_addr constant <{ i8*, [16 x i8] }> <{ i8* getelementptr inbounds (<{ [11 x i8] }>, <{ [11 x i8] }>* @alloc53, i32 0, i32 0, i32 0), [16 x i8] c"\0B\00\00\00\00\00\00\00\12\00\00\00\0D\00\00\00" }>, align 8
@_RNvNvCs3Xe6qK9kNBx_21static_map_and_mutate4main5myvar = internal global <{ [1 x i8] }> <{ [1 x i8] c"E" }>, align 1, !dbg !358
@__rustc_debug_gdb_scripts_section__ = linkonce_odr unnamed_addr constant [34 x i8] c"\01gdb_load_rust_pretty_printers.py\00", section ".debug_gdb_scripts", align 1

; <std::thread::Builder>::spawn_unchecked::<static_map_and_mutate::main::{closure#0}, ()>
; Function Attrs: nonlazybind uwtable
define internal void @_RINvMNtCs2bNvlddUlXM_3std6threadNtB3_7Builder15spawn_uncheckedNCNvCs3Xe6qK9kNBx_21static_map_and_mutate4main0uEB12_(%"std::result::Result<std::thread::JoinHandle<()>, std::io::Error>"* noalias nocapture sret dereferenceable(40) %0, %"std::thread::Builder"* noalias nocapture dereferenceable(40) %self) unnamed_addr #0 personality i32 (i32, i32, i64, %"unwind::libunwind::_Unwind_Exception"*, %"unwind::libunwind::_Unwind_Context"*)* @rust_eh_personality !dbg !376 {
start:
  %val.dbg.spill = alloca i64, align 8
  %1 = alloca i128, align 8
  %2 = alloca { {}*, [3 x i64]* }, align 8
  %stack_size.dbg.spill1 = alloca i64, align 8
  %3 = alloca { i8*, i32 }, align 8
  %stack_size.dbg.spill = alloca { i64, i64 }, align 8
  %f.dbg.spill = alloca %"[closure@src/main.rs:12:28: 21:3]", align 1
  %_46 = alloca i8, align 1
  %_45 = alloca i8, align 1
  %_44 = alloca i8, align 1
  %_43 = alloca i8, align 1
  %_42 = alloca i8, align 1
  %_40 = alloca i64*, align 8
  %_37 = alloca %"std::io::Error", align 8
  %_36 = alloca %"std::io::Error", align 8
  %err = alloca %"std::io::Error", align 8
  %_33 = alloca %"[closure@std::thread::Builder::spawn_unchecked<[closure@src/main.rs:12:28: 21:3], ()>::{closure#0}]", align 8
  %_27 = alloca %"std::result::Result<std::sys::unix::thread::Thread, std::io::Error>", align 8
  %_26 = alloca %"std::result::Result<std::sys::unix::thread::Thread, std::io::Error>", align 8
  %_24 = alloca { i64, i64 }, align 8
  %_23 = alloca %"std::thread::JoinInner<()>", align 8
  %_22 = alloca %"std::thread::JoinHandle<()>", align 8
  %main = alloca %"[closure@std::thread::Builder::spawn_unchecked<[closure@src/main.rs:12:28: 21:3], ()>::{closure#0}]", align 8
  %_18 = alloca i64*, align 8
  %_17 = alloca i64*, align 8
  %output_capture = alloca i64*, align 8
  %their_packet = alloca i64*, align 8
  %_13 = alloca %"std::option::Option<std::result::Result<(), std::boxed::Box<dyn std::any::Any + std::marker::Send>>>", align 8
  %_12 = alloca %"std::cell::UnsafeCell<std::option::Option<std::result::Result<(), std::boxed::Box<dyn std::any::Any + std::marker::Send>>>>", align 8
  %my_packet = alloca i64*, align 8
  %their_thread = alloca i64*, align 8
  %_8 = alloca %"std::option::Option<std::string::String>", align 8
  %my_thread = alloca i64*, align 8
  %name = alloca %"std::option::Option<std::string::String>", align 8
  call void @llvm.dbg.declare(metadata %"std::thread::Builder"* %self, metadata !454, metadata !DIExpression()), !dbg !479
  call void @llvm.dbg.declare(metadata %"[closure@src/main.rs:12:28: 21:3]"* %f.dbg.spill, metadata !455, metadata !DIExpression()), !dbg !480
  call void @llvm.dbg.declare(metadata %"std::option::Option<std::string::String>"* %name, metadata !456, metadata !DIExpression()), !dbg !481
  call void @llvm.dbg.declare(metadata i64** %my_thread, metadata !461, metadata !DIExpression()), !dbg !482
  call void @llvm.dbg.declare(metadata i64** %their_thread, metadata !463, metadata !DIExpression()), !dbg !483
  call void @llvm.dbg.declare(metadata i64** %my_packet, metadata !465, metadata !DIExpression()), !dbg !484
  call void @llvm.dbg.declare(metadata i64** %their_packet, metadata !467, metadata !DIExpression()), !dbg !485
  call void @llvm.dbg.declare(metadata i64** %output_capture, metadata !469, metadata !DIExpression()), !dbg !486
  call void @llvm.dbg.declare(metadata %"[closure@std::thread::Builder::spawn_unchecked<[closure@src/main.rs:12:28: 21:3], ()>::{closure#0}]"* %main, metadata !471, metadata !DIExpression()), !dbg !487
  call void @llvm.dbg.declare(metadata %"std::io::Error"* %err, metadata !473, metadata !DIExpression()), !dbg !488
  store i8 0, i8* %_42, align 1, !dbg !489
  store i8 0, i8* %_46, align 1, !dbg !489
  store i8 0, i8* %_44, align 1, !dbg !489
  store i8 0, i8* %_43, align 1, !dbg !489
  store i8 0, i8* %_45, align 1, !dbg !489
  store i8 1, i8* %_46, align 1, !dbg !489
  store i8 1, i8* %_45, align 1, !dbg !489
  %4 = bitcast %"std::thread::Builder"* %self to %"std::option::Option<std::string::String>"*, !dbg !489
  %5 = bitcast %"std::option::Option<std::string::String>"* %name to i8*, !dbg !489
  %6 = bitcast %"std::option::Option<std::string::String>"* %4 to i8*, !dbg !489
  call void @llvm.memcpy.p0i8.p0i8.i64(i8* align 8 %5, i8* align 8 %6, i64 24, i1 false), !dbg !489
  %7 = getelementptr inbounds %"std::thread::Builder", %"std::thread::Builder"* %self, i32 0, i32 3, !dbg !490
  %8 = getelementptr inbounds { i64, i64 }, { i64, i64 }* %7, i32 0, i32 0, !dbg !490
  %stack_size.0 = load i64, i64* %8, align 8, !dbg !490, !range !491
  %9 = getelementptr inbounds { i64, i64 }, { i64, i64 }* %7, i32 0, i32 1, !dbg !490
  %stack_size.1 = load i64, i64* %9, align 8, !dbg !490
  %10 = getelementptr inbounds { i64, i64 }, { i64, i64 }* %stack_size.dbg.spill, i32 0, i32 0, !dbg !490
  store i64 %stack_size.0, i64* %10, align 8, !dbg !490
  %11 = getelementptr inbounds { i64, i64 }, { i64, i64 }* %stack_size.dbg.spill, i32 0, i32 1, !dbg !490
  store i64 %stack_size.1, i64* %11, align 8, !dbg !490
  call void @llvm.dbg.declare(metadata { i64, i64 }* %stack_size.dbg.spill, metadata !458, metadata !DIExpression()), !dbg !492
; invoke <core::option::Option<usize>>::unwrap_or_else::<std::sys_common::thread::min_stack>
  %stack_size = invoke i64 @_RINvMNtCs3p84KrD9aKt_4core6optionINtB3_6OptionjE14unwrap_or_elseNvNtNtCs2bNvlddUlXM_3std10sys_common6thread9min_stackECs3Xe6qK9kNBx_21static_map_and_mutate(i64 %stack_size.0, i64 %stack_size.1)
          to label %bb1 unwind label %cleanup, !dbg !493

bb1:                                              ; preds = %start
  store i64 %stack_size, i64* %stack_size.dbg.spill1, align 8, !dbg !493
  call void @llvm.dbg.declare(metadata i64* %stack_size.dbg.spill1, metadata !459, metadata !DIExpression()), !dbg !494
  store i8 0, i8* %_45, align 1, !dbg !495
  %12 = bitcast %"std::option::Option<std::string::String>"* %_8 to i8*, !dbg !495
  %13 = bitcast %"std::option::Option<std::string::String>"* %name to i8*, !dbg !495
  call void @llvm.memcpy.p0i8.p0i8.i64(i8* align 8 %12, i8* align 8 %13, i64 24, i1 false), !dbg !495
; invoke std::thread::Thread::new
  %14 = invoke nonnull i64* @_ZN3std6thread6Thread3new17hb6f98794e2c3d412E(%"std::option::Option<std::string::String>"* noalias nocapture dereferenceable(24) %_8)
          to label %bb2 unwind label %cleanup, !dbg !496

bb2:                                              ; preds = %bb1
  store i64* %14, i64** %my_thread, align 8, !dbg !496
; invoke <std::thread::Thread as core::clone::Clone>::clone
  %15 = invoke nonnull i64* @_RNvXsk_NtCs2bNvlddUlXM_3std6threadNtB5_6ThreadNtNtCs3p84KrD9aKt_4core5clone5Clone5cloneCs3Xe6qK9kNBx_21static_map_and_mutate(i64** noalias readonly align 8 dereferenceable(8) %my_thread)
          to label %bb3 unwind label %cleanup2, !dbg !497

bb3:                                              ; preds = %bb2
  store i64* %15, i64** %their_thread, align 8, !dbg !497
  store i8 1, i8* %_44, align 1, !dbg !498
  %16 = bitcast %"std::option::Option<std::result::Result<(), std::boxed::Box<dyn std::any::Any + std::marker::Send>>>"* %_13 to i64*, !dbg !499
  store i64 0, i64* %16, align 8, !dbg !499
; invoke <core::cell::UnsafeCell<core::option::Option<core::result::Result<(), alloc::boxed::Box<dyn core::any::Any + core::marker::Send>>>>>::new
  invoke void @_RNvMsJ_NtCs3p84KrD9aKt_4core4cellINtB5_10UnsafeCellINtNtB7_6option6OptionINtNtB7_6result6ResultuINtNtCs8RW06R9lH2S_5alloc5boxed3BoxDNtNtB7_3any3AnyNtNtB7_6marker4SendEL_EEEE3newCs3Xe6qK9kNBx_21static_map_and_mutate(%"std::cell::UnsafeCell<std::option::Option<std::result::Result<(), std::boxed::Box<dyn std::any::Any + std::marker::Send>>>>"* noalias nocapture sret dereferenceable(24) %_12, %"std::option::Option<std::result::Result<(), std::boxed::Box<dyn std::any::Any + std::marker::Send>>>"* noalias nocapture dereferenceable(24) %_13)
          to label %bb4 unwind label %cleanup3, !dbg !500

bb4:                                              ; preds = %bb3
; invoke <alloc::sync::Arc<core::cell::UnsafeCell<core::option::Option<core::result::Result<(), alloc::boxed::Box<dyn core::any::Any + core::marker::Send>>>>>>::new
  %17 = invoke nonnull i64* @_RNvMsa_NtCs8RW06R9lH2S_5alloc4syncINtB5_3ArcINtNtCs3p84KrD9aKt_4core4cell10UnsafeCellINtNtBL_6option6OptionINtNtBL_6result6ResultuINtNtB7_5boxed3BoxDNtNtBL_3any3AnyNtNtBL_6marker4SendEL_EEEEE3newCs3Xe6qK9kNBx_21static_map_and_mutate(%"std::cell::UnsafeCell<std::option::Option<std::result::Result<(), std::boxed::Box<dyn std::any::Any + std::marker::Send>>>>"* noalias nocapture dereferenceable(24) %_12)
          to label %bb5 unwind label %cleanup3, !dbg !501

bb5:                                              ; preds = %bb4
  store i64* %17, i64** %my_packet, align 8, !dbg !501
; invoke <alloc::sync::Arc<core::cell::UnsafeCell<core::option::Option<core::result::Result<(), alloc::boxed::Box<dyn core::any::Any + core::marker::Send>>>>> as core::clone::Clone>::clone
  %18 = invoke nonnull i64* @_RNvXsk_NtCs8RW06R9lH2S_5alloc4syncINtB5_3ArcINtNtCs3p84KrD9aKt_4core4cell10UnsafeCellINtNtBL_6option6OptionINtNtBL_6result6ResultuINtNtB7_5boxed3BoxDNtNtBL_3any3AnyNtNtBL_6marker4SendEL_EEEEENtNtBL_5clone5Clone5cloneCs3Xe6qK9kNBx_21static_map_and_mutate(i64** noalias readonly align 8 dereferenceable(8) %my_packet)
          to label %bb6 unwind label %cleanup4, !dbg !502

bb6:                                              ; preds = %bb5
  store i64* %18, i64** %their_packet, align 8, !dbg !502
  store i8 1, i8* %_43, align 1, !dbg !503
  %19 = bitcast i64** %_17 to {}**, !dbg !504
  store {}* null, {}** %19, align 8, !dbg !504
  %20 = load i64*, i64** %_17, align 8, !dbg !505
; invoke std::io::stdio::set_output_capture
  %21 = invoke i64* @_ZN3std2io5stdio18set_output_capture17he178fcaf92baad96E(i64* %20)
          to label %bb7 unwind label %cleanup5, !dbg !505

bb7:                                              ; preds = %bb6
  store i64* %21, i64** %output_capture, align 8, !dbg !505
  store i8 1, i8* %_42, align 1, !dbg !506
; invoke <core::option::Option<alloc::sync::Arc<std::sync::mutex::Mutex<alloc::vec::Vec<u8>>>> as core::clone::Clone>::clone
  %_19 = invoke i64* @_RNvXs8_NtCs3p84KrD9aKt_4core6optionINtB5_6OptionINtNtCs8RW06R9lH2S_5alloc4sync3ArcINtNtNtCs2bNvlddUlXM_3std4sync5mutex5MutexINtNtBP_3vec3VechEEEENtNtB7_5clone5Clone5cloneCs3Xe6qK9kNBx_21static_map_and_mutate(i64** noalias readonly align 8 dereferenceable(8) %output_capture)
          to label %bb8 unwind label %cleanup6, !dbg !507

bb8:                                              ; preds = %bb7
; invoke std::io::stdio::set_output_capture
  %22 = invoke i64* @_ZN3std2io5stdio18set_output_capture17he178fcaf92baad96E(i64* %_19)
          to label %bb9 unwind label %cleanup6, !dbg !508

bb9:                                              ; preds = %bb8
  store i64* %22, i64** %_18, align 8, !dbg !508
; invoke core::ptr::drop_in_place::<core::option::Option<alloc::sync::Arc<std::sync::mutex::Mutex<alloc::vec::Vec<u8>>>>>
  invoke void @_RINvNtCs3p84KrD9aKt_4core3ptr13drop_in_placeINtNtB4_6option6OptionINtNtCs8RW06R9lH2S_5alloc4sync3ArcINtNtNtCs2bNvlddUlXM_3std4sync5mutex5MutexINtNtB17_3vec3VechEEEEECs3Xe6qK9kNBx_21static_map_and_mutate(i64** %_18)
          to label %bb10 unwind label %cleanup6, !dbg !509

bb10:                                             ; preds = %bb9
  store i8 0, i8* %_44, align 1, !dbg !510
  store i8 0, i8* %_42, align 1, !dbg !510
  store i8 0, i8* %_46, align 1, !dbg !510
  store i8 0, i8* %_43, align 1, !dbg !510
  %23 = bitcast %"[closure@std::thread::Builder::spawn_unchecked<[closure@src/main.rs:12:28: 21:3], ()>::{closure#0}]"* %main to i64**, !dbg !510
  %24 = load i64*, i64** %their_thread, align 8, !dbg !510, !nonnull !4
  store i64* %24, i64** %23, align 8, !dbg !510
  %25 = getelementptr inbounds %"[closure@std::thread::Builder::spawn_unchecked<[closure@src/main.rs:12:28: 21:3], ()>::{closure#0}]", %"[closure@std::thread::Builder::spawn_unchecked<[closure@src/main.rs:12:28: 21:3], ()>::{closure#0}]"* %main, i32 0, i32 5, !dbg !510
  %26 = load i64*, i64** %output_capture, align 8, !dbg !510
  store i64* %26, i64** %25, align 8, !dbg !510
  %27 = bitcast %"[closure@std::thread::Builder::spawn_unchecked<[closure@src/main.rs:12:28: 21:3], ()>::{closure#0}]"* %main to %"[closure@src/main.rs:12:28: 21:3]"*, !dbg !510
  %28 = getelementptr inbounds %"[closure@std::thread::Builder::spawn_unchecked<[closure@src/main.rs:12:28: 21:3], ()>::{closure#0}]", %"[closure@std::thread::Builder::spawn_unchecked<[closure@src/main.rs:12:28: 21:3], ()>::{closure#0}]"* %main, i32 0, i32 7, !dbg !510
  %29 = load i64*, i64** %their_packet, align 8, !dbg !510, !nonnull !4
  store i64* %29, i64** %28, align 8, !dbg !510
  %30 = bitcast %"[closure@std::thread::Builder::spawn_unchecked<[closure@src/main.rs:12:28: 21:3], ()>::{closure#0}]"* %_33 to i8*, !dbg !511
  %31 = bitcast %"[closure@std::thread::Builder::spawn_unchecked<[closure@src/main.rs:12:28: 21:3], ()>::{closure#0}]"* %main to i8*, !dbg !511
  call void @llvm.memcpy.p0i8.p0i8.i64(i8* align 8 %30, i8* align 8 %31, i64 24, i1 false), !dbg !511
  call void @llvm.dbg.declare(metadata %"[closure@std::thread::Builder::spawn_unchecked<[closure@src/main.rs:12:28: 21:3], ()>::{closure#0}]"* %_33, metadata !512, metadata !DIExpression()), !dbg !523
; invoke alloc::alloc::exchange_malloc
  %32 = invoke i8* @_RNvNtCs8RW06R9lH2S_5alloc5alloc15exchange_mallocCs3Xe6qK9kNBx_21static_map_and_mutate(i64 24, i64 8)
          to label %_RNvMNtCs8RW06R9lH2S_5alloc5boxedINtB2_3BoxNCINvMNtCs2bNvlddUlXM_3std6threadNtBK_7Builder15spawn_uncheckedNCNvCs3Xe6qK9kNBx_21static_map_and_mutate4main0uE0E3newB1J_.exit unwind label %cleanup6, !dbg !525

_RNvMNtCs8RW06R9lH2S_5alloc5boxedINtB2_3BoxNCINvMNtCs2bNvlddUlXM_3std6threadNtBK_7Builder15spawn_uncheckedNCNvCs3Xe6qK9kNBx_21static_map_and_mutate4main0uE0E3newB1J_.exit: ; preds = %bb10
  %33 = bitcast i8* %32 to %"[closure@std::thread::Builder::spawn_unchecked<[closure@src/main.rs:12:28: 21:3], ()>::{closure#0}]"*, !dbg !525
  %34 = bitcast %"[closure@std::thread::Builder::spawn_unchecked<[closure@src/main.rs:12:28: 21:3], ()>::{closure#0}]"* %_33 to i8*, !dbg !526
  call void @llvm.memcpy.p0i8.p0i8.i64(i8* align 8 %32, i8* align 8 %34, i64 24, i1 false), !dbg !526
  br label %bb11, !dbg !527

bb11:                                             ; preds = %_RNvMNtCs8RW06R9lH2S_5alloc5boxedINtB2_3BoxNCINvMNtCs2bNvlddUlXM_3std6threadNtBK_7Builder15spawn_uncheckedNCNvCs3Xe6qK9kNBx_21static_map_and_mutate4main0uE0E3newB1J_.exit
  %35 = bitcast %"[closure@std::thread::Builder::spawn_unchecked<[closure@src/main.rs:12:28: 21:3], ()>::{closure#0}]"* %33 to {}*, !dbg !528
  %36 = bitcast {}* %35 to i8*, !dbg !528
  %_31.0 = bitcast i8* %36 to {}*, !dbg !528
  %37 = getelementptr inbounds { {}*, [3 x i64]* }, { {}*, [3 x i64]* }* %2, i32 0, i32 0, !dbg !529
  store {}* %_31.0, {}** %37, align 8, !dbg !529
  %38 = getelementptr inbounds { {}*, [3 x i64]* }, { {}*, [3 x i64]* }* %2, i32 0, i32 1, !dbg !529
  store [3 x i64]* bitcast ({ void (%"[closure@std::thread::Builder::spawn_unchecked<[closure@src/main.rs:12:28: 21:3], ()>::{closure#0}]"*)*, i64, i64, void (%"[closure@std::thread::Builder::spawn_unchecked<[closure@src/main.rs:12:28: 21:3], ()>::{closure#0}]"*)* }* @vtable.0 to [3 x i64]*), [3 x i64]** %38, align 8, !dbg !529
  %39 = getelementptr inbounds { {}*, [3 x i64]* }, { {}*, [3 x i64]* }* %2, i32 0, i32 0, !dbg !529
  %_30.0 = load {}*, {}** %39, align 8, !dbg !529, !nonnull !4
  %40 = getelementptr inbounds { {}*, [3 x i64]* }, { {}*, [3 x i64]* }* %2, i32 0, i32 1, !dbg !529
  %_30.1 = load [3 x i64]*, [3 x i64]** %40, align 8, !dbg !529, !nonnull !4
  br label %bb12, !dbg !529

bb12:                                             ; preds = %bb11
; invoke std::sys::unix::thread::Thread::new
  invoke void @_ZN3std3sys4unix6thread6Thread3new17h3bc268f2aed68233E(%"std::result::Result<std::sys::unix::thread::Thread, std::io::Error>"* noalias nocapture sret dereferenceable(24) %_27, i64 %stack_size, {}* noalias nonnull align 1 %_30.0, [3 x i64]* noalias readonly align 8 dereferenceable(24) %_30.1)
          to label %bb13 unwind label %cleanup6, !dbg !530

bb13:                                             ; preds = %bb12
; invoke <core::result::Result<std::sys::unix::thread::Thread, std::io::error::Error> as core::ops::try::Try>::into_result
  invoke void @_RNvXsw_NtCs3p84KrD9aKt_4core6resultINtB5_6ResultNtNtNtNtCs2bNvlddUlXM_3std3sys4unix6thread6ThreadNtNtNtBS_2io5error5ErrorENtNtNtB7_3ops3try3Try11into_resultCs3Xe6qK9kNBx_21static_map_and_mutate(%"std::result::Result<std::sys::unix::thread::Thread, std::io::Error>"* noalias nocapture sret dereferenceable(24) %_26, %"std::result::Result<std::sys::unix::thread::Thread, std::io::Error>"* noalias nocapture dereferenceable(24) %_27)
          to label %bb14 unwind label %cleanup6, !dbg !530

bb14:                                             ; preds = %bb13
  %41 = bitcast %"std::result::Result<std::sys::unix::thread::Thread, std::io::Error>"* %_26 to i64*, !dbg !531
  %_34 = load i64, i64* %41, align 8, !dbg !531, !range !491
  switch i64 %_34, label %bb16 [
    i64 0, label %bb15
    i64 1, label %bb17
  ], !dbg !531

bb15:                                             ; preds = %bb14
  %42 = bitcast %"std::result::Result<std::sys::unix::thread::Thread, std::io::Error>"* %_26 to %"std::result::Result<std::sys::unix::thread::Thread, std::io::Error>::Ok"*, !dbg !530
  %43 = getelementptr inbounds %"std::result::Result<std::sys::unix::thread::Thread, std::io::Error>::Ok", %"std::result::Result<std::sys::unix::thread::Thread, std::io::Error>::Ok"* %42, i32 0, i32 1, !dbg !530
  %val = load i64, i64* %43, align 8, !dbg !530
  store i64 %val, i64* %val.dbg.spill, align 8, !dbg !530
  call void @llvm.dbg.declare(metadata i64* %val.dbg.spill, metadata !475, metadata !DIExpression()), !dbg !532
  %44 = bitcast { i64, i64 }* %_24 to %"std::option::Option<std::sys::unix::thread::Thread>::Some"*, !dbg !533
  %45 = getelementptr inbounds %"std::option::Option<std::sys::unix::thread::Thread>::Some", %"std::option::Option<std::sys::unix::thread::Thread>::Some"* %44, i32 0, i32 1, !dbg !533
  store i64 %val, i64* %45, align 8, !dbg !533
  %46 = bitcast { i64, i64 }* %_24 to i64*, !dbg !533
  store i64 1, i64* %46, align 8, !dbg !533
  %_39 = load i64*, i64** %my_thread, align 8, !dbg !534, !nonnull !4
  %_41 = load i64*, i64** %my_packet, align 8, !dbg !535, !nonnull !4
  store i64* %_41, i64** %_40, align 8, !dbg !536
  %47 = bitcast %"std::thread::JoinInner<()>"* %_23 to { i64, i64 }*, !dbg !537
  %48 = getelementptr inbounds { i64, i64 }, { i64, i64 }* %_24, i32 0, i32 0, !dbg !537
  %49 = load i64, i64* %48, align 8, !dbg !537, !range !491
  %50 = getelementptr inbounds { i64, i64 }, { i64, i64 }* %_24, i32 0, i32 1, !dbg !537
  %51 = load i64, i64* %50, align 8, !dbg !537
  %52 = getelementptr inbounds { i64, i64 }, { i64, i64 }* %47, i32 0, i32 0, !dbg !537
  store i64 %49, i64* %52, align 8, !dbg !537
  %53 = getelementptr inbounds { i64, i64 }, { i64, i64 }* %47, i32 0, i32 1, !dbg !537
  store i64 %51, i64* %53, align 8, !dbg !537
  %54 = getelementptr inbounds %"std::thread::JoinInner<()>", %"std::thread::JoinInner<()>"* %_23, i32 0, i32 3, !dbg !537
  store i64* %_39, i64** %54, align 8, !dbg !537
  %55 = getelementptr inbounds %"std::thread::JoinInner<()>", %"std::thread::JoinInner<()>"* %_23, i32 0, i32 5, !dbg !537
  %56 = load i64*, i64** %_40, align 8, !dbg !537, !nonnull !4
  store i64* %56, i64** %55, align 8, !dbg !537
  %57 = bitcast %"std::thread::JoinHandle<()>"* %_22 to %"std::thread::JoinInner<()>"*, !dbg !538
  %58 = bitcast %"std::thread::JoinInner<()>"* %57 to i8*, !dbg !538
  %59 = bitcast %"std::thread::JoinInner<()>"* %_23 to i8*, !dbg !538
  call void @llvm.memcpy.p0i8.p0i8.i64(i8* align 8 %58, i8* align 8 %59, i64 32, i1 false), !dbg !538
  %60 = bitcast %"std::result::Result<std::thread::JoinHandle<()>, std::io::Error>"* %0 to %"std::result::Result<std::thread::JoinHandle<()>, std::io::Error>::Ok"*, !dbg !539
  %61 = getelementptr inbounds %"std::result::Result<std::thread::JoinHandle<()>, std::io::Error>::Ok", %"std::result::Result<std::thread::JoinHandle<()>, std::io::Error>::Ok"* %60, i32 0, i32 1, !dbg !539
  %62 = bitcast %"std::thread::JoinHandle<()>"* %61 to i8*, !dbg !539
  %63 = bitcast %"std::thread::JoinHandle<()>"* %_22 to i8*, !dbg !539
  call void @llvm.memcpy.p0i8.p0i8.i64(i8* align 8 %62, i8* align 8 %63, i64 32, i1 false), !dbg !539
  %64 = bitcast %"std::result::Result<std::thread::JoinHandle<()>, std::io::Error>"* %0 to i64*, !dbg !539
  store i64 0, i64* %64, align 8, !dbg !539
  store i8 0, i8* %_42, align 1, !dbg !540
  store i8 0, i8* %_43, align 1, !dbg !541
  store i8 0, i8* %_44, align 1, !dbg !542
  store i8 0, i8* %_45, align 1, !dbg !543
  br label %bb22, !dbg !543

bb16:                                             ; preds = %bb14
  unreachable, !dbg !530

bb17:                                             ; preds = %bb14
  %65 = bitcast %"std::result::Result<std::sys::unix::thread::Thread, std::io::Error>"* %_26 to %"std::result::Result<std::sys::unix::thread::Thread, std::io::Error>::Err"*, !dbg !531
  %66 = getelementptr inbounds %"std::result::Result<std::sys::unix::thread::Thread, std::io::Error>::Err", %"std::result::Result<std::sys::unix::thread::Thread, std::io::Error>::Err"* %65, i32 0, i32 1, !dbg !531
  %67 = bitcast %"std::io::Error"* %err to i8*, !dbg !531
  %68 = bitcast %"std::io::Error"* %66 to i8*, !dbg !531
  call void @llvm.memcpy.p0i8.p0i8.i64(i8* align 8 %67, i8* align 8 %68, i64 16, i1 false), !dbg !531
  %69 = bitcast %"std::io::Error"* %_37 to i8*, !dbg !488
  %70 = bitcast %"std::io::Error"* %err to i8*, !dbg !488
  call void @llvm.memcpy.p0i8.p0i8.i64(i8* align 8 %69, i8* align 8 %70, i64 16, i1 false), !dbg !488
  %71 = bitcast %"std::io::Error"* %_37 to i128*, !dbg !488
  %72 = load i128, i128* %71, align 8, !dbg !488
; invoke <std::io::error::Error as core::convert::From<std::io::error::Error>>::from
  %73 = invoke i128 @_RNvXs2_NtCs3p84KrD9aKt_4core7convertNtNtNtCs2bNvlddUlXM_3std2io5error5ErrorINtB5_4FromBy_E4fromCs3Xe6qK9kNBx_21static_map_and_mutate(i128 %72)
          to label %bb18 unwind label %cleanup7, !dbg !488

bb18:                                             ; preds = %bb17
  store i128 %73, i128* %1, align 8, !dbg !488
  %74 = bitcast %"std::io::Error"* %_36 to i8*, !dbg !488
  %75 = bitcast i128* %1 to i8*, !dbg !488
  call void @llvm.memcpy.p0i8.p0i8.i64(i8* align 8 %74, i8* align 8 %75, i64 16, i1 false), !dbg !488
  %76 = bitcast %"std::io::Error"* %_36 to i128*, !dbg !544
  %77 = load i128, i128* %76, align 8, !dbg !544
; invoke <core::result::Result<std::thread::JoinHandle<()>, std::io::error::Error> as core::ops::try::Try>::from_error
  invoke void @_RNvXsw_NtCs3p84KrD9aKt_4core6resultINtB5_6ResultINtNtCs2bNvlddUlXM_3std6thread10JoinHandleuENtNtNtBP_2io5error5ErrorENtNtNtB7_3ops3try3Try10from_errorCs3Xe6qK9kNBx_21static_map_and_mutate(%"std::result::Result<std::thread::JoinHandle<()>, std::io::Error>"* noalias nocapture sret dereferenceable(40) %0, i128 %77)
          to label %bb19 unwind label %cleanup7, !dbg !544

bb19:                                             ; preds = %bb18
  store i8 0, i8* %_42, align 1, !dbg !540
  store i8 0, i8* %_43, align 1, !dbg !541
; invoke core::ptr::drop_in_place::<alloc::sync::Arc<core::cell::UnsafeCell<core::option::Option<core::result::Result<(), alloc::boxed::Box<dyn core::any::Any + core::marker::Send>>>>>>
  invoke void @_RINvNtCs3p84KrD9aKt_4core3ptr13drop_in_placeINtNtCs8RW06R9lH2S_5alloc4sync3ArcINtNtB4_4cell10UnsafeCellINtNtB4_6option6OptionINtNtB4_6result6ResultuINtNtBL_5boxed3BoxDNtNtB4_3any3AnyNtNtB4_6marker4SendEL_EEEEEECs3Xe6qK9kNBx_21static_map_and_mutate(i64** %my_packet)
          to label %bb20 unwind label %cleanup8, !dbg !545

bb20:                                             ; preds = %bb19
  store i8 0, i8* %_44, align 1, !dbg !542
; invoke core::ptr::drop_in_place::<std::thread::Thread>
  invoke void @_RINvNtCs3p84KrD9aKt_4core3ptr13drop_in_placeNtNtCs2bNvlddUlXM_3std6thread6ThreadECs3Xe6qK9kNBx_21static_map_and_mutate(i64** %my_thread)
          to label %bb21 unwind label %cleanup9, !dbg !546

bb21:                                             ; preds = %bb20
  store i8 0, i8* %_45, align 1, !dbg !543
  br label %bb22, !dbg !543

bb22:                                             ; preds = %bb15, %bb21
  ret void, !dbg !547

bb23:                                             ; preds = %cleanup8
; call core::ptr::drop_in_place::<std::thread::Thread>
  call void @_RINvNtCs3p84KrD9aKt_4core3ptr13drop_in_placeNtNtCs2bNvlddUlXM_3std6thread6ThreadECs3Xe6qK9kNBx_21static_map_and_mutate(i64** %my_thread) #13, !dbg !546
  br label %bb24, !dbg !546

bb24:                                             ; preds = %cleanup9, %bb23
; call core::ptr::drop_in_place::<core::result::Result<std::thread::JoinHandle<()>, std::io::error::Error>>
  call void @_RINvNtCs3p84KrD9aKt_4core3ptr13drop_in_placeINtNtB4_6result6ResultINtNtCs2bNvlddUlXM_3std6thread10JoinHandleuENtNtNtB17_2io5error5ErrorEECs3Xe6qK9kNBx_21static_map_and_mutate(%"std::result::Result<std::thread::JoinHandle<()>, std::io::Error>"* %0) #13, !dbg !543
  br label %bb30, !dbg !543

bb25:                                             ; preds = %cleanup7
; call core::ptr::drop_in_place::<alloc::sync::Arc<core::cell::UnsafeCell<core::option::Option<core::result::Result<(), alloc::boxed::Box<dyn core::any::Any + core::marker::Send>>>>>>
  call void @_RINvNtCs3p84KrD9aKt_4core3ptr13drop_in_placeINtNtCs8RW06R9lH2S_5alloc4sync3ArcINtNtB4_4cell10UnsafeCellINtNtB4_6option6OptionINtNtB4_6result6ResultuINtNtBL_5boxed3BoxDNtNtB4_3any3AnyNtNtB4_6marker4SendEL_EEEEEECs3Xe6qK9kNBx_21static_map_and_mutate(i64** %my_packet) #13, !dbg !545
  br label %bb26, !dbg !545

bb26:                                             ; preds = %bb25
; call core::ptr::drop_in_place::<std::thread::Thread>
  call void @_RINvNtCs3p84KrD9aKt_4core3ptr13drop_in_placeNtNtCs2bNvlddUlXM_3std6thread6ThreadECs3Xe6qK9kNBx_21static_map_and_mutate(i64** %my_thread) #13, !dbg !546
  br label %bb31, !dbg !546

bb27:                                             ; preds = %bb34, %bb35, %cleanup4
; call core::ptr::drop_in_place::<alloc::sync::Arc<core::cell::UnsafeCell<core::option::Option<core::result::Result<(), alloc::boxed::Box<dyn core::any::Any + core::marker::Send>>>>>>
  call void @_RINvNtCs3p84KrD9aKt_4core3ptr13drop_in_placeINtNtCs8RW06R9lH2S_5alloc4sync3ArcINtNtB4_4cell10UnsafeCellINtNtB4_6option6OptionINtNtB4_6result6ResultuINtNtBL_5boxed3BoxDNtNtB4_3any3AnyNtNtB4_6marker4SendEL_EEEEEECs3Xe6qK9kNBx_21static_map_and_mutate(i64** %my_packet) #13, !dbg !545
  br label %bb37, !dbg !545

bb28:                                             ; preds = %bb36, %bb37, %cleanup2
; call core::ptr::drop_in_place::<std::thread::Thread>
  call void @_RINvNtCs3p84KrD9aKt_4core3ptr13drop_in_placeNtNtCs2bNvlddUlXM_3std6thread6ThreadECs3Xe6qK9kNBx_21static_map_and_mutate(i64** %my_thread) #13, !dbg !546
  br label %bb39, !dbg !546

bb29:                                             ; preds = %bb31, %bb38, %bb39
  %78 = load i8, i8* %_46, align 1, !dbg !543, !range !548
  %79 = trunc i8 %78 to i1, !dbg !543
  br i1 %79, label %bb40, label %bb30, !dbg !543

bb30:                                             ; preds = %bb24, %bb40, %bb29
  %80 = bitcast { i8*, i32 }* %3 to i8**, !dbg !549
  %81 = load i8*, i8** %80, align 8, !dbg !549
  %82 = getelementptr inbounds { i8*, i32 }, { i8*, i32 }* %3, i32 0, i32 1, !dbg !549
  %83 = load i32, i32* %82, align 8, !dbg !549
  %84 = insertvalue { i8*, i32 } undef, i8* %81, 0, !dbg !549
  %85 = insertvalue { i8*, i32 } %84, i32 %83, 1, !dbg !549
  resume { i8*, i32 } %85, !dbg !549

bb31:                                             ; preds = %bb26
  br label %bb29, !dbg !543

bb32:                                             ; preds = %bb33
; call core::ptr::drop_in_place::<core::option::Option<alloc::sync::Arc<std::sync::mutex::Mutex<alloc::vec::Vec<u8>>>>>
  call void @_RINvNtCs3p84KrD9aKt_4core3ptr13drop_in_placeINtNtB4_6option6OptionINtNtCs8RW06R9lH2S_5alloc4sync3ArcINtNtNtCs2bNvlddUlXM_3std4sync5mutex5MutexINtNtB17_3vec3VechEEEEECs3Xe6qK9kNBx_21static_map_and_mutate(i64** %output_capture) #13, !dbg !540
  br label %bb35, !dbg !540

bb33:                                             ; preds = %cleanup6
  %86 = load i8, i8* %_42, align 1, !dbg !540, !range !548
  %87 = trunc i8 %86 to i1, !dbg !540
  br i1 %87, label %bb32, label %bb35, !dbg !540

bb34:                                             ; preds = %bb35
; call core::ptr::drop_in_place::<alloc::sync::Arc<core::cell::UnsafeCell<core::option::Option<core::result::Result<(), alloc::boxed::Box<dyn core::any::Any + core::marker::Send>>>>>>
  call void @_RINvNtCs3p84KrD9aKt_4core3ptr13drop_in_placeINtNtCs8RW06R9lH2S_5alloc4sync3ArcINtNtB4_4cell10UnsafeCellINtNtB4_6option6OptionINtNtB4_6result6ResultuINtNtBL_5boxed3BoxDNtNtB4_3any3AnyNtNtB4_6marker4SendEL_EEEEEECs3Xe6qK9kNBx_21static_map_and_mutate(i64** %their_packet) #13, !dbg !541
  br label %bb27, !dbg !541

bb35:                                             ; preds = %bb32, %bb33, %cleanup5
  %88 = load i8, i8* %_43, align 1, !dbg !541, !range !548
  %89 = trunc i8 %88 to i1, !dbg !541
  br i1 %89, label %bb34, label %bb27, !dbg !541

bb36:                                             ; preds = %bb37
; call core::ptr::drop_in_place::<std::thread::Thread>
  call void @_RINvNtCs3p84KrD9aKt_4core3ptr13drop_in_placeNtNtCs2bNvlddUlXM_3std6thread6ThreadECs3Xe6qK9kNBx_21static_map_and_mutate(i64** %their_thread) #13, !dbg !542
  br label %bb28, !dbg !542

bb37:                                             ; preds = %bb27, %cleanup3
  %90 = load i8, i8* %_44, align 1, !dbg !542, !range !548
  %91 = trunc i8 %90 to i1, !dbg !542
  br i1 %91, label %bb36, label %bb28, !dbg !542

bb38:                                             ; preds = %bb39
; call core::ptr::drop_in_place::<core::option::Option<alloc::string::String>>
  call void @_RINvNtCs3p84KrD9aKt_4core3ptr13drop_in_placeINtNtB4_6option6OptionNtNtCs8RW06R9lH2S_5alloc6string6StringEECs3Xe6qK9kNBx_21static_map_and_mutate(%"std::option::Option<std::string::String>"* %name) #13, !dbg !543
  br label %bb29, !dbg !543

bb39:                                             ; preds = %bb28, %cleanup
  %92 = load i8, i8* %_45, align 1, !dbg !543, !range !548
  %93 = trunc i8 %92 to i1, !dbg !543
  br i1 %93, label %bb38, label %bb29, !dbg !543

bb40:                                             ; preds = %bb29
  br label %bb30, !dbg !543

cleanup:                                          ; preds = %bb1, %start
  %94 = landingpad { i8*, i32 }
          cleanup
  %95 = extractvalue { i8*, i32 } %94, 0
  %96 = extractvalue { i8*, i32 } %94, 1
  %97 = getelementptr inbounds { i8*, i32 }, { i8*, i32 }* %3, i32 0, i32 0
  store i8* %95, i8** %97, align 8
  %98 = getelementptr inbounds { i8*, i32 }, { i8*, i32 }* %3, i32 0, i32 1
  store i32 %96, i32* %98, align 8
  br label %bb39

cleanup2:                                         ; preds = %bb2
  %99 = landingpad { i8*, i32 }
          cleanup
  %100 = extractvalue { i8*, i32 } %99, 0
  %101 = extractvalue { i8*, i32 } %99, 1
  %102 = getelementptr inbounds { i8*, i32 }, { i8*, i32 }* %3, i32 0, i32 0
  store i8* %100, i8** %102, align 8
  %103 = getelementptr inbounds { i8*, i32 }, { i8*, i32 }* %3, i32 0, i32 1
  store i32 %101, i32* %103, align 8
  br label %bb28

cleanup3:                                         ; preds = %bb4, %bb3
  %104 = landingpad { i8*, i32 }
          cleanup
  %105 = extractvalue { i8*, i32 } %104, 0
  %106 = extractvalue { i8*, i32 } %104, 1
  %107 = getelementptr inbounds { i8*, i32 }, { i8*, i32 }* %3, i32 0, i32 0
  store i8* %105, i8** %107, align 8
  %108 = getelementptr inbounds { i8*, i32 }, { i8*, i32 }* %3, i32 0, i32 1
  store i32 %106, i32* %108, align 8
  br label %bb37

cleanup4:                                         ; preds = %bb5
  %109 = landingpad { i8*, i32 }
          cleanup
  %110 = extractvalue { i8*, i32 } %109, 0
  %111 = extractvalue { i8*, i32 } %109, 1
  %112 = getelementptr inbounds { i8*, i32 }, { i8*, i32 }* %3, i32 0, i32 0
  store i8* %110, i8** %112, align 8
  %113 = getelementptr inbounds { i8*, i32 }, { i8*, i32 }* %3, i32 0, i32 1
  store i32 %111, i32* %113, align 8
  br label %bb27

cleanup5:                                         ; preds = %bb6
  %114 = landingpad { i8*, i32 }
          cleanup
  %115 = extractvalue { i8*, i32 } %114, 0
  %116 = extractvalue { i8*, i32 } %114, 1
  %117 = getelementptr inbounds { i8*, i32 }, { i8*, i32 }* %3, i32 0, i32 0
  store i8* %115, i8** %117, align 8
  %118 = getelementptr inbounds { i8*, i32 }, { i8*, i32 }* %3, i32 0, i32 1
  store i32 %116, i32* %118, align 8
  br label %bb35

cleanup6:                                         ; preds = %bb10, %bb13, %bb12, %bb9, %bb8, %bb7
  %119 = landingpad { i8*, i32 }
          cleanup
  %120 = extractvalue { i8*, i32 } %119, 0
  %121 = extractvalue { i8*, i32 } %119, 1
  %122 = getelementptr inbounds { i8*, i32 }, { i8*, i32 }* %3, i32 0, i32 0
  store i8* %120, i8** %122, align 8
  %123 = getelementptr inbounds { i8*, i32 }, { i8*, i32 }* %3, i32 0, i32 1
  store i32 %121, i32* %123, align 8
  br label %bb33

cleanup7:                                         ; preds = %bb18, %bb17
  %124 = landingpad { i8*, i32 }
          cleanup
  %125 = extractvalue { i8*, i32 } %124, 0
  %126 = extractvalue { i8*, i32 } %124, 1
  %127 = getelementptr inbounds { i8*, i32 }, { i8*, i32 }* %3, i32 0, i32 0
  store i8* %125, i8** %127, align 8
  %128 = getelementptr inbounds { i8*, i32 }, { i8*, i32 }* %3, i32 0, i32 1
  store i32 %126, i32* %128, align 8
  br label %bb25

cleanup8:                                         ; preds = %bb19
  %129 = landingpad { i8*, i32 }
          cleanup
  %130 = extractvalue { i8*, i32 } %129, 0
  %131 = extractvalue { i8*, i32 } %129, 1
  %132 = getelementptr inbounds { i8*, i32 }, { i8*, i32 }* %3, i32 0, i32 0
  store i8* %130, i8** %132, align 8
  %133 = getelementptr inbounds { i8*, i32 }, { i8*, i32 }* %3, i32 0, i32 1
  store i32 %131, i32* %133, align 8
  br label %bb23

cleanup9:                                         ; preds = %bb20
  %134 = landingpad { i8*, i32 }
          cleanup
  %135 = extractvalue { i8*, i32 } %134, 0
  %136 = extractvalue { i8*, i32 } %134, 1
  %137 = getelementptr inbounds { i8*, i32 }, { i8*, i32 }* %3, i32 0, i32 0
  store i8* %135, i8** %137, align 8
  %138 = getelementptr inbounds { i8*, i32 }, { i8*, i32 }* %3, i32 0, i32 1
  store i32 %136, i32* %138, align 8
  br label %bb24
}

; <std::thread::Builder>::spawn::<static_map_and_mutate::main::{closure#0}, ()>
; Function Attrs: nonlazybind uwtable
define internal void @_RINvMNtCs2bNvlddUlXM_3std6threadNtB3_7Builder5spawnNCNvCs3Xe6qK9kNBx_21static_map_and_mutate4main0uEBR_(%"std::result::Result<std::thread::JoinHandle<()>, std::io::Error>"* noalias nocapture sret dereferenceable(40) %0, %"std::thread::Builder"* noalias nocapture dereferenceable(40) %self) unnamed_addr #0 !dbg !550 {
start:
  %f.dbg.spill = alloca %"[closure@src/main.rs:12:28: 21:3]", align 1
  %_3 = alloca %"std::thread::Builder", align 8
  call void @llvm.dbg.declare(metadata %"std::thread::Builder"* %self, metadata !552, metadata !DIExpression()), !dbg !554
  call void @llvm.dbg.declare(metadata %"[closure@src/main.rs:12:28: 21:3]"* %f.dbg.spill, metadata !553, metadata !DIExpression()), !dbg !555
  %1 = bitcast %"std::thread::Builder"* %_3 to i8*, !dbg !556
  %2 = bitcast %"std::thread::Builder"* %self to i8*, !dbg !556
  call void @llvm.memcpy.p0i8.p0i8.i64(i8* align 8 %1, i8* align 8 %2, i64 40, i1 false), !dbg !556
; call <std::thread::Builder>::spawn_unchecked::<static_map_and_mutate::main::{closure#0}, ()>
  call void @_RINvMNtCs2bNvlddUlXM_3std6threadNtB3_7Builder15spawn_uncheckedNCNvCs3Xe6qK9kNBx_21static_map_and_mutate4main0uEB12_(%"std::result::Result<std::thread::JoinHandle<()>, std::io::Error>"* noalias nocapture sret dereferenceable(40) %0, %"std::thread::Builder"* noalias nocapture dereferenceable(40) %_3), !dbg !556
  br label %bb1, !dbg !556

bb1:                                              ; preds = %start
  ret void, !dbg !557
}

; <[u8]>::get_unchecked_mut::<usize>
; Function Attrs: inlinehint nonlazybind uwtable
define internal align 1 dereferenceable(1) i8* @_RINvMNtCs3p84KrD9aKt_4core5sliceSh17get_unchecked_mutjECs3Xe6qK9kNBx_21static_map_and_mutate([0 x i8]* nonnull align 1 %self.0, i64 %self.1, i64 %index) unnamed_addr #1 !dbg !558 {
start:
  %index.dbg.spill = alloca i64, align 8
  %self.dbg.spill = alloca { [0 x i8]*, i64 }, align 8
  %0 = getelementptr inbounds { [0 x i8]*, i64 }, { [0 x i8]*, i64 }* %self.dbg.spill, i32 0, i32 0
  store [0 x i8]* %self.0, [0 x i8]** %0, align 8
  %1 = getelementptr inbounds { [0 x i8]*, i64 }, { [0 x i8]*, i64 }* %self.dbg.spill, i32 0, i32 1
  store i64 %self.1, i64* %1, align 8
  call void @llvm.dbg.declare(metadata { [0 x i8]*, i64 }* %self.dbg.spill, metadata !570, metadata !DIExpression()), !dbg !574
  store i64 %index, i64* %index.dbg.spill, align 8
  call void @llvm.dbg.declare(metadata i64* %index.dbg.spill, metadata !571, metadata !DIExpression()), !dbg !575
; call <usize as core::slice::index::SliceIndex<[u8]>>::get_unchecked_mut
  %_6 = call i8* @_RNvXs0_NtNtCs3p84KrD9aKt_4core5slice5indexjINtB5_10SliceIndexShE17get_unchecked_mutCs3Xe6qK9kNBx_21static_map_and_mutate(i64 %index, [0 x i8]* %self.0, i64 %self.1), !dbg !576
  br label %bb1, !dbg !576

bb1:                                              ; preds = %start
  ret i8* %_6, !dbg !577
}

; <core::option::Option<core::ptr::non_null::NonNull<u8>>>::ok_or::<core::alloc::AllocError>
; Function Attrs: inlinehint nonlazybind uwtable
define internal i8* @_RINvMNtCs3p84KrD9aKt_4core6optionINtB3_6OptionINtNtNtB5_3ptr8non_null7NonNullhEE5ok_orNtNtB5_5alloc10AllocErrorECs3Xe6qK9kNBx_21static_map_and_mutate(i8* %0) unnamed_addr #1 personality i32 (i32, i32, i64, %"unwind::libunwind::_Unwind_Exception"*, %"unwind::libunwind::_Unwind_Context"*)* @rust_eh_personality !dbg !578 {
start:
  %1 = alloca { i8*, i32 }, align 8
  %v.dbg.spill = alloca i8*, align 8
  %err.dbg.spill = alloca %"std::alloc::AllocError", align 1
  %_7 = alloca i8, align 1
  %2 = alloca i8*, align 8
  %self = alloca i8*, align 8
  store i8* %0, i8** %self, align 8
  call void @llvm.dbg.declare(metadata i8** %self, metadata !614, metadata !DIExpression()), !dbg !618
  call void @llvm.dbg.declare(metadata %"std::alloc::AllocError"* %err.dbg.spill, metadata !615, metadata !DIExpression()), !dbg !619
  store i8 0, i8* %_7, align 1, !dbg !620
  store i8 1, i8* %_7, align 1, !dbg !620
  %3 = bitcast i8** %self to {}**, !dbg !620
  %4 = load {}*, {}** %3, align 8, !dbg !620
  %5 = icmp eq {}* %4, null, !dbg !620
  %_3 = select i1 %5, i64 0, i64 1, !dbg !620
  switch i64 %_3, label %bb2 [
    i64 0, label %bb1
    i64 1, label %bb3
  ], !dbg !620

bb1:                                              ; preds = %start
  store i8 0, i8* %_7, align 1, !dbg !621
  %6 = bitcast i8** %2 to %"std::result::Result<std::ptr::NonNull<u8>, std::alloc::AllocError>::Err"*, !dbg !622
  %7 = bitcast %"std::result::Result<std::ptr::NonNull<u8>, std::alloc::AllocError>::Err"* %6 to %"std::alloc::AllocError"*, !dbg !622
  %8 = bitcast i8** %2 to {}**, !dbg !622
  store {}* null, {}** %8, align 8, !dbg !622
  br label %bb8, !dbg !623

bb2:                                              ; preds = %start
  unreachable, !dbg !624

bb3:                                              ; preds = %start
  %v = load i8*, i8** %self, align 8, !dbg !625, !nonnull !4
  store i8* %v, i8** %v.dbg.spill, align 8, !dbg !625
  call void @llvm.dbg.declare(metadata i8** %v.dbg.spill, metadata !616, metadata !DIExpression()), !dbg !626
  store i8* %v, i8** %2, align 8, !dbg !627
  br label %bb8, !dbg !628

bb4:                                              ; preds = %bb7, %bb8
  %9 = load i8*, i8** %2, align 8, !dbg !629
  ret i8* %9, !dbg !629

bb5:                                              ; No predecessors!
  br label %bb6, !dbg !628

bb6:                                              ; preds = %bb5
  %10 = bitcast { i8*, i32 }* %1 to i8**, !dbg !630
  %11 = load i8*, i8** %10, align 8, !dbg !630
  %12 = getelementptr inbounds { i8*, i32 }, { i8*, i32 }* %1, i32 0, i32 1, !dbg !630
  %13 = load i32, i32* %12, align 8, !dbg !630
  %14 = insertvalue { i8*, i32 } undef, i8* %11, 0, !dbg !630
  %15 = insertvalue { i8*, i32 } %14, i32 %13, 1, !dbg !630
  resume { i8*, i32 } %15, !dbg !630

bb7:                                              ; preds = %bb8
  br label %bb4, !dbg !628

bb8:                                              ; preds = %bb1, %bb3
  %16 = load i8, i8* %_7, align 1, !dbg !628, !range !548
  %17 = trunc i8 %16 to i1, !dbg !628
  br i1 %17, label %bb7, label %bb4, !dbg !628
}

; <core::option::Option<usize>>::unwrap_or_else::<std::sys_common::thread::min_stack>
; Function Attrs: inlinehint nonlazybind uwtable
define internal i64 @_RINvMNtCs3p84KrD9aKt_4core6optionINtB3_6OptionjE14unwrap_or_elseNvNtNtCs2bNvlddUlXM_3std10sys_common6thread9min_stackECs3Xe6qK9kNBx_21static_map_and_mutate(i64 %0, i64 %1) unnamed_addr #1 personality i32 (i32, i32, i64, %"unwind::libunwind::_Unwind_Exception"*, %"unwind::libunwind::_Unwind_Context"*)* @rust_eh_personality !dbg !631 {
start:
  %2 = alloca { i8*, i32 }, align 8
  %x.dbg.spill = alloca i64, align 8
  %f.dbg.spill = alloca {}, align 1
  %_7 = alloca i8, align 1
  %_6 = alloca {}, align 1
  %3 = alloca i64, align 8
  %self = alloca { i64, i64 }, align 8
  %4 = getelementptr inbounds { i64, i64 }, { i64, i64 }* %self, i32 0, i32 0
  store i64 %0, i64* %4, align 8
  %5 = getelementptr inbounds { i64, i64 }, { i64, i64 }* %self, i32 0, i32 1
  store i64 %1, i64* %5, align 8
  call void @llvm.dbg.declare(metadata { i64, i64 }* %self, metadata !638, metadata !DIExpression()), !dbg !644
  call void @llvm.dbg.declare(metadata {}* %f.dbg.spill, metadata !639, metadata !DIExpression()), !dbg !645
  store i8 0, i8* %_7, align 1, !dbg !646
  store i8 1, i8* %_7, align 1, !dbg !646
  %6 = bitcast { i64, i64 }* %self to i64*, !dbg !646
  %_3 = load i64, i64* %6, align 8, !dbg !646, !range !491
  switch i64 %_3, label %bb2 [
    i64 0, label %bb1
    i64 1, label %bb3
  ], !dbg !646

bb1:                                              ; preds = %start
  store i8 0, i8* %_7, align 1, !dbg !647
; call <std::sys_common::thread::min_stack as core::ops::function::FnOnce<()>>::call_once
  %7 = call i64 @_RNvYNvNtNtCs2bNvlddUlXM_3std10sys_common6thread9min_stackINtNtNtCs3p84KrD9aKt_4core3ops8function6FnOnceuE9call_onceCs3Xe6qK9kNBx_21static_map_and_mutate(), !dbg !647
  store i64 %7, i64* %3, align 8, !dbg !647
  br label %bb4, !dbg !647

bb2:                                              ; preds = %start
  unreachable, !dbg !648

bb3:                                              ; preds = %start
  %8 = bitcast { i64, i64 }* %self to %"std::option::Option<usize>::Some"*, !dbg !649
  %9 = getelementptr inbounds %"std::option::Option<usize>::Some", %"std::option::Option<usize>::Some"* %8, i32 0, i32 1, !dbg !649
  %x = load i64, i64* %9, align 8, !dbg !649
  store i64 %x, i64* %x.dbg.spill, align 8, !dbg !649
  call void @llvm.dbg.declare(metadata i64* %x.dbg.spill, metadata !640, metadata !DIExpression()), !dbg !650
  store i64 %x, i64* %3, align 8, !dbg !651
  br label %bb9, !dbg !652

bb4:                                              ; preds = %bb1
  br label %bb9, !dbg !652

bb5:                                              ; preds = %bb8, %bb9
  %10 = load i64, i64* %3, align 8, !dbg !653
  ret i64 %10, !dbg !653

bb6:                                              ; No predecessors!
  br label %bb7, !dbg !654

bb7:                                              ; preds = %bb6
  %11 = bitcast { i8*, i32 }* %2 to i8**, !dbg !655
  %12 = load i8*, i8** %11, align 8, !dbg !655
  %13 = getelementptr inbounds { i8*, i32 }, { i8*, i32 }* %2, i32 0, i32 1, !dbg !655
  %14 = load i32, i32* %13, align 8, !dbg !655
  %15 = insertvalue { i8*, i32 } undef, i8* %12, 0, !dbg !655
  %16 = insertvalue { i8*, i32 } %15, i32 %14, 1, !dbg !655
  resume { i8*, i32 } %16, !dbg !655

bb8:                                              ; preds = %bb9
  br label %bb5, !dbg !654

bb9:                                              ; preds = %bb4, %bb3
  %17 = load i8, i8* %_7, align 1, !dbg !654, !range !548
  %18 = trunc i8 %17 to i1, !dbg !654
  br i1 %18, label %bb8, label %bb5, !dbg !654
}

; <core::alloc::layout::Layout>::for_value_raw::<alloc::sync::ArcInner<core::cell::UnsafeCell<core::option::Option<core::result::Result<(), alloc::boxed::Box<dyn core::any::Any + core::marker::Send>>>>>>
; Function Attrs: nonlazybind uwtable
define internal { i64, i64 } @_RINvMNtNtCs3p84KrD9aKt_4core5alloc6layoutNtB3_6Layout13for_value_rawINtNtCs8RW06R9lH2S_5alloc4sync8ArcInnerINtNtB7_4cell10UnsafeCellINtNtB7_6option6OptionINtNtB7_6result6ResultuINtNtB19_5boxed3BoxDNtNtB7_3any3AnyNtNtB7_6marker4SendEL_EEEEEECs3Xe6qK9kNBx_21static_map_and_mutate(%"alloc::sync::ArcInner<std::cell::UnsafeCell<std::option::Option<std::result::Result<(), std::boxed::Box<dyn std::any::Any + std::marker::Send>>>>>"* %t) unnamed_addr #0 !dbg !656 {
start:
  %align.dbg.spill = alloca i64, align 8
  %size.dbg.spill = alloca i64, align 8
  %t.dbg.spill = alloca %"alloc::sync::ArcInner<std::cell::UnsafeCell<std::option::Option<std::result::Result<(), std::boxed::Box<dyn std::any::Any + std::marker::Send>>>>>"*, align 8
  %_4 = alloca { i64, i64 }, align 8
  store %"alloc::sync::ArcInner<std::cell::UnsafeCell<std::option::Option<std::result::Result<(), std::boxed::Box<dyn std::any::Any + std::marker::Send>>>>>"* %t, %"alloc::sync::ArcInner<std::cell::UnsafeCell<std::option::Option<std::result::Result<(), std::boxed::Box<dyn std::any::Any + std::marker::Send>>>>>"** %t.dbg.spill, align 8
  call void @llvm.dbg.declare(metadata %"alloc::sync::ArcInner<std::cell::UnsafeCell<std::option::Option<std::result::Result<(), std::boxed::Box<dyn std::any::Any + std::marker::Send>>>>>"** %t.dbg.spill, metadata !669, metadata !DIExpression()), !dbg !673
; call core::mem::size_of_val_raw::<alloc::sync::ArcInner<core::cell::UnsafeCell<core::option::Option<core::result::Result<(), alloc::boxed::Box<dyn core::any::Any + core::marker::Send>>>>>>
  %_5 = call i64 @_RINvNtCs3p84KrD9aKt_4core3mem15size_of_val_rawINtNtCs8RW06R9lH2S_5alloc4sync8ArcInnerINtNtB4_4cell10UnsafeCellINtNtB4_6option6OptionINtNtB4_6result6ResultuINtNtBN_5boxed3BoxDNtNtB4_3any3AnyNtNtB4_6marker4SendEL_EEEEEECs3Xe6qK9kNBx_21static_map_and_mutate(%"alloc::sync::ArcInner<std::cell::UnsafeCell<std::option::Option<std::result::Result<(), std::boxed::Box<dyn std::any::Any + std::marker::Send>>>>>"* %t), !dbg !674
  br label %bb1, !dbg !674

bb1:                                              ; preds = %start
; call core::mem::align_of_val_raw::<alloc::sync::ArcInner<core::cell::UnsafeCell<core::option::Option<core::result::Result<(), alloc::boxed::Box<dyn core::any::Any + core::marker::Send>>>>>>
  %_7 = call i64 @_RINvNtCs3p84KrD9aKt_4core3mem16align_of_val_rawINtNtCs8RW06R9lH2S_5alloc4sync8ArcInnerINtNtB4_4cell10UnsafeCellINtNtB4_6option6OptionINtNtB4_6result6ResultuINtNtBO_5boxed3BoxDNtNtB4_3any3AnyNtNtB4_6marker4SendEL_EEEEEECs3Xe6qK9kNBx_21static_map_and_mutate(%"alloc::sync::ArcInner<std::cell::UnsafeCell<std::option::Option<std::result::Result<(), std::boxed::Box<dyn std::any::Any + std::marker::Send>>>>>"* %t), !dbg !675
  br label %bb2, !dbg !675

bb2:                                              ; preds = %bb1
  %0 = bitcast { i64, i64 }* %_4 to i64*, !dbg !676
  store i64 %_5, i64* %0, align 8, !dbg !676
  %1 = getelementptr inbounds { i64, i64 }, { i64, i64 }* %_4, i32 0, i32 1, !dbg !676
  store i64 %_7, i64* %1, align 8, !dbg !676
  %2 = bitcast { i64, i64 }* %_4 to i64*, !dbg !677
  %size = load i64, i64* %2, align 8, !dbg !677
  store i64 %size, i64* %size.dbg.spill, align 8, !dbg !677
  call void @llvm.dbg.declare(metadata i64* %size.dbg.spill, metadata !670, metadata !DIExpression()), !dbg !678
  %3 = getelementptr inbounds { i64, i64 }, { i64, i64 }* %_4, i32 0, i32 1, !dbg !679
  %align = load i64, i64* %3, align 8, !dbg !679
  store i64 %align, i64* %align.dbg.spill, align 8, !dbg !679
  call void @llvm.dbg.declare(metadata i64* %align.dbg.spill, metadata !672, metadata !DIExpression()), !dbg !680
; call <core::alloc::layout::Layout>::from_size_align_unchecked
  %4 = call { i64, i64 } @_RNvMNtNtCs3p84KrD9aKt_4core5alloc6layoutNtB2_6Layout25from_size_align_uncheckedCs3Xe6qK9kNBx_21static_map_and_mutate(i64 %size, i64 %align), !dbg !681
  %5 = extractvalue { i64, i64 } %4, 0, !dbg !681
  %6 = extractvalue { i64, i64 } %4, 1, !dbg !681
  br label %bb3, !dbg !681

bb3:                                              ; preds = %bb2
  %7 = insertvalue { i64, i64 } undef, i64 %5, 0, !dbg !682
  %8 = insertvalue { i64, i64 } %7, i64 %6, 1, !dbg !682
  ret { i64, i64 } %8, !dbg !682
}

; <core::alloc::layout::Layout>::for_value_raw::<alloc::sync::ArcInner<std::sync::mutex::Mutex<alloc::vec::Vec<u8>>>>
; Function Attrs: nonlazybind uwtable
define internal { i64, i64 } @_RINvMNtNtCs3p84KrD9aKt_4core5alloc6layoutNtB3_6Layout13for_value_rawINtNtCs8RW06R9lH2S_5alloc4sync8ArcInnerINtNtNtCs2bNvlddUlXM_3std4sync5mutex5MutexINtNtB19_3vec3VechEEEECs3Xe6qK9kNBx_21static_map_and_mutate(%"alloc::sync::ArcInner<std::sync::Mutex<std::vec::Vec<u8>>>"* %t) unnamed_addr #0 !dbg !683 {
start:
  %align.dbg.spill = alloca i64, align 8
  %size.dbg.spill = alloca i64, align 8
  %t.dbg.spill = alloca %"alloc::sync::ArcInner<std::sync::Mutex<std::vec::Vec<u8>>>"*, align 8
  %_4 = alloca { i64, i64 }, align 8
  store %"alloc::sync::ArcInner<std::sync::Mutex<std::vec::Vec<u8>>>"* %t, %"alloc::sync::ArcInner<std::sync::Mutex<std::vec::Vec<u8>>>"** %t.dbg.spill, align 8
  call void @llvm.dbg.declare(metadata %"alloc::sync::ArcInner<std::sync::Mutex<std::vec::Vec<u8>>>"** %t.dbg.spill, metadata !687, metadata !DIExpression()), !dbg !691
; call core::mem::size_of_val_raw::<alloc::sync::ArcInner<std::sync::mutex::Mutex<alloc::vec::Vec<u8>>>>
  %_5 = call i64 @_RINvNtCs3p84KrD9aKt_4core3mem15size_of_val_rawINtNtCs8RW06R9lH2S_5alloc4sync8ArcInnerINtNtNtCs2bNvlddUlXM_3std4sync5mutex5MutexINtNtBN_3vec3VechEEEECs3Xe6qK9kNBx_21static_map_and_mutate(%"alloc::sync::ArcInner<std::sync::Mutex<std::vec::Vec<u8>>>"* %t), !dbg !692
  br label %bb1, !dbg !692

bb1:                                              ; preds = %start
; call core::mem::align_of_val_raw::<alloc::sync::ArcInner<std::sync::mutex::Mutex<alloc::vec::Vec<u8>>>>
  %_7 = call i64 @_RINvNtCs3p84KrD9aKt_4core3mem16align_of_val_rawINtNtCs8RW06R9lH2S_5alloc4sync8ArcInnerINtNtNtCs2bNvlddUlXM_3std4sync5mutex5MutexINtNtBO_3vec3VechEEEECs3Xe6qK9kNBx_21static_map_and_mutate(%"alloc::sync::ArcInner<std::sync::Mutex<std::vec::Vec<u8>>>"* %t), !dbg !693
  br label %bb2, !dbg !693

bb2:                                              ; preds = %bb1
  %0 = bitcast { i64, i64 }* %_4 to i64*, !dbg !694
  store i64 %_5, i64* %0, align 8, !dbg !694
  %1 = getelementptr inbounds { i64, i64 }, { i64, i64 }* %_4, i32 0, i32 1, !dbg !694
  store i64 %_7, i64* %1, align 8, !dbg !694
  %2 = bitcast { i64, i64 }* %_4 to i64*, !dbg !695
  %size = load i64, i64* %2, align 8, !dbg !695
  store i64 %size, i64* %size.dbg.spill, align 8, !dbg !695
  call void @llvm.dbg.declare(metadata i64* %size.dbg.spill, metadata !688, metadata !DIExpression()), !dbg !696
  %3 = getelementptr inbounds { i64, i64 }, { i64, i64 }* %_4, i32 0, i32 1, !dbg !697
  %align = load i64, i64* %3, align 8, !dbg !697
  store i64 %align, i64* %align.dbg.spill, align 8, !dbg !697
  call void @llvm.dbg.declare(metadata i64* %align.dbg.spill, metadata !690, metadata !DIExpression()), !dbg !698
; call <core::alloc::layout::Layout>::from_size_align_unchecked
  %4 = call { i64, i64 } @_RNvMNtNtCs3p84KrD9aKt_4core5alloc6layoutNtB2_6Layout25from_size_align_uncheckedCs3Xe6qK9kNBx_21static_map_and_mutate(i64 %size, i64 %align), !dbg !699
  %5 = extractvalue { i64, i64 } %4, 0, !dbg !699
  %6 = extractvalue { i64, i64 } %4, 1, !dbg !699
  br label %bb3, !dbg !699

bb3:                                              ; preds = %bb2
  %7 = insertvalue { i64, i64 } undef, i64 %5, 0, !dbg !700
  %8 = insertvalue { i64, i64 } %7, i64 %6, 1, !dbg !700
  ret { i64, i64 } %8, !dbg !700
}

; <core::alloc::layout::Layout>::for_value_raw::<alloc::sync::ArcInner<std::thread::Inner>>
; Function Attrs: nonlazybind uwtable
define internal { i64, i64 } @_RINvMNtNtCs3p84KrD9aKt_4core5alloc6layoutNtB3_6Layout13for_value_rawINtNtCs8RW06R9lH2S_5alloc4sync8ArcInnerNtNtCs2bNvlddUlXM_3std6thread5InnerEECs3Xe6qK9kNBx_21static_map_and_mutate(%"alloc::sync::ArcInner<std::thread::Inner>"* %t) unnamed_addr #0 !dbg !701 {
start:
  %align.dbg.spill = alloca i64, align 8
  %size.dbg.spill = alloca i64, align 8
  %t.dbg.spill = alloca %"alloc::sync::ArcInner<std::thread::Inner>"*, align 8
  %_4 = alloca { i64, i64 }, align 8
  store %"alloc::sync::ArcInner<std::thread::Inner>"* %t, %"alloc::sync::ArcInner<std::thread::Inner>"** %t.dbg.spill, align 8
  call void @llvm.dbg.declare(metadata %"alloc::sync::ArcInner<std::thread::Inner>"** %t.dbg.spill, metadata !705, metadata !DIExpression()), !dbg !709
; call core::mem::size_of_val_raw::<alloc::sync::ArcInner<std::thread::Inner>>
  %_5 = call i64 @_RINvNtCs3p84KrD9aKt_4core3mem15size_of_val_rawINtNtCs8RW06R9lH2S_5alloc4sync8ArcInnerNtNtCs2bNvlddUlXM_3std6thread5InnerEECs3Xe6qK9kNBx_21static_map_and_mutate(%"alloc::sync::ArcInner<std::thread::Inner>"* %t), !dbg !710
  br label %bb1, !dbg !710

bb1:                                              ; preds = %start
; call core::mem::align_of_val_raw::<alloc::sync::ArcInner<std::thread::Inner>>
  %_7 = call i64 @_RINvNtCs3p84KrD9aKt_4core3mem16align_of_val_rawINtNtCs8RW06R9lH2S_5alloc4sync8ArcInnerNtNtCs2bNvlddUlXM_3std6thread5InnerEECs3Xe6qK9kNBx_21static_map_and_mutate(%"alloc::sync::ArcInner<std::thread::Inner>"* %t), !dbg !711
  br label %bb2, !dbg !711

bb2:                                              ; preds = %bb1
  %0 = bitcast { i64, i64 }* %_4 to i64*, !dbg !712
  store i64 %_5, i64* %0, align 8, !dbg !712
  %1 = getelementptr inbounds { i64, i64 }, { i64, i64 }* %_4, i32 0, i32 1, !dbg !712
  store i64 %_7, i64* %1, align 8, !dbg !712
  %2 = bitcast { i64, i64 }* %_4 to i64*, !dbg !713
  %size = load i64, i64* %2, align 8, !dbg !713
  store i64 %size, i64* %size.dbg.spill, align 8, !dbg !713
  call void @llvm.dbg.declare(metadata i64* %size.dbg.spill, metadata !706, metadata !DIExpression()), !dbg !714
  %3 = getelementptr inbounds { i64, i64 }, { i64, i64 }* %_4, i32 0, i32 1, !dbg !715
  %align = load i64, i64* %3, align 8, !dbg !715
  store i64 %align, i64* %align.dbg.spill, align 8, !dbg !715
  call void @llvm.dbg.declare(metadata i64* %align.dbg.spill, metadata !708, metadata !DIExpression()), !dbg !716
; call <core::alloc::layout::Layout>::from_size_align_unchecked
  %4 = call { i64, i64 } @_RNvMNtNtCs3p84KrD9aKt_4core5alloc6layoutNtB2_6Layout25from_size_align_uncheckedCs3Xe6qK9kNBx_21static_map_and_mutate(i64 %size, i64 %align), !dbg !717
  %5 = extractvalue { i64, i64 } %4, 0, !dbg !717
  %6 = extractvalue { i64, i64 } %4, 1, !dbg !717
  br label %bb3, !dbg !717

bb3:                                              ; preds = %bb2
  %7 = insertvalue { i64, i64 } undef, i64 %5, 0, !dbg !718
  %8 = insertvalue { i64, i64 } %7, i64 %6, 1, !dbg !718
  ret { i64, i64 } %8, !dbg !718
}

; <core::ptr::unique::Unique<dyn core::any::Any + core::marker::Send>>::cast::<u8>
; Function Attrs: inlinehint nonlazybind uwtable
define internal nonnull i8* @_RINvMs1_NtNtCs3p84KrD9aKt_4core3ptr6uniqueINtB6_6UniqueDNtNtBa_3any3AnyNtNtBa_6marker4SendEL_E4casthECs3Xe6qK9kNBx_21static_map_and_mutate(i8* nonnull %self.0, i64* noalias readonly align 8 dereferenceable(24) %self.1) unnamed_addr #1 !dbg !719 {
start:
  %self.dbg.spill = alloca { i8*, i64* }, align 8
  %0 = getelementptr inbounds { i8*, i64* }, { i8*, i64* }* %self.dbg.spill, i32 0, i32 0
  store i8* %self.0, i8** %0, align 8
  %1 = getelementptr inbounds { i8*, i64* }, { i8*, i64* }* %self.dbg.spill, i32 0, i32 1
  store i64* %self.1, i64** %1, align 8
  call void @llvm.dbg.declare(metadata { i8*, i64* }* %self.dbg.spill, metadata !734, metadata !DIExpression()), !dbg !737
; call <core::ptr::unique::Unique<dyn core::any::Any + core::marker::Send>>::as_ptr
  %2 = call { {}*, [3 x i64]* } @_RNvMs1_NtNtCs3p84KrD9aKt_4core3ptr6uniqueINtB5_6UniqueDNtNtB9_3any3AnyNtNtB9_6marker4SendEL_E6as_ptrCs3Xe6qK9kNBx_21static_map_and_mutate(i8* nonnull %self.0, i64* noalias readonly align 8 dereferenceable(24) %self.1), !dbg !738
  %_3.0 = extractvalue { {}*, [3 x i64]* } %2, 0, !dbg !738
  %_3.1 = extractvalue { {}*, [3 x i64]* } %2, 1, !dbg !738
  br label %bb1, !dbg !738

bb1:                                              ; preds = %start
  %_2 = bitcast {}* %_3.0 to i8*, !dbg !738
; call <core::ptr::unique::Unique<u8>>::new_unchecked
  %3 = call nonnull i8* @_RNvMs1_NtNtCs3p84KrD9aKt_4core3ptr6uniqueINtB5_6UniquehE13new_uncheckedCs3Xe6qK9kNBx_21static_map_and_mutate(i8* %_2), !dbg !739
  br label %bb2, !dbg !739

bb2:                                              ; preds = %bb1
  ret i8* %3, !dbg !740
}

; <core::ptr::unique::Unique<dyn std::error::Error + core::marker::Send + core::marker::Sync>>::cast::<u8>
; Function Attrs: inlinehint nonlazybind uwtable
define internal nonnull i8* @_RINvMs1_NtNtCs3p84KrD9aKt_4core3ptr6uniqueINtB6_6UniqueDNtNtCs2bNvlddUlXM_3std5error5ErrorNtNtBa_6marker4SendNtB1s_4SyncEL_E4casthECs3Xe6qK9kNBx_21static_map_and_mutate(i8* nonnull %self.0, i64* noalias readonly align 8 dereferenceable(24) %self.1) unnamed_addr #1 !dbg !741 {
start:
  %self.dbg.spill = alloca { i8*, i64* }, align 8
  %0 = getelementptr inbounds { i8*, i64* }, { i8*, i64* }* %self.dbg.spill, i32 0, i32 0
  store i8* %self.0, i8** %0, align 8
  %1 = getelementptr inbounds { i8*, i64* }, { i8*, i64* }* %self.dbg.spill, i32 0, i32 1
  store i64* %self.1, i64** %1, align 8
  call void @llvm.dbg.declare(metadata { i8*, i64* }* %self.dbg.spill, metadata !755, metadata !DIExpression()), !dbg !757
; call <core::ptr::unique::Unique<dyn std::error::Error + core::marker::Send + core::marker::Sync>>::as_ptr
  %2 = call { {}*, [3 x i64]* } @_RNvMs1_NtNtCs3p84KrD9aKt_4core3ptr6uniqueINtB5_6UniqueDNtNtCs2bNvlddUlXM_3std5error5ErrorNtNtB9_6marker4SendNtB1r_4SyncEL_E6as_ptrCs3Xe6qK9kNBx_21static_map_and_mutate(i8* nonnull %self.0, i64* noalias readonly align 8 dereferenceable(24) %self.1), !dbg !758
  %_3.0 = extractvalue { {}*, [3 x i64]* } %2, 0, !dbg !758
  %_3.1 = extractvalue { {}*, [3 x i64]* } %2, 1, !dbg !758
  br label %bb1, !dbg !758

bb1:                                              ; preds = %start
  %_2 = bitcast {}* %_3.0 to i8*, !dbg !758
; call <core::ptr::unique::Unique<u8>>::new_unchecked
  %3 = call nonnull i8* @_RNvMs1_NtNtCs3p84KrD9aKt_4core3ptr6uniqueINtB5_6UniquehE13new_uncheckedCs3Xe6qK9kNBx_21static_map_and_mutate(i8* %_2), !dbg !759
  br label %bb2, !dbg !759

bb2:                                              ; preds = %bb1
  ret i8* %3, !dbg !760
}

; <core::ptr::unique::Unique<alloc::sync::ArcInner<core::cell::UnsafeCell<core::option::Option<core::result::Result<(), alloc::boxed::Box<dyn core::any::Any + core::marker::Send>>>>>>>::cast::<u8>
; Function Attrs: inlinehint nonlazybind uwtable
define internal nonnull i8* @_RINvMs1_NtNtCs3p84KrD9aKt_4core3ptr6uniqueINtB6_6UniqueINtNtCs8RW06R9lH2S_5alloc4sync8ArcInnerINtNtBa_4cell10UnsafeCellINtNtBa_6option6OptionINtNtBa_6result6ResultuINtNtBW_5boxed3BoxDNtNtBa_3any3AnyNtNtBa_6marker4SendEL_EEEEEE4casthECs3Xe6qK9kNBx_21static_map_and_mutate(i64* nonnull %self) unnamed_addr #1 !dbg !761 {
start:
  %self.dbg.spill = alloca i64*, align 8
  store i64* %self, i64** %self.dbg.spill, align 8
  call void @llvm.dbg.declare(metadata i64** %self.dbg.spill, metadata !769, metadata !DIExpression()), !dbg !771
; call <core::ptr::unique::Unique<alloc::sync::ArcInner<core::cell::UnsafeCell<core::option::Option<core::result::Result<(), alloc::boxed::Box<dyn core::any::Any + core::marker::Send>>>>>>>::as_ptr
  %_3 = call %"alloc::sync::ArcInner<std::cell::UnsafeCell<std::option::Option<std::result::Result<(), std::boxed::Box<dyn std::any::Any + std::marker::Send>>>>>"* @_RNvMs1_NtNtCs3p84KrD9aKt_4core3ptr6uniqueINtB5_6UniqueINtNtCs8RW06R9lH2S_5alloc4sync8ArcInnerINtNtB9_4cell10UnsafeCellINtNtB9_6option6OptionINtNtB9_6result6ResultuINtNtBV_5boxed3BoxDNtNtB9_3any3AnyNtNtB9_6marker4SendEL_EEEEEE6as_ptrCs3Xe6qK9kNBx_21static_map_and_mutate(i64* nonnull %self), !dbg !772
  br label %bb1, !dbg !772

bb1:                                              ; preds = %start
  %_2 = bitcast %"alloc::sync::ArcInner<std::cell::UnsafeCell<std::option::Option<std::result::Result<(), std::boxed::Box<dyn std::any::Any + std::marker::Send>>>>>"* %_3 to i8*, !dbg !772
; call <core::ptr::unique::Unique<u8>>::new_unchecked
  %0 = call nonnull i8* @_RNvMs1_NtNtCs3p84KrD9aKt_4core3ptr6uniqueINtB5_6UniquehE13new_uncheckedCs3Xe6qK9kNBx_21static_map_and_mutate(i8* %_2), !dbg !773
  br label %bb2, !dbg !773

bb2:                                              ; preds = %bb1
  ret i8* %0, !dbg !774
}

; <core::ptr::unique::Unique<std::io::error::Custom>>::cast::<u8>
; Function Attrs: inlinehint nonlazybind uwtable
define internal nonnull i8* @_RINvMs1_NtNtCs3p84KrD9aKt_4core3ptr6uniqueINtB6_6UniqueNtNtNtCs2bNvlddUlXM_3std2io5error6CustomE4casthECs3Xe6qK9kNBx_21static_map_and_mutate(i64* nonnull %self) unnamed_addr #1 !dbg !775 {
start:
  %self.dbg.spill = alloca i64*, align 8
  store i64* %self, i64** %self.dbg.spill, align 8
  call void @llvm.dbg.declare(metadata i64** %self.dbg.spill, metadata !787, metadata !DIExpression()), !dbg !789
; call <core::ptr::unique::Unique<std::io::error::Custom>>::as_ptr
  %_3 = call %"std::io::error::Custom"* @_RNvMs1_NtNtCs3p84KrD9aKt_4core3ptr6uniqueINtB5_6UniqueNtNtNtCs2bNvlddUlXM_3std2io5error6CustomE6as_ptrCs3Xe6qK9kNBx_21static_map_and_mutate(i64* nonnull %self), !dbg !790
  br label %bb1, !dbg !790

bb1:                                              ; preds = %start
  %_2 = bitcast %"std::io::error::Custom"* %_3 to i8*, !dbg !790
; call <core::ptr::unique::Unique<u8>>::new_unchecked
  %0 = call nonnull i8* @_RNvMs1_NtNtCs3p84KrD9aKt_4core3ptr6uniqueINtB5_6UniquehE13new_uncheckedCs3Xe6qK9kNBx_21static_map_and_mutate(i8* %_2), !dbg !791
  br label %bb2, !dbg !791

bb2:                                              ; preds = %bb1
  ret i8* %0, !dbg !792
}

; <core::ptr::unique::Unique<std::sys::unix::mutex::Mutex>>::cast::<u8>
; Function Attrs: inlinehint nonlazybind uwtable
define internal nonnull i8* @_RINvMs1_NtNtCs3p84KrD9aKt_4core3ptr6uniqueINtB6_6UniqueNtNtNtNtCs2bNvlddUlXM_3std3sys4unix5mutex5MutexE4casthECs3Xe6qK9kNBx_21static_map_and_mutate(i64* nonnull %self) unnamed_addr #1 !dbg !793 {
start:
  %self.dbg.spill = alloca i64*, align 8
  store i64* %self, i64** %self.dbg.spill, align 8
  call void @llvm.dbg.declare(metadata i64** %self.dbg.spill, metadata !805, metadata !DIExpression()), !dbg !807
; call <core::ptr::unique::Unique<std::sys::unix::mutex::Mutex>>::as_ptr
  %_3 = call %"std::sys::unix::mutex::Mutex"* @_RNvMs1_NtNtCs3p84KrD9aKt_4core3ptr6uniqueINtB5_6UniqueNtNtNtNtCs2bNvlddUlXM_3std3sys4unix5mutex5MutexE6as_ptrCs3Xe6qK9kNBx_21static_map_and_mutate(i64* nonnull %self), !dbg !808
  br label %bb1, !dbg !808

bb1:                                              ; preds = %start
  %_2 = bitcast %"std::sys::unix::mutex::Mutex"* %_3 to i8*, !dbg !808
; call <core::ptr::unique::Unique<u8>>::new_unchecked
  %0 = call nonnull i8* @_RNvMs1_NtNtCs3p84KrD9aKt_4core3ptr6uniqueINtB5_6UniquehE13new_uncheckedCs3Xe6qK9kNBx_21static_map_and_mutate(i8* %_2), !dbg !809
  br label %bb2, !dbg !809

bb2:                                              ; preds = %bb1
  ret i8* %0, !dbg !810
}

; <core::ptr::unique::Unique<[u8]>>::cast::<u8>
; Function Attrs: inlinehint nonlazybind uwtable
define internal nonnull i8* @_RINvMs1_NtNtCs3p84KrD9aKt_4core3ptr6uniqueINtB6_6UniqueShE4casthECs3Xe6qK9kNBx_21static_map_and_mutate(i8* nonnull %self.0, i64 %self.1) unnamed_addr #1 !dbg !811 {
start:
  %self.dbg.spill = alloca { i8*, i64 }, align 8
  %0 = getelementptr inbounds { i8*, i64 }, { i8*, i64 }* %self.dbg.spill, i32 0, i32 0
  store i8* %self.0, i8** %0, align 8
  %1 = getelementptr inbounds { i8*, i64 }, { i8*, i64 }* %self.dbg.spill, i32 0, i32 1
  store i64 %self.1, i64* %1, align 8
  call void @llvm.dbg.declare(metadata { i8*, i64 }* %self.dbg.spill, metadata !825, metadata !DIExpression()), !dbg !827
; call <core::ptr::unique::Unique<[u8]>>::as_ptr
  %2 = call { [0 x i8]*, i64 } @_RNvMs1_NtNtCs3p84KrD9aKt_4core3ptr6uniqueINtB5_6UniqueShE6as_ptrCs3Xe6qK9kNBx_21static_map_and_mutate(i8* nonnull %self.0, i64 %self.1), !dbg !828
  %_3.0 = extractvalue { [0 x i8]*, i64 } %2, 0, !dbg !828
  %_3.1 = extractvalue { [0 x i8]*, i64 } %2, 1, !dbg !828
  br label %bb1, !dbg !828

bb1:                                              ; preds = %start
  %_2 = bitcast [0 x i8]* %_3.0 to i8*, !dbg !828
; call <core::ptr::unique::Unique<u8>>::new_unchecked
  %3 = call nonnull i8* @_RNvMs1_NtNtCs3p84KrD9aKt_4core3ptr6uniqueINtB5_6UniquehE13new_uncheckedCs3Xe6qK9kNBx_21static_map_and_mutate(i8* %_2), !dbg !829
  br label %bb2, !dbg !829

bb2:                                              ; preds = %bb1
  ret i8* %3, !dbg !830
}

; <core::ptr::unique::Unique<u8>>::cast::<u8>
; Function Attrs: inlinehint nonlazybind uwtable
define internal nonnull i8* @_RINvMs1_NtNtCs3p84KrD9aKt_4core3ptr6uniqueINtB6_6UniquehE4casthECs3Xe6qK9kNBx_21static_map_and_mutate(i8* nonnull %self) unnamed_addr #1 !dbg !831 {
start:
  %self.dbg.spill = alloca i8*, align 8
  store i8* %self, i8** %self.dbg.spill, align 8
  call void @llvm.dbg.declare(metadata i8** %self.dbg.spill, metadata !835, metadata !DIExpression()), !dbg !837
; call <core::ptr::unique::Unique<u8>>::as_ptr
  %_3 = call i8* @_RNvMs1_NtNtCs3p84KrD9aKt_4core3ptr6uniqueINtB5_6UniquehE6as_ptrCs3Xe6qK9kNBx_21static_map_and_mutate(i8* nonnull %self), !dbg !838
  br label %bb1, !dbg !838

bb1:                                              ; preds = %start
; call <core::ptr::unique::Unique<u8>>::new_unchecked
  %0 = call nonnull i8* @_RNvMs1_NtNtCs3p84KrD9aKt_4core3ptr6uniqueINtB5_6UniquehE13new_uncheckedCs3Xe6qK9kNBx_21static_map_and_mutate(i8* %_3), !dbg !839
  br label %bb2, !dbg !839

bb2:                                              ; preds = %bb1
  ret i8* %0, !dbg !840
}

; <core::ptr::non_null::NonNull<alloc::sync::ArcInner<core::cell::UnsafeCell<core::option::Option<core::result::Result<(), alloc::boxed::Box<dyn core::any::Any + core::marker::Send>>>>>>>::cast::<u8>
; Function Attrs: inlinehint nonlazybind uwtable
define internal nonnull i8* @_RINvMs1_NtNtCs3p84KrD9aKt_4core3ptr8non_nullINtB6_7NonNullINtNtCs8RW06R9lH2S_5alloc4sync8ArcInnerINtNtBa_4cell10UnsafeCellINtNtBa_6option6OptionINtNtBa_6result6ResultuINtNtBZ_5boxed3BoxDNtNtBa_3any3AnyNtNtBa_6marker4SendEL_EEEEEE4casthECs3Xe6qK9kNBx_21static_map_and_mutate(i64* nonnull %self) unnamed_addr #1 !dbg !841 {
start:
  %self.dbg.spill = alloca i64*, align 8
  store i64* %self, i64** %self.dbg.spill, align 8
  call void @llvm.dbg.declare(metadata i64** %self.dbg.spill, metadata !846, metadata !DIExpression()), !dbg !847
; call <core::ptr::non_null::NonNull<alloc::sync::ArcInner<core::cell::UnsafeCell<core::option::Option<core::result::Result<(), alloc::boxed::Box<dyn core::any::Any + core::marker::Send>>>>>>>::as_ptr
  %_3 = call %"alloc::sync::ArcInner<std::cell::UnsafeCell<std::option::Option<std::result::Result<(), std::boxed::Box<dyn std::any::Any + std::marker::Send>>>>>"* @_RNvMs1_NtNtCs3p84KrD9aKt_4core3ptr8non_nullINtB5_7NonNullINtNtCs8RW06R9lH2S_5alloc4sync8ArcInnerINtNtB9_4cell10UnsafeCellINtNtB9_6option6OptionINtNtB9_6result6ResultuINtNtBY_5boxed3BoxDNtNtB9_3any3AnyNtNtB9_6marker4SendEL_EEEEEE6as_ptrCs3Xe6qK9kNBx_21static_map_and_mutate(i64* nonnull %self), !dbg !848
  br label %bb1, !dbg !848

bb1:                                              ; preds = %start
  %_2 = bitcast %"alloc::sync::ArcInner<std::cell::UnsafeCell<std::option::Option<std::result::Result<(), std::boxed::Box<dyn std::any::Any + std::marker::Send>>>>>"* %_3 to i8*, !dbg !848
; call <core::ptr::non_null::NonNull<u8>>::new_unchecked
  %0 = call nonnull i8* @_RNvMs1_NtNtCs3p84KrD9aKt_4core3ptr8non_nullINtB5_7NonNullhE13new_uncheckedCs3Xe6qK9kNBx_21static_map_and_mutate(i8* %_2), !dbg !849
  br label %bb2, !dbg !849

bb2:                                              ; preds = %bb1
  ret i8* %0, !dbg !850
}

; <core::ptr::non_null::NonNull<alloc::sync::ArcInner<std::sync::mutex::Mutex<alloc::vec::Vec<u8>>>>>::cast::<u8>
; Function Attrs: inlinehint nonlazybind uwtable
define internal nonnull i8* @_RINvMs1_NtNtCs3p84KrD9aKt_4core3ptr8non_nullINtB6_7NonNullINtNtCs8RW06R9lH2S_5alloc4sync8ArcInnerINtNtNtCs2bNvlddUlXM_3std4sync5mutex5MutexINtNtBZ_3vec3VechEEEE4casthECs3Xe6qK9kNBx_21static_map_and_mutate(i64* nonnull %self) unnamed_addr #1 !dbg !851 {
start:
  %self.dbg.spill = alloca i64*, align 8
  store i64* %self, i64** %self.dbg.spill, align 8
  call void @llvm.dbg.declare(metadata i64** %self.dbg.spill, metadata !855, metadata !DIExpression()), !dbg !857
; call <core::ptr::non_null::NonNull<alloc::sync::ArcInner<std::sync::mutex::Mutex<alloc::vec::Vec<u8>>>>>::as_ptr
  %_3 = call %"alloc::sync::ArcInner<std::sync::Mutex<std::vec::Vec<u8>>>"* @_RNvMs1_NtNtCs3p84KrD9aKt_4core3ptr8non_nullINtB5_7NonNullINtNtCs8RW06R9lH2S_5alloc4sync8ArcInnerINtNtNtCs2bNvlddUlXM_3std4sync5mutex5MutexINtNtBY_3vec3VechEEEE6as_ptrCs3Xe6qK9kNBx_21static_map_and_mutate(i64* nonnull %self), !dbg !858
  br label %bb1, !dbg !858

bb1:                                              ; preds = %start
  %_2 = bitcast %"alloc::sync::ArcInner<std::sync::Mutex<std::vec::Vec<u8>>>"* %_3 to i8*, !dbg !858
; call <core::ptr::non_null::NonNull<u8>>::new_unchecked
  %0 = call nonnull i8* @_RNvMs1_NtNtCs3p84KrD9aKt_4core3ptr8non_nullINtB5_7NonNullhE13new_uncheckedCs3Xe6qK9kNBx_21static_map_and_mutate(i8* %_2), !dbg !859
  br label %bb2, !dbg !859

bb2:                                              ; preds = %bb1
  ret i8* %0, !dbg !860
}

; <core::ptr::non_null::NonNull<alloc::sync::ArcInner<std::thread::Inner>>>::cast::<u8>
; Function Attrs: inlinehint nonlazybind uwtable
define internal nonnull i8* @_RINvMs1_NtNtCs3p84KrD9aKt_4core3ptr8non_nullINtB6_7NonNullINtNtCs8RW06R9lH2S_5alloc4sync8ArcInnerNtNtCs2bNvlddUlXM_3std6thread5InnerEE4casthECs3Xe6qK9kNBx_21static_map_and_mutate(i64* nonnull %self) unnamed_addr #1 !dbg !861 {
start:
  %self.dbg.spill = alloca i64*, align 8
  store i64* %self, i64** %self.dbg.spill, align 8
  call void @llvm.dbg.declare(metadata i64** %self.dbg.spill, metadata !865, metadata !DIExpression()), !dbg !867
; call <core::ptr::non_null::NonNull<alloc::sync::ArcInner<std::thread::Inner>>>::as_ptr
  %_3 = call %"alloc::sync::ArcInner<std::thread::Inner>"* @_RNvMs1_NtNtCs3p84KrD9aKt_4core3ptr8non_nullINtB5_7NonNullINtNtCs8RW06R9lH2S_5alloc4sync8ArcInnerNtNtCs2bNvlddUlXM_3std6thread5InnerEE6as_ptrCs3Xe6qK9kNBx_21static_map_and_mutate(i64* nonnull %self), !dbg !868
  br label %bb1, !dbg !868

bb1:                                              ; preds = %start
  %_2 = bitcast %"alloc::sync::ArcInner<std::thread::Inner>"* %_3 to i8*, !dbg !868
; call <core::ptr::non_null::NonNull<u8>>::new_unchecked
  %0 = call nonnull i8* @_RNvMs1_NtNtCs3p84KrD9aKt_4core3ptr8non_nullINtB5_7NonNullhE13new_uncheckedCs3Xe6qK9kNBx_21static_map_and_mutate(i8* %_2), !dbg !869
  br label %bb2, !dbg !869

bb2:                                              ; preds = %bb1
  ret i8* %0, !dbg !870
}

; std::rt::lang_start::<()>
; Function Attrs: nonlazybind uwtable
define hidden i64 @_RINvNtCs2bNvlddUlXM_3std2rt10lang_startuECs3Xe6qK9kNBx_21static_map_and_mutate(void ()* nonnull %main, i64 %argc, i8** %argv) unnamed_addr #0 !dbg !871 {
start:
  %argv.dbg.spill = alloca i8**, align 8
  %argc.dbg.spill = alloca i64, align 8
  %main.dbg.spill = alloca void ()*, align 8
  %_7 = alloca i64*, align 8
  store void ()* %main, void ()** %main.dbg.spill, align 8
  call void @llvm.dbg.declare(metadata void ()** %main.dbg.spill, metadata !878, metadata !DIExpression()), !dbg !881
  store i64 %argc, i64* %argc.dbg.spill, align 8
  call void @llvm.dbg.declare(metadata i64* %argc.dbg.spill, metadata !879, metadata !DIExpression()), !dbg !882
  store i8** %argv, i8*** %argv.dbg.spill, align 8
  call void @llvm.dbg.declare(metadata i8*** %argv.dbg.spill, metadata !880, metadata !DIExpression()), !dbg !883
  %0 = bitcast i64** %_7 to void ()**, !dbg !884
  store void ()* %main, void ()** %0, align 8, !dbg !884
  %_4.0 = bitcast i64** %_7 to {}*, !dbg !885
; call std::rt::lang_start_internal
  %1 = call i64 @_ZN3std2rt19lang_start_internal17he4958117ec6901fdE({}* nonnull align 1 %_4.0, [3 x i64]* noalias readonly align 8 dereferenceable(24) bitcast ({ void (i64**)*, i64, i64, i32 (i64**)*, i32 (i64**)*, i32 (i64**)* }* @vtable.1 to [3 x i64]*), i64 %argc, i8** %argv), !dbg !886
  br label %bb1, !dbg !886

bb1:                                              ; preds = %start
  ret i64 %1, !dbg !887
}

; std::panic::catch_unwind::<std::panic::AssertUnwindSafe<<std::thread::Builder>::spawn_unchecked<static_map_and_mutate::main::{closure#0}, ()>::{closure#0}::{closure#0}>, ()>
; Function Attrs: nonlazybind uwtable
define internal { i8*, i8* } @_RINvNtCs2bNvlddUlXM_3std5panic12catch_unwindINtB2_16AssertUnwindSafeNCNCINvMNtB4_6threadNtB1c_7Builder15spawn_uncheckedNCNvCs3Xe6qK9kNBx_21static_map_and_mutate4main0uE00EuEB1X_() unnamed_addr #0 !dbg !888 {
start:
  %f.dbg.spill = alloca %"std::panic::AssertUnwindSafe<[closure@std::thread::Builder::spawn_unchecked<[closure@src/main.rs:12:28: 21:3], ()>::{closure#0}::{closure#0}]>", align 1
  call void @llvm.dbg.declare(metadata %"std::panic::AssertUnwindSafe<[closure@std::thread::Builder::spawn_unchecked<[closure@src/main.rs:12:28: 21:3], ()>::{closure#0}::{closure#0}]>"* %f.dbg.spill, metadata !903, metadata !DIExpression()), !dbg !907
; call std::panicking::try::<(), std::panic::AssertUnwindSafe<<std::thread::Builder>::spawn_unchecked<static_map_and_mutate::main::{closure#0}, ()>::{closure#0}::{closure#0}>>
  %0 = call { i8*, i8* } @_RINvNtCs2bNvlddUlXM_3std9panicking3tryuINtNtB4_5panic16AssertUnwindSafeNCNCINvMNtB4_6threadNtB1f_7Builder15spawn_uncheckedNCNvCs3Xe6qK9kNBx_21static_map_and_mutate4main0uE00EEB20_(), !dbg !908
  %1 = extractvalue { i8*, i8* } %0, 0, !dbg !908
  %2 = extractvalue { i8*, i8* } %0, 1, !dbg !908
  br label %bb1, !dbg !908

bb1:                                              ; preds = %start
  %3 = insertvalue { i8*, i8* } undef, i8* %1, 0, !dbg !909
  %4 = insertvalue { i8*, i8* } %3, i8* %2, 1, !dbg !909
  ret { i8*, i8* } %4, !dbg !909
}

; std::thread::spawn::<static_map_and_mutate::main::{closure#0}, ()>
; Function Attrs: nonlazybind uwtable
define internal void @_RINvNtCs2bNvlddUlXM_3std6thread5spawnNCNvCs3Xe6qK9kNBx_21static_map_and_mutate4main0uEBD_(%"std::thread::JoinHandle<()>"* noalias nocapture sret dereferenceable(32) %0) unnamed_addr #0 personality i32 (i32, i32, i64, %"unwind::libunwind::_Unwind_Exception"*, %"unwind::libunwind::_Unwind_Context"*)* @rust_eh_personality !dbg !910 {
start:
  %1 = alloca { i8*, i32 }, align 8
  %f.dbg.spill = alloca %"[closure@src/main.rs:12:28: 21:3]", align 1
  %_7 = alloca i8, align 1
  %_3 = alloca %"std::thread::Builder", align 8
  %_2 = alloca %"std::result::Result<std::thread::JoinHandle<()>, std::io::Error>", align 8
  call void @llvm.dbg.declare(metadata %"[closure@src/main.rs:12:28: 21:3]"* %f.dbg.spill, metadata !914, metadata !DIExpression()), !dbg !915
  store i8 0, i8* %_7, align 1, !dbg !916
  store i8 1, i8* %_7, align 1, !dbg !916
; invoke std::thread::Builder::new
  invoke void @_ZN3std6thread7Builder3new17h18aec502241fcaefE(%"std::thread::Builder"* noalias nocapture sret dereferenceable(40) %_3)
          to label %bb1 unwind label %cleanup, !dbg !916

bb1:                                              ; preds = %start
  store i8 0, i8* %_7, align 1, !dbg !917
; invoke <std::thread::Builder>::spawn::<static_map_and_mutate::main::{closure#0}, ()>
  invoke void @_RINvMNtCs2bNvlddUlXM_3std6threadNtB3_7Builder5spawnNCNvCs3Xe6qK9kNBx_21static_map_and_mutate4main0uEBR_(%"std::result::Result<std::thread::JoinHandle<()>, std::io::Error>"* noalias nocapture sret dereferenceable(40) %_2, %"std::thread::Builder"* noalias nocapture dereferenceable(40) %_3)
          to label %bb2 unwind label %cleanup, !dbg !916

bb2:                                              ; preds = %bb1
; invoke <core::result::Result<std::thread::JoinHandle<()>, std::io::error::Error>>::expect
  invoke void @_RNvMs3_NtCs3p84KrD9aKt_4core6resultINtB5_6ResultINtNtCs2bNvlddUlXM_3std6thread10JoinHandleuENtNtNtBP_2io5error5ErrorE6expectCs3Xe6qK9kNBx_21static_map_and_mutate(%"std::thread::JoinHandle<()>"* noalias nocapture sret dereferenceable(32) %0, %"std::result::Result<std::thread::JoinHandle<()>, std::io::Error>"* noalias nocapture dereferenceable(40) %_2, [0 x i8]* noalias nonnull readonly align 1 bitcast (<{ [22 x i8] }>* @alloc39 to [0 x i8]*), i64 22, %"std::panic::Location"* noalias readonly align 8 dereferenceable(24) bitcast (<{ i8*, [16 x i8] }>* @alloc41 to %"std::panic::Location"*))
          to label %bb3 unwind label %cleanup, !dbg !916

bb3:                                              ; preds = %bb2
  ret void, !dbg !918

bb4:                                              ; preds = %bb5, %bb6
  %2 = bitcast { i8*, i32 }* %1 to i8**, !dbg !919
  %3 = load i8*, i8** %2, align 8, !dbg !919
  %4 = getelementptr inbounds { i8*, i32 }, { i8*, i32 }* %1, i32 0, i32 1, !dbg !919
  %5 = load i32, i32* %4, align 8, !dbg !919
  %6 = insertvalue { i8*, i32 } undef, i8* %3, 0, !dbg !919
  %7 = insertvalue { i8*, i32 } %6, i32 %5, 1, !dbg !919
  resume { i8*, i32 } %7, !dbg !919

bb5:                                              ; preds = %bb6
  br label %bb4, !dbg !920

bb6:                                              ; preds = %cleanup
  %8 = load i8, i8* %_7, align 1, !dbg !920, !range !548
  %9 = trunc i8 %8 to i1, !dbg !920
  br i1 %9, label %bb5, label %bb4, !dbg !920

cleanup:                                          ; preds = %bb2, %bb1, %start
  %10 = landingpad { i8*, i32 }
          cleanup
  %11 = extractvalue { i8*, i32 } %10, 0
  %12 = extractvalue { i8*, i32 } %10, 1
  %13 = getelementptr inbounds { i8*, i32 }, { i8*, i32 }* %1, i32 0, i32 0
  store i8* %11, i8** %13, align 8
  %14 = getelementptr inbounds { i8*, i32 }, { i8*, i32 }* %1, i32 0, i32 1
  store i32 %12, i32* %14, align 8
  br label %bb6
}

; std::panicking::try::<(), std::panic::AssertUnwindSafe<<std::thread::Builder>::spawn_unchecked<static_map_and_mutate::main::{closure#0}, ()>::{closure#0}::{closure#0}>>
; Function Attrs: nonlazybind uwtable
define internal { i8*, i8* } @_RINvNtCs2bNvlddUlXM_3std9panicking3tryuINtNtB4_5panic16AssertUnwindSafeNCNCINvMNtB4_6threadNtB1f_7Builder15spawn_uncheckedNCNvCs3Xe6qK9kNBx_21static_map_and_mutate4main0uE00EEB20_() unnamed_addr #0 !dbg !921 {
start:
  %slot.dbg.spill.i = alloca { i8*, i64* }, align 8
  %0 = alloca %"std::mem::ManuallyDrop<std::panic::AssertUnwindSafe<[closure@std::thread::Builder::spawn_unchecked<[closure@src/main.rs:12:28: 21:3], ()>::{closure#0}::{closure#0}]>>", align 1
  %1 = alloca i32, align 4
  %data_ptr.dbg.spill = alloca i8*, align 8
  %f.dbg.spill = alloca %"std::panic::AssertUnwindSafe<[closure@std::thread::Builder::spawn_unchecked<[closure@src/main.rs:12:28: 21:3], ()>::{closure#0}::{closure#0}]>", align 1
  %data = alloca { i8*, i8* }, align 8
  %2 = alloca { i8*, i8* }, align 8
  call void @llvm.dbg.declare(metadata %"std::panic::AssertUnwindSafe<[closure@std::thread::Builder::spawn_unchecked<[closure@src/main.rs:12:28: 21:3], ()>::{closure#0}::{closure#0}]>"* %f.dbg.spill, metadata !925, metadata !DIExpression()), !dbg !952
  call void @llvm.dbg.declare(metadata { i8*, i8* }* %data, metadata !926, metadata !DIExpression()), !dbg !953
  call void @llvm.dbg.declare(metadata %"std::panic::AssertUnwindSafe<[closure@std::thread::Builder::spawn_unchecked<[closure@src/main.rs:12:28: 21:3], ()>::{closure#0}::{closure#0}]>"* undef, metadata !954, metadata !DIExpression()), !dbg !960
  %3 = bitcast %"std::mem::ManuallyDrop<std::panic::AssertUnwindSafe<[closure@std::thread::Builder::spawn_unchecked<[closure@src/main.rs:12:28: 21:3], ()>::{closure#0}::{closure#0}]>>"* %0 to %"std::panic::AssertUnwindSafe<[closure@std::thread::Builder::spawn_unchecked<[closure@src/main.rs:12:28: 21:3], ()>::{closure#0}::{closure#0}]>"*, !dbg !962
  br label %bb1, !dbg !963

bb1:                                              ; preds = %start
  %4 = bitcast { i8*, i8* }* %data to %"std::mem::ManuallyDrop<std::panic::AssertUnwindSafe<[closure@std::thread::Builder::spawn_unchecked<[closure@src/main.rs:12:28: 21:3], ()>::{closure#0}::{closure#0}]>>"*, !dbg !964
  %data_ptr = bitcast { i8*, i8* }* %data to i8*, !dbg !965
  store i8* %data_ptr, i8** %data_ptr.dbg.spill, align 8, !dbg !965
  call void @llvm.dbg.declare(metadata i8** %data_ptr.dbg.spill, metadata !949, metadata !DIExpression()), !dbg !966
  %5 = call i32 @__rust_try(void (i8*)* @_RINvNvNtCs2bNvlddUlXM_3std9panicking3try7do_callINtNtB6_5panic16AssertUnwindSafeNCNCINvMNtB6_6threadNtB1o_7Builder15spawn_uncheckedNCNvCs3Xe6qK9kNBx_21static_map_and_mutate4main0uE00EuEB29_, i8* %data_ptr, void (i8*, i8*)* @_RINvNvNtCs2bNvlddUlXM_3std9panicking3try8do_catchINtNtB6_5panic16AssertUnwindSafeNCNCINvMNtB6_6threadNtB1p_7Builder15spawn_uncheckedNCNvCs3Xe6qK9kNBx_21static_map_and_mutate4main0uE00EuEB2a_), !dbg !967
  store i32 %5, i32* %1, align 4, !dbg !967
  %_9 = load i32, i32* %1, align 4, !dbg !967
  br label %bb2, !dbg !967

bb2:                                              ; preds = %bb1
  %6 = icmp eq i32 %_9, 0, !dbg !968
  br i1 %6, label %bb3, label %bb4, !dbg !968

bb3:                                              ; preds = %bb2
  call void @llvm.dbg.declare(metadata %"std::mem::ManuallyDrop<()>"* undef, metadata !969, metadata !DIExpression()), !dbg !974
  br label %bb5, !dbg !976

bb4:                                              ; preds = %bb2
  %7 = bitcast { i8*, i8* }* %data to { i8*, i64* }*, !dbg !977
  %8 = getelementptr inbounds { i8*, i64* }, { i8*, i64* }* %7, i32 0, i32 0, !dbg !977
  %_17.0 = load i8*, i8** %8, align 8, !dbg !977, !nonnull !4
  %9 = getelementptr inbounds { i8*, i64* }, { i8*, i64* }* %7, i32 0, i32 1, !dbg !977
  %_17.1 = load i64*, i64** %9, align 8, !dbg !977, !nonnull !4
  %10 = getelementptr inbounds { i8*, i64* }, { i8*, i64* }* %slot.dbg.spill.i, i32 0, i32 0
  store i8* %_17.0, i8** %10, align 8, !noalias !978
  %11 = getelementptr inbounds { i8*, i64* }, { i8*, i64* }* %slot.dbg.spill.i, i32 0, i32 1
  store i64* %_17.1, i64** %11, align 8, !noalias !978
  call void @llvm.dbg.declare(metadata { i8*, i64* }* %slot.dbg.spill.i, metadata !982, metadata !DIExpression()), !dbg !987
  %12 = bitcast i8* %_17.0 to {}*, !dbg !989
  %13 = bitcast i64* %_17.1 to [3 x i64]*, !dbg !989
  %14 = insertvalue { {}*, [3 x i64]* } undef, {}* %12, 0, !dbg !990
  %15 = insertvalue { {}*, [3 x i64]* } %14, [3 x i64]* %13, 1, !dbg !990
  %_16.0 = extractvalue { {}*, [3 x i64]* } %15, 0, !dbg !991
  %_16.1 = extractvalue { {}*, [3 x i64]* } %15, 1, !dbg !991
  br label %bb6, !dbg !991

bb5:                                              ; preds = %bb3
  %16 = bitcast { i8*, i8* }* %2 to %"std::result::Result<(), std::boxed::Box<dyn std::any::Any + std::marker::Send>>::Ok"*, !dbg !992
  %17 = bitcast %"std::result::Result<(), std::boxed::Box<dyn std::any::Any + std::marker::Send>>::Ok"* %16 to {}*, !dbg !992
  %18 = bitcast { i8*, i8* }* %2 to {}**, !dbg !992
  store {}* null, {}** %18, align 8, !dbg !992
  br label %bb7, !dbg !968

bb6:                                              ; preds = %bb4
  %19 = bitcast { i8*, i8* }* %2 to { {}*, [3 x i64]* }*, !dbg !993
  %20 = getelementptr inbounds { {}*, [3 x i64]* }, { {}*, [3 x i64]* }* %19, i32 0, i32 0, !dbg !993
  store {}* %_16.0, {}** %20, align 8, !dbg !993
  %21 = getelementptr inbounds { {}*, [3 x i64]* }, { {}*, [3 x i64]* }* %19, i32 0, i32 1, !dbg !993
  store [3 x i64]* %_16.1, [3 x i64]** %21, align 8, !dbg !993
  br label %bb7, !dbg !968

bb7:                                              ; preds = %bb5, %bb6
  %22 = getelementptr inbounds { i8*, i8* }, { i8*, i8* }* %2, i32 0, i32 0, !dbg !994
  %23 = load i8*, i8** %22, align 8, !dbg !994
  %24 = getelementptr inbounds { i8*, i8* }, { i8*, i8* }* %2, i32 0, i32 1, !dbg !994
  %25 = load i8*, i8** %24, align 8, !dbg !994
  %26 = insertvalue { i8*, i8* } undef, i8* %23, 0, !dbg !994
  %27 = insertvalue { i8*, i8* } %26, i8* %25, 1, !dbg !994
  ret { i8*, i8* } %27, !dbg !994
}

; core::intrinsics::copy_nonoverlapping::<core::option::Option<core::result::Result<(), alloc::boxed::Box<dyn core::any::Any + core::marker::Send>>>>
; Function Attrs: inlinehint nonlazybind uwtable
define internal void @_RINvNtCs3p84KrD9aKt_4core10intrinsics19copy_nonoverlappingINtNtB4_6option6OptionINtNtB4_6result6ResultuINtNtCs8RW06R9lH2S_5alloc5boxed3BoxDNtNtB4_3any3AnyNtNtB4_6marker4SendEL_EEEECs3Xe6qK9kNBx_21static_map_and_mutate(%"std::option::Option<std::result::Result<(), std::boxed::Box<dyn std::any::Any + std::marker::Send>>>"* %src, %"std::option::Option<std::result::Result<(), std::boxed::Box<dyn std::any::Any + std::marker::Send>>>"* %dst, i64 %count) unnamed_addr #1 !dbg !995 {
start:
  %count.dbg.spill = alloca i64, align 8
  %dst.dbg.spill = alloca %"std::option::Option<std::result::Result<(), std::boxed::Box<dyn std::any::Any + std::marker::Send>>>"*, align 8
  %src.dbg.spill = alloca %"std::option::Option<std::result::Result<(), std::boxed::Box<dyn std::any::Any + std::marker::Send>>>"*, align 8
  store %"std::option::Option<std::result::Result<(), std::boxed::Box<dyn std::any::Any + std::marker::Send>>>"* %src, %"std::option::Option<std::result::Result<(), std::boxed::Box<dyn std::any::Any + std::marker::Send>>>"** %src.dbg.spill, align 8
  call void @llvm.dbg.declare(metadata %"std::option::Option<std::result::Result<(), std::boxed::Box<dyn std::any::Any + std::marker::Send>>>"** %src.dbg.spill, metadata !1003, metadata !DIExpression()), !dbg !1006
  store %"std::option::Option<std::result::Result<(), std::boxed::Box<dyn std::any::Any + std::marker::Send>>>"* %dst, %"std::option::Option<std::result::Result<(), std::boxed::Box<dyn std::any::Any + std::marker::Send>>>"** %dst.dbg.spill, align 8
  call void @llvm.dbg.declare(metadata %"std::option::Option<std::result::Result<(), std::boxed::Box<dyn std::any::Any + std::marker::Send>>>"** %dst.dbg.spill, metadata !1004, metadata !DIExpression()), !dbg !1007
  store i64 %count, i64* %count.dbg.spill, align 8
  call void @llvm.dbg.declare(metadata i64* %count.dbg.spill, metadata !1005, metadata !DIExpression()), !dbg !1008
  %0 = mul i64 24, %count, !dbg !1009
  %1 = bitcast %"std::option::Option<std::result::Result<(), std::boxed::Box<dyn std::any::Any + std::marker::Send>>>"* %dst to i8*, !dbg !1009
  %2 = bitcast %"std::option::Option<std::result::Result<(), std::boxed::Box<dyn std::any::Any + std::marker::Send>>>"* %src to i8*, !dbg !1009
  call void @llvm.memcpy.p0i8.p0i8.i64(i8* align 8 %1, i8* align 8 %2, i64 %0, i1 false), !dbg !1009
  br label %bb1, !dbg !1009

bb1:                                              ; preds = %start
  ret void, !dbg !1010
}

; core::intrinsics::copy_nonoverlapping::<core::option::Option<std::sys::unix::thread::Thread>>
; Function Attrs: inlinehint nonlazybind uwtable
define internal void @_RINvNtCs3p84KrD9aKt_4core10intrinsics19copy_nonoverlappingINtNtB4_6option6OptionNtNtNtNtCs2bNvlddUlXM_3std3sys4unix6thread6ThreadEECs3Xe6qK9kNBx_21static_map_and_mutate({ i64, i64 }* %src, { i64, i64 }* %dst, i64 %count) unnamed_addr #1 !dbg !1011 {
start:
  %count.dbg.spill = alloca i64, align 8
  %dst.dbg.spill = alloca { i64, i64 }*, align 8
  %src.dbg.spill = alloca { i64, i64 }*, align 8
  store { i64, i64 }* %src, { i64, i64 }** %src.dbg.spill, align 8
  call void @llvm.dbg.declare(metadata { i64, i64 }** %src.dbg.spill, metadata !1017, metadata !DIExpression()), !dbg !1022
  store { i64, i64 }* %dst, { i64, i64 }** %dst.dbg.spill, align 8
  call void @llvm.dbg.declare(metadata { i64, i64 }** %dst.dbg.spill, metadata !1018, metadata !DIExpression()), !dbg !1023
  store i64 %count, i64* %count.dbg.spill, align 8
  call void @llvm.dbg.declare(metadata i64* %count.dbg.spill, metadata !1019, metadata !DIExpression()), !dbg !1024
  %0 = mul i64 16, %count, !dbg !1025
  %1 = bitcast { i64, i64 }* %dst to i8*, !dbg !1025
  %2 = bitcast { i64, i64 }* %src to i8*, !dbg !1025
  call void @llvm.memcpy.p0i8.p0i8.i64(i8* align 8 %1, i8* align 8 %2, i64 %0, i1 false), !dbg !1025
  br label %bb1, !dbg !1025

bb1:                                              ; preds = %start
  ret void, !dbg !1026
}

; core::intrinsics::copy_nonoverlapping::<std::panic::AssertUnwindSafe<<std::thread::Builder>::spawn_unchecked<static_map_and_mutate::main::{closure#0}, ()>::{closure#0}::{closure#0}>>
; Function Attrs: inlinehint nonlazybind uwtable
define internal void @_RINvNtCs3p84KrD9aKt_4core10intrinsics19copy_nonoverlappingINtNtCs2bNvlddUlXM_3std5panic16AssertUnwindSafeNCNCINvMNtBZ_6threadNtB1N_7Builder15spawn_uncheckedNCNvCs3Xe6qK9kNBx_21static_map_and_mutate4main0uE00EEB2y_(%"std::panic::AssertUnwindSafe<[closure@std::thread::Builder::spawn_unchecked<[closure@src/main.rs:12:28: 21:3], ()>::{closure#0}::{closure#0}]>"* %src, %"std::panic::AssertUnwindSafe<[closure@std::thread::Builder::spawn_unchecked<[closure@src/main.rs:12:28: 21:3], ()>::{closure#0}::{closure#0}]>"* %dst, i64 %count) unnamed_addr #1 !dbg !1027 {
start:
  %count.dbg.spill = alloca i64, align 8
  %dst.dbg.spill = alloca %"std::panic::AssertUnwindSafe<[closure@std::thread::Builder::spawn_unchecked<[closure@src/main.rs:12:28: 21:3], ()>::{closure#0}::{closure#0}]>"*, align 8
  %src.dbg.spill = alloca %"std::panic::AssertUnwindSafe<[closure@std::thread::Builder::spawn_unchecked<[closure@src/main.rs:12:28: 21:3], ()>::{closure#0}::{closure#0}]>"*, align 8
  store %"std::panic::AssertUnwindSafe<[closure@std::thread::Builder::spawn_unchecked<[closure@src/main.rs:12:28: 21:3], ()>::{closure#0}::{closure#0}]>"* %src, %"std::panic::AssertUnwindSafe<[closure@std::thread::Builder::spawn_unchecked<[closure@src/main.rs:12:28: 21:3], ()>::{closure#0}::{closure#0}]>"** %src.dbg.spill, align 8
  call void @llvm.dbg.declare(metadata %"std::panic::AssertUnwindSafe<[closure@std::thread::Builder::spawn_unchecked<[closure@src/main.rs:12:28: 21:3], ()>::{closure#0}::{closure#0}]>"** %src.dbg.spill, metadata !1033, metadata !DIExpression()), !dbg !1036
  store %"std::panic::AssertUnwindSafe<[closure@std::thread::Builder::spawn_unchecked<[closure@src/main.rs:12:28: 21:3], ()>::{closure#0}::{closure#0}]>"* %dst, %"std::panic::AssertUnwindSafe<[closure@std::thread::Builder::spawn_unchecked<[closure@src/main.rs:12:28: 21:3], ()>::{closure#0}::{closure#0}]>"** %dst.dbg.spill, align 8
  call void @llvm.dbg.declare(metadata %"std::panic::AssertUnwindSafe<[closure@std::thread::Builder::spawn_unchecked<[closure@src/main.rs:12:28: 21:3], ()>::{closure#0}::{closure#0}]>"** %dst.dbg.spill, metadata !1034, metadata !DIExpression()), !dbg !1037
  store i64 %count, i64* %count.dbg.spill, align 8
  call void @llvm.dbg.declare(metadata i64* %count.dbg.spill, metadata !1035, metadata !DIExpression()), !dbg !1038
  %0 = mul i64 0, %count, !dbg !1039
  %1 = bitcast %"std::panic::AssertUnwindSafe<[closure@std::thread::Builder::spawn_unchecked<[closure@src/main.rs:12:28: 21:3], ()>::{closure#0}::{closure#0}]>"* %dst to i8*, !dbg !1039
  %2 = bitcast %"std::panic::AssertUnwindSafe<[closure@std::thread::Builder::spawn_unchecked<[closure@src/main.rs:12:28: 21:3], ()>::{closure#0}::{closure#0}]>"* %src to i8*, !dbg !1039
  call void @llvm.memcpy.p0i8.p0i8.i64(i8* align 1 %1, i8* align 1 %2, i64 %0, i1 false), !dbg !1039
  br label %bb1, !dbg !1039

bb1:                                              ; preds = %start
  ret void, !dbg !1040
}

; core::intrinsics::copy_nonoverlapping::<u8>
; Function Attrs: inlinehint nonlazybind uwtable
define internal void @_RINvNtCs3p84KrD9aKt_4core10intrinsics19copy_nonoverlappinghECs3Xe6qK9kNBx_21static_map_and_mutate(i8* %src, i8* %dst, i64 %count) unnamed_addr #1 !dbg !1041 {
start:
  %count.dbg.spill = alloca i64, align 8
  %dst.dbg.spill = alloca i8*, align 8
  %src.dbg.spill = alloca i8*, align 8
  store i8* %src, i8** %src.dbg.spill, align 8
  call void @llvm.dbg.declare(metadata i8** %src.dbg.spill, metadata !1045, metadata !DIExpression()), !dbg !1048
  store i8* %dst, i8** %dst.dbg.spill, align 8
  call void @llvm.dbg.declare(metadata i8** %dst.dbg.spill, metadata !1046, metadata !DIExpression()), !dbg !1049
  store i64 %count, i64* %count.dbg.spill, align 8
  call void @llvm.dbg.declare(metadata i64* %count.dbg.spill, metadata !1047, metadata !DIExpression()), !dbg !1050
  %0 = mul i64 1, %count, !dbg !1051
  call void @llvm.memcpy.p0i8.p0i8.i64(i8* align 1 %dst, i8* align 1 %src, i64 %0, i1 false), !dbg !1051
  br label %bb1, !dbg !1051

bb1:                                              ; preds = %start
  ret void, !dbg !1052
}

; core::mem::size_of_val_raw::<alloc::sync::ArcInner<core::cell::UnsafeCell<core::option::Option<core::result::Result<(), alloc::boxed::Box<dyn core::any::Any + core::marker::Send>>>>>>
; Function Attrs: inlinehint nonlazybind uwtable
define internal i64 @_RINvNtCs3p84KrD9aKt_4core3mem15size_of_val_rawINtNtCs8RW06R9lH2S_5alloc4sync8ArcInnerINtNtB4_4cell10UnsafeCellINtNtB4_6option6OptionINtNtB4_6result6ResultuINtNtBN_5boxed3BoxDNtNtB4_3any3AnyNtNtB4_6marker4SendEL_EEEEEECs3Xe6qK9kNBx_21static_map_and_mutate(%"alloc::sync::ArcInner<std::cell::UnsafeCell<std::option::Option<std::result::Result<(), std::boxed::Box<dyn std::any::Any + std::marker::Send>>>>>"* %val) unnamed_addr #1 !dbg !1053 {
start:
  %0 = alloca i64, align 8
  %val.dbg.spill = alloca %"alloc::sync::ArcInner<std::cell::UnsafeCell<std::option::Option<std::result::Result<(), std::boxed::Box<dyn std::any::Any + std::marker::Send>>>>>"*, align 8
  store %"alloc::sync::ArcInner<std::cell::UnsafeCell<std::option::Option<std::result::Result<(), std::boxed::Box<dyn std::any::Any + std::marker::Send>>>>>"* %val, %"alloc::sync::ArcInner<std::cell::UnsafeCell<std::option::Option<std::result::Result<(), std::boxed::Box<dyn std::any::Any + std::marker::Send>>>>>"** %val.dbg.spill, align 8
  call void @llvm.dbg.declare(metadata %"alloc::sync::ArcInner<std::cell::UnsafeCell<std::option::Option<std::result::Result<(), std::boxed::Box<dyn std::any::Any + std::marker::Send>>>>>"** %val.dbg.spill, metadata !1058, metadata !DIExpression()), !dbg !1059
  store i64 40, i64* %0, align 8, !dbg !1060
  %1 = load i64, i64* %0, align 8, !dbg !1060
  br label %bb1, !dbg !1060

bb1:                                              ; preds = %start
  ret i64 %1, !dbg !1061
}

; core::mem::size_of_val_raw::<alloc::sync::ArcInner<std::sync::mutex::Mutex<alloc::vec::Vec<u8>>>>
; Function Attrs: inlinehint nonlazybind uwtable
define internal i64 @_RINvNtCs3p84KrD9aKt_4core3mem15size_of_val_rawINtNtCs8RW06R9lH2S_5alloc4sync8ArcInnerINtNtNtCs2bNvlddUlXM_3std4sync5mutex5MutexINtNtBN_3vec3VechEEEECs3Xe6qK9kNBx_21static_map_and_mutate(%"alloc::sync::ArcInner<std::sync::Mutex<std::vec::Vec<u8>>>"* %val) unnamed_addr #1 !dbg !1062 {
start:
  %0 = alloca i64, align 8
  %val.dbg.spill = alloca %"alloc::sync::ArcInner<std::sync::Mutex<std::vec::Vec<u8>>>"*, align 8
  store %"alloc::sync::ArcInner<std::sync::Mutex<std::vec::Vec<u8>>>"* %val, %"alloc::sync::ArcInner<std::sync::Mutex<std::vec::Vec<u8>>>"** %val.dbg.spill, align 8
  call void @llvm.dbg.declare(metadata %"alloc::sync::ArcInner<std::sync::Mutex<std::vec::Vec<u8>>>"** %val.dbg.spill, metadata !1066, metadata !DIExpression()), !dbg !1067
  store i64 56, i64* %0, align 8, !dbg !1068
  %1 = load i64, i64* %0, align 8, !dbg !1068
  br label %bb1, !dbg !1068

bb1:                                              ; preds = %start
  ret i64 %1, !dbg !1069
}

; core::mem::size_of_val_raw::<alloc::sync::ArcInner<std::thread::Inner>>
; Function Attrs: inlinehint nonlazybind uwtable
define internal i64 @_RINvNtCs3p84KrD9aKt_4core3mem15size_of_val_rawINtNtCs8RW06R9lH2S_5alloc4sync8ArcInnerNtNtCs2bNvlddUlXM_3std6thread5InnerEECs3Xe6qK9kNBx_21static_map_and_mutate(%"alloc::sync::ArcInner<std::thread::Inner>"* %val) unnamed_addr #1 !dbg !1070 {
start:
  %0 = alloca i64, align 8
  %val.dbg.spill = alloca %"alloc::sync::ArcInner<std::thread::Inner>"*, align 8
  store %"alloc::sync::ArcInner<std::thread::Inner>"* %val, %"alloc::sync::ArcInner<std::thread::Inner>"** %val.dbg.spill, align 8
  call void @llvm.dbg.declare(metadata %"alloc::sync::ArcInner<std::thread::Inner>"** %val.dbg.spill, metadata !1074, metadata !DIExpression()), !dbg !1075
  store i64 48, i64* %0, align 8, !dbg !1076
  %1 = load i64, i64* %0, align 8, !dbg !1076
  br label %bb1, !dbg !1076

bb1:                                              ; preds = %start
  ret i64 %1, !dbg !1077
}

; core::mem::align_of_val_raw::<alloc::sync::ArcInner<core::cell::UnsafeCell<core::option::Option<core::result::Result<(), alloc::boxed::Box<dyn core::any::Any + core::marker::Send>>>>>>
; Function Attrs: inlinehint nonlazybind uwtable
define internal i64 @_RINvNtCs3p84KrD9aKt_4core3mem16align_of_val_rawINtNtCs8RW06R9lH2S_5alloc4sync8ArcInnerINtNtB4_4cell10UnsafeCellINtNtB4_6option6OptionINtNtB4_6result6ResultuINtNtBO_5boxed3BoxDNtNtB4_3any3AnyNtNtB4_6marker4SendEL_EEEEEECs3Xe6qK9kNBx_21static_map_and_mutate(%"alloc::sync::ArcInner<std::cell::UnsafeCell<std::option::Option<std::result::Result<(), std::boxed::Box<dyn std::any::Any + std::marker::Send>>>>>"* %val) unnamed_addr #1 !dbg !1078 {
start:
  %0 = alloca i64, align 8
  %val.dbg.spill = alloca %"alloc::sync::ArcInner<std::cell::UnsafeCell<std::option::Option<std::result::Result<(), std::boxed::Box<dyn std::any::Any + std::marker::Send>>>>>"*, align 8
  store %"alloc::sync::ArcInner<std::cell::UnsafeCell<std::option::Option<std::result::Result<(), std::boxed::Box<dyn std::any::Any + std::marker::Send>>>>>"* %val, %"alloc::sync::ArcInner<std::cell::UnsafeCell<std::option::Option<std::result::Result<(), std::boxed::Box<dyn std::any::Any + std::marker::Send>>>>>"** %val.dbg.spill, align 8
  call void @llvm.dbg.declare(metadata %"alloc::sync::ArcInner<std::cell::UnsafeCell<std::option::Option<std::result::Result<(), std::boxed::Box<dyn std::any::Any + std::marker::Send>>>>>"** %val.dbg.spill, metadata !1080, metadata !DIExpression()), !dbg !1081
  store i64 8, i64* %0, align 8, !dbg !1082
  %1 = load i64, i64* %0, align 8, !dbg !1082
  br label %bb1, !dbg !1082

bb1:                                              ; preds = %start
  ret i64 %1, !dbg !1083
}

; core::mem::align_of_val_raw::<alloc::sync::ArcInner<std::sync::mutex::Mutex<alloc::vec::Vec<u8>>>>
; Function Attrs: inlinehint nonlazybind uwtable
define internal i64 @_RINvNtCs3p84KrD9aKt_4core3mem16align_of_val_rawINtNtCs8RW06R9lH2S_5alloc4sync8ArcInnerINtNtNtCs2bNvlddUlXM_3std4sync5mutex5MutexINtNtBO_3vec3VechEEEECs3Xe6qK9kNBx_21static_map_and_mutate(%"alloc::sync::ArcInner<std::sync::Mutex<std::vec::Vec<u8>>>"* %val) unnamed_addr #1 !dbg !1084 {
start:
  %0 = alloca i64, align 8
  %val.dbg.spill = alloca %"alloc::sync::ArcInner<std::sync::Mutex<std::vec::Vec<u8>>>"*, align 8
  store %"alloc::sync::ArcInner<std::sync::Mutex<std::vec::Vec<u8>>>"* %val, %"alloc::sync::ArcInner<std::sync::Mutex<std::vec::Vec<u8>>>"** %val.dbg.spill, align 8
  call void @llvm.dbg.declare(metadata %"alloc::sync::ArcInner<std::sync::Mutex<std::vec::Vec<u8>>>"** %val.dbg.spill, metadata !1086, metadata !DIExpression()), !dbg !1087
  store i64 8, i64* %0, align 8, !dbg !1088
  %1 = load i64, i64* %0, align 8, !dbg !1088
  br label %bb1, !dbg !1088

bb1:                                              ; preds = %start
  ret i64 %1, !dbg !1089
}

; core::mem::align_of_val_raw::<alloc::sync::ArcInner<std::thread::Inner>>
; Function Attrs: inlinehint nonlazybind uwtable
define internal i64 @_RINvNtCs3p84KrD9aKt_4core3mem16align_of_val_rawINtNtCs8RW06R9lH2S_5alloc4sync8ArcInnerNtNtCs2bNvlddUlXM_3std6thread5InnerEECs3Xe6qK9kNBx_21static_map_and_mutate(%"alloc::sync::ArcInner<std::thread::Inner>"* %val) unnamed_addr #1 !dbg !1090 {
start:
  %0 = alloca i64, align 8
  %val.dbg.spill = alloca %"alloc::sync::ArcInner<std::thread::Inner>"*, align 8
  store %"alloc::sync::ArcInner<std::thread::Inner>"* %val, %"alloc::sync::ArcInner<std::thread::Inner>"** %val.dbg.spill, align 8
  call void @llvm.dbg.declare(metadata %"alloc::sync::ArcInner<std::thread::Inner>"** %val.dbg.spill, metadata !1092, metadata !DIExpression()), !dbg !1093
  store i64 8, i64* %0, align 8, !dbg !1094
  %1 = load i64, i64* %0, align 8, !dbg !1094
  br label %bb1, !dbg !1094

bb1:                                              ; preds = %start
  ret i64 %1, !dbg !1095
}

; core::mem::drop::<alloc::sync::Weak<core::cell::UnsafeCell<core::option::Option<core::result::Result<(), alloc::boxed::Box<dyn core::any::Any + core::marker::Send>>>>>>
; Function Attrs: inlinehint nonlazybind uwtable
define internal void @_RINvNtCs3p84KrD9aKt_4core3mem4dropINtNtCs8RW06R9lH2S_5alloc4sync4WeakINtNtB4_4cell10UnsafeCellINtNtB4_6option6OptionINtNtB4_6result6ResultuINtNtBB_5boxed3BoxDNtNtB4_3any3AnyNtNtB4_6marker4SendEL_EEEEEECs3Xe6qK9kNBx_21static_map_and_mutate(i64* nonnull %0) unnamed_addr #1 !dbg !1096 {
start:
  %_x = alloca i64*, align 8
  store i64* %0, i64** %_x, align 8
  call void @llvm.dbg.declare(metadata i64** %_x, metadata !1103, metadata !DIExpression()), !dbg !1106
; call core::ptr::drop_in_place::<alloc::sync::Weak<core::cell::UnsafeCell<core::option::Option<core::result::Result<(), alloc::boxed::Box<dyn core::any::Any + core::marker::Send>>>>>>
  call void @_RINvNtCs3p84KrD9aKt_4core3ptr13drop_in_placeINtNtCs8RW06R9lH2S_5alloc4sync4WeakINtNtB4_4cell10UnsafeCellINtNtB4_6option6OptionINtNtB4_6result6ResultuINtNtBL_5boxed3BoxDNtNtB4_3any3AnyNtNtB4_6marker4SendEL_EEEEEECs3Xe6qK9kNBx_21static_map_and_mutate(i64** %_x), !dbg !1107
  br label %bb1, !dbg !1107

bb1:                                              ; preds = %start
  ret void, !dbg !1108
}

; core::mem::drop::<alloc::sync::Weak<std::sync::mutex::Mutex<alloc::vec::Vec<u8>>>>
; Function Attrs: inlinehint nonlazybind uwtable
define internal void @_RINvNtCs3p84KrD9aKt_4core3mem4dropINtNtCs8RW06R9lH2S_5alloc4sync4WeakINtNtNtCs2bNvlddUlXM_3std4sync5mutex5MutexINtNtBB_3vec3VechEEEECs3Xe6qK9kNBx_21static_map_and_mutate(i64* nonnull %0) unnamed_addr #1 !dbg !1109 {
start:
  %_x = alloca i64*, align 8
  store i64* %0, i64** %_x, align 8
  call void @llvm.dbg.declare(metadata i64** %_x, metadata !1116, metadata !DIExpression()), !dbg !1119
; call core::ptr::drop_in_place::<alloc::sync::Weak<std::sync::mutex::Mutex<alloc::vec::Vec<u8>>>>
  call void @_RINvNtCs3p84KrD9aKt_4core3ptr13drop_in_placeINtNtCs8RW06R9lH2S_5alloc4sync4WeakINtNtNtCs2bNvlddUlXM_3std4sync5mutex5MutexINtNtBL_3vec3VechEEEECs3Xe6qK9kNBx_21static_map_and_mutate(i64** %_x), !dbg !1120
  br label %bb1, !dbg !1120

bb1:                                              ; preds = %start
  ret void, !dbg !1121
}

; core::mem::drop::<alloc::sync::Weak<std::thread::Inner>>
; Function Attrs: inlinehint nonlazybind uwtable
define internal void @_RINvNtCs3p84KrD9aKt_4core3mem4dropINtNtCs8RW06R9lH2S_5alloc4sync4WeakNtNtCs2bNvlddUlXM_3std6thread5InnerEECs3Xe6qK9kNBx_21static_map_and_mutate(i64* nonnull %0) unnamed_addr #1 !dbg !1122 {
start:
  %_x = alloca i64*, align 8
  store i64* %0, i64** %_x, align 8
  call void @llvm.dbg.declare(metadata i64** %_x, metadata !1129, metadata !DIExpression()), !dbg !1132
; call core::ptr::drop_in_place::<alloc::sync::Weak<std::thread::Inner>>
  call void @_RINvNtCs3p84KrD9aKt_4core3ptr13drop_in_placeINtNtCs8RW06R9lH2S_5alloc4sync4WeakNtNtCs2bNvlddUlXM_3std6thread5InnerEECs3Xe6qK9kNBx_21static_map_and_mutate(i64** %_x), !dbg !1133
  br label %bb1, !dbg !1133

bb1:                                              ; preds = %start
  ret void, !dbg !1134
}

; core::mem::swap::<core::option::Option<core::result::Result<(), alloc::boxed::Box<dyn core::any::Any + core::marker::Send>>>>
; Function Attrs: inlinehint nonlazybind uwtable
define internal void @_RINvNtCs3p84KrD9aKt_4core3mem4swapINtNtB4_6option6OptionINtNtB4_6result6ResultuINtNtCs8RW06R9lH2S_5alloc5boxed3BoxDNtNtB4_3any3AnyNtNtB4_6marker4SendEL_EEEECs3Xe6qK9kNBx_21static_map_and_mutate(%"std::option::Option<std::result::Result<(), std::boxed::Box<dyn std::any::Any + std::marker::Send>>>"* align 8 dereferenceable(24) %x, %"std::option::Option<std::result::Result<(), std::boxed::Box<dyn std::any::Any + std::marker::Send>>>"* align 8 dereferenceable(24) %y) unnamed_addr #1 !dbg !1135 {
start:
  %y.dbg.spill = alloca %"std::option::Option<std::result::Result<(), std::boxed::Box<dyn std::any::Any + std::marker::Send>>>"*, align 8
  %x.dbg.spill = alloca %"std::option::Option<std::result::Result<(), std::boxed::Box<dyn std::any::Any + std::marker::Send>>>"*, align 8
  store %"std::option::Option<std::result::Result<(), std::boxed::Box<dyn std::any::Any + std::marker::Send>>>"* %x, %"std::option::Option<std::result::Result<(), std::boxed::Box<dyn std::any::Any + std::marker::Send>>>"** %x.dbg.spill, align 8
  call void @llvm.dbg.declare(metadata %"std::option::Option<std::result::Result<(), std::boxed::Box<dyn std::any::Any + std::marker::Send>>>"** %x.dbg.spill, metadata !1140, metadata !DIExpression()), !dbg !1142
  store %"std::option::Option<std::result::Result<(), std::boxed::Box<dyn std::any::Any + std::marker::Send>>>"* %y, %"std::option::Option<std::result::Result<(), std::boxed::Box<dyn std::any::Any + std::marker::Send>>>"** %y.dbg.spill, align 8
  call void @llvm.dbg.declare(metadata %"std::option::Option<std::result::Result<(), std::boxed::Box<dyn std::any::Any + std::marker::Send>>>"** %y.dbg.spill, metadata !1141, metadata !DIExpression()), !dbg !1143
; call core::ptr::swap_nonoverlapping_one::<core::option::Option<core::result::Result<(), alloc::boxed::Box<dyn core::any::Any + core::marker::Send>>>>
  call void @_RINvNtCs3p84KrD9aKt_4core3ptr23swap_nonoverlapping_oneINtNtB4_6option6OptionINtNtB4_6result6ResultuINtNtCs8RW06R9lH2S_5alloc5boxed3BoxDNtNtB4_3any3AnyNtNtB4_6marker4SendEL_EEEECs3Xe6qK9kNBx_21static_map_and_mutate(%"std::option::Option<std::result::Result<(), std::boxed::Box<dyn std::any::Any + std::marker::Send>>>"* %x, %"std::option::Option<std::result::Result<(), std::boxed::Box<dyn std::any::Any + std::marker::Send>>>"* %y), !dbg !1144
  br label %bb1, !dbg !1144

bb1:                                              ; preds = %start
  ret void, !dbg !1145
}

; core::mem::swap::<core::option::Option<std::sys::unix::thread::Thread>>
; Function Attrs: inlinehint nonlazybind uwtable
define internal void @_RINvNtCs3p84KrD9aKt_4core3mem4swapINtNtB4_6option6OptionNtNtNtNtCs2bNvlddUlXM_3std3sys4unix6thread6ThreadEECs3Xe6qK9kNBx_21static_map_and_mutate({ i64, i64 }* align 8 dereferenceable(16) %x, { i64, i64 }* align 8 dereferenceable(16) %y) unnamed_addr #1 !dbg !1146 {
start:
  %y.dbg.spill = alloca { i64, i64 }*, align 8
  %x.dbg.spill = alloca { i64, i64 }*, align 8
  store { i64, i64 }* %x, { i64, i64 }** %x.dbg.spill, align 8
  call void @llvm.dbg.declare(metadata { i64, i64 }** %x.dbg.spill, metadata !1151, metadata !DIExpression()), !dbg !1153
  store { i64, i64 }* %y, { i64, i64 }** %y.dbg.spill, align 8
  call void @llvm.dbg.declare(metadata { i64, i64 }** %y.dbg.spill, metadata !1152, metadata !DIExpression()), !dbg !1154
; call core::ptr::swap_nonoverlapping_one::<core::option::Option<std::sys::unix::thread::Thread>>
  call void @_RINvNtCs3p84KrD9aKt_4core3ptr23swap_nonoverlapping_oneINtNtB4_6option6OptionNtNtNtNtCs2bNvlddUlXM_3std3sys4unix6thread6ThreadEECs3Xe6qK9kNBx_21static_map_and_mutate({ i64, i64 }* %x, { i64, i64 }* %y), !dbg !1155
  br label %bb1, !dbg !1155

bb1:                                              ; preds = %start
  ret void, !dbg !1156
}

; core::mem::take::<core::option::Option<core::result::Result<(), alloc::boxed::Box<dyn core::any::Any + core::marker::Send>>>>
; Function Attrs: inlinehint nonlazybind uwtable
define internal void @_RINvNtCs3p84KrD9aKt_4core3mem4takeINtNtB4_6option6OptionINtNtB4_6result6ResultuINtNtCs8RW06R9lH2S_5alloc5boxed3BoxDNtNtB4_3any3AnyNtNtB4_6marker4SendEL_EEEECs3Xe6qK9kNBx_21static_map_and_mutate(%"std::option::Option<std::result::Result<(), std::boxed::Box<dyn std::any::Any + std::marker::Send>>>"* noalias nocapture sret dereferenceable(24) %0, %"std::option::Option<std::result::Result<(), std::boxed::Box<dyn std::any::Any + std::marker::Send>>>"* align 8 dereferenceable(24) %dest) unnamed_addr #1 !dbg !1157 {
start:
  %dest.dbg.spill = alloca %"std::option::Option<std::result::Result<(), std::boxed::Box<dyn std::any::Any + std::marker::Send>>>"*, align 8
  %_3 = alloca %"std::option::Option<std::result::Result<(), std::boxed::Box<dyn std::any::Any + std::marker::Send>>>", align 8
  store %"std::option::Option<std::result::Result<(), std::boxed::Box<dyn std::any::Any + std::marker::Send>>>"* %dest, %"std::option::Option<std::result::Result<(), std::boxed::Box<dyn std::any::Any + std::marker::Send>>>"** %dest.dbg.spill, align 8
  call void @llvm.dbg.declare(metadata %"std::option::Option<std::result::Result<(), std::boxed::Box<dyn std::any::Any + std::marker::Send>>>"** %dest.dbg.spill, metadata !1161, metadata !DIExpression()), !dbg !1162
; call <core::option::Option<core::result::Result<(), alloc::boxed::Box<dyn core::any::Any + core::marker::Send>>> as core::default::Default>::default
  call void @_RNvXs9_NtCs3p84KrD9aKt_4core6optionINtB5_6OptionINtNtB7_6result6ResultuINtNtCs8RW06R9lH2S_5alloc5boxed3BoxDNtNtB7_3any3AnyNtNtB7_6marker4SendEL_EEENtNtB7_7default7Default7defaultCs3Xe6qK9kNBx_21static_map_and_mutate(%"std::option::Option<std::result::Result<(), std::boxed::Box<dyn std::any::Any + std::marker::Send>>>"* noalias nocapture sret dereferenceable(24) %_3), !dbg !1163
  br label %bb1, !dbg !1163

bb1:                                              ; preds = %start
; call core::mem::replace::<core::option::Option<core::result::Result<(), alloc::boxed::Box<dyn core::any::Any + core::marker::Send>>>>
  call void @_RINvNtCs3p84KrD9aKt_4core3mem7replaceINtNtB4_6option6OptionINtNtB4_6result6ResultuINtNtCs8RW06R9lH2S_5alloc5boxed3BoxDNtNtB4_3any3AnyNtNtB4_6marker4SendEL_EEEECs3Xe6qK9kNBx_21static_map_and_mutate(%"std::option::Option<std::result::Result<(), std::boxed::Box<dyn std::any::Any + std::marker::Send>>>"* noalias nocapture sret dereferenceable(24) %0, %"std::option::Option<std::result::Result<(), std::boxed::Box<dyn std::any::Any + std::marker::Send>>>"* align 8 dereferenceable(24) %dest, %"std::option::Option<std::result::Result<(), std::boxed::Box<dyn std::any::Any + std::marker::Send>>>"* noalias nocapture dereferenceable(24) %_3), !dbg !1164
  br label %bb2, !dbg !1164

bb2:                                              ; preds = %bb1
  ret void, !dbg !1165
}

; core::mem::take::<core::option::Option<std::sys::unix::thread::Thread>>
; Function Attrs: inlinehint nonlazybind uwtable
define internal { i64, i64 } @_RINvNtCs3p84KrD9aKt_4core3mem4takeINtNtB4_6option6OptionNtNtNtNtCs2bNvlddUlXM_3std3sys4unix6thread6ThreadEECs3Xe6qK9kNBx_21static_map_and_mutate({ i64, i64 }* align 8 dereferenceable(16) %dest) unnamed_addr #1 !dbg !1166 {
start:
  %dest.dbg.spill = alloca { i64, i64 }*, align 8
  store { i64, i64 }* %dest, { i64, i64 }** %dest.dbg.spill, align 8
  call void @llvm.dbg.declare(metadata { i64, i64 }** %dest.dbg.spill, metadata !1170, metadata !DIExpression()), !dbg !1171
; call <core::option::Option<std::sys::unix::thread::Thread> as core::default::Default>::default
  %0 = call { i64, i64 } @_RNvXs9_NtCs3p84KrD9aKt_4core6optionINtB5_6OptionNtNtNtNtCs2bNvlddUlXM_3std3sys4unix6thread6ThreadENtNtB7_7default7Default7defaultCs3Xe6qK9kNBx_21static_map_and_mutate(), !dbg !1172
  %_3.0 = extractvalue { i64, i64 } %0, 0, !dbg !1172
  %_3.1 = extractvalue { i64, i64 } %0, 1, !dbg !1172
  br label %bb1, !dbg !1172

bb1:                                              ; preds = %start
; call core::mem::replace::<core::option::Option<std::sys::unix::thread::Thread>>
  %1 = call { i64, i64 } @_RINvNtCs3p84KrD9aKt_4core3mem7replaceINtNtB4_6option6OptionNtNtNtNtCs2bNvlddUlXM_3std3sys4unix6thread6ThreadEECs3Xe6qK9kNBx_21static_map_and_mutate({ i64, i64 }* align 8 dereferenceable(16) %dest, i64 %_3.0, i64 %_3.1), !dbg !1173
  %2 = extractvalue { i64, i64 } %1, 0, !dbg !1173
  %3 = extractvalue { i64, i64 } %1, 1, !dbg !1173
  br label %bb2, !dbg !1173

bb2:                                              ; preds = %bb1
  %4 = insertvalue { i64, i64 } undef, i64 %2, 0, !dbg !1174
  %5 = insertvalue { i64, i64 } %4, i64 %3, 1, !dbg !1174
  ret { i64, i64 } %5, !dbg !1174
}

; core::mem::replace::<core::option::Option<core::result::Result<(), alloc::boxed::Box<dyn core::any::Any + core::marker::Send>>>>
; Function Attrs: inlinehint nonlazybind uwtable
define internal void @_RINvNtCs3p84KrD9aKt_4core3mem7replaceINtNtB4_6option6OptionINtNtB4_6result6ResultuINtNtCs8RW06R9lH2S_5alloc5boxed3BoxDNtNtB4_3any3AnyNtNtB4_6marker4SendEL_EEEECs3Xe6qK9kNBx_21static_map_and_mutate(%"std::option::Option<std::result::Result<(), std::boxed::Box<dyn std::any::Any + std::marker::Send>>>"* noalias nocapture sret dereferenceable(24) %0, %"std::option::Option<std::result::Result<(), std::boxed::Box<dyn std::any::Any + std::marker::Send>>>"* align 8 dereferenceable(24) %dest, %"std::option::Option<std::result::Result<(), std::boxed::Box<dyn std::any::Any + std::marker::Send>>>"* noalias nocapture dereferenceable(24) %src) unnamed_addr #1 personality i32 (i32, i32, i64, %"unwind::libunwind::_Unwind_Exception"*, %"unwind::libunwind::_Unwind_Context"*)* @rust_eh_personality !dbg !1175 {
start:
  %1 = alloca { i8*, i32 }, align 8
  %dest.dbg.spill = alloca %"std::option::Option<std::result::Result<(), std::boxed::Box<dyn std::any::Any + std::marker::Send>>>"*, align 8
  store %"std::option::Option<std::result::Result<(), std::boxed::Box<dyn std::any::Any + std::marker::Send>>>"* %dest, %"std::option::Option<std::result::Result<(), std::boxed::Box<dyn std::any::Any + std::marker::Send>>>"** %dest.dbg.spill, align 8
  call void @llvm.dbg.declare(metadata %"std::option::Option<std::result::Result<(), std::boxed::Box<dyn std::any::Any + std::marker::Send>>>"** %dest.dbg.spill, metadata !1179, metadata !DIExpression()), !dbg !1181
  call void @llvm.dbg.declare(metadata %"std::option::Option<std::result::Result<(), std::boxed::Box<dyn std::any::Any + std::marker::Send>>>"* %src, metadata !1180, metadata !DIExpression()), !dbg !1182
; invoke core::mem::swap::<core::option::Option<core::result::Result<(), alloc::boxed::Box<dyn core::any::Any + core::marker::Send>>>>
  invoke void @_RINvNtCs3p84KrD9aKt_4core3mem4swapINtNtB4_6option6OptionINtNtB4_6result6ResultuINtNtCs8RW06R9lH2S_5alloc5boxed3BoxDNtNtB4_3any3AnyNtNtB4_6marker4SendEL_EEEECs3Xe6qK9kNBx_21static_map_and_mutate(%"std::option::Option<std::result::Result<(), std::boxed::Box<dyn std::any::Any + std::marker::Send>>>"* align 8 dereferenceable(24) %dest, %"std::option::Option<std::result::Result<(), std::boxed::Box<dyn std::any::Any + std::marker::Send>>>"* align 8 dereferenceable(24) %src)
          to label %bb1 unwind label %cleanup, !dbg !1183

bb1:                                              ; preds = %start
  %2 = bitcast %"std::option::Option<std::result::Result<(), std::boxed::Box<dyn std::any::Any + std::marker::Send>>>"* %0 to i8*, !dbg !1184
  %3 = bitcast %"std::option::Option<std::result::Result<(), std::boxed::Box<dyn std::any::Any + std::marker::Send>>>"* %src to i8*, !dbg !1184
  call void @llvm.memcpy.p0i8.p0i8.i64(i8* align 8 %2, i8* align 8 %3, i64 24, i1 false), !dbg !1184
  ret void, !dbg !1185

bb2:                                              ; preds = %cleanup
; call core::ptr::drop_in_place::<core::option::Option<core::result::Result<(), alloc::boxed::Box<dyn core::any::Any + core::marker::Send>>>>
  call void @_RINvNtCs3p84KrD9aKt_4core3ptr13drop_in_placeINtNtB4_6option6OptionINtNtB4_6result6ResultuINtNtCs8RW06R9lH2S_5alloc5boxed3BoxDNtNtB4_3any3AnyNtNtB4_6marker4SendEL_EEEECs3Xe6qK9kNBx_21static_map_and_mutate(%"std::option::Option<std::result::Result<(), std::boxed::Box<dyn std::any::Any + std::marker::Send>>>"* %src) #13, !dbg !1186
  br label %bb3, !dbg !1186

bb3:                                              ; preds = %bb2
  %4 = bitcast { i8*, i32 }* %1 to i8**, !dbg !1187
  %5 = load i8*, i8** %4, align 8, !dbg !1187
  %6 = getelementptr inbounds { i8*, i32 }, { i8*, i32 }* %1, i32 0, i32 1, !dbg !1187
  %7 = load i32, i32* %6, align 8, !dbg !1187
  %8 = insertvalue { i8*, i32 } undef, i8* %5, 0, !dbg !1187
  %9 = insertvalue { i8*, i32 } %8, i32 %7, 1, !dbg !1187
  resume { i8*, i32 } %9, !dbg !1187

cleanup:                                          ; preds = %start
  %10 = landingpad { i8*, i32 }
          cleanup
  %11 = extractvalue { i8*, i32 } %10, 0
  %12 = extractvalue { i8*, i32 } %10, 1
  %13 = getelementptr inbounds { i8*, i32 }, { i8*, i32 }* %1, i32 0, i32 0
  store i8* %11, i8** %13, align 8
  %14 = getelementptr inbounds { i8*, i32 }, { i8*, i32 }* %1, i32 0, i32 1
  store i32 %12, i32* %14, align 8
  br label %bb2
}

; core::mem::replace::<core::option::Option<std::sys::unix::thread::Thread>>
; Function Attrs: inlinehint nonlazybind uwtable
define internal { i64, i64 } @_RINvNtCs3p84KrD9aKt_4core3mem7replaceINtNtB4_6option6OptionNtNtNtNtCs2bNvlddUlXM_3std3sys4unix6thread6ThreadEECs3Xe6qK9kNBx_21static_map_and_mutate({ i64, i64 }* align 8 dereferenceable(16) %dest, i64 %0, i64 %1) unnamed_addr #1 personality i32 (i32, i32, i64, %"unwind::libunwind::_Unwind_Exception"*, %"unwind::libunwind::_Unwind_Context"*)* @rust_eh_personality !dbg !1188 {
start:
  %2 = alloca { i8*, i32 }, align 8
  %dest.dbg.spill = alloca { i64, i64 }*, align 8
  %src = alloca { i64, i64 }, align 8
  %3 = getelementptr inbounds { i64, i64 }, { i64, i64 }* %src, i32 0, i32 0
  store i64 %0, i64* %3, align 8
  %4 = getelementptr inbounds { i64, i64 }, { i64, i64 }* %src, i32 0, i32 1
  store i64 %1, i64* %4, align 8
  store { i64, i64 }* %dest, { i64, i64 }** %dest.dbg.spill, align 8
  call void @llvm.dbg.declare(metadata { i64, i64 }** %dest.dbg.spill, metadata !1192, metadata !DIExpression()), !dbg !1194
  call void @llvm.dbg.declare(metadata { i64, i64 }* %src, metadata !1193, metadata !DIExpression()), !dbg !1195
; invoke core::mem::swap::<core::option::Option<std::sys::unix::thread::Thread>>
  invoke void @_RINvNtCs3p84KrD9aKt_4core3mem4swapINtNtB4_6option6OptionNtNtNtNtCs2bNvlddUlXM_3std3sys4unix6thread6ThreadEECs3Xe6qK9kNBx_21static_map_and_mutate({ i64, i64 }* align 8 dereferenceable(16) %dest, { i64, i64 }* align 8 dereferenceable(16) %src)
          to label %bb1 unwind label %cleanup, !dbg !1196

bb1:                                              ; preds = %start
  %5 = getelementptr inbounds { i64, i64 }, { i64, i64 }* %src, i32 0, i32 0, !dbg !1197
  %6 = load i64, i64* %5, align 8, !dbg !1197, !range !491
  %7 = getelementptr inbounds { i64, i64 }, { i64, i64 }* %src, i32 0, i32 1, !dbg !1197
  %8 = load i64, i64* %7, align 8, !dbg !1197
  %9 = insertvalue { i64, i64 } undef, i64 %6, 0, !dbg !1198
  %10 = insertvalue { i64, i64 } %9, i64 %8, 1, !dbg !1198
  ret { i64, i64 } %10, !dbg !1198

bb2:                                              ; preds = %cleanup
; call core::ptr::drop_in_place::<core::option::Option<std::sys::unix::thread::Thread>>
  call void @_RINvNtCs3p84KrD9aKt_4core3ptr13drop_in_placeINtNtB4_6option6OptionNtNtNtNtCs2bNvlddUlXM_3std3sys4unix6thread6ThreadEECs3Xe6qK9kNBx_21static_map_and_mutate({ i64, i64 }* %src) #13, !dbg !1199
  br label %bb3, !dbg !1199

bb3:                                              ; preds = %bb2
  %11 = bitcast { i8*, i32 }* %2 to i8**, !dbg !1200
  %12 = load i8*, i8** %11, align 8, !dbg !1200
  %13 = getelementptr inbounds { i8*, i32 }, { i8*, i32 }* %2, i32 0, i32 1, !dbg !1200
  %14 = load i32, i32* %13, align 8, !dbg !1200
  %15 = insertvalue { i8*, i32 } undef, i8* %12, 0, !dbg !1200
  %16 = insertvalue { i8*, i32 } %15, i32 %14, 1, !dbg !1200
  resume { i8*, i32 } %16, !dbg !1200

cleanup:                                          ; preds = %start
  %17 = landingpad { i8*, i32 }
          cleanup
  %18 = extractvalue { i8*, i32 } %17, 0
  %19 = extractvalue { i8*, i32 } %17, 1
  %20 = getelementptr inbounds { i8*, i32 }, { i8*, i32 }* %2, i32 0, i32 0
  store i8* %18, i8** %20, align 8
  %21 = getelementptr inbounds { i8*, i32 }, { i8*, i32 }* %2, i32 0, i32 1
  store i32 %19, i32* %21, align 8
  br label %bb2
}

; core::ptr::drop_in_place::<dyn core::any::Any + core::marker::Send>
; Function Attrs: nonlazybind uwtable
define internal void @_RINvNtCs3p84KrD9aKt_4core3ptr13drop_in_placeDNtNtB4_3any3AnyNtNtB4_6marker4SendEL_ECs3Xe6qK9kNBx_21static_map_and_mutate({}* %_1.0, [3 x i64]* noalias readonly align 8 dereferenceable(24) %_1.1) unnamed_addr #0 !dbg !1201 {
start:
  %_1.dbg.spill = alloca { {}*, [3 x i64]* }, align 8
  %0 = alloca {}, align 1
  %1 = getelementptr inbounds { {}*, [3 x i64]* }, { {}*, [3 x i64]* }* %_1.dbg.spill, i32 0, i32 0
  store {}* %_1.0, {}** %1, align 8
  %2 = getelementptr inbounds { {}*, [3 x i64]* }, { {}*, [3 x i64]* }* %_1.dbg.spill, i32 0, i32 1
  store [3 x i64]* %_1.1, [3 x i64]** %2, align 8
  call void @llvm.dbg.declare(metadata { {}*, [3 x i64]* }* %_1.dbg.spill, metadata !1210, metadata !DIExpression()), !dbg !1211
  %3 = bitcast [3 x i64]* %_1.1 to void ({}*)**, !dbg !1211
  %4 = getelementptr inbounds void ({}*)*, void ({}*)** %3, i64 0, !dbg !1211
  %5 = load void ({}*)*, void ({}*)** %4, align 8, !dbg !1211, !invariant.load !4, !nonnull !4
  call void %5({}* %_1.0), !dbg !1211
  br label %bb1, !dbg !1211

bb1:                                              ; preds = %start
  ret void, !dbg !1211
}

; core::ptr::drop_in_place::<dyn std::error::Error + core::marker::Send + core::marker::Sync>
; Function Attrs: nonlazybind uwtable
define internal void @_RINvNtCs3p84KrD9aKt_4core3ptr13drop_in_placeDNtNtCs2bNvlddUlXM_3std5error5ErrorNtNtB4_6marker4SendNtB1h_4SyncEL_ECs3Xe6qK9kNBx_21static_map_and_mutate({}* %_1.0, [3 x i64]* noalias readonly align 8 dereferenceable(24) %_1.1) unnamed_addr #0 !dbg !1212 {
start:
  %_1.dbg.spill = alloca { {}*, [3 x i64]* }, align 8
  %0 = alloca {}, align 1
  %1 = getelementptr inbounds { {}*, [3 x i64]* }, { {}*, [3 x i64]* }* %_1.dbg.spill, i32 0, i32 0
  store {}* %_1.0, {}** %1, align 8
  %2 = getelementptr inbounds { {}*, [3 x i64]* }, { {}*, [3 x i64]* }* %_1.dbg.spill, i32 0, i32 1
  store [3 x i64]* %_1.1, [3 x i64]** %2, align 8
  call void @llvm.dbg.declare(metadata { {}*, [3 x i64]* }* %_1.dbg.spill, metadata !1220, metadata !DIExpression()), !dbg !1221
  %3 = bitcast [3 x i64]* %_1.1 to void ({}*)**, !dbg !1221
  %4 = getelementptr inbounds void ({}*)*, void ({}*)** %3, i64 0, !dbg !1221
  %5 = load void ({}*)*, void ({}*)** %4, align 8, !dbg !1221, !invariant.load !4, !nonnull !4
  call void %5({}* %_1.0), !dbg !1221
  br label %bb1, !dbg !1221

bb1:                                              ; preds = %start
  ret void, !dbg !1221
}

; core::ptr::drop_in_place::<core::cell::UnsafeCell<core::option::Option<core::result::Result<(), alloc::boxed::Box<dyn core::any::Any + core::marker::Send>>>>>
; Function Attrs: nonlazybind uwtable
define internal void @_RINvNtCs3p84KrD9aKt_4core3ptr13drop_in_placeINtNtB4_4cell10UnsafeCellINtNtB4_6option6OptionINtNtB4_6result6ResultuINtNtCs8RW06R9lH2S_5alloc5boxed3BoxDNtNtB4_3any3AnyNtNtB4_6marker4SendEL_EEEEECs3Xe6qK9kNBx_21static_map_and_mutate(%"std::cell::UnsafeCell<std::option::Option<std::result::Result<(), std::boxed::Box<dyn std::any::Any + std::marker::Send>>>>"* %_1) unnamed_addr #0 !dbg !1222 {
start:
  %_1.dbg.spill = alloca %"std::cell::UnsafeCell<std::option::Option<std::result::Result<(), std::boxed::Box<dyn std::any::Any + std::marker::Send>>>>"*, align 8
  %0 = alloca {}, align 1
  store %"std::cell::UnsafeCell<std::option::Option<std::result::Result<(), std::boxed::Box<dyn std::any::Any + std::marker::Send>>>>"* %_1, %"std::cell::UnsafeCell<std::option::Option<std::result::Result<(), std::boxed::Box<dyn std::any::Any + std::marker::Send>>>>"** %_1.dbg.spill, align 8
  call void @llvm.dbg.declare(metadata %"std::cell::UnsafeCell<std::option::Option<std::result::Result<(), std::boxed::Box<dyn std::any::Any + std::marker::Send>>>>"** %_1.dbg.spill, metadata !1227, metadata !DIExpression()), !dbg !1228
  %1 = bitcast %"std::cell::UnsafeCell<std::option::Option<std::result::Result<(), std::boxed::Box<dyn std::any::Any + std::marker::Send>>>>"* %_1 to %"std::option::Option<std::result::Result<(), std::boxed::Box<dyn std::any::Any + std::marker::Send>>>"*, !dbg !1228
; call core::ptr::drop_in_place::<core::option::Option<core::result::Result<(), alloc::boxed::Box<dyn core::any::Any + core::marker::Send>>>>
  call void @_RINvNtCs3p84KrD9aKt_4core3ptr13drop_in_placeINtNtB4_6option6OptionINtNtB4_6result6ResultuINtNtCs8RW06R9lH2S_5alloc5boxed3BoxDNtNtB4_3any3AnyNtNtB4_6marker4SendEL_EEEECs3Xe6qK9kNBx_21static_map_and_mutate(%"std::option::Option<std::result::Result<(), std::boxed::Box<dyn std::any::Any + std::marker::Send>>>"* %1), !dbg !1228
  br label %bb1, !dbg !1228

bb1:                                              ; preds = %start
  ret void, !dbg !1228
}

; core::ptr::drop_in_place::<core::cell::UnsafeCell<alloc::vec::Vec<u8>>>
; Function Attrs: nonlazybind uwtable
define internal void @_RINvNtCs3p84KrD9aKt_4core3ptr13drop_in_placeINtNtB4_4cell10UnsafeCellINtNtCs8RW06R9lH2S_5alloc3vec3VechEEECs3Xe6qK9kNBx_21static_map_and_mutate(%"std::cell::UnsafeCell<std::vec::Vec<u8>>"* %_1) unnamed_addr #0 !dbg !1229 {
start:
  %_1.dbg.spill = alloca %"std::cell::UnsafeCell<std::vec::Vec<u8>>"*, align 8
  %0 = alloca {}, align 1
  store %"std::cell::UnsafeCell<std::vec::Vec<u8>>"* %_1, %"std::cell::UnsafeCell<std::vec::Vec<u8>>"** %_1.dbg.spill, align 8
  call void @llvm.dbg.declare(metadata %"std::cell::UnsafeCell<std::vec::Vec<u8>>"** %_1.dbg.spill, metadata !1234, metadata !DIExpression()), !dbg !1237
  %1 = bitcast %"std::cell::UnsafeCell<std::vec::Vec<u8>>"* %_1 to %"std::vec::Vec<u8>"*, !dbg !1237
; call core::ptr::drop_in_place::<alloc::vec::Vec<u8>>
  call void @_RINvNtCs3p84KrD9aKt_4core3ptr13drop_in_placeINtNtCs8RW06R9lH2S_5alloc3vec3VechEECs3Xe6qK9kNBx_21static_map_and_mutate(%"std::vec::Vec<u8>"* %1), !dbg !1237
  br label %bb1, !dbg !1237

bb1:                                              ; preds = %start
  ret void, !dbg !1237
}

; core::ptr::drop_in_place::<core::option::Option<core::result::Result<(), alloc::boxed::Box<dyn core::any::Any + core::marker::Send>>>>
; Function Attrs: nonlazybind uwtable
define internal void @_RINvNtCs3p84KrD9aKt_4core3ptr13drop_in_placeINtNtB4_6option6OptionINtNtB4_6result6ResultuINtNtCs8RW06R9lH2S_5alloc5boxed3BoxDNtNtB4_3any3AnyNtNtB4_6marker4SendEL_EEEECs3Xe6qK9kNBx_21static_map_and_mutate(%"std::option::Option<std::result::Result<(), std::boxed::Box<dyn std::any::Any + std::marker::Send>>>"* %_1) unnamed_addr #0 !dbg !1238 {
start:
  %_1.dbg.spill = alloca %"std::option::Option<std::result::Result<(), std::boxed::Box<dyn std::any::Any + std::marker::Send>>>"*, align 8
  %0 = alloca {}, align 1
  store %"std::option::Option<std::result::Result<(), std::boxed::Box<dyn std::any::Any + std::marker::Send>>>"* %_1, %"std::option::Option<std::result::Result<(), std::boxed::Box<dyn std::any::Any + std::marker::Send>>>"** %_1.dbg.spill, align 8
  call void @llvm.dbg.declare(metadata %"std::option::Option<std::result::Result<(), std::boxed::Box<dyn std::any::Any + std::marker::Send>>>"** %_1.dbg.spill, metadata !1242, metadata !DIExpression()), !dbg !1243
  %1 = bitcast %"std::option::Option<std::result::Result<(), std::boxed::Box<dyn std::any::Any + std::marker::Send>>>"* %_1 to i64*, !dbg !1243
  %_2 = load i64, i64* %1, align 8, !dbg !1243, !range !491
  %2 = icmp eq i64 %_2, 0, !dbg !1243
  br i1 %2, label %bb1, label %bb2, !dbg !1243

bb1:                                              ; preds = %bb2, %start
  ret void, !dbg !1243

bb2:                                              ; preds = %start
  %3 = bitcast %"std::option::Option<std::result::Result<(), std::boxed::Box<dyn std::any::Any + std::marker::Send>>>"* %_1 to %"std::option::Option<std::result::Result<(), std::boxed::Box<dyn std::any::Any + std::marker::Send>>>::Some"*, !dbg !1243
  %4 = getelementptr inbounds %"std::option::Option<std::result::Result<(), std::boxed::Box<dyn std::any::Any + std::marker::Send>>>::Some", %"std::option::Option<std::result::Result<(), std::boxed::Box<dyn std::any::Any + std::marker::Send>>>::Some"* %3, i32 0, i32 1, !dbg !1243
; call core::ptr::drop_in_place::<core::result::Result<(), alloc::boxed::Box<dyn core::any::Any + core::marker::Send>>>
  call void @_RINvNtCs3p84KrD9aKt_4core3ptr13drop_in_placeINtNtB4_6result6ResultuINtNtCs8RW06R9lH2S_5alloc5boxed3BoxDNtNtB4_3any3AnyNtNtB4_6marker4SendEL_EEECs3Xe6qK9kNBx_21static_map_and_mutate({ i8*, i8* }* %4), !dbg !1243
  br label %bb1, !dbg !1243
}

; core::ptr::drop_in_place::<core::option::Option<alloc::sync::Arc<std::sync::mutex::Mutex<alloc::vec::Vec<u8>>>>>
; Function Attrs: nonlazybind uwtable
define internal void @_RINvNtCs3p84KrD9aKt_4core3ptr13drop_in_placeINtNtB4_6option6OptionINtNtCs8RW06R9lH2S_5alloc4sync3ArcINtNtNtCs2bNvlddUlXM_3std4sync5mutex5MutexINtNtB17_3vec3VechEEEEECs3Xe6qK9kNBx_21static_map_and_mutate(i64** %_1) unnamed_addr #0 !dbg !1244 {
start:
  %_1.dbg.spill = alloca i64**, align 8
  %0 = alloca {}, align 1
  store i64** %_1, i64*** %_1.dbg.spill, align 8
  call void @llvm.dbg.declare(metadata i64*** %_1.dbg.spill, metadata !1249, metadata !DIExpression()), !dbg !1252
  %1 = bitcast i64** %_1 to {}**, !dbg !1252
  %2 = load {}*, {}** %1, align 8, !dbg !1252
  %3 = icmp eq {}* %2, null, !dbg !1252
  %_2 = select i1 %3, i64 0, i64 1, !dbg !1252
  %4 = icmp eq i64 %_2, 0, !dbg !1252
  br i1 %4, label %bb1, label %bb2, !dbg !1252

bb1:                                              ; preds = %bb2, %start
  ret void, !dbg !1252

bb2:                                              ; preds = %start
; call core::ptr::drop_in_place::<alloc::sync::Arc<std::sync::mutex::Mutex<alloc::vec::Vec<u8>>>>
  call void @_RINvNtCs3p84KrD9aKt_4core3ptr13drop_in_placeINtNtCs8RW06R9lH2S_5alloc4sync3ArcINtNtNtCs2bNvlddUlXM_3std4sync5mutex5MutexINtNtBL_3vec3VechEEEECs3Xe6qK9kNBx_21static_map_and_mutate(i64** %_1), !dbg !1252
  br label %bb1, !dbg !1252
}

; core::ptr::drop_in_place::<core::option::Option<alloc::string::String>>
; Function Attrs: nonlazybind uwtable
define internal void @_RINvNtCs3p84KrD9aKt_4core3ptr13drop_in_placeINtNtB4_6option6OptionNtNtCs8RW06R9lH2S_5alloc6string6StringEECs3Xe6qK9kNBx_21static_map_and_mutate(%"std::option::Option<std::string::String>"* %_1) unnamed_addr #0 !dbg !1253 {
start:
  %_1.dbg.spill = alloca %"std::option::Option<std::string::String>"*, align 8
  %0 = alloca {}, align 1
  store %"std::option::Option<std::string::String>"* %_1, %"std::option::Option<std::string::String>"** %_1.dbg.spill, align 8
  call void @llvm.dbg.declare(metadata %"std::option::Option<std::string::String>"** %_1.dbg.spill, metadata !1258, metadata !DIExpression()), !dbg !1261
  %1 = bitcast %"std::option::Option<std::string::String>"* %_1 to {}**, !dbg !1261
  %2 = load {}*, {}** %1, align 8, !dbg !1261
  %3 = icmp eq {}* %2, null, !dbg !1261
  %_2 = select i1 %3, i64 0, i64 1, !dbg !1261
  %4 = icmp eq i64 %_2, 0, !dbg !1261
  br i1 %4, label %bb1, label %bb2, !dbg !1261

bb1:                                              ; preds = %bb2, %start
  ret void, !dbg !1261

bb2:                                              ; preds = %start
  %5 = bitcast %"std::option::Option<std::string::String>"* %_1 to %"std::option::Option<std::string::String>::Some"*, !dbg !1261
  %6 = bitcast %"std::option::Option<std::string::String>::Some"* %5 to %"std::string::String"*, !dbg !1261
; call core::ptr::drop_in_place::<alloc::string::String>
  call void @_RINvNtCs3p84KrD9aKt_4core3ptr13drop_in_placeNtNtCs8RW06R9lH2S_5alloc6string6StringECs3Xe6qK9kNBx_21static_map_and_mutate(%"std::string::String"* %6), !dbg !1261
  br label %bb1, !dbg !1261
}

; core::ptr::drop_in_place::<core::option::Option<std::ffi::c_str::CString>>
; Function Attrs: nonlazybind uwtable
define internal void @_RINvNtCs3p84KrD9aKt_4core3ptr13drop_in_placeINtNtB4_6option6OptionNtNtNtCs2bNvlddUlXM_3std3ffi5c_str7CStringEECs3Xe6qK9kNBx_21static_map_and_mutate({ i8*, i64 }* %_1) unnamed_addr #0 !dbg !1262 {
start:
  %_1.dbg.spill = alloca { i8*, i64 }*, align 8
  %0 = alloca {}, align 1
  store { i8*, i64 }* %_1, { i8*, i64 }** %_1.dbg.spill, align 8
  call void @llvm.dbg.declare(metadata { i8*, i64 }** %_1.dbg.spill, metadata !1267, metadata !DIExpression()), !dbg !1270
  %1 = bitcast { i8*, i64 }* %_1 to {}**, !dbg !1270
  %2 = load {}*, {}** %1, align 8, !dbg !1270
  %3 = icmp eq {}* %2, null, !dbg !1270
  %_2 = select i1 %3, i64 0, i64 1, !dbg !1270
  %4 = icmp eq i64 %_2, 0, !dbg !1270
  br i1 %4, label %bb1, label %bb2, !dbg !1270

bb1:                                              ; preds = %bb2, %start
  ret void, !dbg !1270

bb2:                                              ; preds = %start
; call core::ptr::drop_in_place::<std::ffi::c_str::CString>
  call void @_RINvNtCs3p84KrD9aKt_4core3ptr13drop_in_placeNtNtNtCs2bNvlddUlXM_3std3ffi5c_str7CStringECs3Xe6qK9kNBx_21static_map_and_mutate({ i8*, i64 }* %_1), !dbg !1270
  br label %bb1, !dbg !1270
}

; core::ptr::drop_in_place::<core::option::Option<std::sys::unix::thread::Thread>>
; Function Attrs: nonlazybind uwtable
define internal void @_RINvNtCs3p84KrD9aKt_4core3ptr13drop_in_placeINtNtB4_6option6OptionNtNtNtNtCs2bNvlddUlXM_3std3sys4unix6thread6ThreadEECs3Xe6qK9kNBx_21static_map_and_mutate({ i64, i64 }* %_1) unnamed_addr #0 !dbg !1271 {
start:
  %_1.dbg.spill = alloca { i64, i64 }*, align 8
  %0 = alloca {}, align 1
  store { i64, i64 }* %_1, { i64, i64 }** %_1.dbg.spill, align 8
  call void @llvm.dbg.declare(metadata { i64, i64 }** %_1.dbg.spill, metadata !1275, metadata !DIExpression()), !dbg !1276
  %1 = bitcast { i64, i64 }* %_1 to i64*, !dbg !1276
  %_2 = load i64, i64* %1, align 8, !dbg !1276, !range !491
  %2 = icmp eq i64 %_2, 0, !dbg !1276
  br i1 %2, label %bb1, label %bb2, !dbg !1276

bb1:                                              ; preds = %bb2, %start
  ret void, !dbg !1276

bb2:                                              ; preds = %start
  %3 = bitcast { i64, i64 }* %_1 to %"std::option::Option<std::sys::unix::thread::Thread>::Some"*, !dbg !1276
  %4 = getelementptr inbounds %"std::option::Option<std::sys::unix::thread::Thread>::Some", %"std::option::Option<std::sys::unix::thread::Thread>::Some"* %3, i32 0, i32 1, !dbg !1276
; call core::ptr::drop_in_place::<std::sys::unix::thread::Thread>
  call void @_RINvNtCs3p84KrD9aKt_4core3ptr13drop_in_placeNtNtNtNtCs2bNvlddUlXM_3std3sys4unix6thread6ThreadECs3Xe6qK9kNBx_21static_map_and_mutate(i64* %4), !dbg !1276
  br label %bb1, !dbg !1276
}

; core::ptr::drop_in_place::<core::result::Result<std::thread::JoinHandle<()>, std::io::error::Error>>
; Function Attrs: nonlazybind uwtable
define internal void @_RINvNtCs3p84KrD9aKt_4core3ptr13drop_in_placeINtNtB4_6result6ResultINtNtCs2bNvlddUlXM_3std6thread10JoinHandleuENtNtNtB17_2io5error5ErrorEECs3Xe6qK9kNBx_21static_map_and_mutate(%"std::result::Result<std::thread::JoinHandle<()>, std::io::Error>"* %_1) unnamed_addr #0 !dbg !1277 {
start:
  %_1.dbg.spill = alloca %"std::result::Result<std::thread::JoinHandle<()>, std::io::Error>"*, align 8
  %0 = alloca {}, align 1
  store %"std::result::Result<std::thread::JoinHandle<()>, std::io::Error>"* %_1, %"std::result::Result<std::thread::JoinHandle<()>, std::io::Error>"** %_1.dbg.spill, align 8
  call void @llvm.dbg.declare(metadata %"std::result::Result<std::thread::JoinHandle<()>, std::io::Error>"** %_1.dbg.spill, metadata !1282, metadata !DIExpression()), !dbg !1285
  %1 = bitcast %"std::result::Result<std::thread::JoinHandle<()>, std::io::Error>"* %_1 to i64*, !dbg !1285
  %_2 = load i64, i64* %1, align 8, !dbg !1285, !range !491
  %2 = icmp eq i64 %_2, 0, !dbg !1285
  br i1 %2, label %bb2, label %bb3, !dbg !1285

bb1:                                              ; preds = %bb2, %bb3
  ret void, !dbg !1285

bb2:                                              ; preds = %start
  %3 = bitcast %"std::result::Result<std::thread::JoinHandle<()>, std::io::Error>"* %_1 to %"std::result::Result<std::thread::JoinHandle<()>, std::io::Error>::Ok"*, !dbg !1285
  %4 = getelementptr inbounds %"std::result::Result<std::thread::JoinHandle<()>, std::io::Error>::Ok", %"std::result::Result<std::thread::JoinHandle<()>, std::io::Error>::Ok"* %3, i32 0, i32 1, !dbg !1285
; call core::ptr::drop_in_place::<std::thread::JoinHandle<()>>
  call void @_RINvNtCs3p84KrD9aKt_4core3ptr13drop_in_placeINtNtCs2bNvlddUlXM_3std6thread10JoinHandleuEECs3Xe6qK9kNBx_21static_map_and_mutate(%"std::thread::JoinHandle<()>"* %4), !dbg !1285
  br label %bb1, !dbg !1285

bb3:                                              ; preds = %start
  %5 = bitcast %"std::result::Result<std::thread::JoinHandle<()>, std::io::Error>"* %_1 to %"std::result::Result<std::thread::JoinHandle<()>, std::io::Error>::Err"*, !dbg !1285
  %6 = getelementptr inbounds %"std::result::Result<std::thread::JoinHandle<()>, std::io::Error>::Err", %"std::result::Result<std::thread::JoinHandle<()>, std::io::Error>::Err"* %5, i32 0, i32 1, !dbg !1285
; call core::ptr::drop_in_place::<std::io::error::Error>
  call void @_RINvNtCs3p84KrD9aKt_4core3ptr13drop_in_placeNtNtNtCs2bNvlddUlXM_3std2io5error5ErrorECs3Xe6qK9kNBx_21static_map_and_mutate(%"std::io::Error"* %6), !dbg !1285
  br label %bb1, !dbg !1285
}

; core::ptr::drop_in_place::<core::result::Result<(), alloc::boxed::Box<dyn core::any::Any + core::marker::Send>>>
; Function Attrs: nonlazybind uwtable
define internal void @_RINvNtCs3p84KrD9aKt_4core3ptr13drop_in_placeINtNtB4_6result6ResultuINtNtCs8RW06R9lH2S_5alloc5boxed3BoxDNtNtB4_3any3AnyNtNtB4_6marker4SendEL_EEECs3Xe6qK9kNBx_21static_map_and_mutate({ i8*, i8* }* %_1) unnamed_addr #0 !dbg !1286 {
start:
  %_1.dbg.spill = alloca { i8*, i8* }*, align 8
  %0 = alloca {}, align 1
  store { i8*, i8* }* %_1, { i8*, i8* }** %_1.dbg.spill, align 8
  call void @llvm.dbg.declare(metadata { i8*, i8* }** %_1.dbg.spill, metadata !1291, metadata !DIExpression()), !dbg !1292
  %1 = bitcast { i8*, i8* }* %_1 to {}**, !dbg !1292
  %2 = load {}*, {}** %1, align 8, !dbg !1292
  %3 = icmp eq {}* %2, null, !dbg !1292
  %_2 = select i1 %3, i64 0, i64 1, !dbg !1292
  %4 = icmp eq i64 %_2, 0, !dbg !1292
  br i1 %4, label %bb1, label %bb2, !dbg !1292

bb1:                                              ; preds = %bb2, %start
  ret void, !dbg !1292

bb2:                                              ; preds = %start
  %5 = bitcast { i8*, i8* }* %_1 to { {}*, [3 x i64]* }*, !dbg !1292
; call core::ptr::drop_in_place::<alloc::boxed::Box<dyn core::any::Any + core::marker::Send>>
  call void @_RINvNtCs3p84KrD9aKt_4core3ptr13drop_in_placeINtNtCs8RW06R9lH2S_5alloc5boxed3BoxDNtNtB4_3any3AnyNtNtB4_6marker4SendEL_EECs3Xe6qK9kNBx_21static_map_and_mutate({ {}*, [3 x i64]* }* %5), !dbg !1292
  br label %bb1, !dbg !1292
}

; core::ptr::drop_in_place::<std::thread::JoinHandle<()>>
; Function Attrs: nonlazybind uwtable
define internal void @_RINvNtCs3p84KrD9aKt_4core3ptr13drop_in_placeINtNtCs2bNvlddUlXM_3std6thread10JoinHandleuEECs3Xe6qK9kNBx_21static_map_and_mutate(%"std::thread::JoinHandle<()>"* %_1) unnamed_addr #0 !dbg !1293 {
start:
  %_1.dbg.spill = alloca %"std::thread::JoinHandle<()>"*, align 8
  %0 = alloca {}, align 1
  store %"std::thread::JoinHandle<()>"* %_1, %"std::thread::JoinHandle<()>"** %_1.dbg.spill, align 8
  call void @llvm.dbg.declare(metadata %"std::thread::JoinHandle<()>"** %_1.dbg.spill, metadata !1298, metadata !DIExpression()), !dbg !1300
  %1 = bitcast %"std::thread::JoinHandle<()>"* %_1 to %"std::thread::JoinInner<()>"*, !dbg !1300
; call core::ptr::drop_in_place::<std::thread::JoinInner<()>>
  call void @_RINvNtCs3p84KrD9aKt_4core3ptr13drop_in_placeINtNtCs2bNvlddUlXM_3std6thread9JoinInneruEECs3Xe6qK9kNBx_21static_map_and_mutate(%"std::thread::JoinInner<()>"* %1), !dbg !1300
  br label %bb1, !dbg !1300

bb1:                                              ; preds = %start
  ret void, !dbg !1300
}

; core::ptr::drop_in_place::<std::thread::Packet<()>>
; Function Attrs: nonlazybind uwtable
define internal void @_RINvNtCs3p84KrD9aKt_4core3ptr13drop_in_placeINtNtCs2bNvlddUlXM_3std6thread6PacketuEECs3Xe6qK9kNBx_21static_map_and_mutate(i64** %_1) unnamed_addr #0 !dbg !1301 {
start:
  %_1.dbg.spill = alloca i64**, align 8
  %0 = alloca {}, align 1
  store i64** %_1, i64*** %_1.dbg.spill, align 8
  call void @llvm.dbg.declare(metadata i64*** %_1.dbg.spill, metadata !1306, metadata !DIExpression()), !dbg !1309
; call core::ptr::drop_in_place::<alloc::sync::Arc<core::cell::UnsafeCell<core::option::Option<core::result::Result<(), alloc::boxed::Box<dyn core::any::Any + core::marker::Send>>>>>>
  call void @_RINvNtCs3p84KrD9aKt_4core3ptr13drop_in_placeINtNtCs8RW06R9lH2S_5alloc4sync3ArcINtNtB4_4cell10UnsafeCellINtNtB4_6option6OptionINtNtB4_6result6ResultuINtNtBL_5boxed3BoxDNtNtB4_3any3AnyNtNtB4_6marker4SendEL_EEEEEECs3Xe6qK9kNBx_21static_map_and_mutate(i64** %_1), !dbg !1309
  br label %bb1, !dbg !1309

bb1:                                              ; preds = %start
  ret void, !dbg !1309
}

; core::ptr::drop_in_place::<std::thread::JoinInner<()>>
; Function Attrs: nonlazybind uwtable
define internal void @_RINvNtCs3p84KrD9aKt_4core3ptr13drop_in_placeINtNtCs2bNvlddUlXM_3std6thread9JoinInneruEECs3Xe6qK9kNBx_21static_map_and_mutate(%"std::thread::JoinInner<()>"* %_1) unnamed_addr #0 personality i32 (i32, i32, i64, %"unwind::libunwind::_Unwind_Exception"*, %"unwind::libunwind::_Unwind_Context"*)* @rust_eh_personality !dbg !1310 {
start:
  %0 = alloca { i8*, i32 }, align 8
  %_1.dbg.spill = alloca %"std::thread::JoinInner<()>"*, align 8
  %1 = alloca {}, align 1
  store %"std::thread::JoinInner<()>"* %_1, %"std::thread::JoinInner<()>"** %_1.dbg.spill, align 8
  call void @llvm.dbg.declare(metadata %"std::thread::JoinInner<()>"** %_1.dbg.spill, metadata !1315, metadata !DIExpression()), !dbg !1318
  %2 = bitcast %"std::thread::JoinInner<()>"* %_1 to { i64, i64 }*, !dbg !1318
; invoke core::ptr::drop_in_place::<core::option::Option<std::sys::unix::thread::Thread>>
  invoke void @_RINvNtCs3p84KrD9aKt_4core3ptr13drop_in_placeINtNtB4_6option6OptionNtNtNtNtCs2bNvlddUlXM_3std3sys4unix6thread6ThreadEECs3Xe6qK9kNBx_21static_map_and_mutate({ i64, i64 }* %2)
          to label %bb6 unwind label %cleanup, !dbg !1318

bb1:                                              ; preds = %bb3
  %3 = bitcast { i8*, i32 }* %0 to i8**, !dbg !1318
  %4 = load i8*, i8** %3, align 8, !dbg !1318
  %5 = getelementptr inbounds { i8*, i32 }, { i8*, i32 }* %0, i32 0, i32 1, !dbg !1318
  %6 = load i32, i32* %5, align 8, !dbg !1318
  %7 = insertvalue { i8*, i32 } undef, i8* %4, 0, !dbg !1318
  %8 = insertvalue { i8*, i32 } %7, i32 %6, 1, !dbg !1318
  resume { i8*, i32 } %8, !dbg !1318

bb2:                                              ; preds = %bb5
  ret void, !dbg !1318

bb3:                                              ; preds = %cleanup1, %bb4
  %9 = getelementptr inbounds %"std::thread::JoinInner<()>", %"std::thread::JoinInner<()>"* %_1, i32 0, i32 5, !dbg !1318
; call core::ptr::drop_in_place::<std::thread::Packet<()>>
  call void @_RINvNtCs3p84KrD9aKt_4core3ptr13drop_in_placeINtNtCs2bNvlddUlXM_3std6thread6PacketuEECs3Xe6qK9kNBx_21static_map_and_mutate(i64** %9) #13, !dbg !1318
  br label %bb1, !dbg !1318

bb4:                                              ; preds = %cleanup
  %10 = getelementptr inbounds %"std::thread::JoinInner<()>", %"std::thread::JoinInner<()>"* %_1, i32 0, i32 3, !dbg !1318
; call core::ptr::drop_in_place::<std::thread::Thread>
  call void @_RINvNtCs3p84KrD9aKt_4core3ptr13drop_in_placeNtNtCs2bNvlddUlXM_3std6thread6ThreadECs3Xe6qK9kNBx_21static_map_and_mutate(i64** %10) #13, !dbg !1318
  br label %bb3, !dbg !1318

bb5:                                              ; preds = %bb6
  %11 = getelementptr inbounds %"std::thread::JoinInner<()>", %"std::thread::JoinInner<()>"* %_1, i32 0, i32 5, !dbg !1318
; call core::ptr::drop_in_place::<std::thread::Packet<()>>
  call void @_RINvNtCs3p84KrD9aKt_4core3ptr13drop_in_placeINtNtCs2bNvlddUlXM_3std6thread6PacketuEECs3Xe6qK9kNBx_21static_map_and_mutate(i64** %11), !dbg !1318
  br label %bb2, !dbg !1318

bb6:                                              ; preds = %start
  %12 = getelementptr inbounds %"std::thread::JoinInner<()>", %"std::thread::JoinInner<()>"* %_1, i32 0, i32 3, !dbg !1318
; invoke core::ptr::drop_in_place::<std::thread::Thread>
  invoke void @_RINvNtCs3p84KrD9aKt_4core3ptr13drop_in_placeNtNtCs2bNvlddUlXM_3std6thread6ThreadECs3Xe6qK9kNBx_21static_map_and_mutate(i64** %12)
          to label %bb5 unwind label %cleanup1, !dbg !1318

cleanup:                                          ; preds = %start
  %13 = landingpad { i8*, i32 }
          cleanup
  %14 = extractvalue { i8*, i32 } %13, 0
  %15 = extractvalue { i8*, i32 } %13, 1
  %16 = getelementptr inbounds { i8*, i32 }, { i8*, i32 }* %0, i32 0, i32 0
  store i8* %14, i8** %16, align 8
  %17 = getelementptr inbounds { i8*, i32 }, { i8*, i32 }* %0, i32 0, i32 1
  store i32 %15, i32* %17, align 8
  br label %bb4

cleanup1:                                         ; preds = %bb6
  %18 = landingpad { i8*, i32 }
          cleanup
  %19 = extractvalue { i8*, i32 } %18, 0
  %20 = extractvalue { i8*, i32 } %18, 1
  %21 = getelementptr inbounds { i8*, i32 }, { i8*, i32 }* %0, i32 0, i32 0
  store i8* %19, i8** %21, align 8
  %22 = getelementptr inbounds { i8*, i32 }, { i8*, i32 }* %0, i32 0, i32 1
  store i32 %20, i32* %22, align 8
  br label %bb3
}

; core::ptr::drop_in_place::<alloc::vec::Vec<u8>>
; Function Attrs: nonlazybind uwtable
define internal void @_RINvNtCs3p84KrD9aKt_4core3ptr13drop_in_placeINtNtCs8RW06R9lH2S_5alloc3vec3VechEECs3Xe6qK9kNBx_21static_map_and_mutate(%"std::vec::Vec<u8>"* %_1) unnamed_addr #0 personality i32 (i32, i32, i64, %"unwind::libunwind::_Unwind_Exception"*, %"unwind::libunwind::_Unwind_Context"*)* @rust_eh_personality !dbg !1319 {
start:
  %0 = alloca { i8*, i32 }, align 8
  %_1.dbg.spill = alloca %"std::vec::Vec<u8>"*, align 8
  %1 = alloca {}, align 1
  store %"std::vec::Vec<u8>"* %_1, %"std::vec::Vec<u8>"** %_1.dbg.spill, align 8
  call void @llvm.dbg.declare(metadata %"std::vec::Vec<u8>"** %_1.dbg.spill, metadata !1324, metadata !DIExpression()), !dbg !1325
; invoke <alloc::vec::Vec<u8> as core::ops::drop::Drop>::drop
  invoke void @_RNvXsm_NtCs8RW06R9lH2S_5alloc3vecINtB5_3VechENtNtNtCs3p84KrD9aKt_4core3ops4drop4Drop4dropCs3Xe6qK9kNBx_21static_map_and_mutate(%"std::vec::Vec<u8>"* align 8 dereferenceable(24) %_1)
          to label %bb4 unwind label %cleanup, !dbg !1325

bb1:                                              ; preds = %bb3
  %2 = bitcast { i8*, i32 }* %0 to i8**, !dbg !1325
  %3 = load i8*, i8** %2, align 8, !dbg !1325
  %4 = getelementptr inbounds { i8*, i32 }, { i8*, i32 }* %0, i32 0, i32 1, !dbg !1325
  %5 = load i32, i32* %4, align 8, !dbg !1325
  %6 = insertvalue { i8*, i32 } undef, i8* %3, 0, !dbg !1325
  %7 = insertvalue { i8*, i32 } %6, i32 %5, 1, !dbg !1325
  resume { i8*, i32 } %7, !dbg !1325

bb2:                                              ; preds = %bb4
  ret void, !dbg !1325

bb3:                                              ; preds = %cleanup
  %8 = bitcast %"std::vec::Vec<u8>"* %_1 to { i8*, i64 }*, !dbg !1325
; call core::ptr::drop_in_place::<alloc::raw_vec::RawVec<u8>>
  call void @_RINvNtCs3p84KrD9aKt_4core3ptr13drop_in_placeINtNtCs8RW06R9lH2S_5alloc7raw_vec6RawVechEECs3Xe6qK9kNBx_21static_map_and_mutate({ i8*, i64 }* %8) #13, !dbg !1325
  br label %bb1, !dbg !1325

bb4:                                              ; preds = %start
  %9 = bitcast %"std::vec::Vec<u8>"* %_1 to { i8*, i64 }*, !dbg !1325
; call core::ptr::drop_in_place::<alloc::raw_vec::RawVec<u8>>
  call void @_RINvNtCs3p84KrD9aKt_4core3ptr13drop_in_placeINtNtCs8RW06R9lH2S_5alloc7raw_vec6RawVechEECs3Xe6qK9kNBx_21static_map_and_mutate({ i8*, i64 }* %9), !dbg !1325
  br label %bb2, !dbg !1325

cleanup:                                          ; preds = %start
  %10 = landingpad { i8*, i32 }
          cleanup
  %11 = extractvalue { i8*, i32 } %10, 0
  %12 = extractvalue { i8*, i32 } %10, 1
  %13 = getelementptr inbounds { i8*, i32 }, { i8*, i32 }* %0, i32 0, i32 0
  store i8* %11, i8** %13, align 8
  %14 = getelementptr inbounds { i8*, i32 }, { i8*, i32 }* %0, i32 0, i32 1
  store i32 %12, i32* %14, align 8
  br label %bb3
}

; core::ptr::drop_in_place::<alloc::sync::Arc<core::cell::UnsafeCell<core::option::Option<core::result::Result<(), alloc::boxed::Box<dyn core::any::Any + core::marker::Send>>>>>>
; Function Attrs: nonlazybind uwtable
define internal void @_RINvNtCs3p84KrD9aKt_4core3ptr13drop_in_placeINtNtCs8RW06R9lH2S_5alloc4sync3ArcINtNtB4_4cell10UnsafeCellINtNtB4_6option6OptionINtNtB4_6result6ResultuINtNtBL_5boxed3BoxDNtNtB4_3any3AnyNtNtB4_6marker4SendEL_EEEEEECs3Xe6qK9kNBx_21static_map_and_mutate(i64** %_1) unnamed_addr #0 !dbg !1326 {
start:
  %_1.dbg.spill = alloca i64**, align 8
  %0 = alloca {}, align 1
  store i64** %_1, i64*** %_1.dbg.spill, align 8
  call void @llvm.dbg.declare(metadata i64*** %_1.dbg.spill, metadata !1331, metadata !DIExpression()), !dbg !1334
; call <alloc::sync::Arc<core::cell::UnsafeCell<core::option::Option<core::result::Result<(), alloc::boxed::Box<dyn core::any::Any + core::marker::Send>>>>> as core::ops::drop::Drop>::drop
  call void @_RNvXsp_NtCs8RW06R9lH2S_5alloc4syncINtB5_3ArcINtNtCs3p84KrD9aKt_4core4cell10UnsafeCellINtNtBL_6option6OptionINtNtBL_6result6ResultuINtNtB7_5boxed3BoxDNtNtBL_3any3AnyNtNtBL_6marker4SendEL_EEEEENtNtNtBL_3ops4drop4Drop4dropCs3Xe6qK9kNBx_21static_map_and_mutate(i64** align 8 dereferenceable(8) %_1), !dbg !1334
  br label %bb1, !dbg !1334

bb1:                                              ; preds = %start
  ret void, !dbg !1334
}

; core::ptr::drop_in_place::<alloc::sync::Arc<std::sync::mutex::Mutex<alloc::vec::Vec<u8>>>>
; Function Attrs: nonlazybind uwtable
define internal void @_RINvNtCs3p84KrD9aKt_4core3ptr13drop_in_placeINtNtCs8RW06R9lH2S_5alloc4sync3ArcINtNtNtCs2bNvlddUlXM_3std4sync5mutex5MutexINtNtBL_3vec3VechEEEECs3Xe6qK9kNBx_21static_map_and_mutate(i64** %_1) unnamed_addr #0 !dbg !1335 {
start:
  %_1.dbg.spill = alloca i64**, align 8
  %0 = alloca {}, align 1
  store i64** %_1, i64*** %_1.dbg.spill, align 8
  call void @llvm.dbg.declare(metadata i64*** %_1.dbg.spill, metadata !1340, metadata !DIExpression()), !dbg !1341
; call <alloc::sync::Arc<std::sync::mutex::Mutex<alloc::vec::Vec<u8>>> as core::ops::drop::Drop>::drop
  call void @_RNvXsp_NtCs8RW06R9lH2S_5alloc4syncINtB5_3ArcINtNtNtCs2bNvlddUlXM_3std4sync5mutex5MutexINtNtB7_3vec3VechEEENtNtNtCs3p84KrD9aKt_4core3ops4drop4Drop4dropCs3Xe6qK9kNBx_21static_map_and_mutate(i64** align 8 dereferenceable(8) %_1), !dbg !1341
  br label %bb1, !dbg !1341

bb1:                                              ; preds = %start
  ret void, !dbg !1341
}

; core::ptr::drop_in_place::<alloc::sync::Arc<std::thread::Inner>>
; Function Attrs: nonlazybind uwtable
define internal void @_RINvNtCs3p84KrD9aKt_4core3ptr13drop_in_placeINtNtCs8RW06R9lH2S_5alloc4sync3ArcNtNtCs2bNvlddUlXM_3std6thread5InnerEECs3Xe6qK9kNBx_21static_map_and_mutate(i64** %_1) unnamed_addr #0 !dbg !1342 {
start:
  %_1.dbg.spill = alloca i64**, align 8
  %0 = alloca {}, align 1
  store i64** %_1, i64*** %_1.dbg.spill, align 8
  call void @llvm.dbg.declare(metadata i64*** %_1.dbg.spill, metadata !1347, metadata !DIExpression()), !dbg !1350
; call <alloc::sync::Arc<std::thread::Inner> as core::ops::drop::Drop>::drop
  call void @_RNvXsp_NtCs8RW06R9lH2S_5alloc4syncINtB5_3ArcNtNtCs2bNvlddUlXM_3std6thread5InnerENtNtNtCs3p84KrD9aKt_4core3ops4drop4Drop4dropCs3Xe6qK9kNBx_21static_map_and_mutate(i64** align 8 dereferenceable(8) %_1), !dbg !1350
  br label %bb1, !dbg !1350

bb1:                                              ; preds = %start
  ret void, !dbg !1350
}

; core::ptr::drop_in_place::<alloc::sync::Weak<core::cell::UnsafeCell<core::option::Option<core::result::Result<(), alloc::boxed::Box<dyn core::any::Any + core::marker::Send>>>>>>
; Function Attrs: nonlazybind uwtable
define internal void @_RINvNtCs3p84KrD9aKt_4core3ptr13drop_in_placeINtNtCs8RW06R9lH2S_5alloc4sync4WeakINtNtB4_4cell10UnsafeCellINtNtB4_6option6OptionINtNtB4_6result6ResultuINtNtBL_5boxed3BoxDNtNtB4_3any3AnyNtNtB4_6marker4SendEL_EEEEEECs3Xe6qK9kNBx_21static_map_and_mutate(i64** %_1) unnamed_addr #0 !dbg !1351 {
start:
  %_1.dbg.spill = alloca i64**, align 8
  %0 = alloca {}, align 1
  store i64** %_1, i64*** %_1.dbg.spill, align 8
  call void @llvm.dbg.declare(metadata i64*** %_1.dbg.spill, metadata !1356, metadata !DIExpression()), !dbg !1357
; call <alloc::sync::Weak<core::cell::UnsafeCell<core::option::Option<core::result::Result<(), alloc::boxed::Box<dyn core::any::Any + core::marker::Send>>>>> as core::ops::drop::Drop>::drop
  call void @_RNvXsw_NtCs8RW06R9lH2S_5alloc4syncINtB5_4WeakINtNtCs3p84KrD9aKt_4core4cell10UnsafeCellINtNtBM_6option6OptionINtNtBM_6result6ResultuINtNtB7_5boxed3BoxDNtNtBM_3any3AnyNtNtBM_6marker4SendEL_EEEEENtNtNtBM_3ops4drop4Drop4dropCs3Xe6qK9kNBx_21static_map_and_mutate(i64** align 8 dereferenceable(8) %_1), !dbg !1357
  br label %bb1, !dbg !1357

bb1:                                              ; preds = %start
  ret void, !dbg !1357
}

; core::ptr::drop_in_place::<alloc::sync::Weak<std::sync::mutex::Mutex<alloc::vec::Vec<u8>>>>
; Function Attrs: nonlazybind uwtable
define internal void @_RINvNtCs3p84KrD9aKt_4core3ptr13drop_in_placeINtNtCs8RW06R9lH2S_5alloc4sync4WeakINtNtNtCs2bNvlddUlXM_3std4sync5mutex5MutexINtNtBL_3vec3VechEEEECs3Xe6qK9kNBx_21static_map_and_mutate(i64** %_1) unnamed_addr #0 !dbg !1358 {
start:
  %_1.dbg.spill = alloca i64**, align 8
  %0 = alloca {}, align 1
  store i64** %_1, i64*** %_1.dbg.spill, align 8
  call void @llvm.dbg.declare(metadata i64*** %_1.dbg.spill, metadata !1363, metadata !DIExpression()), !dbg !1364
; call <alloc::sync::Weak<std::sync::mutex::Mutex<alloc::vec::Vec<u8>>> as core::ops::drop::Drop>::drop
  call void @_RNvXsw_NtCs8RW06R9lH2S_5alloc4syncINtB5_4WeakINtNtNtCs2bNvlddUlXM_3std4sync5mutex5MutexINtNtB7_3vec3VechEEENtNtNtCs3p84KrD9aKt_4core3ops4drop4Drop4dropCs3Xe6qK9kNBx_21static_map_and_mutate(i64** align 8 dereferenceable(8) %_1), !dbg !1364
  br label %bb1, !dbg !1364

bb1:                                              ; preds = %start
  ret void, !dbg !1364
}

; core::ptr::drop_in_place::<alloc::sync::Weak<std::thread::Inner>>
; Function Attrs: nonlazybind uwtable
define internal void @_RINvNtCs3p84KrD9aKt_4core3ptr13drop_in_placeINtNtCs8RW06R9lH2S_5alloc4sync4WeakNtNtCs2bNvlddUlXM_3std6thread5InnerEECs3Xe6qK9kNBx_21static_map_and_mutate(i64** %_1) unnamed_addr #0 !dbg !1365 {
start:
  %_1.dbg.spill = alloca i64**, align 8
  %0 = alloca {}, align 1
  store i64** %_1, i64*** %_1.dbg.spill, align 8
  call void @llvm.dbg.declare(metadata i64*** %_1.dbg.spill, metadata !1370, metadata !DIExpression()), !dbg !1371
; call <alloc::sync::Weak<std::thread::Inner> as core::ops::drop::Drop>::drop
  call void @_RNvXsw_NtCs8RW06R9lH2S_5alloc4syncINtB5_4WeakNtNtCs2bNvlddUlXM_3std6thread5InnerENtNtNtCs3p84KrD9aKt_4core3ops4drop4Drop4dropCs3Xe6qK9kNBx_21static_map_and_mutate(i64** align 8 dereferenceable(8) %_1), !dbg !1371
  br label %bb1, !dbg !1371

bb1:                                              ; preds = %start
  ret void, !dbg !1371
}

; core::ptr::drop_in_place::<alloc::boxed::Box<dyn core::any::Any + core::marker::Send>>
; Function Attrs: nonlazybind uwtable
define internal void @_RINvNtCs3p84KrD9aKt_4core3ptr13drop_in_placeINtNtCs8RW06R9lH2S_5alloc5boxed3BoxDNtNtB4_3any3AnyNtNtB4_6marker4SendEL_EECs3Xe6qK9kNBx_21static_map_and_mutate({ {}*, [3 x i64]* }* %_1) unnamed_addr #0 personality i32 (i32, i32, i64, %"unwind::libunwind::_Unwind_Exception"*, %"unwind::libunwind::_Unwind_Context"*)* @rust_eh_personality !dbg !1372 {
start:
  %0 = alloca { i8*, i32 }, align 8
  %_1.dbg.spill = alloca { {}*, [3 x i64]* }*, align 8
  %1 = alloca {}, align 1
  store { {}*, [3 x i64]* }* %_1, { {}*, [3 x i64]* }** %_1.dbg.spill, align 8
  call void @llvm.dbg.declare(metadata { {}*, [3 x i64]* }** %_1.dbg.spill, metadata !1377, metadata !DIExpression()), !dbg !1378
  %2 = getelementptr inbounds { {}*, [3 x i64]* }, { {}*, [3 x i64]* }* %_1, i32 0, i32 0, !dbg !1378
  %3 = load {}*, {}** %2, align 8, !dbg !1378, !nonnull !4
  %4 = getelementptr inbounds { {}*, [3 x i64]* }, { {}*, [3 x i64]* }* %_1, i32 0, i32 1, !dbg !1378
  %5 = load [3 x i64]*, [3 x i64]** %4, align 8, !dbg !1378, !nonnull !4
  %6 = bitcast [3 x i64]* %5 to void ({}*)**, !dbg !1378
  %7 = getelementptr inbounds void ({}*)*, void ({}*)** %6, i64 0, !dbg !1378
  %8 = load void ({}*)*, void ({}*)** %7, align 8, !dbg !1378, !invariant.load !4, !nonnull !4
  invoke void %8({}* %3)
          to label %bb3 unwind label %cleanup, !dbg !1378

bb1:                                              ; preds = %bb3
  ret void, !dbg !1378

bb2:                                              ; preds = %bb4
  %9 = bitcast { i8*, i32 }* %0 to i8**, !dbg !1378
  %10 = load i8*, i8** %9, align 8, !dbg !1378
  %11 = getelementptr inbounds { i8*, i32 }, { i8*, i32 }* %0, i32 0, i32 1, !dbg !1378
  %12 = load i32, i32* %11, align 8, !dbg !1378
  %13 = insertvalue { i8*, i32 } undef, i8* %10, 0, !dbg !1378
  %14 = insertvalue { i8*, i32 } %13, i32 %12, 1, !dbg !1378
  resume { i8*, i32 } %14, !dbg !1378

bb3:                                              ; preds = %start
  %15 = bitcast { {}*, [3 x i64]* }* %_1 to { i8*, i64* }*, !dbg !1378
  %16 = getelementptr inbounds { i8*, i64* }, { i8*, i64* }* %15, i32 0, i32 0, !dbg !1378
  %17 = load i8*, i8** %16, align 8, !dbg !1378, !nonnull !4
  %18 = getelementptr inbounds { i8*, i64* }, { i8*, i64* }* %15, i32 0, i32 1, !dbg !1378
  %19 = load i64*, i64** %18, align 8, !dbg !1378, !nonnull !4
; call alloc::alloc::box_free::<dyn core::any::Any + core::marker::Send, alloc::alloc::Global>
  call void @_RINvNtCs8RW06R9lH2S_5alloc5alloc8box_freeDNtNtCs3p84KrD9aKt_4core3any3AnyNtNtBI_6marker4SendEL_NtB2_6GlobalECs3Xe6qK9kNBx_21static_map_and_mutate(i8* nonnull %17, i64* noalias readonly align 8 dereferenceable(24) %19), !dbg !1378
  br label %bb1, !dbg !1378

bb4:                                              ; preds = %cleanup
  %20 = bitcast { {}*, [3 x i64]* }* %_1 to { i8*, i64* }*, !dbg !1378
  %21 = getelementptr inbounds { i8*, i64* }, { i8*, i64* }* %20, i32 0, i32 0, !dbg !1378
  %22 = load i8*, i8** %21, align 8, !dbg !1378, !nonnull !4
  %23 = getelementptr inbounds { i8*, i64* }, { i8*, i64* }* %20, i32 0, i32 1, !dbg !1378
  %24 = load i64*, i64** %23, align 8, !dbg !1378, !nonnull !4
; call alloc::alloc::box_free::<dyn core::any::Any + core::marker::Send, alloc::alloc::Global>
  call void @_RINvNtCs8RW06R9lH2S_5alloc5alloc8box_freeDNtNtCs3p84KrD9aKt_4core3any3AnyNtNtBI_6marker4SendEL_NtB2_6GlobalECs3Xe6qK9kNBx_21static_map_and_mutate(i8* nonnull %22, i64* noalias readonly align 8 dereferenceable(24) %24) #13, !dbg !1378
  br label %bb2, !dbg !1378

cleanup:                                          ; preds = %start
  %25 = landingpad { i8*, i32 }
          cleanup
  %26 = extractvalue { i8*, i32 } %25, 0
  %27 = extractvalue { i8*, i32 } %25, 1
  %28 = getelementptr inbounds { i8*, i32 }, { i8*, i32 }* %0, i32 0, i32 0
  store i8* %26, i8** %28, align 8
  %29 = getelementptr inbounds { i8*, i32 }, { i8*, i32 }* %0, i32 0, i32 1
  store i32 %27, i32* %29, align 8
  br label %bb4
}

; core::ptr::drop_in_place::<alloc::boxed::Box<dyn std::error::Error + core::marker::Send + core::marker::Sync>>
; Function Attrs: nonlazybind uwtable
define internal void @_RINvNtCs3p84KrD9aKt_4core3ptr13drop_in_placeINtNtCs8RW06R9lH2S_5alloc5boxed3BoxDNtNtCs2bNvlddUlXM_3std5error5ErrorNtNtB4_6marker4SendNtB1Q_4SyncEL_EECs3Xe6qK9kNBx_21static_map_and_mutate({ {}*, [3 x i64]* }* %_1) unnamed_addr #0 personality i32 (i32, i32, i64, %"unwind::libunwind::_Unwind_Exception"*, %"unwind::libunwind::_Unwind_Context"*)* @rust_eh_personality !dbg !1379 {
start:
  %0 = alloca { i8*, i32 }, align 8
  %_1.dbg.spill = alloca { {}*, [3 x i64]* }*, align 8
  %1 = alloca {}, align 1
  store { {}*, [3 x i64]* }* %_1, { {}*, [3 x i64]* }** %_1.dbg.spill, align 8
  call void @llvm.dbg.declare(metadata { {}*, [3 x i64]* }** %_1.dbg.spill, metadata !1384, metadata !DIExpression()), !dbg !1387
  %2 = getelementptr inbounds { {}*, [3 x i64]* }, { {}*, [3 x i64]* }* %_1, i32 0, i32 0, !dbg !1387
  %3 = load {}*, {}** %2, align 8, !dbg !1387, !nonnull !4
  %4 = getelementptr inbounds { {}*, [3 x i64]* }, { {}*, [3 x i64]* }* %_1, i32 0, i32 1, !dbg !1387
  %5 = load [3 x i64]*, [3 x i64]** %4, align 8, !dbg !1387, !nonnull !4
  %6 = bitcast [3 x i64]* %5 to void ({}*)**, !dbg !1387
  %7 = getelementptr inbounds void ({}*)*, void ({}*)** %6, i64 0, !dbg !1387
  %8 = load void ({}*)*, void ({}*)** %7, align 8, !dbg !1387, !invariant.load !4, !nonnull !4
  invoke void %8({}* %3)
          to label %bb3 unwind label %cleanup, !dbg !1387

bb1:                                              ; preds = %bb3
  ret void, !dbg !1387

bb2:                                              ; preds = %bb4
  %9 = bitcast { i8*, i32 }* %0 to i8**, !dbg !1387
  %10 = load i8*, i8** %9, align 8, !dbg !1387
  %11 = getelementptr inbounds { i8*, i32 }, { i8*, i32 }* %0, i32 0, i32 1, !dbg !1387
  %12 = load i32, i32* %11, align 8, !dbg !1387
  %13 = insertvalue { i8*, i32 } undef, i8* %10, 0, !dbg !1387
  %14 = insertvalue { i8*, i32 } %13, i32 %12, 1, !dbg !1387
  resume { i8*, i32 } %14, !dbg !1387

bb3:                                              ; preds = %start
  %15 = bitcast { {}*, [3 x i64]* }* %_1 to { i8*, i64* }*, !dbg !1387
  %16 = getelementptr inbounds { i8*, i64* }, { i8*, i64* }* %15, i32 0, i32 0, !dbg !1387
  %17 = load i8*, i8** %16, align 8, !dbg !1387, !nonnull !4
  %18 = getelementptr inbounds { i8*, i64* }, { i8*, i64* }* %15, i32 0, i32 1, !dbg !1387
  %19 = load i64*, i64** %18, align 8, !dbg !1387, !nonnull !4
; call alloc::alloc::box_free::<dyn std::error::Error + core::marker::Send + core::marker::Sync, alloc::alloc::Global>
  call void @_RINvNtCs8RW06R9lH2S_5alloc5alloc8box_freeDNtNtCs2bNvlddUlXM_3std5error5ErrorNtNtCs3p84KrD9aKt_4core6marker4SendNtB1e_4SyncEL_NtB2_6GlobalECs3Xe6qK9kNBx_21static_map_and_mutate(i8* nonnull %17, i64* noalias readonly align 8 dereferenceable(24) %19), !dbg !1387
  br label %bb1, !dbg !1387

bb4:                                              ; preds = %cleanup
  %20 = bitcast { {}*, [3 x i64]* }* %_1 to { i8*, i64* }*, !dbg !1387
  %21 = getelementptr inbounds { i8*, i64* }, { i8*, i64* }* %20, i32 0, i32 0, !dbg !1387
  %22 = load i8*, i8** %21, align 8, !dbg !1387, !nonnull !4
  %23 = getelementptr inbounds { i8*, i64* }, { i8*, i64* }* %20, i32 0, i32 1, !dbg !1387
  %24 = load i64*, i64** %23, align 8, !dbg !1387, !nonnull !4
; call alloc::alloc::box_free::<dyn std::error::Error + core::marker::Send + core::marker::Sync, alloc::alloc::Global>
  call void @_RINvNtCs8RW06R9lH2S_5alloc5alloc8box_freeDNtNtCs2bNvlddUlXM_3std5error5ErrorNtNtCs3p84KrD9aKt_4core6marker4SendNtB1e_4SyncEL_NtB2_6GlobalECs3Xe6qK9kNBx_21static_map_and_mutate(i8* nonnull %22, i64* noalias readonly align 8 dereferenceable(24) %24) #13, !dbg !1387
  br label %bb2, !dbg !1387

cleanup:                                          ; preds = %start
  %25 = landingpad { i8*, i32 }
          cleanup
  %26 = extractvalue { i8*, i32 } %25, 0
  %27 = extractvalue { i8*, i32 } %25, 1
  %28 = getelementptr inbounds { i8*, i32 }, { i8*, i32 }* %0, i32 0, i32 0
  store i8* %26, i8** %28, align 8
  %29 = getelementptr inbounds { i8*, i32 }, { i8*, i32 }* %0, i32 0, i32 1
  store i32 %27, i32* %29, align 8
  br label %bb4
}

; core::ptr::drop_in_place::<alloc::boxed::Box<std::io::error::Custom>>
; Function Attrs: nonlazybind uwtable
define internal void @_RINvNtCs3p84KrD9aKt_4core3ptr13drop_in_placeINtNtCs8RW06R9lH2S_5alloc5boxed3BoxNtNtNtCs2bNvlddUlXM_3std2io5error6CustomEECs3Xe6qK9kNBx_21static_map_and_mutate(%"std::io::error::Custom"** %_1) unnamed_addr #0 personality i32 (i32, i32, i64, %"unwind::libunwind::_Unwind_Exception"*, %"unwind::libunwind::_Unwind_Context"*)* @rust_eh_personality !dbg !1388 {
start:
  %0 = alloca { i8*, i32 }, align 8
  %_1.dbg.spill = alloca %"std::io::error::Custom"**, align 8
  %1 = alloca {}, align 1
  store %"std::io::error::Custom"** %_1, %"std::io::error::Custom"*** %_1.dbg.spill, align 8
  call void @llvm.dbg.declare(metadata %"std::io::error::Custom"*** %_1.dbg.spill, metadata !1393, metadata !DIExpression()), !dbg !1396
  %2 = load %"std::io::error::Custom"*, %"std::io::error::Custom"** %_1, align 8, !dbg !1396, !nonnull !4
; invoke core::ptr::drop_in_place::<std::io::error::Custom>
  invoke void @_RINvNtCs3p84KrD9aKt_4core3ptr13drop_in_placeNtNtNtCs2bNvlddUlXM_3std2io5error6CustomECs3Xe6qK9kNBx_21static_map_and_mutate(%"std::io::error::Custom"* %2)
          to label %bb3 unwind label %cleanup, !dbg !1396

bb1:                                              ; preds = %bb3
  ret void, !dbg !1396

bb2:                                              ; preds = %bb4
  %3 = bitcast { i8*, i32 }* %0 to i8**, !dbg !1396
  %4 = load i8*, i8** %3, align 8, !dbg !1396
  %5 = getelementptr inbounds { i8*, i32 }, { i8*, i32 }* %0, i32 0, i32 1, !dbg !1396
  %6 = load i32, i32* %5, align 8, !dbg !1396
  %7 = insertvalue { i8*, i32 } undef, i8* %4, 0, !dbg !1396
  %8 = insertvalue { i8*, i32 } %7, i32 %6, 1, !dbg !1396
  resume { i8*, i32 } %8, !dbg !1396

bb3:                                              ; preds = %start
  %9 = bitcast %"std::io::error::Custom"** %_1 to i64**, !dbg !1396
  %10 = load i64*, i64** %9, align 8, !dbg !1396, !nonnull !4
; call alloc::alloc::box_free::<std::io::error::Custom, alloc::alloc::Global>
  call void @_RINvNtCs8RW06R9lH2S_5alloc5alloc8box_freeNtNtNtCs2bNvlddUlXM_3std2io5error6CustomNtB2_6GlobalECs3Xe6qK9kNBx_21static_map_and_mutate(i64* nonnull %10), !dbg !1396
  br label %bb1, !dbg !1396

bb4:                                              ; preds = %cleanup
  %11 = bitcast %"std::io::error::Custom"** %_1 to i64**, !dbg !1396
  %12 = load i64*, i64** %11, align 8, !dbg !1396, !nonnull !4
; call alloc::alloc::box_free::<std::io::error::Custom, alloc::alloc::Global>
  call void @_RINvNtCs8RW06R9lH2S_5alloc5alloc8box_freeNtNtNtCs2bNvlddUlXM_3std2io5error6CustomNtB2_6GlobalECs3Xe6qK9kNBx_21static_map_and_mutate(i64* nonnull %12) #13, !dbg !1396
  br label %bb2, !dbg !1396

cleanup:                                          ; preds = %start
  %13 = landingpad { i8*, i32 }
          cleanup
  %14 = extractvalue { i8*, i32 } %13, 0
  %15 = extractvalue { i8*, i32 } %13, 1
  %16 = getelementptr inbounds { i8*, i32 }, { i8*, i32 }* %0, i32 0, i32 0
  store i8* %14, i8** %16, align 8
  %17 = getelementptr inbounds { i8*, i32 }, { i8*, i32 }* %0, i32 0, i32 1
  store i32 %15, i32* %17, align 8
  br label %bb4
}

; core::ptr::drop_in_place::<alloc::boxed::Box<std::sys::unix::mutex::Mutex>>
; Function Attrs: nonlazybind uwtable
define internal void @_RINvNtCs3p84KrD9aKt_4core3ptr13drop_in_placeINtNtCs8RW06R9lH2S_5alloc5boxed3BoxNtNtNtNtCs2bNvlddUlXM_3std3sys4unix5mutex5MutexEECs3Xe6qK9kNBx_21static_map_and_mutate(%"std::sys::unix::mutex::Mutex"** %_1) unnamed_addr #0 personality i32 (i32, i32, i64, %"unwind::libunwind::_Unwind_Exception"*, %"unwind::libunwind::_Unwind_Context"*)* @rust_eh_personality !dbg !1397 {
start:
  %0 = alloca { i8*, i32 }, align 8
  %_1.dbg.spill = alloca %"std::sys::unix::mutex::Mutex"**, align 8
  %1 = alloca {}, align 1
  store %"std::sys::unix::mutex::Mutex"** %_1, %"std::sys::unix::mutex::Mutex"*** %_1.dbg.spill, align 8
  call void @llvm.dbg.declare(metadata %"std::sys::unix::mutex::Mutex"*** %_1.dbg.spill, metadata !1402, metadata !DIExpression()), !dbg !1405
  br label %bb3, !dbg !1405

bb1:                                              ; preds = %bb3
  ret void, !dbg !1405

bb2:                                              ; preds = %bb4
  %2 = bitcast { i8*, i32 }* %0 to i8**, !dbg !1405
  %3 = load i8*, i8** %2, align 8, !dbg !1405
  %4 = getelementptr inbounds { i8*, i32 }, { i8*, i32 }* %0, i32 0, i32 1, !dbg !1405
  %5 = load i32, i32* %4, align 8, !dbg !1405
  %6 = insertvalue { i8*, i32 } undef, i8* %3, 0, !dbg !1405
  %7 = insertvalue { i8*, i32 } %6, i32 %5, 1, !dbg !1405
  resume { i8*, i32 } %7, !dbg !1405

bb3:                                              ; preds = %start
  %8 = bitcast %"std::sys::unix::mutex::Mutex"** %_1 to i64**, !dbg !1405
  %9 = load i64*, i64** %8, align 8, !dbg !1405, !nonnull !4
; call alloc::alloc::box_free::<std::sys::unix::mutex::Mutex, alloc::alloc::Global>
  call void @_RINvNtCs8RW06R9lH2S_5alloc5alloc8box_freeNtNtNtNtCs2bNvlddUlXM_3std3sys4unix5mutex5MutexNtB2_6GlobalECs3Xe6qK9kNBx_21static_map_and_mutate(i64* nonnull %9), !dbg !1405
  br label %bb1, !dbg !1405

bb4:                                              ; No predecessors!
  %10 = bitcast %"std::sys::unix::mutex::Mutex"** %_1 to i64**, !dbg !1405
  %11 = load i64*, i64** %10, align 8, !dbg !1405, !nonnull !4
; call alloc::alloc::box_free::<std::sys::unix::mutex::Mutex, alloc::alloc::Global>
  call void @_RINvNtCs8RW06R9lH2S_5alloc5alloc8box_freeNtNtNtNtCs2bNvlddUlXM_3std3sys4unix5mutex5MutexNtB2_6GlobalECs3Xe6qK9kNBx_21static_map_and_mutate(i64* nonnull %11) #13, !dbg !1405
  br label %bb2, !dbg !1405
}

; core::ptr::drop_in_place::<alloc::boxed::Box<[u8]>>
; Function Attrs: nonlazybind uwtable
define internal void @_RINvNtCs3p84KrD9aKt_4core3ptr13drop_in_placeINtNtCs8RW06R9lH2S_5alloc5boxed3BoxShEECs3Xe6qK9kNBx_21static_map_and_mutate({ [0 x i8]*, i64 }* %_1) unnamed_addr #0 personality i32 (i32, i32, i64, %"unwind::libunwind::_Unwind_Exception"*, %"unwind::libunwind::_Unwind_Context"*)* @rust_eh_personality !dbg !1406 {
start:
  %0 = alloca { i8*, i32 }, align 8
  %_1.dbg.spill = alloca { [0 x i8]*, i64 }*, align 8
  %1 = alloca {}, align 1
  store { [0 x i8]*, i64 }* %_1, { [0 x i8]*, i64 }** %_1.dbg.spill, align 8
  call void @llvm.dbg.declare(metadata { [0 x i8]*, i64 }** %_1.dbg.spill, metadata !1411, metadata !DIExpression()), !dbg !1414
  br label %bb3, !dbg !1414

bb1:                                              ; preds = %bb3
  ret void, !dbg !1414

bb2:                                              ; preds = %bb4
  %2 = bitcast { i8*, i32 }* %0 to i8**, !dbg !1414
  %3 = load i8*, i8** %2, align 8, !dbg !1414
  %4 = getelementptr inbounds { i8*, i32 }, { i8*, i32 }* %0, i32 0, i32 1, !dbg !1414
  %5 = load i32, i32* %4, align 8, !dbg !1414
  %6 = insertvalue { i8*, i32 } undef, i8* %3, 0, !dbg !1414
  %7 = insertvalue { i8*, i32 } %6, i32 %5, 1, !dbg !1414
  resume { i8*, i32 } %7, !dbg !1414

bb3:                                              ; preds = %start
  %8 = bitcast { [0 x i8]*, i64 }* %_1 to { i8*, i64 }*, !dbg !1414
  %9 = getelementptr inbounds { i8*, i64 }, { i8*, i64 }* %8, i32 0, i32 0, !dbg !1414
  %10 = load i8*, i8** %9, align 8, !dbg !1414, !nonnull !4
  %11 = getelementptr inbounds { i8*, i64 }, { i8*, i64 }* %8, i32 0, i32 1, !dbg !1414
  %12 = load i64, i64* %11, align 8, !dbg !1414
; call alloc::alloc::box_free::<[u8], alloc::alloc::Global>
  call void @_RINvNtCs8RW06R9lH2S_5alloc5alloc8box_freeShNtB2_6GlobalECs3Xe6qK9kNBx_21static_map_and_mutate(i8* nonnull %10, i64 %12), !dbg !1414
  br label %bb1, !dbg !1414

bb4:                                              ; No predecessors!
  %13 = bitcast { [0 x i8]*, i64 }* %_1 to { i8*, i64 }*, !dbg !1414
  %14 = getelementptr inbounds { i8*, i64 }, { i8*, i64 }* %13, i32 0, i32 0, !dbg !1414
  %15 = load i8*, i8** %14, align 8, !dbg !1414, !nonnull !4
  %16 = getelementptr inbounds { i8*, i64 }, { i8*, i64 }* %13, i32 0, i32 1, !dbg !1414
  %17 = load i64, i64* %16, align 8, !dbg !1414
; call alloc::alloc::box_free::<[u8], alloc::alloc::Global>
  call void @_RINvNtCs8RW06R9lH2S_5alloc5alloc8box_freeShNtB2_6GlobalECs3Xe6qK9kNBx_21static_map_and_mutate(i8* nonnull %15, i64 %17) #13, !dbg !1414
  br label %bb2, !dbg !1414
}

; core::ptr::drop_in_place::<alloc::raw_vec::RawVec<u8>>
; Function Attrs: nonlazybind uwtable
define internal void @_RINvNtCs3p84KrD9aKt_4core3ptr13drop_in_placeINtNtCs8RW06R9lH2S_5alloc7raw_vec6RawVechEECs3Xe6qK9kNBx_21static_map_and_mutate({ i8*, i64 }* %_1) unnamed_addr #0 !dbg !1415 {
start:
  %_1.dbg.spill = alloca { i8*, i64 }*, align 8
  %0 = alloca {}, align 1
  store { i8*, i64 }* %_1, { i8*, i64 }** %_1.dbg.spill, align 8
  call void @llvm.dbg.declare(metadata { i8*, i64 }** %_1.dbg.spill, metadata !1420, metadata !DIExpression()), !dbg !1423
; call <alloc::raw_vec::RawVec<u8> as core::ops::drop::Drop>::drop
  call void @_RNvXs1_NtCs8RW06R9lH2S_5alloc7raw_vecINtB5_6RawVechENtNtNtCs3p84KrD9aKt_4core3ops4drop4Drop4dropCs3Xe6qK9kNBx_21static_map_and_mutate({ i8*, i64 }* align 8 dereferenceable(16) %_1), !dbg !1423
  br label %bb1, !dbg !1423

bb1:                                              ; preds = %start
  ret void, !dbg !1423
}

; core::ptr::drop_in_place::<std::sync::mutex::Mutex<alloc::vec::Vec<u8>>>
; Function Attrs: nonlazybind uwtable
define internal void @_RINvNtCs3p84KrD9aKt_4core3ptr13drop_in_placeINtNtNtCs2bNvlddUlXM_3std4sync5mutex5MutexINtNtCs8RW06R9lH2S_5alloc3vec3VechEEECs3Xe6qK9kNBx_21static_map_and_mutate(%"std::sync::Mutex<std::vec::Vec<u8>>"* %_1) unnamed_addr #0 personality i32 (i32, i32, i64, %"unwind::libunwind::_Unwind_Exception"*, %"unwind::libunwind::_Unwind_Context"*)* @rust_eh_personality !dbg !1424 {
start:
  %0 = alloca { i8*, i32 }, align 8
  %_1.dbg.spill = alloca %"std::sync::Mutex<std::vec::Vec<u8>>"*, align 8
  %1 = alloca {}, align 1
  store %"std::sync::Mutex<std::vec::Vec<u8>>"* %_1, %"std::sync::Mutex<std::vec::Vec<u8>>"** %_1.dbg.spill, align 8
  call void @llvm.dbg.declare(metadata %"std::sync::Mutex<std::vec::Vec<u8>>"** %_1.dbg.spill, metadata !1429, metadata !DIExpression()), !dbg !1430
  %2 = bitcast %"std::sync::Mutex<std::vec::Vec<u8>>"* %_1 to i64**, !dbg !1430
; invoke core::ptr::drop_in_place::<std::sys_common::mutex::MovableMutex>
  invoke void @_RINvNtCs3p84KrD9aKt_4core3ptr13drop_in_placeNtNtNtCs2bNvlddUlXM_3std10sys_common5mutex12MovableMutexECs3Xe6qK9kNBx_21static_map_and_mutate(i64** %2)
          to label %bb4 unwind label %cleanup, !dbg !1430

bb1:                                              ; preds = %bb3
  %3 = bitcast { i8*, i32 }* %0 to i8**, !dbg !1430
  %4 = load i8*, i8** %3, align 8, !dbg !1430
  %5 = getelementptr inbounds { i8*, i32 }, { i8*, i32 }* %0, i32 0, i32 1, !dbg !1430
  %6 = load i32, i32* %5, align 8, !dbg !1430
  %7 = insertvalue { i8*, i32 } undef, i8* %4, 0, !dbg !1430
  %8 = insertvalue { i8*, i32 } %7, i32 %6, 1, !dbg !1430
  resume { i8*, i32 } %8, !dbg !1430

bb2:                                              ; preds = %bb4
  ret void, !dbg !1430

bb3:                                              ; preds = %cleanup
  %9 = getelementptr inbounds %"std::sync::Mutex<std::vec::Vec<u8>>", %"std::sync::Mutex<std::vec::Vec<u8>>"* %_1, i32 0, i32 5, !dbg !1430
; call core::ptr::drop_in_place::<core::cell::UnsafeCell<alloc::vec::Vec<u8>>>
  call void @_RINvNtCs3p84KrD9aKt_4core3ptr13drop_in_placeINtNtB4_4cell10UnsafeCellINtNtCs8RW06R9lH2S_5alloc3vec3VechEEECs3Xe6qK9kNBx_21static_map_and_mutate(%"std::cell::UnsafeCell<std::vec::Vec<u8>>"* %9) #13, !dbg !1430
  br label %bb1, !dbg !1430

bb4:                                              ; preds = %start
  %10 = getelementptr inbounds %"std::sync::Mutex<std::vec::Vec<u8>>", %"std::sync::Mutex<std::vec::Vec<u8>>"* %_1, i32 0, i32 5, !dbg !1430
; call core::ptr::drop_in_place::<core::cell::UnsafeCell<alloc::vec::Vec<u8>>>
  call void @_RINvNtCs3p84KrD9aKt_4core3ptr13drop_in_placeINtNtB4_4cell10UnsafeCellINtNtCs8RW06R9lH2S_5alloc3vec3VechEEECs3Xe6qK9kNBx_21static_map_and_mutate(%"std::cell::UnsafeCell<std::vec::Vec<u8>>"* %10), !dbg !1430
  br label %bb2, !dbg !1430

cleanup:                                          ; preds = %start
  %11 = landingpad { i8*, i32 }
          cleanup
  %12 = extractvalue { i8*, i32 } %11, 0
  %13 = extractvalue { i8*, i32 } %11, 1
  %14 = getelementptr inbounds { i8*, i32 }, { i8*, i32 }* %0, i32 0, i32 0
  store i8* %12, i8** %14, align 8
  %15 = getelementptr inbounds { i8*, i32 }, { i8*, i32 }* %0, i32 0, i32 1
  store i32 %13, i32* %15, align 8
  br label %bb3
}

; core::ptr::drop_in_place::<<std::thread::Builder>::spawn_unchecked<static_map_and_mutate::main::{closure#0}, ()>::{closure#0}>
; Function Attrs: nonlazybind uwtable
define internal void @_RINvNtCs3p84KrD9aKt_4core3ptr13drop_in_placeNCINvMNtCs2bNvlddUlXM_3std6threadNtBM_7Builder15spawn_uncheckedNCNvCs3Xe6qK9kNBx_21static_map_and_mutate4main0uE0EB1L_(%"[closure@std::thread::Builder::spawn_unchecked<[closure@src/main.rs:12:28: 21:3], ()>::{closure#0}]"* %_1) unnamed_addr #0 personality i32 (i32, i32, i64, %"unwind::libunwind::_Unwind_Exception"*, %"unwind::libunwind::_Unwind_Context"*)* @rust_eh_personality !dbg !1431 {
start:
  %0 = alloca { i8*, i32 }, align 8
  %_1.dbg.spill = alloca %"[closure@std::thread::Builder::spawn_unchecked<[closure@src/main.rs:12:28: 21:3], ()>::{closure#0}]"*, align 8
  %1 = alloca {}, align 1
  store %"[closure@std::thread::Builder::spawn_unchecked<[closure@src/main.rs:12:28: 21:3], ()>::{closure#0}]"* %_1, %"[closure@std::thread::Builder::spawn_unchecked<[closure@src/main.rs:12:28: 21:3], ()>::{closure#0}]"** %_1.dbg.spill, align 8
  call void @llvm.dbg.declare(metadata %"[closure@std::thread::Builder::spawn_unchecked<[closure@src/main.rs:12:28: 21:3], ()>::{closure#0}]"** %_1.dbg.spill, metadata !1436, metadata !DIExpression()), !dbg !1437
  %2 = bitcast %"[closure@std::thread::Builder::spawn_unchecked<[closure@src/main.rs:12:28: 21:3], ()>::{closure#0}]"* %_1 to i64**, !dbg !1437
; invoke core::ptr::drop_in_place::<std::thread::Thread>
  invoke void @_RINvNtCs3p84KrD9aKt_4core3ptr13drop_in_placeNtNtCs2bNvlddUlXM_3std6thread6ThreadECs3Xe6qK9kNBx_21static_map_and_mutate(i64** %2)
          to label %bb6 unwind label %cleanup, !dbg !1437

bb1:                                              ; preds = %bb3
  %3 = bitcast { i8*, i32 }* %0 to i8**, !dbg !1437
  %4 = load i8*, i8** %3, align 8, !dbg !1437
  %5 = getelementptr inbounds { i8*, i32 }, { i8*, i32 }* %0, i32 0, i32 1, !dbg !1437
  %6 = load i32, i32* %5, align 8, !dbg !1437
  %7 = insertvalue { i8*, i32 } undef, i8* %4, 0, !dbg !1437
  %8 = insertvalue { i8*, i32 } %7, i32 %6, 1, !dbg !1437
  resume { i8*, i32 } %8, !dbg !1437

bb2:                                              ; preds = %bb5
  ret void, !dbg !1437

bb3:                                              ; preds = %cleanup1, %bb4
  %9 = getelementptr inbounds %"[closure@std::thread::Builder::spawn_unchecked<[closure@src/main.rs:12:28: 21:3], ()>::{closure#0}]", %"[closure@std::thread::Builder::spawn_unchecked<[closure@src/main.rs:12:28: 21:3], ()>::{closure#0}]"* %_1, i32 0, i32 7, !dbg !1437
; call core::ptr::drop_in_place::<alloc::sync::Arc<core::cell::UnsafeCell<core::option::Option<core::result::Result<(), alloc::boxed::Box<dyn core::any::Any + core::marker::Send>>>>>>
  call void @_RINvNtCs3p84KrD9aKt_4core3ptr13drop_in_placeINtNtCs8RW06R9lH2S_5alloc4sync3ArcINtNtB4_4cell10UnsafeCellINtNtB4_6option6OptionINtNtB4_6result6ResultuINtNtBL_5boxed3BoxDNtNtB4_3any3AnyNtNtB4_6marker4SendEL_EEEEEECs3Xe6qK9kNBx_21static_map_and_mutate(i64** %9) #13, !dbg !1437
  br label %bb1, !dbg !1437

bb4:                                              ; preds = %cleanup
  %10 = getelementptr inbounds %"[closure@std::thread::Builder::spawn_unchecked<[closure@src/main.rs:12:28: 21:3], ()>::{closure#0}]", %"[closure@std::thread::Builder::spawn_unchecked<[closure@src/main.rs:12:28: 21:3], ()>::{closure#0}]"* %_1, i32 0, i32 5, !dbg !1437
; call core::ptr::drop_in_place::<core::option::Option<alloc::sync::Arc<std::sync::mutex::Mutex<alloc::vec::Vec<u8>>>>>
  call void @_RINvNtCs3p84KrD9aKt_4core3ptr13drop_in_placeINtNtB4_6option6OptionINtNtCs8RW06R9lH2S_5alloc4sync3ArcINtNtNtCs2bNvlddUlXM_3std4sync5mutex5MutexINtNtB17_3vec3VechEEEEECs3Xe6qK9kNBx_21static_map_and_mutate(i64** %10) #13, !dbg !1437
  br label %bb3, !dbg !1437

bb5:                                              ; preds = %bb6
  %11 = getelementptr inbounds %"[closure@std::thread::Builder::spawn_unchecked<[closure@src/main.rs:12:28: 21:3], ()>::{closure#0}]", %"[closure@std::thread::Builder::spawn_unchecked<[closure@src/main.rs:12:28: 21:3], ()>::{closure#0}]"* %_1, i32 0, i32 7, !dbg !1437
; call core::ptr::drop_in_place::<alloc::sync::Arc<core::cell::UnsafeCell<core::option::Option<core::result::Result<(), alloc::boxed::Box<dyn core::any::Any + core::marker::Send>>>>>>
  call void @_RINvNtCs3p84KrD9aKt_4core3ptr13drop_in_placeINtNtCs8RW06R9lH2S_5alloc4sync3ArcINtNtB4_4cell10UnsafeCellINtNtB4_6option6OptionINtNtB4_6result6ResultuINtNtBL_5boxed3BoxDNtNtB4_3any3AnyNtNtB4_6marker4SendEL_EEEEEECs3Xe6qK9kNBx_21static_map_and_mutate(i64** %11), !dbg !1437
  br label %bb2, !dbg !1437

bb6:                                              ; preds = %start
  %12 = getelementptr inbounds %"[closure@std::thread::Builder::spawn_unchecked<[closure@src/main.rs:12:28: 21:3], ()>::{closure#0}]", %"[closure@std::thread::Builder::spawn_unchecked<[closure@src/main.rs:12:28: 21:3], ()>::{closure#0}]"* %_1, i32 0, i32 5, !dbg !1437
; invoke core::ptr::drop_in_place::<core::option::Option<alloc::sync::Arc<std::sync::mutex::Mutex<alloc::vec::Vec<u8>>>>>
  invoke void @_RINvNtCs3p84KrD9aKt_4core3ptr13drop_in_placeINtNtB4_6option6OptionINtNtCs8RW06R9lH2S_5alloc4sync3ArcINtNtNtCs2bNvlddUlXM_3std4sync5mutex5MutexINtNtB17_3vec3VechEEEEECs3Xe6qK9kNBx_21static_map_and_mutate(i64** %12)
          to label %bb5 unwind label %cleanup1, !dbg !1437

cleanup:                                          ; preds = %start
  %13 = landingpad { i8*, i32 }
          cleanup
  %14 = extractvalue { i8*, i32 } %13, 0
  %15 = extractvalue { i8*, i32 } %13, 1
  %16 = getelementptr inbounds { i8*, i32 }, { i8*, i32 }* %0, i32 0, i32 0
  store i8* %14, i8** %16, align 8
  %17 = getelementptr inbounds { i8*, i32 }, { i8*, i32 }* %0, i32 0, i32 1
  store i32 %15, i32* %17, align 8
  br label %bb4

cleanup1:                                         ; preds = %bb6
  %18 = landingpad { i8*, i32 }
          cleanup
  %19 = extractvalue { i8*, i32 } %18, 0
  %20 = extractvalue { i8*, i32 } %18, 1
  %21 = getelementptr inbounds { i8*, i32 }, { i8*, i32 }* %0, i32 0, i32 0
  store i8* %19, i8** %21, align 8
  %22 = getelementptr inbounds { i8*, i32 }, { i8*, i32 }* %0, i32 0, i32 1
  store i32 %20, i32* %22, align 8
  br label %bb3
}

; core::ptr::drop_in_place::<std::rt::lang_start<()>::{closure#0}>
; Function Attrs: inlinehint nonlazybind uwtable
define internal void @_RINvNtCs3p84KrD9aKt_4core3ptr13drop_in_placeNCINvNtCs2bNvlddUlXM_3std2rt10lang_startuE0ECs3Xe6qK9kNBx_21static_map_and_mutate(i64** %_1) unnamed_addr #1 !dbg !1438 {
start:
  %_1.dbg.spill = alloca i64**, align 8
  %0 = alloca {}, align 1
  store i64** %_1, i64*** %_1.dbg.spill, align 8
  call void @llvm.dbg.declare(metadata i64*** %_1.dbg.spill, metadata !1443, metadata !DIExpression()), !dbg !1446
  ret void, !dbg !1446
}

; core::ptr::drop_in_place::<std::thread::Inner>
; Function Attrs: nonlazybind uwtable
define internal void @_RINvNtCs3p84KrD9aKt_4core3ptr13drop_in_placeNtNtCs2bNvlddUlXM_3std6thread5InnerECs3Xe6qK9kNBx_21static_map_and_mutate(%"std::thread::Inner"* %_1) unnamed_addr #0 !dbg !1447 {
start:
  %_1.dbg.spill = alloca %"std::thread::Inner"*, align 8
  %0 = alloca {}, align 1
  store %"std::thread::Inner"* %_1, %"std::thread::Inner"** %_1.dbg.spill, align 8
  call void @llvm.dbg.declare(metadata %"std::thread::Inner"** %_1.dbg.spill, metadata !1452, metadata !DIExpression()), !dbg !1453
  %1 = bitcast %"std::thread::Inner"* %_1 to { i8*, i64 }*, !dbg !1453
; call core::ptr::drop_in_place::<core::option::Option<std::ffi::c_str::CString>>
  call void @_RINvNtCs3p84KrD9aKt_4core3ptr13drop_in_placeINtNtB4_6option6OptionNtNtNtCs2bNvlddUlXM_3std3ffi5c_str7CStringEECs3Xe6qK9kNBx_21static_map_and_mutate({ i8*, i64 }* %1), !dbg !1453
  br label %bb1, !dbg !1453

bb1:                                              ; preds = %start
  ret void, !dbg !1453
}

; core::ptr::drop_in_place::<std::thread::Thread>
; Function Attrs: nonlazybind uwtable
define internal void @_RINvNtCs3p84KrD9aKt_4core3ptr13drop_in_placeNtNtCs2bNvlddUlXM_3std6thread6ThreadECs3Xe6qK9kNBx_21static_map_and_mutate(i64** %_1) unnamed_addr #0 !dbg !1454 {
start:
  %_1.dbg.spill = alloca i64**, align 8
  %0 = alloca {}, align 1
  store i64** %_1, i64*** %_1.dbg.spill, align 8
  call void @llvm.dbg.declare(metadata i64*** %_1.dbg.spill, metadata !1459, metadata !DIExpression()), !dbg !1462
; call core::ptr::drop_in_place::<alloc::sync::Arc<std::thread::Inner>>
  call void @_RINvNtCs3p84KrD9aKt_4core3ptr13drop_in_placeINtNtCs8RW06R9lH2S_5alloc4sync3ArcNtNtCs2bNvlddUlXM_3std6thread5InnerEECs3Xe6qK9kNBx_21static_map_and_mutate(i64** %_1), !dbg !1462
  br label %bb1, !dbg !1462

bb1:                                              ; preds = %start
  ret void, !dbg !1462
}

; core::ptr::drop_in_place::<alloc::string::String>
; Function Attrs: nonlazybind uwtable
define internal void @_RINvNtCs3p84KrD9aKt_4core3ptr13drop_in_placeNtNtCs8RW06R9lH2S_5alloc6string6StringECs3Xe6qK9kNBx_21static_map_and_mutate(%"std::string::String"* %_1) unnamed_addr #0 !dbg !1463 {
start:
  %_1.dbg.spill = alloca %"std::string::String"*, align 8
  %0 = alloca {}, align 1
  store %"std::string::String"* %_1, %"std::string::String"** %_1.dbg.spill, align 8
  call void @llvm.dbg.declare(metadata %"std::string::String"** %_1.dbg.spill, metadata !1468, metadata !DIExpression()), !dbg !1469
  %1 = bitcast %"std::string::String"* %_1 to %"std::vec::Vec<u8>"*, !dbg !1469
; call core::ptr::drop_in_place::<alloc::vec::Vec<u8>>
  call void @_RINvNtCs3p84KrD9aKt_4core3ptr13drop_in_placeINtNtCs8RW06R9lH2S_5alloc3vec3VechEECs3Xe6qK9kNBx_21static_map_and_mutate(%"std::vec::Vec<u8>"* %1), !dbg !1469
  br label %bb1, !dbg !1469

bb1:                                              ; preds = %start
  ret void, !dbg !1469
}

; core::ptr::drop_in_place::<std::sys_common::mutex::MovableMutex>
; Function Attrs: nonlazybind uwtable
define internal void @_RINvNtCs3p84KrD9aKt_4core3ptr13drop_in_placeNtNtNtCs2bNvlddUlXM_3std10sys_common5mutex12MovableMutexECs3Xe6qK9kNBx_21static_map_and_mutate(i64** %_1) unnamed_addr #0 personality i32 (i32, i32, i64, %"unwind::libunwind::_Unwind_Exception"*, %"unwind::libunwind::_Unwind_Context"*)* @rust_eh_personality !dbg !1470 {
start:
  %0 = alloca { i8*, i32 }, align 8
  %_1.dbg.spill = alloca i64**, align 8
  %1 = alloca {}, align 1
  store i64** %_1, i64*** %_1.dbg.spill, align 8
  call void @llvm.dbg.declare(metadata i64*** %_1.dbg.spill, metadata !1475, metadata !DIExpression()), !dbg !1478
; invoke <std::sys_common::mutex::MovableMutex as core::ops::drop::Drop>::drop
  invoke void @"_ZN78_$LT$std..sys_common..mutex..MovableMutex$u20$as$u20$core..ops..drop..Drop$GT$4drop17ha5cab95367ffc0fcE"(i64** align 8 dereferenceable(8) %_1)
          to label %bb4 unwind label %cleanup, !dbg !1478

bb1:                                              ; preds = %bb3
  %2 = bitcast { i8*, i32 }* %0 to i8**, !dbg !1478
  %3 = load i8*, i8** %2, align 8, !dbg !1478
  %4 = getelementptr inbounds { i8*, i32 }, { i8*, i32 }* %0, i32 0, i32 1, !dbg !1478
  %5 = load i32, i32* %4, align 8, !dbg !1478
  %6 = insertvalue { i8*, i32 } undef, i8* %3, 0, !dbg !1478
  %7 = insertvalue { i8*, i32 } %6, i32 %5, 1, !dbg !1478
  resume { i8*, i32 } %7, !dbg !1478

bb2:                                              ; preds = %bb4
  ret void, !dbg !1478

bb3:                                              ; preds = %cleanup
  %8 = bitcast i64** %_1 to %"std::sys::unix::mutex::Mutex"**, !dbg !1478
; call core::ptr::drop_in_place::<alloc::boxed::Box<std::sys::unix::mutex::Mutex>>
  call void @_RINvNtCs3p84KrD9aKt_4core3ptr13drop_in_placeINtNtCs8RW06R9lH2S_5alloc5boxed3BoxNtNtNtNtCs2bNvlddUlXM_3std3sys4unix5mutex5MutexEECs3Xe6qK9kNBx_21static_map_and_mutate(%"std::sys::unix::mutex::Mutex"** %8) #13, !dbg !1478
  br label %bb1, !dbg !1478

bb4:                                              ; preds = %start
  %9 = bitcast i64** %_1 to %"std::sys::unix::mutex::Mutex"**, !dbg !1478
; call core::ptr::drop_in_place::<alloc::boxed::Box<std::sys::unix::mutex::Mutex>>
  call void @_RINvNtCs3p84KrD9aKt_4core3ptr13drop_in_placeINtNtCs8RW06R9lH2S_5alloc5boxed3BoxNtNtNtNtCs2bNvlddUlXM_3std3sys4unix5mutex5MutexEECs3Xe6qK9kNBx_21static_map_and_mutate(%"std::sys::unix::mutex::Mutex"** %9), !dbg !1478
  br label %bb2, !dbg !1478

cleanup:                                          ; preds = %start
  %10 = landingpad { i8*, i32 }
          cleanup
  %11 = extractvalue { i8*, i32 } %10, 0
  %12 = extractvalue { i8*, i32 } %10, 1
  %13 = getelementptr inbounds { i8*, i32 }, { i8*, i32 }* %0, i32 0, i32 0
  store i8* %11, i8** %13, align 8
  %14 = getelementptr inbounds { i8*, i32 }, { i8*, i32 }* %0, i32 0, i32 1
  store i32 %12, i32* %14, align 8
  br label %bb3
}

; core::ptr::drop_in_place::<std::io::error::Repr>
; Function Attrs: nonlazybind uwtable
define internal void @_RINvNtCs3p84KrD9aKt_4core3ptr13drop_in_placeNtNtNtCs2bNvlddUlXM_3std2io5error4ReprECs3Xe6qK9kNBx_21static_map_and_mutate(%"std::io::error::Repr"* %_1) unnamed_addr #0 !dbg !1479 {
start:
  %_1.dbg.spill = alloca %"std::io::error::Repr"*, align 8
  %0 = alloca {}, align 1
  store %"std::io::error::Repr"* %_1, %"std::io::error::Repr"** %_1.dbg.spill, align 8
  call void @llvm.dbg.declare(metadata %"std::io::error::Repr"** %_1.dbg.spill, metadata !1484, metadata !DIExpression()), !dbg !1487
  %1 = bitcast %"std::io::error::Repr"* %_1 to i8*, !dbg !1487
  %2 = load i8, i8* %1, align 8, !dbg !1487, !range !1488
  %_2 = zext i8 %2 to i64, !dbg !1487
  switch i64 %_2, label %bb2 [
    i64 0, label %bb1
    i64 1, label %bb1
  ], !dbg !1487

bb1:                                              ; preds = %bb2, %start, %start
  ret void, !dbg !1487

bb2:                                              ; preds = %start
  %3 = bitcast %"std::io::error::Repr"* %_1 to %"std::io::error::Repr::Custom"*, !dbg !1487
  %4 = getelementptr inbounds %"std::io::error::Repr::Custom", %"std::io::error::Repr::Custom"* %3, i32 0, i32 1, !dbg !1487
; call core::ptr::drop_in_place::<alloc::boxed::Box<std::io::error::Custom>>
  call void @_RINvNtCs3p84KrD9aKt_4core3ptr13drop_in_placeINtNtCs8RW06R9lH2S_5alloc5boxed3BoxNtNtNtCs2bNvlddUlXM_3std2io5error6CustomEECs3Xe6qK9kNBx_21static_map_and_mutate(%"std::io::error::Custom"** %4), !dbg !1487
  br label %bb1, !dbg !1487
}

; core::ptr::drop_in_place::<std::io::error::Error>
; Function Attrs: nonlazybind uwtable
define internal void @_RINvNtCs3p84KrD9aKt_4core3ptr13drop_in_placeNtNtNtCs2bNvlddUlXM_3std2io5error5ErrorECs3Xe6qK9kNBx_21static_map_and_mutate(%"std::io::Error"* %_1) unnamed_addr #0 !dbg !1489 {
start:
  %_1.dbg.spill = alloca %"std::io::Error"*, align 8
  %0 = alloca {}, align 1
  store %"std::io::Error"* %_1, %"std::io::Error"** %_1.dbg.spill, align 8
  call void @llvm.dbg.declare(metadata %"std::io::Error"** %_1.dbg.spill, metadata !1494, metadata !DIExpression()), !dbg !1497
  %1 = bitcast %"std::io::Error"* %_1 to %"std::io::error::Repr"*, !dbg !1497
; call core::ptr::drop_in_place::<std::io::error::Repr>
  call void @_RINvNtCs3p84KrD9aKt_4core3ptr13drop_in_placeNtNtNtCs2bNvlddUlXM_3std2io5error4ReprECs3Xe6qK9kNBx_21static_map_and_mutate(%"std::io::error::Repr"* %1), !dbg !1497
  br label %bb1, !dbg !1497

bb1:                                              ; preds = %start
  ret void, !dbg !1497
}

; core::ptr::drop_in_place::<std::io::error::Custom>
; Function Attrs: nonlazybind uwtable
define internal void @_RINvNtCs3p84KrD9aKt_4core3ptr13drop_in_placeNtNtNtCs2bNvlddUlXM_3std2io5error6CustomECs3Xe6qK9kNBx_21static_map_and_mutate(%"std::io::error::Custom"* %_1) unnamed_addr #0 !dbg !1498 {
start:
  %_1.dbg.spill = alloca %"std::io::error::Custom"*, align 8
  %0 = alloca {}, align 1
  store %"std::io::error::Custom"* %_1, %"std::io::error::Custom"** %_1.dbg.spill, align 8
  call void @llvm.dbg.declare(metadata %"std::io::error::Custom"** %_1.dbg.spill, metadata !1503, metadata !DIExpression()), !dbg !1504
  %1 = bitcast %"std::io::error::Custom"* %_1 to { {}*, [3 x i64]* }*, !dbg !1504
; call core::ptr::drop_in_place::<alloc::boxed::Box<dyn std::error::Error + core::marker::Send + core::marker::Sync>>
  call void @_RINvNtCs3p84KrD9aKt_4core3ptr13drop_in_placeINtNtCs8RW06R9lH2S_5alloc5boxed3BoxDNtNtCs2bNvlddUlXM_3std5error5ErrorNtNtB4_6marker4SendNtB1Q_4SyncEL_EECs3Xe6qK9kNBx_21static_map_and_mutate({ {}*, [3 x i64]* }* %1), !dbg !1504
  br label %bb1, !dbg !1504

bb1:                                              ; preds = %start
  ret void, !dbg !1504
}

; core::ptr::drop_in_place::<std::ffi::c_str::CString>
; Function Attrs: nonlazybind uwtable
define internal void @_RINvNtCs3p84KrD9aKt_4core3ptr13drop_in_placeNtNtNtCs2bNvlddUlXM_3std3ffi5c_str7CStringECs3Xe6qK9kNBx_21static_map_and_mutate({ i8*, i64 }* %_1) unnamed_addr #0 personality i32 (i32, i32, i64, %"unwind::libunwind::_Unwind_Exception"*, %"unwind::libunwind::_Unwind_Context"*)* @rust_eh_personality !dbg !1505 {
start:
  %0 = alloca { i8*, i32 }, align 8
  %_1.dbg.spill = alloca { i8*, i64 }*, align 8
  %1 = alloca {}, align 1
  store { i8*, i64 }* %_1, { i8*, i64 }** %_1.dbg.spill, align 8
  call void @llvm.dbg.declare(metadata { i8*, i64 }** %_1.dbg.spill, metadata !1510, metadata !DIExpression()), !dbg !1511
; invoke <std::ffi::c_str::CString as core::ops::drop::Drop>::drop
  invoke void @_RNvXs1_NtNtCs2bNvlddUlXM_3std3ffi5c_strNtB5_7CStringNtNtNtCs3p84KrD9aKt_4core3ops4drop4Drop4dropCs3Xe6qK9kNBx_21static_map_and_mutate({ i8*, i64 }* align 8 dereferenceable(16) %_1)
          to label %bb4 unwind label %cleanup, !dbg !1511

bb1:                                              ; preds = %bb3
  %2 = bitcast { i8*, i32 }* %0 to i8**, !dbg !1511
  %3 = load i8*, i8** %2, align 8, !dbg !1511
  %4 = getelementptr inbounds { i8*, i32 }, { i8*, i32 }* %0, i32 0, i32 1, !dbg !1511
  %5 = load i32, i32* %4, align 8, !dbg !1511
  %6 = insertvalue { i8*, i32 } undef, i8* %3, 0, !dbg !1511
  %7 = insertvalue { i8*, i32 } %6, i32 %5, 1, !dbg !1511
  resume { i8*, i32 } %7, !dbg !1511

bb2:                                              ; preds = %bb4
  ret void, !dbg !1511

bb3:                                              ; preds = %cleanup
  %8 = bitcast { i8*, i64 }* %_1 to { [0 x i8]*, i64 }*, !dbg !1511
; call core::ptr::drop_in_place::<alloc::boxed::Box<[u8]>>
  call void @_RINvNtCs3p84KrD9aKt_4core3ptr13drop_in_placeINtNtCs8RW06R9lH2S_5alloc5boxed3BoxShEECs3Xe6qK9kNBx_21static_map_and_mutate({ [0 x i8]*, i64 }* %8) #13, !dbg !1511
  br label %bb1, !dbg !1511

bb4:                                              ; preds = %start
  %9 = bitcast { i8*, i64 }* %_1 to { [0 x i8]*, i64 }*, !dbg !1511
; call core::ptr::drop_in_place::<alloc::boxed::Box<[u8]>>
  call void @_RINvNtCs3p84KrD9aKt_4core3ptr13drop_in_placeINtNtCs8RW06R9lH2S_5alloc5boxed3BoxShEECs3Xe6qK9kNBx_21static_map_and_mutate({ [0 x i8]*, i64 }* %9), !dbg !1511
  br label %bb2, !dbg !1511

cleanup:                                          ; preds = %start
  %10 = landingpad { i8*, i32 }
          cleanup
  %11 = extractvalue { i8*, i32 } %10, 0
  %12 = extractvalue { i8*, i32 } %10, 1
  %13 = getelementptr inbounds { i8*, i32 }, { i8*, i32 }* %0, i32 0, i32 0
  store i8* %11, i8** %13, align 8
  %14 = getelementptr inbounds { i8*, i32 }, { i8*, i32 }* %0, i32 0, i32 1
  store i32 %12, i32* %14, align 8
  br label %bb3
}

; core::ptr::drop_in_place::<std::sys::unix::thread::Thread>
; Function Attrs: nonlazybind uwtable
define internal void @_RINvNtCs3p84KrD9aKt_4core3ptr13drop_in_placeNtNtNtNtCs2bNvlddUlXM_3std3sys4unix6thread6ThreadECs3Xe6qK9kNBx_21static_map_and_mutate(i64* %_1) unnamed_addr #0 !dbg !1512 {
start:
  %_1.dbg.spill = alloca i64*, align 8
  %0 = alloca {}, align 1
  store i64* %_1, i64** %_1.dbg.spill, align 8
  call void @llvm.dbg.declare(metadata i64** %_1.dbg.spill, metadata !1517, metadata !DIExpression()), !dbg !1518
; call <std::sys::unix::thread::Thread as core::ops::drop::Drop>::drop
  call void @"_ZN72_$LT$std..sys..unix..thread..Thread$u20$as$u20$core..ops..drop..Drop$GT$4drop17h5cc7e8cf02e8d2d3E"(i64* align 8 dereferenceable(8) %_1), !dbg !1518
  br label %bb1, !dbg !1518

bb1:                                              ; preds = %start
  ret void, !dbg !1518
}

; core::ptr::swap_nonoverlapping::<core::option::Option<core::result::Result<(), alloc::boxed::Box<dyn core::any::Any + core::marker::Send>>>>
; Function Attrs: inlinehint nonlazybind uwtable
define internal void @_RINvNtCs3p84KrD9aKt_4core3ptr19swap_nonoverlappingINtNtB4_6option6OptionINtNtB4_6result6ResultuINtNtCs8RW06R9lH2S_5alloc5boxed3BoxDNtNtB4_3any3AnyNtNtB4_6marker4SendEL_EEEECs3Xe6qK9kNBx_21static_map_and_mutate(%"std::option::Option<std::result::Result<(), std::boxed::Box<dyn std::any::Any + std::marker::Send>>>"* %x, %"std::option::Option<std::result::Result<(), std::boxed::Box<dyn std::any::Any + std::marker::Send>>>"* %y, i64 %count) unnamed_addr #1 !dbg !1519 {
start:
  %len.dbg.spill = alloca i64, align 8
  %y.dbg.spill4 = alloca i8*, align 8
  %x.dbg.spill2 = alloca i8*, align 8
  %count.dbg.spill = alloca i64, align 8
  %y.dbg.spill = alloca %"std::option::Option<std::result::Result<(), std::boxed::Box<dyn std::any::Any + std::marker::Send>>>"*, align 8
  %x.dbg.spill = alloca %"std::option::Option<std::result::Result<(), std::boxed::Box<dyn std::any::Any + std::marker::Send>>>"*, align 8
  store %"std::option::Option<std::result::Result<(), std::boxed::Box<dyn std::any::Any + std::marker::Send>>>"* %x, %"std::option::Option<std::result::Result<(), std::boxed::Box<dyn std::any::Any + std::marker::Send>>>"** %x.dbg.spill, align 8
  call void @llvm.dbg.declare(metadata %"std::option::Option<std::result::Result<(), std::boxed::Box<dyn std::any::Any + std::marker::Send>>>"** %x.dbg.spill, metadata !1523, metadata !DIExpression()), !dbg !1532
  store %"std::option::Option<std::result::Result<(), std::boxed::Box<dyn std::any::Any + std::marker::Send>>>"* %y, %"std::option::Option<std::result::Result<(), std::boxed::Box<dyn std::any::Any + std::marker::Send>>>"** %y.dbg.spill, align 8
  call void @llvm.dbg.declare(metadata %"std::option::Option<std::result::Result<(), std::boxed::Box<dyn std::any::Any + std::marker::Send>>>"** %y.dbg.spill, metadata !1524, metadata !DIExpression()), !dbg !1533
  store i64 %count, i64* %count.dbg.spill, align 8
  call void @llvm.dbg.declare(metadata i64* %count.dbg.spill, metadata !1525, metadata !DIExpression()), !dbg !1534
  %x1 = bitcast %"std::option::Option<std::result::Result<(), std::boxed::Box<dyn std::any::Any + std::marker::Send>>>"* %x to i8*, !dbg !1535
  store i8* %x1, i8** %x.dbg.spill2, align 8, !dbg !1535
  call void @llvm.dbg.declare(metadata i8** %x.dbg.spill2, metadata !1526, metadata !DIExpression()), !dbg !1536
  %y3 = bitcast %"std::option::Option<std::result::Result<(), std::boxed::Box<dyn std::any::Any + std::marker::Send>>>"* %y to i8*, !dbg !1537
  store i8* %y3, i8** %y.dbg.spill4, align 8, !dbg !1537
  call void @llvm.dbg.declare(metadata i8** %y.dbg.spill4, metadata !1528, metadata !DIExpression()), !dbg !1538
  br label %bb1, !dbg !1539

bb1:                                              ; preds = %start
  %len = mul i64 24, %count, !dbg !1539
  store i64 %len, i64* %len.dbg.spill, align 8, !dbg !1539
  call void @llvm.dbg.declare(metadata i64* %len.dbg.spill, metadata !1530, metadata !DIExpression()), !dbg !1540
; call core::ptr::swap_nonoverlapping_bytes
  call void @_RNvNtCs3p84KrD9aKt_4core3ptr25swap_nonoverlapping_bytesCs3Xe6qK9kNBx_21static_map_and_mutate(i8* %x1, i8* %y3, i64 %len), !dbg !1541
  br label %bb2, !dbg !1541

bb2:                                              ; preds = %bb1
  ret void, !dbg !1542
}

; core::ptr::swap_nonoverlapping::<core::option::Option<std::sys::unix::thread::Thread>>
; Function Attrs: inlinehint nonlazybind uwtable
define internal void @_RINvNtCs3p84KrD9aKt_4core3ptr19swap_nonoverlappingINtNtB4_6option6OptionNtNtNtNtCs2bNvlddUlXM_3std3sys4unix6thread6ThreadEECs3Xe6qK9kNBx_21static_map_and_mutate({ i64, i64 }* %x, { i64, i64 }* %y, i64 %count) unnamed_addr #1 !dbg !1543 {
start:
  %len.dbg.spill = alloca i64, align 8
  %y.dbg.spill4 = alloca i8*, align 8
  %x.dbg.spill2 = alloca i8*, align 8
  %count.dbg.spill = alloca i64, align 8
  %y.dbg.spill = alloca { i64, i64 }*, align 8
  %x.dbg.spill = alloca { i64, i64 }*, align 8
  store { i64, i64 }* %x, { i64, i64 }** %x.dbg.spill, align 8
  call void @llvm.dbg.declare(metadata { i64, i64 }** %x.dbg.spill, metadata !1547, metadata !DIExpression()), !dbg !1556
  store { i64, i64 }* %y, { i64, i64 }** %y.dbg.spill, align 8
  call void @llvm.dbg.declare(metadata { i64, i64 }** %y.dbg.spill, metadata !1548, metadata !DIExpression()), !dbg !1557
  store i64 %count, i64* %count.dbg.spill, align 8
  call void @llvm.dbg.declare(metadata i64* %count.dbg.spill, metadata !1549, metadata !DIExpression()), !dbg !1558
  %x1 = bitcast { i64, i64 }* %x to i8*, !dbg !1559
  store i8* %x1, i8** %x.dbg.spill2, align 8, !dbg !1559
  call void @llvm.dbg.declare(metadata i8** %x.dbg.spill2, metadata !1550, metadata !DIExpression()), !dbg !1560
  %y3 = bitcast { i64, i64 }* %y to i8*, !dbg !1561
  store i8* %y3, i8** %y.dbg.spill4, align 8, !dbg !1561
  call void @llvm.dbg.declare(metadata i8** %y.dbg.spill4, metadata !1552, metadata !DIExpression()), !dbg !1562
  br label %bb1, !dbg !1563

bb1:                                              ; preds = %start
  %len = mul i64 16, %count, !dbg !1563
  store i64 %len, i64* %len.dbg.spill, align 8, !dbg !1563
  call void @llvm.dbg.declare(metadata i64* %len.dbg.spill, metadata !1554, metadata !DIExpression()), !dbg !1564
; call core::ptr::swap_nonoverlapping_bytes
  call void @_RNvNtCs3p84KrD9aKt_4core3ptr25swap_nonoverlapping_bytesCs3Xe6qK9kNBx_21static_map_and_mutate(i8* %x1, i8* %y3, i64 %len), !dbg !1565
  br label %bb2, !dbg !1565

bb2:                                              ; preds = %bb1
  ret void, !dbg !1566
}

; core::ptr::swap_nonoverlapping_one::<core::option::Option<core::result::Result<(), alloc::boxed::Box<dyn core::any::Any + core::marker::Send>>>>
; Function Attrs: inlinehint nonlazybind uwtable
define internal void @_RINvNtCs3p84KrD9aKt_4core3ptr23swap_nonoverlapping_oneINtNtB4_6option6OptionINtNtB4_6result6ResultuINtNtCs8RW06R9lH2S_5alloc5boxed3BoxDNtNtB4_3any3AnyNtNtB4_6marker4SendEL_EEEECs3Xe6qK9kNBx_21static_map_and_mutate(%"std::option::Option<std::result::Result<(), std::boxed::Box<dyn std::any::Any + std::marker::Send>>>"* %x, %"std::option::Option<std::result::Result<(), std::boxed::Box<dyn std::any::Any + std::marker::Send>>>"* %y) unnamed_addr #1 personality i32 (i32, i32, i64, %"unwind::libunwind::_Unwind_Exception"*, %"unwind::libunwind::_Unwind_Context"*)* @rust_eh_personality !dbg !1567 {
start:
  %0 = alloca { i8*, i32 }, align 8
  %y.dbg.spill = alloca %"std::option::Option<std::result::Result<(), std::boxed::Box<dyn std::any::Any + std::marker::Send>>>"*, align 8
  %x.dbg.spill = alloca %"std::option::Option<std::result::Result<(), std::boxed::Box<dyn std::any::Any + std::marker::Send>>>"*, align 8
  %_18 = alloca i8, align 1
  %_14 = alloca %"std::option::Option<std::result::Result<(), std::boxed::Box<dyn std::any::Any + std::marker::Send>>>", align 8
  %z = alloca %"std::option::Option<std::result::Result<(), std::boxed::Box<dyn std::any::Any + std::marker::Send>>>", align 8
  %1 = alloca {}, align 1
  store %"std::option::Option<std::result::Result<(), std::boxed::Box<dyn std::any::Any + std::marker::Send>>>"* %x, %"std::option::Option<std::result::Result<(), std::boxed::Box<dyn std::any::Any + std::marker::Send>>>"** %x.dbg.spill, align 8
  call void @llvm.dbg.declare(metadata %"std::option::Option<std::result::Result<(), std::boxed::Box<dyn std::any::Any + std::marker::Send>>>"** %x.dbg.spill, metadata !1571, metadata !DIExpression()), !dbg !1575
  store %"std::option::Option<std::result::Result<(), std::boxed::Box<dyn std::any::Any + std::marker::Send>>>"* %y, %"std::option::Option<std::result::Result<(), std::boxed::Box<dyn std::any::Any + std::marker::Send>>>"** %y.dbg.spill, align 8
  call void @llvm.dbg.declare(metadata %"std::option::Option<std::result::Result<(), std::boxed::Box<dyn std::any::Any + std::marker::Send>>>"** %y.dbg.spill, metadata !1572, metadata !DIExpression()), !dbg !1576
  call void @llvm.dbg.declare(metadata %"std::option::Option<std::result::Result<(), std::boxed::Box<dyn std::any::Any + std::marker::Send>>>"* %z, metadata !1573, metadata !DIExpression()), !dbg !1577
  store i8 0, i8* %_18, align 1, !dbg !1578
  br label %bb1, !dbg !1578

bb1:                                              ; preds = %start
  %_3 = icmp ult i64 24, 32, !dbg !1578
  br i1 %_3, label %bb2, label %bb3, !dbg !1579

bb2:                                              ; preds = %bb1
  store i8 1, i8* %_18, align 1, !dbg !1580
; call core::ptr::read::<core::option::Option<core::result::Result<(), alloc::boxed::Box<dyn core::any::Any + core::marker::Send>>>>
  call void @_RINvNtCs3p84KrD9aKt_4core3ptr4readINtNtB4_6option6OptionINtNtB4_6result6ResultuINtNtCs8RW06R9lH2S_5alloc5boxed3BoxDNtNtB4_3any3AnyNtNtB4_6marker4SendEL_EEEECs3Xe6qK9kNBx_21static_map_and_mutate(%"std::option::Option<std::result::Result<(), std::boxed::Box<dyn std::any::Any + std::marker::Send>>>"* noalias nocapture sret dereferenceable(24) %z, %"std::option::Option<std::result::Result<(), std::boxed::Box<dyn std::any::Any + std::marker::Send>>>"* %x), !dbg !1580
  br label %bb4, !dbg !1580

bb3:                                              ; preds = %bb1
; call core::ptr::swap_nonoverlapping::<core::option::Option<core::result::Result<(), alloc::boxed::Box<dyn core::any::Any + core::marker::Send>>>>
  call void @_RINvNtCs3p84KrD9aKt_4core3ptr19swap_nonoverlappingINtNtB4_6option6OptionINtNtB4_6result6ResultuINtNtCs8RW06R9lH2S_5alloc5boxed3BoxDNtNtB4_3any3AnyNtNtB4_6marker4SendEL_EEEECs3Xe6qK9kNBx_21static_map_and_mutate(%"std::option::Option<std::result::Result<(), std::boxed::Box<dyn std::any::Any + std::marker::Send>>>"* %x, %"std::option::Option<std::result::Result<(), std::boxed::Box<dyn std::any::Any + std::marker::Send>>>"* %y, i64 1), !dbg !1581
  br label %bb7, !dbg !1581

bb4:                                              ; preds = %bb2
; invoke core::intrinsics::copy_nonoverlapping::<core::option::Option<core::result::Result<(), alloc::boxed::Box<dyn core::any::Any + core::marker::Send>>>>
  invoke void @_RINvNtCs3p84KrD9aKt_4core10intrinsics19copy_nonoverlappingINtNtB4_6option6OptionINtNtB4_6result6ResultuINtNtCs8RW06R9lH2S_5alloc5boxed3BoxDNtNtB4_3any3AnyNtNtB4_6marker4SendEL_EEEECs3Xe6qK9kNBx_21static_map_and_mutate(%"std::option::Option<std::result::Result<(), std::boxed::Box<dyn std::any::Any + std::marker::Send>>>"* %y, %"std::option::Option<std::result::Result<(), std::boxed::Box<dyn std::any::Any + std::marker::Send>>>"* %x, i64 1)
          to label %bb5 unwind label %cleanup, !dbg !1582

bb5:                                              ; preds = %bb4
  store i8 0, i8* %_18, align 1, !dbg !1583
  %2 = bitcast %"std::option::Option<std::result::Result<(), std::boxed::Box<dyn std::any::Any + std::marker::Send>>>"* %_14 to i8*, !dbg !1583
  %3 = bitcast %"std::option::Option<std::result::Result<(), std::boxed::Box<dyn std::any::Any + std::marker::Send>>>"* %z to i8*, !dbg !1583
  call void @llvm.memcpy.p0i8.p0i8.i64(i8* align 8 %2, i8* align 8 %3, i64 24, i1 false), !dbg !1583
; invoke core::ptr::write::<core::option::Option<core::result::Result<(), alloc::boxed::Box<dyn core::any::Any + core::marker::Send>>>>
  invoke void @_RINvNtCs3p84KrD9aKt_4core3ptr5writeINtNtB4_6option6OptionINtNtB4_6result6ResultuINtNtCs8RW06R9lH2S_5alloc5boxed3BoxDNtNtB4_3any3AnyNtNtB4_6marker4SendEL_EEEECs3Xe6qK9kNBx_21static_map_and_mutate(%"std::option::Option<std::result::Result<(), std::boxed::Box<dyn std::any::Any + std::marker::Send>>>"* %y, %"std::option::Option<std::result::Result<(), std::boxed::Box<dyn std::any::Any + std::marker::Send>>>"* noalias nocapture dereferenceable(24) %_14)
          to label %bb6 unwind label %cleanup, !dbg !1584

bb6:                                              ; preds = %bb5
  store i8 0, i8* %_18, align 1, !dbg !1585
  br label %bb8, !dbg !1579

bb7:                                              ; preds = %bb3
  br label %bb8, !dbg !1579

bb8:                                              ; preds = %bb7, %bb6
  ret void, !dbg !1586

bb9:                                              ; preds = %bb10, %bb11
  %4 = bitcast { i8*, i32 }* %0 to i8**, !dbg !1587
  %5 = load i8*, i8** %4, align 8, !dbg !1587
  %6 = getelementptr inbounds { i8*, i32 }, { i8*, i32 }* %0, i32 0, i32 1, !dbg !1587
  %7 = load i32, i32* %6, align 8, !dbg !1587
  %8 = insertvalue { i8*, i32 } undef, i8* %5, 0, !dbg !1587
  %9 = insertvalue { i8*, i32 } %8, i32 %7, 1, !dbg !1587
  resume { i8*, i32 } %9, !dbg !1587

bb10:                                             ; preds = %bb11
; call core::ptr::drop_in_place::<core::option::Option<core::result::Result<(), alloc::boxed::Box<dyn core::any::Any + core::marker::Send>>>>
  call void @_RINvNtCs3p84KrD9aKt_4core3ptr13drop_in_placeINtNtB4_6option6OptionINtNtB4_6result6ResultuINtNtCs8RW06R9lH2S_5alloc5boxed3BoxDNtNtB4_3any3AnyNtNtB4_6marker4SendEL_EEEECs3Xe6qK9kNBx_21static_map_and_mutate(%"std::option::Option<std::result::Result<(), std::boxed::Box<dyn std::any::Any + std::marker::Send>>>"* %z) #13, !dbg !1585
  br label %bb9, !dbg !1585

bb11:                                             ; preds = %cleanup
  %10 = load i8, i8* %_18, align 1, !dbg !1585, !range !548
  %11 = trunc i8 %10 to i1, !dbg !1585
  br i1 %11, label %bb10, label %bb9, !dbg !1585

cleanup:                                          ; preds = %bb5, %bb4
  %12 = landingpad { i8*, i32 }
          cleanup
  %13 = extractvalue { i8*, i32 } %12, 0
  %14 = extractvalue { i8*, i32 } %12, 1
  %15 = getelementptr inbounds { i8*, i32 }, { i8*, i32 }* %0, i32 0, i32 0
  store i8* %13, i8** %15, align 8
  %16 = getelementptr inbounds { i8*, i32 }, { i8*, i32 }* %0, i32 0, i32 1
  store i32 %14, i32* %16, align 8
  br label %bb11
}

; core::ptr::swap_nonoverlapping_one::<core::option::Option<std::sys::unix::thread::Thread>>
; Function Attrs: inlinehint nonlazybind uwtable
define internal void @_RINvNtCs3p84KrD9aKt_4core3ptr23swap_nonoverlapping_oneINtNtB4_6option6OptionNtNtNtNtCs2bNvlddUlXM_3std3sys4unix6thread6ThreadEECs3Xe6qK9kNBx_21static_map_and_mutate({ i64, i64 }* %x, { i64, i64 }* %y) unnamed_addr #1 personality i32 (i32, i32, i64, %"unwind::libunwind::_Unwind_Exception"*, %"unwind::libunwind::_Unwind_Context"*)* @rust_eh_personality !dbg !1588 {
start:
  %0 = alloca { i8*, i32 }, align 8
  %y.dbg.spill = alloca { i64, i64 }*, align 8
  %x.dbg.spill = alloca { i64, i64 }*, align 8
  %_18 = alloca i8, align 1
  %z = alloca { i64, i64 }, align 8
  %1 = alloca {}, align 1
  store { i64, i64 }* %x, { i64, i64 }** %x.dbg.spill, align 8
  call void @llvm.dbg.declare(metadata { i64, i64 }** %x.dbg.spill, metadata !1592, metadata !DIExpression()), !dbg !1596
  store { i64, i64 }* %y, { i64, i64 }** %y.dbg.spill, align 8
  call void @llvm.dbg.declare(metadata { i64, i64 }** %y.dbg.spill, metadata !1593, metadata !DIExpression()), !dbg !1597
  call void @llvm.dbg.declare(metadata { i64, i64 }* %z, metadata !1594, metadata !DIExpression()), !dbg !1598
  store i8 0, i8* %_18, align 1, !dbg !1599
  br label %bb1, !dbg !1599

bb1:                                              ; preds = %start
  %_3 = icmp ult i64 16, 32, !dbg !1599
  br i1 %_3, label %bb2, label %bb3, !dbg !1600

bb2:                                              ; preds = %bb1
  store i8 1, i8* %_18, align 1, !dbg !1601
; call core::ptr::read::<core::option::Option<std::sys::unix::thread::Thread>>
  %2 = call { i64, i64 } @_RINvNtCs3p84KrD9aKt_4core3ptr4readINtNtB4_6option6OptionNtNtNtNtCs2bNvlddUlXM_3std3sys4unix6thread6ThreadEECs3Xe6qK9kNBx_21static_map_and_mutate({ i64, i64 }* %x), !dbg !1601
  store { i64, i64 } %2, { i64, i64 }* %z, align 8, !dbg !1601
  br label %bb4, !dbg !1601

bb3:                                              ; preds = %bb1
; call core::ptr::swap_nonoverlapping::<core::option::Option<std::sys::unix::thread::Thread>>
  call void @_RINvNtCs3p84KrD9aKt_4core3ptr19swap_nonoverlappingINtNtB4_6option6OptionNtNtNtNtCs2bNvlddUlXM_3std3sys4unix6thread6ThreadEECs3Xe6qK9kNBx_21static_map_and_mutate({ i64, i64 }* %x, { i64, i64 }* %y, i64 1), !dbg !1602
  br label %bb7, !dbg !1602

bb4:                                              ; preds = %bb2
; invoke core::intrinsics::copy_nonoverlapping::<core::option::Option<std::sys::unix::thread::Thread>>
  invoke void @_RINvNtCs3p84KrD9aKt_4core10intrinsics19copy_nonoverlappingINtNtB4_6option6OptionNtNtNtNtCs2bNvlddUlXM_3std3sys4unix6thread6ThreadEECs3Xe6qK9kNBx_21static_map_and_mutate({ i64, i64 }* %y, { i64, i64 }* %x, i64 1)
          to label %bb5 unwind label %cleanup, !dbg !1603

bb5:                                              ; preds = %bb4
  store i8 0, i8* %_18, align 1, !dbg !1604
  %3 = getelementptr inbounds { i64, i64 }, { i64, i64 }* %z, i32 0, i32 0, !dbg !1604
  %_14.0 = load i64, i64* %3, align 8, !dbg !1604, !range !491
  %4 = getelementptr inbounds { i64, i64 }, { i64, i64 }* %z, i32 0, i32 1, !dbg !1604
  %_14.1 = load i64, i64* %4, align 8, !dbg !1604
; invoke core::ptr::write::<core::option::Option<std::sys::unix::thread::Thread>>
  invoke void @_RINvNtCs3p84KrD9aKt_4core3ptr5writeINtNtB4_6option6OptionNtNtNtNtCs2bNvlddUlXM_3std3sys4unix6thread6ThreadEECs3Xe6qK9kNBx_21static_map_and_mutate({ i64, i64 }* %y, i64 %_14.0, i64 %_14.1)
          to label %bb6 unwind label %cleanup, !dbg !1605

bb6:                                              ; preds = %bb5
  store i8 0, i8* %_18, align 1, !dbg !1606
  br label %bb8, !dbg !1600

bb7:                                              ; preds = %bb3
  br label %bb8, !dbg !1600

bb8:                                              ; preds = %bb7, %bb6
  ret void, !dbg !1607

bb9:                                              ; preds = %bb10, %bb11
  %5 = bitcast { i8*, i32 }* %0 to i8**, !dbg !1608
  %6 = load i8*, i8** %5, align 8, !dbg !1608
  %7 = getelementptr inbounds { i8*, i32 }, { i8*, i32 }* %0, i32 0, i32 1, !dbg !1608
  %8 = load i32, i32* %7, align 8, !dbg !1608
  %9 = insertvalue { i8*, i32 } undef, i8* %6, 0, !dbg !1608
  %10 = insertvalue { i8*, i32 } %9, i32 %8, 1, !dbg !1608
  resume { i8*, i32 } %10, !dbg !1608

bb10:                                             ; preds = %bb11
; call core::ptr::drop_in_place::<core::option::Option<std::sys::unix::thread::Thread>>
  call void @_RINvNtCs3p84KrD9aKt_4core3ptr13drop_in_placeINtNtB4_6option6OptionNtNtNtNtCs2bNvlddUlXM_3std3sys4unix6thread6ThreadEECs3Xe6qK9kNBx_21static_map_and_mutate({ i64, i64 }* %z) #13, !dbg !1606
  br label %bb9, !dbg !1606

bb11:                                             ; preds = %cleanup
  %11 = load i8, i8* %_18, align 1, !dbg !1606, !range !548
  %12 = trunc i8 %11 to i1, !dbg !1606
  br i1 %12, label %bb10, label %bb9, !dbg !1606

cleanup:                                          ; preds = %bb5, %bb4
  %13 = landingpad { i8*, i32 }
          cleanup
  %14 = extractvalue { i8*, i32 } %13, 0
  %15 = extractvalue { i8*, i32 } %13, 1
  %16 = getelementptr inbounds { i8*, i32 }, { i8*, i32 }* %0, i32 0, i32 0
  store i8* %14, i8** %16, align 8
  %17 = getelementptr inbounds { i8*, i32 }, { i8*, i32 }* %0, i32 0, i32 1
  store i32 %15, i32* %17, align 8
  br label %bb11
}

; core::ptr::slice_from_raw_parts_mut::<u8>
; Function Attrs: inlinehint nonlazybind uwtable
define internal { [0 x i8]*, i64 } @_RINvNtCs3p84KrD9aKt_4core3ptr24slice_from_raw_parts_muthECs3Xe6qK9kNBx_21static_map_and_mutate(i8* %data, i64 %len) unnamed_addr #1 !dbg !1609 {
start:
  %len.dbg.spill = alloca i64, align 8
  %data.dbg.spill = alloca i8*, align 8
  %_4 = alloca { i8*, i64 }, align 8
  %_3 = alloca %"std::ptr::Repr<u8>", align 8
  store i8* %data, i8** %data.dbg.spill, align 8
  call void @llvm.dbg.declare(metadata i8** %data.dbg.spill, metadata !1617, metadata !DIExpression()), !dbg !1619
  store i64 %len, i64* %len.dbg.spill, align 8
  call void @llvm.dbg.declare(metadata i64* %len.dbg.spill, metadata !1618, metadata !DIExpression()), !dbg !1620
  %0 = bitcast { i8*, i64 }* %_4 to i8**, !dbg !1621
  store i8* %data, i8** %0, align 8, !dbg !1621
  %1 = getelementptr inbounds { i8*, i64 }, { i8*, i64 }* %_4, i32 0, i32 1, !dbg !1621
  store i64 %len, i64* %1, align 8, !dbg !1621
  %2 = bitcast %"std::ptr::Repr<u8>"* %_3 to { i8*, i64 }*, !dbg !1622
  %3 = getelementptr inbounds { i8*, i64 }, { i8*, i64 }* %_4, i32 0, i32 0, !dbg !1622
  %4 = load i8*, i8** %3, align 8, !dbg !1622
  %5 = getelementptr inbounds { i8*, i64 }, { i8*, i64 }* %_4, i32 0, i32 1, !dbg !1622
  %6 = load i64, i64* %5, align 8, !dbg !1622
  %7 = getelementptr inbounds { i8*, i64 }, { i8*, i64 }* %2, i32 0, i32 0, !dbg !1622
  store i8* %4, i8** %7, align 8, !dbg !1622
  %8 = getelementptr inbounds { i8*, i64 }, { i8*, i64 }* %2, i32 0, i32 1, !dbg !1622
  store i64 %6, i64* %8, align 8, !dbg !1622
  %9 = bitcast %"std::ptr::Repr<u8>"* %_3 to { [0 x i8]*, i64 }*, !dbg !1622
  %10 = getelementptr inbounds { [0 x i8]*, i64 }, { [0 x i8]*, i64 }* %9, i32 0, i32 0, !dbg !1622
  %11 = load [0 x i8]*, [0 x i8]** %10, align 8, !dbg !1622
  %12 = getelementptr inbounds { [0 x i8]*, i64 }, { [0 x i8]*, i64 }* %9, i32 0, i32 1, !dbg !1622
  %13 = load i64, i64* %12, align 8, !dbg !1622
  %14 = insertvalue { [0 x i8]*, i64 } undef, [0 x i8]* %11, 0, !dbg !1623
  %15 = insertvalue { [0 x i8]*, i64 } %14, i64 %13, 1, !dbg !1623
  ret { [0 x i8]*, i64 } %15, !dbg !1623
}

; core::ptr::read::<core::option::Option<core::result::Result<(), alloc::boxed::Box<dyn core::any::Any + core::marker::Send>>>>
; Function Attrs: inlinehint nonlazybind uwtable
define internal void @_RINvNtCs3p84KrD9aKt_4core3ptr4readINtNtB4_6option6OptionINtNtB4_6result6ResultuINtNtCs8RW06R9lH2S_5alloc5boxed3BoxDNtNtB4_3any3AnyNtNtB4_6marker4SendEL_EEEECs3Xe6qK9kNBx_21static_map_and_mutate(%"std::option::Option<std::result::Result<(), std::boxed::Box<dyn std::any::Any + std::marker::Send>>>"* noalias nocapture sret dereferenceable(24) %0, %"std::option::Option<std::result::Result<(), std::boxed::Box<dyn std::any::Any + std::marker::Send>>>"* %src) unnamed_addr #1 !dbg !1624 {
start:
  %self.dbg.spill.i = alloca %"std::mem::MaybeUninit<std::option::Option<std::result::Result<(), std::boxed::Box<dyn std::any::Any + std::marker::Send>>>>"*, align 8
  %_3.i = alloca %"std::mem::ManuallyDrop<std::option::Option<std::result::Result<(), std::boxed::Box<dyn std::any::Any + std::marker::Send>>>>", align 8
  %src.dbg.spill = alloca %"std::option::Option<std::result::Result<(), std::boxed::Box<dyn std::any::Any + std::marker::Send>>>"*, align 8
  %_7 = alloca %"std::mem::MaybeUninit<std::option::Option<std::result::Result<(), std::boxed::Box<dyn std::any::Any + std::marker::Send>>>>", align 8
  %tmp = alloca %"std::mem::MaybeUninit<std::option::Option<std::result::Result<(), std::boxed::Box<dyn std::any::Any + std::marker::Send>>>>", align 8
  store %"std::option::Option<std::result::Result<(), std::boxed::Box<dyn std::any::Any + std::marker::Send>>>"* %src, %"std::option::Option<std::result::Result<(), std::boxed::Box<dyn std::any::Any + std::marker::Send>>>"** %src.dbg.spill, align 8
  call void @llvm.dbg.declare(metadata %"std::option::Option<std::result::Result<(), std::boxed::Box<dyn std::any::Any + std::marker::Send>>>"** %src.dbg.spill, metadata !1628, metadata !DIExpression()), !dbg !1639
  call void @llvm.dbg.declare(metadata %"std::mem::MaybeUninit<std::option::Option<std::result::Result<(), std::boxed::Box<dyn std::any::Any + std::marker::Send>>>>"* %tmp, metadata !1629, metadata !DIExpression()), !dbg !1640
  %1 = bitcast %"std::mem::MaybeUninit<std::option::Option<std::result::Result<(), std::boxed::Box<dyn std::any::Any + std::marker::Send>>>>"* %tmp to {}*, !dbg !1641
  br label %bb1, !dbg !1647

bb1:                                              ; preds = %start
  store %"std::mem::MaybeUninit<std::option::Option<std::result::Result<(), std::boxed::Box<dyn std::any::Any + std::marker::Send>>>>"* %tmp, %"std::mem::MaybeUninit<std::option::Option<std::result::Result<(), std::boxed::Box<dyn std::any::Any + std::marker::Send>>>>"** %self.dbg.spill.i, align 8
  call void @llvm.dbg.declare(metadata %"std::mem::MaybeUninit<std::option::Option<std::result::Result<(), std::boxed::Box<dyn std::any::Any + std::marker::Send>>>>"** %self.dbg.spill.i, metadata !1648, metadata !DIExpression()), !dbg !1654
  %2 = bitcast %"std::mem::MaybeUninit<std::option::Option<std::result::Result<(), std::boxed::Box<dyn std::any::Any + std::marker::Send>>>>"* %tmp to %"std::option::Option<std::result::Result<(), std::boxed::Box<dyn std::any::Any + std::marker::Send>>>"*, !dbg !1656
  br label %bb2, !dbg !1657

bb2:                                              ; preds = %bb1
; call core::intrinsics::copy_nonoverlapping::<core::option::Option<core::result::Result<(), alloc::boxed::Box<dyn core::any::Any + core::marker::Send>>>>
  call void @_RINvNtCs3p84KrD9aKt_4core10intrinsics19copy_nonoverlappingINtNtB4_6option6OptionINtNtB4_6result6ResultuINtNtCs8RW06R9lH2S_5alloc5boxed3BoxDNtNtB4_3any3AnyNtNtB4_6marker4SendEL_EEEECs3Xe6qK9kNBx_21static_map_and_mutate(%"std::option::Option<std::result::Result<(), std::boxed::Box<dyn std::any::Any + std::marker::Send>>>"* %src, %"std::option::Option<std::result::Result<(), std::boxed::Box<dyn std::any::Any + std::marker::Send>>>"* %2, i64 1), !dbg !1658
  br label %bb3, !dbg !1658

bb3:                                              ; preds = %bb2
  %3 = bitcast %"std::mem::MaybeUninit<std::option::Option<std::result::Result<(), std::boxed::Box<dyn std::any::Any + std::marker::Send>>>>"* %_7 to i8*, !dbg !1659
  %4 = bitcast %"std::mem::MaybeUninit<std::option::Option<std::result::Result<(), std::boxed::Box<dyn std::any::Any + std::marker::Send>>>>"* %tmp to i8*, !dbg !1659
  call void @llvm.memcpy.p0i8.p0i8.i64(i8* align 8 %3, i8* align 8 %4, i64 24, i1 false), !dbg !1659
  call void @llvm.dbg.declare(metadata %"std::mem::MaybeUninit<std::option::Option<std::result::Result<(), std::boxed::Box<dyn std::any::Any + std::marker::Send>>>>"* %_7, metadata !1660, metadata !DIExpression()), !dbg !1665
  %5 = bitcast %"std::mem::MaybeUninit<std::option::Option<std::result::Result<(), std::boxed::Box<dyn std::any::Any + std::marker::Send>>>>"* %_7 to %"std::mem::ManuallyDrop<std::option::Option<std::result::Result<(), std::boxed::Box<dyn std::any::Any + std::marker::Send>>>>"*, !dbg !1667
  %6 = bitcast %"std::mem::ManuallyDrop<std::option::Option<std::result::Result<(), std::boxed::Box<dyn std::any::Any + std::marker::Send>>>>"* %_3.i to i8*, !dbg !1667
  %7 = bitcast %"std::mem::ManuallyDrop<std::option::Option<std::result::Result<(), std::boxed::Box<dyn std::any::Any + std::marker::Send>>>>"* %5 to i8*, !dbg !1667
  call void @llvm.memcpy.p0i8.p0i8.i64(i8* align 8 %6, i8* align 8 %7, i64 24, i1 false), !dbg !1667, !noalias !1668
  call void @llvm.dbg.declare(metadata %"std::mem::ManuallyDrop<std::option::Option<std::result::Result<(), std::boxed::Box<dyn std::any::Any + std::marker::Send>>>>"* %_3.i, metadata !1671, metadata !DIExpression()), !dbg !1676
  %8 = bitcast %"std::mem::ManuallyDrop<std::option::Option<std::result::Result<(), std::boxed::Box<dyn std::any::Any + std::marker::Send>>>>"* %_3.i to %"std::option::Option<std::result::Result<(), std::boxed::Box<dyn std::any::Any + std::marker::Send>>>"*, !dbg !1678
  %9 = bitcast %"std::option::Option<std::result::Result<(), std::boxed::Box<dyn std::any::Any + std::marker::Send>>>"* %0 to i8*, !dbg !1678
  %10 = bitcast %"std::option::Option<std::result::Result<(), std::boxed::Box<dyn std::any::Any + std::marker::Send>>>"* %8 to i8*, !dbg !1678
  call void @llvm.memcpy.p0i8.p0i8.i64(i8* align 8 %9, i8* align 8 %10, i64 24, i1 false), !dbg !1678, !alias.scope !1679, !noalias !1683
  br label %bb4, !dbg !1659

bb4:                                              ; preds = %bb3
  ret void, !dbg !1685
}

; core::ptr::read::<core::option::Option<std::sys::unix::thread::Thread>>
; Function Attrs: inlinehint nonlazybind uwtable
define internal { i64, i64 } @_RINvNtCs3p84KrD9aKt_4core3ptr4readINtNtB4_6option6OptionNtNtNtNtCs2bNvlddUlXM_3std3sys4unix6thread6ThreadEECs3Xe6qK9kNBx_21static_map_and_mutate({ i64, i64 }* %src) unnamed_addr #1 !dbg !1686 {
start:
  %self.dbg.spill.i1 = alloca { i64, i64 }*, align 8
  %slot.dbg.spill.i.i = alloca { i64, i64 }, align 8
  %self.dbg.spill.i = alloca { i64, i64 }, align 8
  %0 = alloca { i64, i64 }, align 8
  %src.dbg.spill = alloca { i64, i64 }*, align 8
  %tmp = alloca { i64, i64 }, align 8
  store { i64, i64 }* %src, { i64, i64 }** %src.dbg.spill, align 8
  call void @llvm.dbg.declare(metadata { i64, i64 }** %src.dbg.spill, metadata !1690, metadata !DIExpression()), !dbg !1700
  call void @llvm.dbg.declare(metadata { i64, i64 }* %tmp, metadata !1691, metadata !DIExpression()), !dbg !1701
  %1 = bitcast { i64, i64 }* %0 to {}*, !dbg !1702
  %2 = getelementptr inbounds { i64, i64 }, { i64, i64 }* %0, i32 0, i32 0, !dbg !1707
  %3 = load i64, i64* %2, align 8, !dbg !1707
  %4 = getelementptr inbounds { i64, i64 }, { i64, i64 }* %0, i32 0, i32 1, !dbg !1707
  %5 = load i64, i64* %4, align 8, !dbg !1707
  %6 = insertvalue { i64, i64 } undef, i64 %3, 0, !dbg !1707
  %7 = insertvalue { i64, i64 } %6, i64 %5, 1, !dbg !1707
  store { i64, i64 } %7, { i64, i64 }* %tmp, align 8, !dbg !1708
  br label %bb1, !dbg !1708

bb1:                                              ; preds = %start
  store { i64, i64 }* %tmp, { i64, i64 }** %self.dbg.spill.i1, align 8
  call void @llvm.dbg.declare(metadata { i64, i64 }** %self.dbg.spill.i1, metadata !1709, metadata !DIExpression()), !dbg !1715
  br label %bb2, !dbg !1717

bb2:                                              ; preds = %bb1
; call core::intrinsics::copy_nonoverlapping::<core::option::Option<std::sys::unix::thread::Thread>>
  call void @_RINvNtCs3p84KrD9aKt_4core10intrinsics19copy_nonoverlappingINtNtB4_6option6OptionNtNtNtNtCs2bNvlddUlXM_3std3sys4unix6thread6ThreadEECs3Xe6qK9kNBx_21static_map_and_mutate({ i64, i64 }* %src, { i64, i64 }* %tmp, i64 1), !dbg !1718
  br label %bb3, !dbg !1718

bb3:                                              ; preds = %bb2
  %8 = getelementptr inbounds { i64, i64 }, { i64, i64 }* %tmp, i32 0, i32 0, !dbg !1719
  %_7.0 = load i64, i64* %8, align 8, !dbg !1719
  %9 = getelementptr inbounds { i64, i64 }, { i64, i64 }* %tmp, i32 0, i32 1, !dbg !1719
  %_7.1 = load i64, i64* %9, align 8, !dbg !1719
  %10 = getelementptr inbounds { i64, i64 }, { i64, i64 }* %self.dbg.spill.i, i32 0, i32 0
  store i64 %_7.0, i64* %10, align 8
  %11 = getelementptr inbounds { i64, i64 }, { i64, i64 }* %self.dbg.spill.i, i32 0, i32 1
  store i64 %_7.1, i64* %11, align 8
  call void @llvm.dbg.declare(metadata { i64, i64 }* %self.dbg.spill.i, metadata !1720, metadata !DIExpression()), !dbg !1725
  %12 = getelementptr inbounds { i64, i64 }, { i64, i64 }* %slot.dbg.spill.i.i, i32 0, i32 0
  store i64 %_7.0, i64* %12, align 8
  %13 = getelementptr inbounds { i64, i64 }, { i64, i64 }* %slot.dbg.spill.i.i, i32 0, i32 1
  store i64 %_7.1, i64* %13, align 8
  call void @llvm.dbg.declare(metadata { i64, i64 }* %slot.dbg.spill.i.i, metadata !1727, metadata !DIExpression()), !dbg !1732
  %14 = insertvalue { i64, i64 } undef, i64 %_7.0, 0, !dbg !1734
  %15 = insertvalue { i64, i64 } %14, i64 %_7.1, 1, !dbg !1734
  %16 = insertvalue { i64, i64 } undef, i64 %_7.0, 0, !dbg !1735
  %17 = insertvalue { i64, i64 } %16, i64 %_7.1, 1, !dbg !1735
  %18 = extractvalue { i64, i64 } %17, 0, !dbg !1719
  %19 = extractvalue { i64, i64 } %17, 1, !dbg !1719
  br label %bb4, !dbg !1719

bb4:                                              ; preds = %bb3
  %20 = insertvalue { i64, i64 } undef, i64 %18, 0, !dbg !1736
  %21 = insertvalue { i64, i64 } %20, i64 %19, 1, !dbg !1736
  ret { i64, i64 } %21, !dbg !1736
}

; core::ptr::read::<std::panic::AssertUnwindSafe<<std::thread::Builder>::spawn_unchecked<static_map_and_mutate::main::{closure#0}, ()>::{closure#0}::{closure#0}>>
; Function Attrs: inlinehint nonlazybind uwtable
define internal void @_RINvNtCs3p84KrD9aKt_4core3ptr4readINtNtCs2bNvlddUlXM_3std5panic16AssertUnwindSafeNCNCINvMNtBB_6threadNtB1p_7Builder15spawn_uncheckedNCNvCs3Xe6qK9kNBx_21static_map_and_mutate4main0uE00EEB2a_(%"std::panic::AssertUnwindSafe<[closure@std::thread::Builder::spawn_unchecked<[closure@src/main.rs:12:28: 21:3], ()>::{closure#0}::{closure#0}]>"* %src) unnamed_addr #1 !dbg !1737 {
start:
  %self.dbg.spill.i = alloca %"std::mem::MaybeUninit<std::panic::AssertUnwindSafe<[closure@std::thread::Builder::spawn_unchecked<[closure@src/main.rs:12:28: 21:3], ()>::{closure#0}::{closure#0}]>>"*, align 8
  %0 = alloca %"std::mem::MaybeUninit<std::panic::AssertUnwindSafe<[closure@std::thread::Builder::spawn_unchecked<[closure@src/main.rs:12:28: 21:3], ()>::{closure#0}::{closure#0}]>>", align 1
  %src.dbg.spill = alloca %"std::panic::AssertUnwindSafe<[closure@std::thread::Builder::spawn_unchecked<[closure@src/main.rs:12:28: 21:3], ()>::{closure#0}::{closure#0}]>"*, align 8
  %tmp = alloca %"std::mem::MaybeUninit<std::panic::AssertUnwindSafe<[closure@std::thread::Builder::spawn_unchecked<[closure@src/main.rs:12:28: 21:3], ()>::{closure#0}::{closure#0}]>>", align 1
  store %"std::panic::AssertUnwindSafe<[closure@std::thread::Builder::spawn_unchecked<[closure@src/main.rs:12:28: 21:3], ()>::{closure#0}::{closure#0}]>"* %src, %"std::panic::AssertUnwindSafe<[closure@std::thread::Builder::spawn_unchecked<[closure@src/main.rs:12:28: 21:3], ()>::{closure#0}::{closure#0}]>"** %src.dbg.spill, align 8
  call void @llvm.dbg.declare(metadata %"std::panic::AssertUnwindSafe<[closure@std::thread::Builder::spawn_unchecked<[closure@src/main.rs:12:28: 21:3], ()>::{closure#0}::{closure#0}]>"** %src.dbg.spill, metadata !1741, metadata !DIExpression()), !dbg !1748
  call void @llvm.dbg.declare(metadata %"std::mem::MaybeUninit<std::panic::AssertUnwindSafe<[closure@std::thread::Builder::spawn_unchecked<[closure@src/main.rs:12:28: 21:3], ()>::{closure#0}::{closure#0}]>>"* %tmp, metadata !1742, metadata !DIExpression()), !dbg !1749
  %1 = bitcast %"std::mem::MaybeUninit<std::panic::AssertUnwindSafe<[closure@std::thread::Builder::spawn_unchecked<[closure@src/main.rs:12:28: 21:3], ()>::{closure#0}::{closure#0}]>>"* %0 to {}*, !dbg !1750
  br label %bb1, !dbg !1753

bb1:                                              ; preds = %start
  store %"std::mem::MaybeUninit<std::panic::AssertUnwindSafe<[closure@std::thread::Builder::spawn_unchecked<[closure@src/main.rs:12:28: 21:3], ()>::{closure#0}::{closure#0}]>>"* %tmp, %"std::mem::MaybeUninit<std::panic::AssertUnwindSafe<[closure@std::thread::Builder::spawn_unchecked<[closure@src/main.rs:12:28: 21:3], ()>::{closure#0}::{closure#0}]>>"** %self.dbg.spill.i, align 8
  call void @llvm.dbg.declare(metadata %"std::mem::MaybeUninit<std::panic::AssertUnwindSafe<[closure@std::thread::Builder::spawn_unchecked<[closure@src/main.rs:12:28: 21:3], ()>::{closure#0}::{closure#0}]>>"** %self.dbg.spill.i, metadata !1754, metadata !DIExpression()), !dbg !1760
  %2 = bitcast %"std::mem::MaybeUninit<std::panic::AssertUnwindSafe<[closure@std::thread::Builder::spawn_unchecked<[closure@src/main.rs:12:28: 21:3], ()>::{closure#0}::{closure#0}]>>"* %tmp to %"std::panic::AssertUnwindSafe<[closure@std::thread::Builder::spawn_unchecked<[closure@src/main.rs:12:28: 21:3], ()>::{closure#0}::{closure#0}]>"*, !dbg !1762
  br label %bb2, !dbg !1763

bb2:                                              ; preds = %bb1
; call core::intrinsics::copy_nonoverlapping::<std::panic::AssertUnwindSafe<<std::thread::Builder>::spawn_unchecked<static_map_and_mutate::main::{closure#0}, ()>::{closure#0}::{closure#0}>>
  call void @_RINvNtCs3p84KrD9aKt_4core10intrinsics19copy_nonoverlappingINtNtCs2bNvlddUlXM_3std5panic16AssertUnwindSafeNCNCINvMNtBZ_6threadNtB1N_7Builder15spawn_uncheckedNCNvCs3Xe6qK9kNBx_21static_map_and_mutate4main0uE00EEB2y_(%"std::panic::AssertUnwindSafe<[closure@std::thread::Builder::spawn_unchecked<[closure@src/main.rs:12:28: 21:3], ()>::{closure#0}::{closure#0}]>"* %src, %"std::panic::AssertUnwindSafe<[closure@std::thread::Builder::spawn_unchecked<[closure@src/main.rs:12:28: 21:3], ()>::{closure#0}::{closure#0}]>"* %2, i64 1), !dbg !1764
  br label %bb3, !dbg !1764

bb3:                                              ; preds = %bb2
  call void @llvm.dbg.declare(metadata %"std::mem::MaybeUninit<std::panic::AssertUnwindSafe<[closure@std::thread::Builder::spawn_unchecked<[closure@src/main.rs:12:28: 21:3], ()>::{closure#0}::{closure#0}]>>"* undef, metadata !1765, metadata !DIExpression()), !dbg !1770
  call void @llvm.dbg.declare(metadata %"std::mem::ManuallyDrop<std::panic::AssertUnwindSafe<[closure@std::thread::Builder::spawn_unchecked<[closure@src/main.rs:12:28: 21:3], ()>::{closure#0}::{closure#0}]>>"* undef, metadata !1772, metadata !DIExpression()), !dbg !1777
  br label %bb4, !dbg !1779

bb4:                                              ; preds = %bb3
  ret void, !dbg !1780
}

; core::ptr::write::<core::option::Option<core::result::Result<(), alloc::boxed::Box<dyn core::any::Any + core::marker::Send>>>>
; Function Attrs: inlinehint nonlazybind uwtable
define internal void @_RINvNtCs3p84KrD9aKt_4core3ptr5writeINtNtB4_6option6OptionINtNtB4_6result6ResultuINtNtCs8RW06R9lH2S_5alloc5boxed3BoxDNtNtB4_3any3AnyNtNtB4_6marker4SendEL_EEEECs3Xe6qK9kNBx_21static_map_and_mutate(%"std::option::Option<std::result::Result<(), std::boxed::Box<dyn std::any::Any + std::marker::Send>>>"* %dst, %"std::option::Option<std::result::Result<(), std::boxed::Box<dyn std::any::Any + std::marker::Send>>>"* noalias nocapture dereferenceable(24) %src) unnamed_addr #1 !dbg !1781 {
start:
  %dst.dbg.spill = alloca %"std::option::Option<std::result::Result<(), std::boxed::Box<dyn std::any::Any + std::marker::Send>>>"*, align 8
  %0 = alloca {}, align 1
  store %"std::option::Option<std::result::Result<(), std::boxed::Box<dyn std::any::Any + std::marker::Send>>>"* %dst, %"std::option::Option<std::result::Result<(), std::boxed::Box<dyn std::any::Any + std::marker::Send>>>"** %dst.dbg.spill, align 8
  call void @llvm.dbg.declare(metadata %"std::option::Option<std::result::Result<(), std::boxed::Box<dyn std::any::Any + std::marker::Send>>>"** %dst.dbg.spill, metadata !1785, metadata !DIExpression()), !dbg !1787
  call void @llvm.dbg.declare(metadata %"std::option::Option<std::result::Result<(), std::boxed::Box<dyn std::any::Any + std::marker::Send>>>"* %src, metadata !1786, metadata !DIExpression()), !dbg !1788
  %1 = bitcast %"std::option::Option<std::result::Result<(), std::boxed::Box<dyn std::any::Any + std::marker::Send>>>"* %dst to i8*, !dbg !1789
  %2 = bitcast %"std::option::Option<std::result::Result<(), std::boxed::Box<dyn std::any::Any + std::marker::Send>>>"* %src to i8*, !dbg !1789
