; ModuleID = 'crossbeam_utils.3h03fk6h-cgu.0'
source_filename = "crossbeam_utils.3h03fk6h-cgu.0"
target datalayout = "e-m:e-p270:32:32-p271:32:32-p272:64:64-i64:64-f80:128-n8:16:32:64-S128"
target triple = "x86_64-unknown-linux-gnu"

%"std::fmt::Formatter" = type { [0 x i64], { i64, i64 }, [0 x i64], { i64, i64 }, [0 x i64], { {}*, [3 x i64]* }, [0 x i32], i32, [0 x i32], i32, [0 x i8], i8, [7 x i8] }
%"std::alloc::LayoutError" = type { [0 x i8], {}, [0 x i8] }
%"std::thread::AccessError" = type { [0 x i8], {}, [0 x i8] }
%"std::sync::PoisonError<(std::sync::MutexGuard<()>, std::sync::WaitTimeoutResult)>" = type { [0 x i64], { [0 x i64], { i64*, i8 }, [0 x i8], i8, [7 x i8] }, [0 x i64] }
%"std::sync::atomic::AtomicUsize" = type { [0 x i64], i64, [0 x i64] }
%"std::thread::Builder" = type { [0 x i64], %"std::option::Option<std::string::String>", [0 x i64], { i64, i64 }, [0 x i64] }
%"std::option::Option<std::string::String>" = type { [0 x i64], {}*, [2 x i64] }
%"std::alloc::AllocError" = type {}
%"std::result::Result<std::ptr::NonNull<u8>, std::alloc::AllocError>::Err" = type { [0 x i8], %"std::alloc::AllocError", [0 x i8] }
%"std::option::NoneError" = type {}
%"std::result::Result<std::alloc::Layout, std::option::NoneError>::Err" = type { [0 x i8], %"std::option::NoneError", [0 x i8] }
%"std::result::Result<&std::cell::Cell<(u64, u64)>, std::thread::AccessError>::Err" = type { [0 x i8], %"std::thread::AccessError", [0 x i8] }
%"std::result::Result<usize, std::option::NoneError>::Err" = type { [8 x i8], %"std::option::NoneError", [0 x i8] }
%"std::option::Option<usize>::Some" = type { [1 x i64], i64, [0 x i64] }
%"std::result::Result<usize, std::option::NoneError>::Ok" = type { [1 x i64], i64, [0 x i64] }
%"std::result::Result<usize, std::collections::TryReserveError>" = type { [0 x i64], i64, [2 x i64] }
%"std::result::Result<usize, std::collections::TryReserveError>::Err" = type { [1 x i64], { i64, i64 }, [0 x i64] }
%"std::result::Result<usize, std::collections::TryReserveError>::Ok" = type { [1 x i64], i64, [0 x i64] }
%"std::result::Result<usize, std::alloc::LayoutError>::Err" = type { [8 x i8], %"std::alloc::LayoutError", [0 x i8] }
%"std::result::Result<usize, std::alloc::LayoutError>::Ok" = type { [1 x i64], i64, [0 x i64] }
%"std::result::Result<std::ptr::NonNull<[u8]>, std::collections::TryReserveError>" = type { [0 x i64], i64, [2 x i64] }
%"std::result::Result<std::ptr::NonNull<[u8]>, std::collections::TryReserveError>::Ok" = type { [1 x i64], { i8*, i64 }, [0 x i64] }
%"std::result::Result<std::ptr::NonNull<[u8]>, std::collections::TryReserveError>::Err" = type { [1 x i64], { i64, i64 }, [0 x i64] }
%"std::result::Result<std::alloc::Layout, std::collections::TryReserveError>" = type { [0 x i64], i64, [2 x i64] }
%"[closure@alloc::raw_vec::finish_grow<std::alloc::Global>::{closure#0}]" = type {}
%"std::result::Result<std::alloc::Layout, std::collections::TryReserveError>::Ok" = type { [1 x i64], { i64, i64 }, [0 x i64] }
%"std::result::Result<std::alloc::Layout, std::collections::TryReserveError>::Err" = type { [1 x i64], { i64, i64 }, [0 x i64] }
%"alloc::sync::ArcInner<std::thread::Inner>" = type { [0 x i64], %"std::sync::atomic::AtomicUsize", [0 x i64], %"std::sync::atomic::AtomicUsize", [0 x i64], %"std::thread::Inner", [0 x i64] }
%"std::thread::Inner" = type { [0 x i64], { i8*, i64 }, [0 x i64], i64, [0 x i32], %"std::sys_common::thread_parker::futex::Parker", [1 x i32] }
%"std::sys_common::thread_parker::futex::Parker" = type { [0 x i32], %"std::sync::atomic::AtomicI32", [0 x i32] }
%"std::sync::atomic::AtomicI32" = type { [0 x i32], i32, [0 x i32] }
%"alloc::sync::ArcInner<sync::wait_group::Inner>" = type { [0 x i64], %"std::sync::atomic::AtomicUsize", [0 x i64], %"std::sync::atomic::AtomicUsize", [0 x i64], %"sync::wait_group::Inner", [0 x i64] }
%"sync::wait_group::Inner" = type { [0 x i64], %"std::sync::Condvar", [0 x i64], %"std::sync::Mutex<usize>", [0 x i64] }
%"std::sync::Condvar" = type { [0 x i64], %"std::sys_common::condvar::Condvar", [0 x i64] }
%"std::sys_common::condvar::Condvar" = type { [0 x i64], %"std::sys::unix::condvar::Condvar"*, [0 x i64], %"std::sys_common::condvar::check::SameMutexCheck", [0 x i64] }
%"std::sys::unix::condvar::Condvar" = type { [0 x i64], %"std::cell::UnsafeCell<libc::unix::linux_like::linux::pthread_cond_t>", [0 x i64] }
%"std::cell::UnsafeCell<libc::unix::linux_like::linux::pthread_cond_t>" = type { [0 x i64], %"libc::unix::linux_like::linux::pthread_cond_t", [0 x i64] }
%"libc::unix::linux_like::linux::pthread_cond_t" = type { [0 x i8], [48 x i8], [0 x i8] }
%"std::sys_common::condvar::check::SameMutexCheck" = type { [0 x i64], %"std::sync::atomic::AtomicUsize", [0 x i64] }
%"std::sync::Mutex<usize>" = type { [0 x i64], i64*, [0 x i8], %"std::sys_common::poison::Flag", [7 x i8], i64, [0 x i64] }
%"std::sys_common::poison::Flag" = type { [0 x i8], %"std::sync::atomic::AtomicBool", [0 x i8] }
%"std::sync::atomic::AtomicBool" = type { [0 x i8], i8, [0 x i8] }
%"alloc::sync::ArcInner<sync::parker::Inner>" = type { [0 x i64], %"std::sync::atomic::AtomicUsize", [0 x i64], %"std::sync::atomic::AtomicUsize", [0 x i64], %"sync::parker::Inner", [0 x i64] }
%"sync::parker::Inner" = type { [0 x i64], %"std::sync::atomic::AtomicUsize", [0 x i64], %"std::sync::Mutex<()>", [0 x i64], %"std::sync::Condvar", [0 x i64] }
%"std::sync::Mutex<()>" = type { [0 x i64], i64*, [0 x i8], %"std::sys_common::poison::Flag", [0 x i8], %"std::cell::UnsafeCell<()>", [7 x i8] }
%"std::cell::UnsafeCell<()>" = type { [0 x i8], {}, [0 x i8] }
%"std::result::Result<(std::alloc::Layout, usize), std::alloc::LayoutError>" = type { [1 x i64], i64, [1 x i64] }
%"std::result::Result<(std::alloc::Layout, usize), std::alloc::LayoutError>::Ok" = type { [0 x i64], { [0 x i64], { i64, i64 }, [0 x i64], i64, [0 x i64] }, [0 x i64] }
%"hashbrown::map::HashMap<std::thread::ThreadId, usize, std::collections::hash_map::RandomState>" = type { [0 x i64], { i64, i64 }, [0 x i64], %"hashbrown::raw::RawTable<(std::thread::ThreadId, usize)>", [0 x i64] }
%"hashbrown::raw::RawTable<(std::thread::ThreadId, usize)>" = type { [0 x i8], %"std::marker::PhantomData<(std::thread::ThreadId, usize)>", [0 x i8], i64, [0 x i64], i8*, [0 x i64], i64, [0 x i64], i64, [0 x i64] }
%"std::marker::PhantomData<(std::thread::ThreadId, usize)>" = type {}
%"std::sync::Once" = type { [0 x i8], %"std::marker::PhantomData<*const std::sync::once::Waiter>", [0 x i8], %"std::sync::atomic::AtomicUsize", [0 x i64] }
%"std::marker::PhantomData<*const std::sync::once::Waiter>" = type {}
%"std::collections::HashMap<std::thread::ThreadId, usize>" = type { [0 x i64], %"hashbrown::map::HashMap<std::thread::ThreadId, usize, std::collections::hash_map::RandomState>", [0 x i64] }
%"std::sys::unix::mutex::Mutex" = type { [0 x i64], %"std::cell::UnsafeCell<libc::unix::linux_like::linux::pthread_mutex_t>", [0 x i64] }
%"std::cell::UnsafeCell<libc::unix::linux_like::linux::pthread_mutex_t>" = type { [0 x i64], %"libc::unix::linux_like::linux::pthread_mutex_t", [0 x i64] }
%"libc::unix::linux_like::linux::pthread_mutex_t" = type { [0 x i8], [40 x i8], [0 x i8] }
%"[closure@std::collections::hash_map::RandomState::new::{closure#0}]" = type {}
%"std::result::Result<std::collections::hash_map::RandomState, std::thread::AccessError>" = type { [0 x i64], i64, [2 x i64] }
%"std::panic::Location" = type { [0 x i64], { [0 x i8]*, i64 }, [0 x i32], i32, [0 x i32], i32, [0 x i32] }
%"std::result::Result<std::collections::hash_map::RandomState, std::thread::AccessError>::Ok" = type { [1 x i64], { i64, i64 }, [0 x i64] }
%"std::result::Result<(), hashbrown::TryReserveError>" = type { [0 x i64], i64, [2 x i64] }
%"std::result::Result<(), hashbrown::TryReserveError>::Err" = type { [1 x i64], { i64, i64 }, [0 x i64] }
%"std::result::Result<(), hashbrown::TryReserveError>::Ok" = type { [8 x i8], {}, [0 x i8] }
%"[closure@hashbrown::raw::RawTable<(std::thread::ThreadId, usize)>::rehash_in_place<[closure@hashbrown::map::HashMap<std::thread::ThreadId, usize, std::collections::hash_map::RandomState>::insert::{closure#1}]>::{closure#0}]" = type {}
%"std::iter::StepBy<std::ops::Range<usize>>" = type { [0 x i64], { i64, i64 }, [0 x i64], i64, [0 x i8], i8, [7 x i8] }
%"hashbrown::raw::RawIterHash<(std::thread::ThreadId, usize)>" = type { [0 x i64], <2 x i64>, [0 x i64], %"hashbrown::raw::RawTable<(std::thread::ThreadId, usize)>"*, [0 x i64], %"hashbrown::raw::ProbeSeq", [0 x i64], i64, [0 x i16], i16, [0 x i8], i8, [5 x i8] }
%"hashbrown::raw::ProbeSeq" = type { [0 x i64], i64, [0 x i64], i64, [0 x i64], i64, [0 x i64] }
%"std::mem::ManuallyDrop<hashbrown::raw::RawTable<(std::thread::ThreadId, usize)>>" = type { [0 x i64], %"hashbrown::raw::RawTable<(std::thread::ThreadId, usize)>", [0 x i64] }
%"hashbrown::raw::RawIter<(std::thread::ThreadId, usize)>" = type { [0 x i64], %"hashbrown::raw::RawIterRange<(std::thread::ThreadId, usize)>", [0 x i64], i64, [0 x i64] }
%"hashbrown::raw::RawIterRange<(std::thread::ThreadId, usize)>" = type { [0 x i64], i64*, [0 x i64], i8*, [0 x i64], i8*, [0 x i16], i16, [3 x i16] }
%"[closure@hashbrown::raw::RawTable<(std::thread::ThreadId, usize)>::resize<[closure@hashbrown::map::HashMap<std::thread::ThreadId, usize, std::collections::hash_map::RandomState>::insert::{closure#1}]>::{closure#0}]" = type {}
%"hashbrown::scopeguard::ScopeGuard<std::mem::ManuallyDrop<hashbrown::raw::RawTable<(std::thread::ThreadId, usize)>>, [closure@hashbrown::raw::RawTable<(std::thread::ThreadId, usize)>::resize<[closure@hashbrown::map::HashMap<std::thread::ThreadId, usize, std::collections::hash_map::RandomState>::insert::{closure#1}]>::{closure#0}]>" = type { [0 x i8], %"[closure@hashbrown::raw::RawTable<(std::thread::ThreadId, usize)>::resize<[closure@hashbrown::map::HashMap<std::thread::ThreadId, usize, std::collections::hash_map::RandomState>::insert::{closure#1}]>::{closure#0}]", [0 x i8], %"std::mem::ManuallyDrop<hashbrown::raw::RawTable<(std::thread::ThreadId, usize)>>", [0 x i64] }
%"std::result::Result<hashbrown::raw::RawTable<(std::thread::ThreadId, usize)>, hashbrown::TryReserveError>" = type { [0 x i64], i64, [4 x i64] }
%"std::result::Result<hashbrown::raw::RawTable<(std::thread::ThreadId, usize)>, hashbrown::TryReserveError>::Ok" = type { [1 x i64], %"hashbrown::raw::RawTable<(std::thread::ThreadId, usize)>", [0 x i64] }
%"std::result::Result<hashbrown::raw::RawTable<(std::thread::ThreadId, usize)>, hashbrown::TryReserveError>::Err" = type { [1 x i64], { i64, i64 }, [0 x i64] }
%"std::fmt::Arguments" = type { [0 x i64], { [0 x { [0 x i8]*, i64 }]*, i64 }, [0 x i64], { i64*, i64 }, [0 x i64], { [0 x { i8*, i64* }]*, i64 }, [0 x i64] }
%"core::fmt::Opaque" = type {}
%"std::result::Result<(std::sync::MutexGuard<()>, std::sync::WaitTimeoutResult), std::sync::PoisonError<(std::sync::MutexGuard<()>, std::sync::WaitTimeoutResult)>>" = type { [0 x i64], i64, [3 x i64] }
%"std::result::Result<(std::sync::MutexGuard<()>, std::sync::WaitTimeoutResult), std::sync::PoisonError<(std::sync::MutexGuard<()>, std::sync::WaitTimeoutResult)>>::Ok" = type { [1 x i64], { [0 x i64], { i64*, i8 }, [0 x i8], i8, [7 x i8] }, [0 x i64] }
%"std::result::Result<(std::sync::MutexGuard<()>, std::sync::WaitTimeoutResult), std::sync::PoisonError<(std::sync::MutexGuard<()>, std::sync::WaitTimeoutResult)>>::Err" = type { [1 x i64], %"std::sync::PoisonError<(std::sync::MutexGuard<()>, std::sync::WaitTimeoutResult)>", [0 x i64] }
%"std::result::Result<std::sync::MutexGuard<usize>, std::sync::PoisonError<std::sync::MutexGuard<usize>>>" = type { [0 x i64], i64, [2 x i64] }
%"std::result::Result<std::sync::MutexGuard<usize>, std::sync::PoisonError<std::sync::MutexGuard<usize>>>::Ok" = type { [1 x i64], { i64*, i8 }, [0 x i64] }
%"std::result::Result<std::sync::MutexGuard<usize>, std::sync::PoisonError<std::sync::MutexGuard<usize>>>::Err" = type { [1 x i64], { i64*, i8 }, [0 x i64] }
%"std::result::Result<std::sync::MutexGuard<()>, std::sync::PoisonError<std::sync::MutexGuard<()>>>" = type { [0 x i64], i64, [2 x i64] }
%"std::result::Result<std::sync::MutexGuard<()>, std::sync::PoisonError<std::sync::MutexGuard<()>>>::Ok" = type { [1 x i64], { i64*, i8 }, [0 x i64] }
%"std::result::Result<std::sync::MutexGuard<()>, std::sync::PoisonError<std::sync::MutexGuard<()>>>::Err" = type { [1 x i64], { i64*, i8 }, [0 x i64] }
%"std::thread::__FastLocalKeyInner<sync::sharded_lock::Registration>" = type { [0 x i64], { i64, i64 }, [0 x i8], i8, [7 x i8] }
%"[closure@std::rt::begin_panic<&str>::{closure#0}]" = type { [0 x i64], { [0 x i8]*, i64 }, [0 x i64], %"std::panic::Location"*, [0 x i64] }
%"std::option::Option<std::sync::Mutex<sync::sharded_lock::ThreadIndices>>" = type { [0 x i64], {}*, [11 x i64] }
%"std::alloc::Global" = type {}
%"std::cell::UnsafeCell<std::option::Option<std::sync::Mutex<sync::sharded_lock::ThreadIndices>>>" = type { [0 x i64], %"std::option::Option<std::sync::Mutex<sync::sharded_lock::ThreadIndices>>", [0 x i64] }
%"std::cell::UnsafeCell<sync::sharded_lock::ThreadIndices>" = type { [0 x i64], %"sync::sharded_lock::ThreadIndices", [0 x i64] }
%"sync::sharded_lock::ThreadIndices" = type { [0 x i64], %"std::collections::HashMap<std::thread::ThreadId, usize>", [0 x i64], %"std::vec::Vec<usize>", [0 x i64], i64, [0 x i64] }
%"std::vec::Vec<usize>" = type { [0 x i64], { i64*, i64 }, [0 x i64], i64, [0 x i64] }
%"std::cell::Cell<std::option::Option<std::sync::Mutex<sync::sharded_lock::ThreadIndices>>>" = type { [0 x i64], %"std::cell::UnsafeCell<std::option::Option<std::sync::Mutex<sync::sharded_lock::ThreadIndices>>>", [0 x i64] }
%"std::option::Option<std::sync::Mutex<sync::sharded_lock::ThreadIndices>>::Some" = type { [0 x i64], %"std::sync::Mutex<sync::sharded_lock::ThreadIndices>", [0 x i64] }
%"std::sync::Mutex<sync::sharded_lock::ThreadIndices>" = type { [0 x i64], i64*, [0 x i8], %"std::sys_common::poison::Flag", [7 x i8], %"std::cell::UnsafeCell<sync::sharded_lock::ThreadIndices>", [0 x i64] }
%"lazy_static::lazy::Lazy<std::sync::Mutex<sync::sharded_lock::ThreadIndices>>" = type { [0 x i64], %"std::cell::Cell<std::option::Option<std::sync::Mutex<sync::sharded_lock::ThreadIndices>>>", [0 x i64], %"std::sync::Once", [0 x i64] }
%"std::ptr::Repr<u8>" = type { [2 x i64] }
%"std::ptr::Repr<usize>" = type { [2 x i64] }
%"std::mem::MaybeUninit<std::option::Option<std::sync::Mutex<sync::sharded_lock::ThreadIndices>>>" = type { [12 x i64] }
%"std::mem::ManuallyDrop<std::option::Option<std::sync::Mutex<sync::sharded_lock::ThreadIndices>>>" = type { [0 x i64], %"std::option::Option<std::sync::Mutex<sync::sharded_lock::ThreadIndices>>", [0 x i64] }
%"std::mem::MaybeUninit<hashbrown::raw::RawTable<(std::thread::ThreadId, usize)>>" = type { [4 x i64] }
%"std::mem::MaybeUninit<std::alloc::Global>" = type { [0 x i8] }
%"std::mem::ManuallyDrop<std::alloc::Global>" = type { [0 x i8], %"std::alloc::Global", [0 x i8] }
%"std::collections::hash_map::DefaultHasher" = type { [0 x i64], %"std::hash::SipHasher13", [0 x i64] }
%"std::hash::SipHasher13" = type { [0 x i64], %"std::hash::sip::Hasher<std::hash::sip::Sip13Rounds>", [0 x i64] }
%"std::hash::sip::Hasher<std::hash::sip::Sip13Rounds>" = type { [0 x i8], %"std::marker::PhantomData<std::hash::sip::Sip13Rounds>", [0 x i8], i64, [0 x i64], i64, [0 x i64], i64, [0 x i64], %"std::hash::sip::State", [0 x i64], i64, [0 x i64], i64, [0 x i64] }
%"std::marker::PhantomData<std::hash::sip::Sip13Rounds>" = type {}
%"std::hash::sip::State" = type { [0 x i64], i64, [0 x i64], i64, [0 x i64], i64, [0 x i64], i64, [0 x i64] }
%"std::option::Option<(std::alloc::Layout, usize)>" = type { [1 x i64], i64, [1 x i64] }
%"std::option::Option<(std::ptr::NonNull<u8>, std::alloc::Layout)>" = type { [0 x i64], {}*, [2 x i64] }
%"std::result::Result<(), std::collections::TryReserveError>" = type { [0 x i64], i64, [2 x i64] }
%"std::result::Result<(), std::collections::TryReserveError>::Err" = type { [1 x i64], { i64, i64 }, [0 x i64] }
%"std::option::Option<(std::ptr::NonNull<u8>, std::alloc::Layout)>::Some" = type { [0 x i64], { [0 x i64], i8*, [0 x i64], { i64, i64 }, [0 x i64] }, [0 x i64] }
%"std::result::Result<std::sync::MutexGuard<sync::sharded_lock::ThreadIndices>, std::sync::PoisonError<std::sync::MutexGuard<sync::sharded_lock::ThreadIndices>>>" = type { [0 x i64], i64, [2 x i64] }
%"std::result::Result<std::sys_common::poison::Guard, std::sync::PoisonError<std::sys_common::poison::Guard>>::Err" = type { [1 x i8], i8, [0 x i8] }
%"std::result::Result<std::sys_common::poison::Guard, std::sync::PoisonError<std::sys_common::poison::Guard>>::Ok" = type { [1 x i8], i8, [0 x i8] }
%"std::result::Result<std::sync::MutexGuard<sync::sharded_lock::ThreadIndices>, std::sync::PoisonError<std::sync::MutexGuard<sync::sharded_lock::ThreadIndices>>>::Ok" = type { [1 x i64], { i64*, i8 }, [0 x i64] }
%"std::result::Result<std::sync::MutexGuard<sync::sharded_lock::ThreadIndices>, std::sync::PoisonError<std::sync::MutexGuard<sync::sharded_lock::ThreadIndices>>>::Err" = type { [1 x i64], { i64*, i8 }, [0 x i64] }
%"std::result::Result<usize, usize>::Ok" = type { [1 x i64], i64, [0 x i64] }
%"std::result::Result<usize, usize>::Err" = type { [1 x i64], i64, [0 x i64] }
%"std::option::Option<(std::alloc::Layout, usize)>::Some" = type { [0 x i64], { [0 x i64], { i64, i64 }, [0 x i64], i64, [0 x i64] }, [0 x i64] }
%"std::result::Result<std::alloc::Layout, std::alloc::LayoutError>::Err" = type { [0 x i8], %"std::alloc::LayoutError", [0 x i8] }
%"std::result::Result<(), std::collections::TryReserveError>::Ok" = type { [8 x i8], {}, [0 x i8] }
%"std::marker::PhantomData<u8>" = type {}
%"std::marker::PhantomData<usize>" = type {}
%"std::marker::PhantomData<alloc::sync::ArcInner<sync::wait_group::Inner>>" = type {}
%"std::marker::PhantomData<alloc::sync::ArcInner<sync::parker::Inner>>" = type {}
%"std::mem::MaybeUninit<std::ptr::swap_nonoverlapping_bytes::UnalignedBlock>" = type { [4 x i64] }
%"std::ptr::swap_nonoverlapping_bytes::UnalignedBlock" = type { [0 x i64], i64, [0 x i64], i64, [0 x i64], i64, [0 x i64], i64, [0 x i64] }
%"std::marker::PhantomData<dyn std::any::Any + std::marker::Send>" = type {}
%"std::fmt::DebugStruct" = type { [0 x i64], %"std::fmt::Formatter"*, [0 x i8], i8, [0 x i8], i8, [6 x i8] }
%"std::result::Result<std::ptr::NonNull<[u8]>, std::alloc::AllocError>::Err" = type { [0 x i8], %"std::alloc::AllocError", [0 x i8] }
%"std::result::Result<std::collections::hash_map::RandomState, std::thread::AccessError>::Err" = type { [8 x i8], %"std::thread::AccessError", [0 x i8] }
%"std::result::Result<(std::alloc::Layout, usize), std::alloc::LayoutError>::Err" = type { [0 x i8], %"std::alloc::LayoutError", [0 x i8] }
%"std::marker::PhantomData<*const ()>" = type {}
%"std::option::Option<std::time::Duration>" = type { [0 x i64], i64, [2 x i64] }
%"std::option::Option<std::time::Duration>::Some" = type { [1 x i64], { i64, i32 }, [0 x i64] }
%"<sync::sharded_lock::ShardedLock<T> as std::fmt::Debug>::fmt::LockedPlaceholder" = type {}
%"sync::sharded_lock::THREAD_INDICES" = type { [0 x i8], {}, [0 x i8] }
%"thread::ScopedThreadBuilder" = type { [0 x i64], { i64*, i64* }*, [0 x i64], %"std::thread::Builder", [0 x i64] }
%"std::string::String" = type { [0 x i64], %"std::vec::Vec<u8>", [0 x i64] }
%"std::vec::Vec<u8>" = type { [0 x i64], { i8*, i64 }, [0 x i64], i64, [0 x i64] }
%"unwind::libunwind::_Unwind_Exception" = type { [0 x i64], i64, [0 x i64], void (i32, %"unwind::libunwind::_Unwind_Exception"*)*, [0 x i64], [6 x i64], [0 x i64] }
%"unwind::libunwind::_Unwind_Context" = type { [0 x i8] }

@alloc973 = private unnamed_addr constant <{ [66 x i8] }> <{ [66 x i8] c"attempted to derefence an uninitialized lazy static. This is a bug" }>, align 1
@alloc974 = private unnamed_addr constant <{ [96 x i8] }> <{ [96 x i8] c"/home/skeet/.cargo/registry/src/github.com-1ecc6299db9ec823/lazy_static-1.4.0/src/inline_lazy.rs" }>, align 1
@alloc975 = private unnamed_addr constant <{ i8*, [16 x i8] }> <{ i8* getelementptr inbounds (<{ [96 x i8] }>, <{ [96 x i8] }>* @alloc974, i32 0, i32 0, i32 0), [16 x i8] c"`\00\00\00\00\00\00\00(\00\00\00\15\00\00\00" }>, align 8
@vtable.0 = private unnamed_addr constant { void (i64**)*, i64, i64, void (i64**, { i64, i8 }*)*, void (i64**, { i64, i8 }*)* } { void (i64**)* @_RINvNtCs3p84KrD9aKt_4core3ptr13drop_in_placeNCINvMs0_NtNtCs2bNvlddUlXM_3std4sync4onceNtBP_4Once9call_onceNCINvMNtCsb4wc9W9SjmT_11lazy_static4lazyINtB1L_4LazyINtNtBR_5mutex5MutexNtNtNtCs48Yq53b35jF_15crossbeam_utils4sync12sharded_lock13ThreadIndicesEE3getNvNvXsi_B2R_NtB2R_14THREAD_INDICESNtNtNtB4_3ops5deref5Deref5deref23___static_ref_initializeE0E0EB2V_, i64 8, i64 8, void (i64**, { i64, i8 }*)* @_RNCINvMs0_NtNtCs2bNvlddUlXM_3std4sync4onceNtB8_4Once9call_onceNCINvMNtCsb4wc9W9SjmT_11lazy_static4lazyINtB14_4LazyINtNtBa_5mutex5MutexNtNtNtCs48Yq53b35jF_15crossbeam_utils4sync12sharded_lock13ThreadIndicesEE3getNvNvXsi_B2a_NtB2a_14THREAD_INDICESNtNtNtCs3p84KrD9aKt_4core3ops5deref5Deref5deref23___static_ref_initializeE0E0B2e_, void (i64**, { i64, i8 }*)* @_RNSNvYNCINvMs0_NtNtCs2bNvlddUlXM_3std4sync4onceNtBd_4Once9call_onceNCINvMNtCsb4wc9W9SjmT_11lazy_static4lazyINtB19_4LazyINtNtBf_5mutex5MutexNtNtNtCs48Yq53b35jF_15crossbeam_utils4sync12sharded_lock13ThreadIndicesEE3getNvNvXsi_B2f_NtB2f_14THREAD_INDICESNtNtNtCs3p84KrD9aKt_4core3ops5deref5Deref5deref23___static_ref_initializeE0E0INtNtB44_8function6FnOnceTRNtBd_9OnceStateEE9call_once6vtableB2j_ }, align 8, !dbg !0
@alloc976 = private unnamed_addr constant <{ [70 x i8] }> <{ [70 x i8] c"cannot access a Thread Local Storage value during or after destruction" }>, align 1
@alloc977 = private unnamed_addr constant <{ [79 x i8] }> <{ [79 x i8] c"/rustc/e38fb306b7f5e65cca34df2dab1f0db15e1defb4/library/std/src/thread/local.rs" }>, align 1
@alloc978 = private unnamed_addr constant <{ i8*, [16 x i8] }> <{ i8* getelementptr inbounds (<{ [79 x i8] }>, <{ [79 x i8] }>* @alloc977, i32 0, i32 0, i32 0), [16 x i8] c"O\00\00\00\00\00\00\00\F8\00\00\00\1A\00\00\00" }>, align 8
@alloc985 = private unnamed_addr constant <{ [49 x i8] }> <{ [49 x i8] c"there is no such thing as an acquire/release load" }>, align 1
@alloc1030 = private unnamed_addr constant <{ [79 x i8] }> <{ [79 x i8] c"/rustc/e38fb306b7f5e65cca34df2dab1f0db15e1defb4/library/core/src/sync/atomic.rs" }>, align 1
@alloc981 = private unnamed_addr constant <{ i8*, [16 x i8] }> <{ i8* getelementptr inbounds (<{ [79 x i8] }>, <{ [79 x i8] }>* @alloc1030, i32 0, i32 0, i32 0), [16 x i8] c"O\00\00\00\00\00\00\004\09\00\00\17\00\00\00" }>, align 8
@alloc986 = private unnamed_addr constant <{ [40 x i8] }> <{ [40 x i8] c"there is no such thing as a release load" }>, align 1
@alloc984 = private unnamed_addr constant <{ i8*, [16 x i8] }> <{ i8* getelementptr inbounds (<{ [79 x i8] }>, <{ [79 x i8] }>* @alloc1030, i32 0, i32 0, i32 0), [16 x i8] c"O\00\00\00\00\00\00\003\09\00\00\18\00\00\00" }>, align 8
@alloc987 = private unnamed_addr constant <{ [50 x i8] }> <{ [50 x i8] c"there is no such thing as an acquire/release store" }>, align 1
@alloc989 = private unnamed_addr constant <{ i8*, [16 x i8] }> <{ i8* getelementptr inbounds (<{ [79 x i8] }>, <{ [79 x i8] }>* @alloc1030, i32 0, i32 0, i32 0), [16 x i8] c"O\00\00\00\00\00\00\00&\09\00\00\17\00\00\00" }>, align 8
@alloc990 = private unnamed_addr constant <{ [42 x i8] }> <{ [42 x i8] c"there is no such thing as an acquire store" }>, align 1
@alloc992 = private unnamed_addr constant <{ i8*, [16 x i8] }> <{ i8* getelementptr inbounds (<{ [79 x i8] }>, <{ [79 x i8] }>* @alloc1030, i32 0, i32 0, i32 0), [16 x i8] c"O\00\00\00\00\00\00\00%\09\00\00\18\00\00\00" }>, align 8
@alloc993 = private unnamed_addr constant <{ [60 x i8] }> <{ [60 x i8] c"a failure ordering can't be stronger than a success ordering" }>, align 1
@alloc995 = private unnamed_addr constant <{ i8*, [16 x i8] }> <{ i8* getelementptr inbounds (<{ [79 x i8] }>, <{ [79 x i8] }>* @alloc1030, i32 0, i32 0, i32 0), [16 x i8] c"O\00\00\00\00\00\00\00\7F\09\00\00\12\00\00\00" }>, align 8
@alloc996 = private unnamed_addr constant <{ [61 x i8] }> <{ [61 x i8] c"there is no such thing as an acquire/release failure ordering" }>, align 1
@alloc998 = private unnamed_addr constant <{ i8*, [16 x i8] }> <{ i8* getelementptr inbounds (<{ [79 x i8] }>, <{ [79 x i8] }>* @alloc1030, i32 0, i32 0, i32 0), [16 x i8] c"O\00\00\00\00\00\00\00}\09\00\00\1C\00\00\00" }>, align 8
@alloc999 = private unnamed_addr constant <{ [52 x i8] }> <{ [52 x i8] c"there is no such thing as a release failure ordering" }>, align 1
@alloc1001 = private unnamed_addr constant <{ i8*, [16 x i8] }> <{ i8* getelementptr inbounds (<{ [79 x i8] }>, <{ [79 x i8] }>* @alloc1030, i32 0, i32 0, i32 0), [16 x i8] c"O\00\00\00\00\00\00\00~\09\00\00\1D\00\00\00" }>, align 8
@alloc1002 = private unnamed_addr constant <{ [76 x i8] }> <{ [76 x i8] c"/rustc/e38fb306b7f5e65cca34df2dab1f0db15e1defb4/library/std/src/sync/once.rs" }>, align 1
@alloc1003 = private unnamed_addr constant <{ i8*, [16 x i8] }> <{ i8* getelementptr inbounds (<{ [76 x i8] }>, <{ [76 x i8] }>* @alloc1002, i32 0, i32 0, i32 0), [16 x i8] c"L\00\00\00\00\00\00\00\05\01\00\002\00\00\00" }>, align 8
@vtable.1 = private unnamed_addr constant { void ({ i8*, i64 }*)*, i64, i64, { {}*, [3 x i64]* } ({ i8*, i64 }*)*, { {}*, [3 x i64]* } ({ i8*, i64 }*)* } { void ({ i8*, i64 }*)* @_RINvNtCs3p84KrD9aKt_4core3ptr13drop_in_placeINtNvNtCs2bNvlddUlXM_3std9panicking11begin_panic12PanicPayloadReEECs48Yq53b35jF_15crossbeam_utils, i64 16, i64 8, { {}*, [3 x i64]* } ({ i8*, i64 }*)* @_RNvXs_NvNtCs2bNvlddUlXM_3std9panicking11begin_panicINtB4_12PanicPayloadReENtNtCs3p84KrD9aKt_4core5panic7BoxMeUp8take_boxCs48Yq53b35jF_15crossbeam_utils, { {}*, [3 x i64]* } ({ i8*, i64 }*)* @_RNvXs_NvNtCs2bNvlddUlXM_3std9panicking11begin_panicINtB4_12PanicPayloadReENtNtCs3p84KrD9aKt_4core5panic7BoxMeUp3getCs48Yq53b35jF_15crossbeam_utils }, align 8, !dbg !312
@alloc1005 = private unnamed_addr constant <{ [43 x i8] }> <{ [43 x i8] c"called `Option::unwrap()` on a `None` value" }>, align 1
@0 = private unnamed_addr constant <{ [16 x i8] }> <{ [16 x i8] c"\08\00\00\00\00\00\00\00\00\00\00\00\00\00\00\00" }>, align 8
@alloc1006 = private unnamed_addr constant <{ [73 x i8] }> <{ [73 x i8] c"assertion failed: 0 < pointee_size && pointee_size <= isize::MAX as usize" }>, align 1
@alloc1007 = private unnamed_addr constant <{ [81 x i8] }> <{ [81 x i8] c"/rustc/e38fb306b7f5e65cca34df2dab1f0db15e1defb4/library/core/src/ptr/const_ptr.rs" }>, align 1
@alloc1008 = private unnamed_addr constant <{ i8*, [16 x i8] }> <{ i8* getelementptr inbounds (<{ [81 x i8] }>, <{ [81 x i8] }>* @alloc1007, i32 0, i32 0, i32 0), [16 x i8] c"Q\00\00\00\00\00\00\00x\01\00\00\09\00\00\00" }>, align 8
@alloc1009 = private unnamed_addr constant <{ [80 x i8] }> <{ [80 x i8] c"/rustc/e38fb306b7f5e65cca34df2dab1f0db15e1defb4/library/core/src/alloc/layout.rs" }>, align 1
@alloc1010 = private unnamed_addr constant <{ i8*, [16 x i8] }> <{ i8* getelementptr inbounds (<{ [80 x i8] }>, <{ [80 x i8] }>* @alloc1009, i32 0, i32 0, i32 0), [16 x i8] c"P\00\00\00\00\00\00\00\11\01\00\009\00\00\00" }>, align 8
@alloc1011 = private unnamed_addr constant <{ [27 x i8] }> <{ [27 x i8] c"assertion failed: step != 0" }>, align 1
@alloc1012 = private unnamed_addr constant <{ [89 x i8] }> <{ [89 x i8] c"/rustc/e38fb306b7f5e65cca34df2dab1f0db15e1defb4/library/core/src/iter/adapters/step_by.rs" }>, align 1
@alloc1013 = private unnamed_addr constant <{ i8*, [16 x i8] }> <{ i8* getelementptr inbounds (<{ [89 x i8] }>, <{ [89 x i8] }>* @alloc1012, i32 0, i32 0, i32 0), [16 x i8] c"Y\00\00\00\00\00\00\00\15\00\00\00\09\00\00\00" }>, align 8
@alloc1014 = private unnamed_addr constant <{ [76 x i8] }> <{ [76 x i8] c"/rustc/e38fb306b7f5e65cca34df2dab1f0db15e1defb4/library/alloc/src/raw_vec.rs" }>, align 1
@alloc1015 = private unnamed_addr constant <{ i8*, [16 x i8] }> <{ i8* getelementptr inbounds (<{ [76 x i8] }>, <{ [76 x i8] }>* @alloc1014, i32 0, i32 0, i32 0), [16 x i8] c"L\00\00\00\00\00\00\00s\01\00\00\09\00\00\00" }>, align 8
@str.2 = internal constant [25 x i8] c"attempt to divide by zero"
@alloc823 = private unnamed_addr constant <{ i8*, [0 x i8] }> <{ i8* bitcast (i64* ()* @_ZN3std11collections4hash3map11RandomState3new4KEYS7__getit17hdbbef0c72afd5206E to i8*), [0 x i8] zeroinitializer }>, align 8
@alloc1020 = private unnamed_addr constant <{ [43 x i8] }> <{ [43 x i8] c"called `Result::unwrap()` on an `Err` value" }>, align 1
@vtable.3 = private unnamed_addr constant { void ({ i64*, i8 }*)*, i64, i64, i1 ({ i64*, i8 }*, %"std::fmt::Formatter"*)* } { void ({ i64*, i8 }*)* @_RINvNtCs3p84KrD9aKt_4core3ptr13drop_in_placeINtNtNtCs2bNvlddUlXM_3std10sys_common6poison11PoisonErrorINtNtNtBN_4sync5mutex10MutexGuardNtNtNtCs48Yq53b35jF_15crossbeam_utils4sync12sharded_lock13ThreadIndicesEEEB2e_, i64 16, i64 8, i1 ({ i64*, i8 }*, %"std::fmt::Formatter"*)* @_RNvXs_NtNtCs2bNvlddUlXM_3std10sys_common6poisonINtB4_11PoisonErrorINtNtNtB8_4sync5mutex10MutexGuardNtNtNtCs48Yq53b35jF_15crossbeam_utils4sync12sharded_lock13ThreadIndicesEENtNtCs3p84KrD9aKt_4core3fmt5Debug3fmtB1F_ }, align 8, !dbg !338
@vtable.4 = private unnamed_addr constant { void ({ i64*, i8 }*)*, i64, i64, i1 ({ i64*, i8 }*, %"std::fmt::Formatter"*)* } { void ({ i64*, i8 }*)* @_RINvNtCs3p84KrD9aKt_4core3ptr13drop_in_placeINtNtNtCs2bNvlddUlXM_3std10sys_common6poison11PoisonErrorINtNtNtBN_4sync5mutex10MutexGuardjEEECs48Yq53b35jF_15crossbeam_utils, i64 16, i64 8, i1 ({ i64*, i8 }*, %"std::fmt::Formatter"*)* @_RNvXs_NtNtCs2bNvlddUlXM_3std10sys_common6poisonINtB4_11PoisonErrorINtNtNtB8_4sync5mutex10MutexGuardjEENtNtCs3p84KrD9aKt_4core3fmt5Debug3fmtCs48Yq53b35jF_15crossbeam_utils }, align 8, !dbg !355
@vtable.5 = private unnamed_addr constant { void ({ i64*, i8 }*)*, i64, i64, i1 ({ i64*, i8 }*, %"std::fmt::Formatter"*)* } { void ({ i64*, i8 }*)* @_RINvNtCs3p84KrD9aKt_4core3ptr13drop_in_placeINtNtNtCs2bNvlddUlXM_3std10sys_common6poison11PoisonErrorINtNtNtBN_4sync5mutex10MutexGuarduEEECs48Yq53b35jF_15crossbeam_utils, i64 16, i64 8, i1 ({ i64*, i8 }*, %"std::fmt::Formatter"*)* @_RNvXs_NtNtCs2bNvlddUlXM_3std10sys_common6poisonINtB4_11PoisonErrorINtNtNtB8_4sync5mutex10MutexGuarduEENtNtCs3p84KrD9aKt_4core3fmt5Debug3fmtCs48Yq53b35jF_15crossbeam_utils }, align 8, !dbg !373
@vtable.6 = private unnamed_addr constant { void (%"std::alloc::LayoutError"*)*, i64, i64, i1 (%"std::alloc::LayoutError"*, %"std::fmt::Formatter"*)* } { void (%"std::alloc::LayoutError"*)* @_RINvNtCs3p84KrD9aKt_4core3ptr13drop_in_placeNtNtNtB4_5alloc6layout11LayoutErrorECs48Yq53b35jF_15crossbeam_utils, i64 0, i64 1, i1 (%"std::alloc::LayoutError"*, %"std::fmt::Formatter"*)* @"_ZN69_$LT$core..alloc..layout..LayoutError$u20$as$u20$core..fmt..Debug$GT$3fmt17hb303610344906eecE" }, align 8, !dbg !397
@vtable.7 = private unnamed_addr constant { void (%"std::thread::AccessError"*)*, i64, i64, i1 (%"std::thread::AccessError"*, %"std::fmt::Formatter"*)* } { void (%"std::thread::AccessError"*)* @_RINvNtCs3p84KrD9aKt_4core3ptr13drop_in_placeNtNtNtCs2bNvlddUlXM_3std6thread5local11AccessErrorECs48Yq53b35jF_15crossbeam_utils, i64 0, i64 1, i1 (%"std::thread::AccessError"*, %"std::fmt::Formatter"*)* @"_ZN68_$LT$std..thread..local..AccessError$u20$as$u20$core..fmt..Debug$GT$3fmt17h9ca8cd7c3510a7e8E" }, align 8, !dbg !405
@vtable.8 = private unnamed_addr constant { void (%"std::sync::PoisonError<(std::sync::MutexGuard<()>, std::sync::WaitTimeoutResult)>"*)*, i64, i64, i1 (%"std::sync::PoisonError<(std::sync::MutexGuard<()>, std::sync::WaitTimeoutResult)>"*, %"std::fmt::Formatter"*)* } { void (%"std::sync::PoisonError<(std::sync::MutexGuard<()>, std::sync::WaitTimeoutResult)>"*)* @_RINvNtCs3p84KrD9aKt_4core3ptr13drop_in_placeINtNtNtCs2bNvlddUlXM_3std10sys_common6poison11PoisonErrorTINtNtNtBN_4sync5mutex10MutexGuarduENtNtB1H_7condvar17WaitTimeoutResultEEECs48Yq53b35jF_15crossbeam_utils, i64 24, i64 8, i1 (%"std::sync::PoisonError<(std::sync::MutexGuard<()>, std::sync::WaitTimeoutResult)>"*, %"std::fmt::Formatter"*)* @_RNvXs_NtNtCs2bNvlddUlXM_3std10sys_common6poisonINtB4_11PoisonErrorTINtNtNtB8_4sync5mutex10MutexGuarduENtNtB18_7condvar17WaitTimeoutResultEENtNtCs3p84KrD9aKt_4core3fmt5Debug3fmtCs48Yq53b35jF_15crossbeam_utils }, align 8, !dbg !412
@alloc1021 = private unnamed_addr constant <{ [40 x i8] }> <{ [40 x i8] c"internal error: entered unreachable code" }>, align 1
@alloc1032 = private unnamed_addr constant <{ [78 x i8] }> <{ [78 x i8] c"/cargo/registry/src/github.com-1ecc6299db9ec823/hashbrown-0.9.0/src/raw/mod.rs" }>, align 1
@alloc1023 = private unnamed_addr constant <{ i8*, [16 x i8] }> <{ i8* getelementptr inbounds (<{ [78 x i8] }>, <{ [78 x i8] }>* @alloc1032, i32 0, i32 0, i32 0), [16 x i8] c"N\00\00\00\00\00\00\00z\02\00\00\09\00\00\00" }>, align 8
@alloc1025 = private unnamed_addr constant <{ [75 x i8] }> <{ [75 x i8] c"/rustc/e38fb306b7f5e65cca34df2dab1f0db15e1defb4/library/core/src/num/mod.rs" }>, align 1
@alloc1026 = private unnamed_addr constant <{ i8*, [16 x i8] }> <{ i8* getelementptr inbounds (<{ [75 x i8] }>, <{ [75 x i8] }>* @alloc1025, i32 0, i32 0, i32 0), [16 x i8] c"K\00\00\00\00\00\00\00\C1\02\00\00\05\00\00\00" }>, align 8
@str.9 = internal constant [28 x i8] c"attempt to add with overflow"
@alloc1028 = private unnamed_addr constant <{ i8*, [16 x i8] }> <{ i8* getelementptr inbounds (<{ [78 x i8] }>, <{ [78 x i8] }>* @alloc1032, i32 0, i32 0, i32 0), [16 x i8] c"N\00\00\00\00\00\00\002\07\00\00(\00\00\00" }>, align 8
@alloc876 = private unnamed_addr constant <{ [0 x i8] }> zeroinitializer, align 8
@_ZN3std9panicking11panic_count18GLOBAL_PANIC_COUNT17he153705974b5d722E = external global %"std::sync::atomic::AtomicUsize"
@alloc1029 = private unnamed_addr constant <{ [41 x i8] }> <{ [41 x i8] c"there is no such thing as a relaxed fence" }>, align 1
@alloc1031 = private unnamed_addr constant <{ i8*, [16 x i8] }> <{ i8* getelementptr inbounds (<{ [79 x i8] }>, <{ [79 x i8] }>* @alloc1030, i32 0, i32 0, i32 0), [16 x i8] c"O\00\00\00\00\00\00\00n\0A\00\00\18\00\00\00" }>, align 8
@alloc1033 = private unnamed_addr constant <{ i8*, [16 x i8] }> <{ i8* getelementptr inbounds (<{ [78 x i8] }>, <{ [78 x i8] }>* @alloc1032, i32 0, i32 0, i32 0), [16 x i8] c"N\00\00\00\00\00\00\00P\07\00\002\00\00\00" }>, align 8
@alloc1037 = private unnamed_addr constant <{ [25 x i8] }> <{ [25 x i8] c"PoisonError { inner: .. }" }>, align 1
@vtable.a = private unnamed_addr constant { void ({ [0 x i8]*, i64 }*)*, i64, i64, i64 ({ [0 x i8]*, i64 }*)* } { void ({ [0 x i8]*, i64 }*)* @_RINvNtCs3p84KrD9aKt_4core3ptr13drop_in_placeReECs48Yq53b35jF_15crossbeam_utils, i64 16, i64 8, i64 ({ [0 x i8]*, i64 }*)* @_RNvXNtCs3p84KrD9aKt_4core3anyReNtB2_3Any7type_idCs48Yq53b35jF_15crossbeam_utils }, align 8, !dbg !428
@alloc1038 = private unnamed_addr constant <{ [4 x i8] }> <{ [4 x i8] c"Cell" }>, align 1
@alloc1039 = private unnamed_addr constant <{ [5 x i8] }> <{ [5 x i8] c"value" }>, align 1
@vtable.b = private unnamed_addr constant { void (i32*)*, i64, i64, i1 (i32*, %"std::fmt::Formatter"*)* } { void (i32*)* @_RINvNtCs3p84KrD9aKt_4core3ptr13drop_in_placemECs48Yq53b35jF_15crossbeam_utils, i64 4, i64 4, i1 (i32*, %"std::fmt::Formatter"*)* @_RNvXs1m_NtNtCs3p84KrD9aKt_4core3fmt3nummNtB8_5Debug3fmtCs48Yq53b35jF_15crossbeam_utils }, align 8, !dbg !431
@_RNvNvNtNtCs48Yq53b35jF_15crossbeam_utils6atomic11atomic_cell4lock5LOCKS = global <{ [776 x i8] }> zeroinitializer, align 8, !dbg !435
@alloc1040 = private unnamed_addr constant <{ [7 x i8] }> <{ [7 x i8] c"Backoff" }>, align 1
@alloc1041 = private unnamed_addr constant <{ [4 x i8] }> <{ [4 x i8] c"step" }>, align 1
@vtable.c = private unnamed_addr constant { void (i32*)*, i64, i64, i1 (i32*, %"std::fmt::Formatter"*)* } { void (i32*)* @_RINvNtCs3p84KrD9aKt_4core3ptr13drop_in_placeINtNtB4_4cell4CellmEECs48Yq53b35jF_15crossbeam_utils, i64 4, i64 4, i1 (i32*, %"std::fmt::Formatter"*)* @_RNvXsp_NtCs3p84KrD9aKt_4core3fmtINtNtB7_4cell4CellmENtB5_5Debug3fmtCs48Yq53b35jF_15crossbeam_utils }, align 8, !dbg !448
@alloc1042 = private unnamed_addr constant <{ [12 x i8] }> <{ [12 x i8] c"is_completed" }>, align 1
@vtable.d = private unnamed_addr constant { void (i8*)*, i64, i64, i1 (i8*, %"std::fmt::Formatter"*)* } { void (i8*)* @_RINvNtCs3p84KrD9aKt_4core3ptr13drop_in_placebECs48Yq53b35jF_15crossbeam_utils, i64 1, i64 1, i1 (i8*, %"std::fmt::Formatter"*)* @_RNvXsa_NtCs3p84KrD9aKt_4core3fmtbNtB5_5Debug3fmtCs48Yq53b35jF_15crossbeam_utils }, align 8, !dbg !459
@alloc1043 = private unnamed_addr constant <{ [13 x i8] }> <{ [13 x i8] c"Parker { .. }" }>, align 1
@alloc1044 = private unnamed_addr constant <{ [15 x i8] }> <{ [15 x i8] c"Unparker { .. }" }>, align 1
@alloc1060 = private unnamed_addr constant <{ [100 x i8] }> <{ [100 x i8] c"/home/skeet/.cargo/registry/src/github.com-1ecc6299db9ec823/crossbeam-utils-0.8.1/src/sync/parker.rs" }>, align 1
@alloc1046 = private unnamed_addr constant <{ i8*, [16 x i8] }> <{ i8* getelementptr inbounds (<{ [100 x i8] }>, <{ [100 x i8] }>* @alloc1060, i32 0, i32 0, i32 0), [16 x i8] c"d\00\00\00\00\00\00\00C\01\00\00&\00\00\00" }>, align 8
@alloc887 = private unnamed_addr constant <{ [33 x i8] }> <{ [33 x i8] c"inconsistent park_timeout state: " }>, align 1
@alloc888 = private unnamed_addr constant <{ i8*, [8 x i8] }> <{ i8* getelementptr inbounds (<{ [33 x i8] }>, <{ [33 x i8] }>* @alloc887, i32 0, i32 0, i32 0), [8 x i8] c"!\00\00\00\00\00\00\00" }>, align 8
@alloc1048 = private unnamed_addr constant <{ i8*, [16 x i8] }> <{ i8* getelementptr inbounds (<{ [100 x i8] }>, <{ [100 x i8] }>* @alloc1060, i32 0, i32 0, i32 0), [16 x i8] c"d\00\00\00\00\00\00\00R\01\00\00\17\00\00\00" }>, align 8
@alloc864 = private unnamed_addr constant <{ [8 x i8] }> <{ [8 x i8] c"\02\00\00\00\00\00\00\00" }>, align 8
@alloc868 = private unnamed_addr constant <{ [45 x i8] }> <{ [45 x i8] c"assertion failed: `(left == right)`\0A  left: `" }>, align 1
@alloc870 = private unnamed_addr constant <{ [12 x i8] }> <{ [12 x i8] c"`,\0A right: `" }>, align 1
@alloc871 = private unnamed_addr constant <{ [3 x i8] }> <{ [3 x i8] c"`: " }>, align 1
@alloc869 = private unnamed_addr constant <{ i8*, [8 x i8], i8*, [8 x i8], i8*, [8 x i8] }> <{ i8* getelementptr inbounds (<{ [45 x i8] }>, <{ [45 x i8] }>* @alloc868, i32 0, i32 0, i32 0), [8 x i8] c"-\00\00\00\00\00\00\00", i8* getelementptr inbounds (<{ [12 x i8] }>, <{ [12 x i8] }>* @alloc870, i32 0, i32 0, i32 0), [8 x i8] c"\0C\00\00\00\00\00\00\00", i8* getelementptr inbounds (<{ [3 x i8] }>, <{ [3 x i8] }>* @alloc871, i32 0, i32 0, i32 0), [8 x i8] c"\03\00\00\00\00\00\00\00" }>, align 8
@alloc873 = private unnamed_addr constant <{ [31 x i8] }> <{ [31 x i8] c"park state changed unexpectedly" }>, align 1
@alloc874 = private unnamed_addr constant <{ i8*, [8 x i8] }> <{ i8* getelementptr inbounds (<{ [31 x i8] }>, <{ [31 x i8] }>* @alloc873, i32 0, i32 0, i32 0), [8 x i8] c"\1F\00\00\00\00\00\00\00" }>, align 8
@alloc1050 = private unnamed_addr constant <{ i8*, [16 x i8] }> <{ i8* getelementptr inbounds (<{ [100 x i8] }>, <{ [100 x i8] }>* @alloc1060, i32 0, i32 0, i32 0), [16 x i8] c"d\00\00\00\00\00\00\00O\01\00\00\11\00\00\00" }>, align 8
@alloc1052 = private unnamed_addr constant <{ i8*, [16 x i8] }> <{ i8* getelementptr inbounds (<{ [100 x i8] }>, <{ [100 x i8] }>* @alloc1060, i32 0, i32 0, i32 0), [16 x i8] c"d\00\00\00\00\00\00\00k\01\00\00H\00\00\00" }>, align 8
@alloc1054 = private unnamed_addr constant <{ i8*, [16 x i8] }> <{ i8* getelementptr inbounds (<{ [100 x i8] }>, <{ [100 x i8] }>* @alloc1060, i32 0, i32 0, i32 0), [16 x i8] c"d\00\00\00\00\00\00\00p\01\00\00\1A\00\00\00" }>, align 8
@alloc1056 = private unnamed_addr constant <{ i8*, [16 x i8] }> <{ i8* getelementptr inbounds (<{ [100 x i8] }>, <{ [100 x i8] }>* @alloc1060, i32 0, i32 0, i32 0), [16 x i8] c"d\00\00\00\00\00\00\00Y\01\00\00+\00\00\00" }>, align 8
@alloc1057 = private unnamed_addr constant <{ [28 x i8] }> <{ [28 x i8] c"inconsistent state in unpark" }>, align 1
@alloc1059 = private unnamed_addr constant <{ i8*, [16 x i8] }> <{ i8* getelementptr inbounds (<{ [100 x i8] }>, <{ [100 x i8] }>* @alloc1060, i32 0, i32 0, i32 0), [16 x i8] c"d\00\00\00\00\00\00\00\7F\01\00\00\12\00\00\00" }>, align 8
@alloc1061 = private unnamed_addr constant <{ i8*, [16 x i8] }> <{ i8* getelementptr inbounds (<{ [100 x i8] }>, <{ [100 x i8] }>* @alloc1060, i32 0, i32 0, i32 0), [16 x i8] c"d\00\00\00\00\00\00\00\8A\01\00\00\1F\00\00\00" }>, align 8
@alloc1062 = private unnamed_addr constant <{ [8 x i8] }> <{ [8 x i8] c"<locked>" }>, align 1
@alloc1086 = private unnamed_addr constant <{ [106 x i8] }> <{ [106 x i8] c"/home/skeet/.cargo/registry/src/github.com-1ecc6299db9ec823/crossbeam-utils-0.8.1/src/sync/sharded_lock.rs" }>, align 1
@alloc1064 = private unnamed_addr constant <{ i8*, [16 x i8] }> <{ i8* getelementptr inbounds (<{ [106 x i8] }>, <{ [106 x i8] }>* @alloc1086, i32 0, i32 0, i32 0), [16 x i8] c"j\00\00\00\00\00\00\00\\\02\00\001\00\00\00" }>, align 8
@alloc1079 = private unnamed_addr constant <{ [104 x i8] }> <{ [104 x i8] c"/home/skeet/.cargo/registry/src/github.com-1ecc6299db9ec823/crossbeam-utils-0.8.1/src/sync/wait_group.rs" }>, align 1
@alloc1066 = private unnamed_addr constant <{ i8*, [16 x i8] }> <{ i8* getelementptr inbounds (<{ [104 x i8] }>, <{ [104 x i8] }>* @alloc1079, i32 0, i32 0, i32 0), [16 x i8] c"h\00\00\00\00\00\00\00i\00\00\00%\00\00\00" }>, align 8
@alloc1068 = private unnamed_addr constant <{ i8*, [16 x i8] }> <{ i8* getelementptr inbounds (<{ [104 x i8] }>, <{ [104 x i8] }>* @alloc1079, i32 0, i32 0, i32 0), [16 x i8] c"h\00\00\00\00\00\00\00p\00\00\00,\00\00\00" }>, align 8
@alloc1070 = private unnamed_addr constant <{ i8*, [16 x i8] }> <{ i8* getelementptr inbounds (<{ [104 x i8] }>, <{ [104 x i8] }>* @alloc1079, i32 0, i32 0, i32 0), [16 x i8] c"h\00\00\00\00\00\00\00r\00\00\00,\00\00\00" }>, align 8
@alloc1072 = private unnamed_addr constant <{ i8*, [16 x i8] }> <{ i8* getelementptr inbounds (<{ [104 x i8] }>, <{ [104 x i8] }>* @alloc1079, i32 0, i32 0, i32 0), [16 x i8] c"h\00\00\00\00\00\00\00y\00\00\001\00\00\00" }>, align 8
@alloc1074 = private unnamed_addr constant <{ i8*, [16 x i8] }> <{ i8* getelementptr inbounds (<{ [104 x i8] }>, <{ [104 x i8] }>* @alloc1079, i32 0, i32 0, i32 0), [16 x i8] c"h\00\00\00\00\00\00\00z\00\00\00\09\00\00\00" }>, align 8
@str.e = internal constant [33 x i8] c"attempt to subtract with overflow"
@alloc1076 = private unnamed_addr constant <{ i8*, [16 x i8] }> <{ i8* getelementptr inbounds (<{ [104 x i8] }>, <{ [104 x i8] }>* @alloc1079, i32 0, i32 0, i32 0), [16 x i8] c"h\00\00\00\00\00\00\00\84\00\00\001\00\00\00" }>, align 8
@alloc1078 = private unnamed_addr constant <{ i8*, [16 x i8] }> <{ i8* getelementptr inbounds (<{ [104 x i8] }>, <{ [104 x i8] }>* @alloc1079, i32 0, i32 0, i32 0), [16 x i8] c"h\00\00\00\00\00\00\00\85\00\00\00\09\00\00\00" }>, align 8
@alloc1080 = private unnamed_addr constant <{ i8*, [16 x i8] }> <{ i8* getelementptr inbounds (<{ [104 x i8] }>, <{ [104 x i8] }>* @alloc1079, i32 0, i32 0, i32 0), [16 x i8] c"h\00\00\00\00\00\00\00\8F\00\00\007\00\00\00" }>, align 8
@alloc1081 = private unnamed_addr constant <{ [9 x i8] }> <{ [9 x i8] c"WaitGroup" }>, align 1
@alloc1082 = private unnamed_addr constant <{ [5 x i8] }> <{ [5 x i8] c"count" }>, align 1
@vtable.f = private unnamed_addr constant { void (i64*)*, i64, i64, i1 (i64*, %"std::fmt::Formatter"*)* } { void (i64*)* @_RINvNtCs3p84KrD9aKt_4core3ptr13drop_in_placejECs48Yq53b35jF_15crossbeam_utils, i64 8, i64 8, i1 (i64*, %"std::fmt::Formatter"*)* @_RNvXs1p_NtNtCs3p84KrD9aKt_4core3fmt3numjNtB8_5Debug3fmtCs48Yq53b35jF_15crossbeam_utils }, align 8, !dbg !462
@alloc1083 = private unnamed_addr constant <{ [12 x i8] }> <{ [12 x i8] c"Scope { .. }" }>, align 1
@alloc1085 = private unnamed_addr constant <{ i8*, [16 x i8] }> <{ i8* getelementptr inbounds (<{ [106 x i8] }>, <{ [106 x i8] }>* @alloc1086, i32 0, i32 0, i32 0), [16 x i8] c"j\00\00\00\00\00\00\00e\02\00\001\00\00\00" }>, align 8
@alloc1087 = private unnamed_addr constant <{ i8*, [16 x i8] }> <{ i8* getelementptr inbounds (<{ [106 x i8] }>, <{ [106 x i8] }>* @alloc1086, i32 0, i32 0, i32 0), [16 x i8] c"j\00\00\00\00\00\00\00k\02\00\00\11\00\00\00" }>, align 8
@_RNvNvNvNtNtCs48Yq53b35jF_15crossbeam_utils4sync12sharded_lock12REGISTRATION7___getit5___KEY = internal thread_local global <{ [24 x i8] }> zeroinitializer, align 8, !dbg !465
@alloc1088 = private unnamed_addr constant <{ [19 x i8] }> <{ [19 x i8] c"ScopedThreadBuilder" }>, align 1
@alloc1089 = private unnamed_addr constant <{ [5 x i8] }> <{ [5 x i8] c"scope" }>, align 1
@vtable.g = private unnamed_addr constant { void ({ i64*, i64* }***)*, i64, i64, i1 ({ i64*, i64* }***, %"std::fmt::Formatter"*)* } { void ({ i64*, i64* }***)* @_RINvNtCs3p84KrD9aKt_4core3ptr13drop_in_placeRRNtNtCs48Yq53b35jF_15crossbeam_utils6thread5ScopeEBM_, i64 8, i64 8, i1 ({ i64*, i64* }***, %"std::fmt::Formatter"*)* @_RNvXsM_NtCs3p84KrD9aKt_4core3fmtRRNtNtCs48Yq53b35jF_15crossbeam_utils6thread5ScopeNtB5_5Debug3fmtBA_ }, align 8, !dbg !514
@alloc1090 = private unnamed_addr constant <{ [7 x i8] }> <{ [7 x i8] c"builder" }>, align 1
@vtable.h = private unnamed_addr constant { void (%"std::thread::Builder"**)*, i64, i64, i1 (%"std::thread::Builder"**, %"std::fmt::Formatter"*)* } { void (%"std::thread::Builder"**)* @_RINvNtCs3p84KrD9aKt_4core3ptr13drop_in_placeRNtNtCs2bNvlddUlXM_3std6thread7BuilderECs48Yq53b35jF_15crossbeam_utils, i64 8, i64 8, i1 (%"std::thread::Builder"**, %"std::fmt::Formatter"*)* @_RNvXsM_NtCs3p84KrD9aKt_4core3fmtRNtNtCs2bNvlddUlXM_3std6thread7BuilderNtB5_5Debug3fmtCs48Yq53b35jF_15crossbeam_utils }, align 8, !dbg !764
@_RNvNtNtCs48Yq53b35jF_15crossbeam_utils4sync12sharded_lock14THREAD_INDICES = internal constant <{ [0 x i8] }> zeroinitializer, align 1, !dbg !813
@_RNvNvNvXsi_NtNtCs48Yq53b35jF_15crossbeam_utils4sync12sharded_lockNtB9_14THREAD_INDICESNtNtNtCs3p84KrD9aKt_4core3ops5deref5Deref5deref11___stability4LAZY = internal global <{ [104 x i8] }> zeroinitializer, align 8, !dbg !819
@__rustc_debug_gdb_scripts_section__ = linkonce_odr unnamed_addr constant [34 x i8] c"\01gdb_load_rust_pretty_printers.py\00", section ".debug_gdb_scripts", align 1

; <[u8]>::get_unchecked::<usize>
; Function Attrs: inlinehint nonlazybind uwtable
define align 1 dereferenceable(1) i8* @_RINvMNtCs3p84KrD9aKt_4core5sliceSh13get_uncheckedjECs48Yq53b35jF_15crossbeam_utils([0 x i8]* noalias nonnull readonly align 1 %self.0, i64 %self.1, i64 %index) unnamed_addr #0 !dbg !863 {
start:
  %index.dbg.spill = alloca i64, align 8
  %self.dbg.spill = alloca { [0 x i8]*, i64 }, align 8
  %0 = getelementptr inbounds { [0 x i8]*, i64 }, { [0 x i8]*, i64 }* %self.dbg.spill, i32 0, i32 0
  store [0 x i8]* %self.0, [0 x i8]** %0, align 8
  %1 = getelementptr inbounds { [0 x i8]*, i64 }, { [0 x i8]*, i64 }* %self.dbg.spill, i32 0, i32 1
  store i64 %self.1, i64* %1, align 8
  call void @llvm.dbg.declare(metadata { [0 x i8]*, i64 }* %self.dbg.spill, metadata !875, metadata !DIExpression()), !dbg !879
  store i64 %index, i64* %index.dbg.spill, align 8
  call void @llvm.dbg.declare(metadata i64* %index.dbg.spill, metadata !876, metadata !DIExpression()), !dbg !880
; call <usize as core::slice::index::SliceIndex<[u8]>>::get_unchecked
  %_3 = call i8* @_RNvXs0_NtNtCs3p84KrD9aKt_4core5slice5indexjINtB5_10SliceIndexShE13get_uncheckedCs48Yq53b35jF_15crossbeam_utils(i64 %index, [0 x i8]* %self.0, i64 %self.1), !dbg !881
  br label %bb1, !dbg !881

bb1:                                              ; preds = %start
  ret i8* %_3, !dbg !882
}

; <[u8]>::get_unchecked_mut::<usize>
; Function Attrs: inlinehint nonlazybind uwtable
define align 1 dereferenceable(1) i8* @_RINvMNtCs3p84KrD9aKt_4core5sliceSh17get_unchecked_mutjECs48Yq53b35jF_15crossbeam_utils([0 x i8]* nonnull align 1 %self.0, i64 %self.1, i64 %index) unnamed_addr #0 !dbg !883 {
start:
  %index.dbg.spill = alloca i64, align 8
  %self.dbg.spill = alloca { [0 x i8]*, i64 }, align 8
  %0 = getelementptr inbounds { [0 x i8]*, i64 }, { [0 x i8]*, i64 }* %self.dbg.spill, i32 0, i32 0
  store [0 x i8]* %self.0, [0 x i8]** %0, align 8
  %1 = getelementptr inbounds { [0 x i8]*, i64 }, { [0 x i8]*, i64 }* %self.dbg.spill, i32 0, i32 1
  store i64 %self.1, i64* %1, align 8
  call void @llvm.dbg.declare(metadata { [0 x i8]*, i64 }* %self.dbg.spill, metadata !892, metadata !DIExpression()), !dbg !894
  store i64 %index, i64* %index.dbg.spill, align 8
  call void @llvm.dbg.declare(metadata i64* %index.dbg.spill, metadata !893, metadata !DIExpression()), !dbg !895
; call <usize as core::slice::index::SliceIndex<[u8]>>::get_unchecked_mut
  %_6 = call i8* @_RNvXs0_NtNtCs3p84KrD9aKt_4core5slice5indexjINtB5_10SliceIndexShE17get_unchecked_mutCs48Yq53b35jF_15crossbeam_utils(i64 %index, [0 x i8]* %self.0, i64 %self.1), !dbg !896
  br label %bb1, !dbg !896

bb1:                                              ; preds = %start
  ret i8* %_6, !dbg !897
}

; <core::option::Option<core::ptr::non_null::NonNull<u8>>>::ok_or::<core::alloc::AllocError>
; Function Attrs: inlinehint nonlazybind uwtable
define i8* @_RINvMNtCs3p84KrD9aKt_4core6optionINtB3_6OptionINtNtNtB5_3ptr8non_null7NonNullhEE5ok_orNtNtB5_5alloc10AllocErrorECs48Yq53b35jF_15crossbeam_utils(i8* %0) unnamed_addr #0 personality i32 (i32, i32, i64, %"unwind::libunwind::_Unwind_Exception"*, %"unwind::libunwind::_Unwind_Context"*)* @rust_eh_personality !dbg !898 {
start:
  %1 = alloca { i8*, i32 }, align 8
  %v.dbg.spill = alloca i8*, align 8
  %err.dbg.spill = alloca %"std::alloc::AllocError", align 1
  %_7 = alloca i8, align 1
  %2 = alloca i8*, align 8
  %self = alloca i8*, align 8
  store i8* %0, i8** %self, align 8
  call void @llvm.dbg.declare(metadata i8** %self, metadata !930, metadata !DIExpression()), !dbg !934
  call void @llvm.dbg.declare(metadata %"std::alloc::AllocError"* %err.dbg.spill, metadata !931, metadata !DIExpression()), !dbg !935
  store i8 0, i8* %_7, align 1, !dbg !936
  store i8 1, i8* %_7, align 1, !dbg !936
  %3 = bitcast i8** %self to {}**, !dbg !936
  %4 = load {}*, {}** %3, align 8, !dbg !936
  %5 = icmp eq {}* %4, null, !dbg !936
  %_3 = select i1 %5, i64 0, i64 1, !dbg !936
  switch i64 %_3, label %bb2 [
    i64 0, label %bb1
    i64 1, label %bb3
  ], !dbg !936

bb1:                                              ; preds = %start
  store i8 0, i8* %_7, align 1, !dbg !937
  %6 = bitcast i8** %2 to %"std::result::Result<std::ptr::NonNull<u8>, std::alloc::AllocError>::Err"*, !dbg !938
  %7 = bitcast %"std::result::Result<std::ptr::NonNull<u8>, std::alloc::AllocError>::Err"* %6 to %"std::alloc::AllocError"*, !dbg !938
  %8 = bitcast i8** %2 to {}**, !dbg !938
  store {}* null, {}** %8, align 8, !dbg !938
  br label %bb8, !dbg !939

bb2:                                              ; preds = %start
  unreachable, !dbg !940

bb3:                                              ; preds = %start
  %v = load i8*, i8** %self, align 8, !dbg !941, !nonnull !4
  store i8* %v, i8** %v.dbg.spill, align 8, !dbg !941
  call void @llvm.dbg.declare(metadata i8** %v.dbg.spill, metadata !932, metadata !DIExpression()), !dbg !942
  store i8* %v, i8** %2, align 8, !dbg !943
  br label %bb8, !dbg !944

bb4:                                              ; preds = %bb7, %bb8
  %9 = load i8*, i8** %2, align 8, !dbg !945
  ret i8* %9, !dbg !945

bb5:                                              ; No predecessors!
  br label %bb6, !dbg !944

bb6:                                              ; preds = %bb5
  %10 = bitcast { i8*, i32 }* %1 to i8**, !dbg !946
  %11 = load i8*, i8** %10, align 8, !dbg !946
  %12 = getelementptr inbounds { i8*, i32 }, { i8*, i32 }* %1, i32 0, i32 1, !dbg !946
  %13 = load i32, i32* %12, align 8, !dbg !946
  %14 = insertvalue { i8*, i32 } undef, i8* %11, 0, !dbg !946
  %15 = insertvalue { i8*, i32 } %14, i32 %13, 1, !dbg !946
  resume { i8*, i32 } %15, !dbg !946

bb7:                                              ; preds = %bb8
  br label %bb4, !dbg !944

bb8:                                              ; preds = %bb1, %bb3
  %16 = load i8, i8* %_7, align 1, !dbg !944, !range !947
  %17 = trunc i8 %16 to i1, !dbg !944
  br i1 %17, label %bb7, label %bb4, !dbg !944
}

; <core::option::Option<core::alloc::layout::Layout>>::ok_or::<core::option::NoneError>
; Function Attrs: inlinehint nonlazybind uwtable
define { i64, i64 } @_RINvMNtCs3p84KrD9aKt_4core6optionINtB3_6OptionNtNtNtB5_5alloc6layout6LayoutE5ok_orNtB3_9NoneErrorECs48Yq53b35jF_15crossbeam_utils(i64 %0, i64 %1) unnamed_addr #0 personality i32 (i32, i32, i64, %"unwind::libunwind::_Unwind_Exception"*, %"unwind::libunwind::_Unwind_Context"*)* @rust_eh_personality !dbg !948 {
start:
  %2 = alloca { i8*, i32 }, align 8
  %v.dbg.spill = alloca { i64, i64 }, align 8
  %err.dbg.spill = alloca %"std::option::NoneError", align 1
  %_7 = alloca i8, align 1
  %3 = alloca { i64, i64 }, align 8
  %self = alloca { i64, i64 }, align 8
  %4 = getelementptr inbounds { i64, i64 }, { i64, i64 }* %self, i32 0, i32 0
  store i64 %0, i64* %4, align 8
  %5 = getelementptr inbounds { i64, i64 }, { i64, i64 }* %self, i32 0, i32 1
  store i64 %1, i64* %5, align 8
  call void @llvm.dbg.declare(metadata { i64, i64 }* %self, metadata !987, metadata !DIExpression()), !dbg !991
  call void @llvm.dbg.declare(metadata %"std::option::NoneError"* %err.dbg.spill, metadata !988, metadata !DIExpression()), !dbg !992
  store i8 0, i8* %_7, align 1, !dbg !993
  store i8 1, i8* %_7, align 1, !dbg !993
  %6 = getelementptr inbounds { i64, i64 }, { i64, i64 }* %self, i32 0, i32 1, !dbg !993
  %7 = load i64, i64* %6, align 8, !dbg !993
  %8 = icmp eq i64 %7, 0, !dbg !993
  %_3 = select i1 %8, i64 0, i64 1, !dbg !993
  switch i64 %_3, label %bb2 [
    i64 0, label %bb1
    i64 1, label %bb3
  ], !dbg !993

bb1:                                              ; preds = %start
  store i8 0, i8* %_7, align 1, !dbg !994
  %9 = bitcast { i64, i64 }* %3 to %"std::result::Result<std::alloc::Layout, std::option::NoneError>::Err"*, !dbg !995
  %10 = bitcast %"std::result::Result<std::alloc::Layout, std::option::NoneError>::Err"* %9 to %"std::option::NoneError"*, !dbg !995
  %11 = getelementptr inbounds { i64, i64 }, { i64, i64 }* %3, i32 0, i32 1, !dbg !995
  store i64 0, i64* %11, align 8, !dbg !995
  br label %bb8, !dbg !996

bb2:                                              ; preds = %start
  unreachable, !dbg !997

bb3:                                              ; preds = %start
  %12 = getelementptr inbounds { i64, i64 }, { i64, i64 }* %self, i32 0, i32 0, !dbg !998
  %v.0 = load i64, i64* %12, align 8, !dbg !998
  %13 = getelementptr inbounds { i64, i64 }, { i64, i64 }* %self, i32 0, i32 1, !dbg !998
  %v.1 = load i64, i64* %13, align 8, !dbg !998, !range !999
  %14 = getelementptr inbounds { i64, i64 }, { i64, i64 }* %v.dbg.spill, i32 0, i32 0, !dbg !998
  store i64 %v.0, i64* %14, align 8, !dbg !998
  %15 = getelementptr inbounds { i64, i64 }, { i64, i64 }* %v.dbg.spill, i32 0, i32 1, !dbg !998
  store i64 %v.1, i64* %15, align 8, !dbg !998
  call void @llvm.dbg.declare(metadata { i64, i64 }* %v.dbg.spill, metadata !989, metadata !DIExpression()), !dbg !1000
  %16 = getelementptr inbounds { i64, i64 }, { i64, i64 }* %3, i32 0, i32 0, !dbg !1001
  store i64 %v.0, i64* %16, align 8, !dbg !1001
  %17 = getelementptr inbounds { i64, i64 }, { i64, i64 }* %3, i32 0, i32 1, !dbg !1001
  store i64 %v.1, i64* %17, align 8, !dbg !1001
  br label %bb8, !dbg !1002

bb4:                                              ; preds = %bb7, %bb8
  %18 = getelementptr inbounds { i64, i64 }, { i64, i64 }* %3, i32 0, i32 0, !dbg !1003
  %19 = load i64, i64* %18, align 8, !dbg !1003
  %20 = getelementptr inbounds { i64, i64 }, { i64, i64 }* %3, i32 0, i32 1, !dbg !1003
  %21 = load i64, i64* %20, align 8, !dbg !1003
  %22 = insertvalue { i64, i64 } undef, i64 %19, 0, !dbg !1003
  %23 = insertvalue { i64, i64 } %22, i64 %21, 1, !dbg !1003
  ret { i64, i64 } %23, !dbg !1003

bb5:                                              ; No predecessors!
  br label %bb6, !dbg !1002

bb6:                                              ; preds = %bb5
  %24 = bitcast { i8*, i32 }* %2 to i8**, !dbg !1004
  %25 = load i8*, i8** %24, align 8, !dbg !1004
  %26 = getelementptr inbounds { i8*, i32 }, { i8*, i32 }* %2, i32 0, i32 1, !dbg !1004
  %27 = load i32, i32* %26, align 8, !dbg !1004
  %28 = insertvalue { i8*, i32 } undef, i8* %25, 0, !dbg !1004
  %29 = insertvalue { i8*, i32 } %28, i32 %27, 1, !dbg !1004
  resume { i8*, i32 } %29, !dbg !1004

bb7:                                              ; preds = %bb8
  br label %bb4, !dbg !1002

bb8:                                              ; preds = %bb1, %bb3
  %30 = load i8, i8* %_7, align 1, !dbg !1002, !range !947
  %31 = trunc i8 %30 to i1, !dbg !1002
  br i1 %31, label %bb7, label %bb4, !dbg !1002
}

; <core::option::Option<&core::cell::Cell<(u64, u64)>>>::ok_or::<std::thread::local::AccessError>
; Function Attrs: inlinehint nonlazybind uwtable
define align 8 dereferenceable_or_null(16) i64* @_RINvMNtCs3p84KrD9aKt_4core6optionINtB3_6OptionRINtNtB5_4cell4CellTyyEEE5ok_orNtNtNtCs2bNvlddUlXM_3std6thread5local11AccessErrorECs48Yq53b35jF_15crossbeam_utils(i64* align 8 dereferenceable_or_null(16) %0) unnamed_addr #0 personality i32 (i32, i32, i64, %"unwind::libunwind::_Unwind_Exception"*, %"unwind::libunwind::_Unwind_Context"*)* @rust_eh_personality !dbg !1005 {
start:
  %1 = alloca { i8*, i32 }, align 8
  %v.dbg.spill = alloca { i64, i64 }*, align 8
  %err.dbg.spill = alloca %"std::thread::AccessError", align 1
  %_7 = alloca i8, align 1
  %2 = alloca i64*, align 8
  %self = alloca i64*, align 8
  store i64* %0, i64** %self, align 8
  call void @llvm.dbg.declare(metadata i64** %self, metadata !1048, metadata !DIExpression()), !dbg !1052
  call void @llvm.dbg.declare(metadata %"std::thread::AccessError"* %err.dbg.spill, metadata !1049, metadata !DIExpression()), !dbg !1053
  store i8 0, i8* %_7, align 1, !dbg !1054
  store i8 1, i8* %_7, align 1, !dbg !1054
  %3 = bitcast i64** %self to {}**, !dbg !1054
  %4 = load {}*, {}** %3, align 8, !dbg !1054
  %5 = icmp eq {}* %4, null, !dbg !1054
  %_3 = select i1 %5, i64 0, i64 1, !dbg !1054
  switch i64 %_3, label %bb2 [
    i64 0, label %bb1
    i64 1, label %bb3
  ], !dbg !1054

bb1:                                              ; preds = %start
  store i8 0, i8* %_7, align 1, !dbg !1055
  %6 = bitcast i64** %2 to %"std::result::Result<&std::cell::Cell<(u64, u64)>, std::thread::AccessError>::Err"*, !dbg !1056
  %7 = bitcast %"std::result::Result<&std::cell::Cell<(u64, u64)>, std::thread::AccessError>::Err"* %6 to %"std::thread::AccessError"*, !dbg !1056
  %8 = bitcast i64** %2 to {}**, !dbg !1056
  store {}* null, {}** %8, align 8, !dbg !1056
  br label %bb8, !dbg !1057

bb2:                                              ; preds = %start
  unreachable, !dbg !1058

bb3:                                              ; preds = %start
  %9 = bitcast i64** %self to { i64, i64 }**, !dbg !1059
  %v = load { i64, i64 }*, { i64, i64 }** %9, align 8, !dbg !1059, !nonnull !4
  store { i64, i64 }* %v, { i64, i64 }** %v.dbg.spill, align 8, !dbg !1059
  call void @llvm.dbg.declare(metadata { i64, i64 }** %v.dbg.spill, metadata !1050, metadata !DIExpression()), !dbg !1060
  %10 = bitcast i64** %2 to { i64, i64 }**, !dbg !1061
  store { i64, i64 }* %v, { i64, i64 }** %10, align 8, !dbg !1061
  br label %bb8, !dbg !1062

bb4:                                              ; preds = %bb7, %bb8
  %11 = load i64*, i64** %2, align 8, !dbg !1063
  ret i64* %11, !dbg !1063

bb5:                                              ; No predecessors!
  br label %bb6, !dbg !1062

bb6:                                              ; preds = %bb5
  %12 = bitcast { i8*, i32 }* %1 to i8**, !dbg !1064
  %13 = load i8*, i8** %12, align 8, !dbg !1064
  %14 = getelementptr inbounds { i8*, i32 }, { i8*, i32 }* %1, i32 0, i32 1, !dbg !1064
  %15 = load i32, i32* %14, align 8, !dbg !1064
  %16 = insertvalue { i8*, i32 } undef, i8* %13, 0, !dbg !1064
  %17 = insertvalue { i8*, i32 } %16, i32 %15, 1, !dbg !1064
  resume { i8*, i32 } %17, !dbg !1064

bb7:                                              ; preds = %bb8
  br label %bb4, !dbg !1062

bb8:                                              ; preds = %bb1, %bb3
  %18 = load i8, i8* %_7, align 1, !dbg !1062, !range !947
  %19 = trunc i8 %18 to i1, !dbg !1062
  br i1 %19, label %bb7, label %bb4, !dbg !1062
}

; <core::option::Option<usize>>::ok_or::<core::option::NoneError>
; Function Attrs: inlinehint nonlazybind uwtable
define { i64, i64 } @_RINvMNtCs3p84KrD9aKt_4core6optionINtB3_6OptionjE5ok_orNtB3_9NoneErrorECs48Yq53b35jF_15crossbeam_utils(i64 %0, i64 %1) unnamed_addr #0 personality i32 (i32, i32, i64, %"unwind::libunwind::_Unwind_Exception"*, %"unwind::libunwind::_Unwind_Context"*)* @rust_eh_personality !dbg !1065 {
start:
  %2 = alloca { i8*, i32 }, align 8
  %v.dbg.spill = alloca i64, align 8
  %err.dbg.spill = alloca %"std::option::NoneError", align 1
  %_7 = alloca i8, align 1
  %3 = alloca { i64, i64 }, align 8
  %self = alloca { i64, i64 }, align 8
  %4 = getelementptr inbounds { i64, i64 }, { i64, i64 }* %self, i32 0, i32 0
  store i64 %0, i64* %4, align 8
  %5 = getelementptr inbounds { i64, i64 }, { i64, i64 }* %self, i32 0, i32 1
  store i64 %1, i64* %5, align 8
  call void @llvm.dbg.declare(metadata { i64, i64 }* %self, metadata !1082, metadata !DIExpression()), !dbg !1086
  call void @llvm.dbg.declare(metadata %"std::option::NoneError"* %err.dbg.spill, metadata !1083, metadata !DIExpression()), !dbg !1087
  store i8 0, i8* %_7, align 1, !dbg !1088
  store i8 1, i8* %_7, align 1, !dbg !1088
  %6 = bitcast { i64, i64 }* %self to i64*, !dbg !1088
  %_3 = load i64, i64* %6, align 8, !dbg !1088, !range !1089
  switch i64 %_3, label %bb2 [
    i64 0, label %bb1
    i64 1, label %bb3
  ], !dbg !1088

bb1:                                              ; preds = %start
  store i8 0, i8* %_7, align 1, !dbg !1090
  %7 = bitcast { i64, i64 }* %3 to %"std::result::Result<usize, std::option::NoneError>::Err"*, !dbg !1091
  %8 = getelementptr inbounds %"std::result::Result<usize, std::option::NoneError>::Err", %"std::result::Result<usize, std::option::NoneError>::Err"* %7, i32 0, i32 1, !dbg !1091
  %9 = bitcast { i64, i64 }* %3 to i64*, !dbg !1091
  store i64 1, i64* %9, align 8, !dbg !1091
  br label %bb8, !dbg !1092

bb2:                                              ; preds = %start
  unreachable, !dbg !1093

bb3:                                              ; preds = %start
  %10 = bitcast { i64, i64 }* %self to %"std::option::Option<usize>::Some"*, !dbg !1094
  %11 = getelementptr inbounds %"std::option::Option<usize>::Some", %"std::option::Option<usize>::Some"* %10, i32 0, i32 1, !dbg !1094
  %v = load i64, i64* %11, align 8, !dbg !1094
  store i64 %v, i64* %v.dbg.spill, align 8, !dbg !1094
  call void @llvm.dbg.declare(metadata i64* %v.dbg.spill, metadata !1084, metadata !DIExpression()), !dbg !1095
  %12 = bitcast { i64, i64 }* %3 to %"std::result::Result<usize, std::option::NoneError>::Ok"*, !dbg !1096
  %13 = getelementptr inbounds %"std::result::Result<usize, std::option::NoneError>::Ok", %"std::result::Result<usize, std::option::NoneError>::Ok"* %12, i32 0, i32 1, !dbg !1096
  store i64 %v, i64* %13, align 8, !dbg !1096
  %14 = bitcast { i64, i64 }* %3 to i64*, !dbg !1096
  store i64 0, i64* %14, align 8, !dbg !1096
  br label %bb8, !dbg !1097

bb4:                                              ; preds = %bb7, %bb8
  %15 = getelementptr inbounds { i64, i64 }, { i64, i64 }* %3, i32 0, i32 0, !dbg !1098
  %16 = load i64, i64* %15, align 8, !dbg !1098, !range !1089
  %17 = getelementptr inbounds { i64, i64 }, { i64, i64 }* %3, i32 0, i32 1, !dbg !1098
  %18 = load i64, i64* %17, align 8, !dbg !1098
  %19 = insertvalue { i64, i64 } undef, i64 %16, 0, !dbg !1098
  %20 = insertvalue { i64, i64 } %19, i64 %18, 1, !dbg !1098
  ret { i64, i64 } %20, !dbg !1098

bb5:                                              ; No predecessors!
  br label %bb6, !dbg !1097

bb6:                                              ; preds = %bb5
  %21 = bitcast { i8*, i32 }* %2 to i8**, !dbg !1099
  %22 = load i8*, i8** %21, align 8, !dbg !1099
  %23 = getelementptr inbounds { i8*, i32 }, { i8*, i32 }* %2, i32 0, i32 1, !dbg !1099
  %24 = load i32, i32* %23, align 8, !dbg !1099
  %25 = insertvalue { i8*, i32 } undef, i8* %22, 0, !dbg !1099
  %26 = insertvalue { i8*, i32 } %25, i32 %24, 1, !dbg !1099
  resume { i8*, i32 } %26, !dbg !1099

bb7:                                              ; preds = %bb8
  br label %bb4, !dbg !1097

bb8:                                              ; preds = %bb1, %bb3
  %27 = load i8, i8* %_7, align 1, !dbg !1097, !range !947
  %28 = trunc i8 %27 to i1, !dbg !1097
  br i1 %28, label %bb7, label %bb4, !dbg !1097
}

; <core::option::Option<usize>>::ok_or::<alloc::collections::TryReserveError>
; Function Attrs: inlinehint nonlazybind uwtable
define void @_RINvMNtCs3p84KrD9aKt_4core6optionINtB3_6OptionjE5ok_orNtNtCs8RW06R9lH2S_5alloc11collections15TryReserveErrorECs48Yq53b35jF_15crossbeam_utils(%"std::result::Result<usize, std::collections::TryReserveError>"* noalias nocapture sret dereferenceable(24) %0, i64 %1, i64 %2, i64 %err.0, i64 %err.1) unnamed_addr #0 personality i32 (i32, i32, i64, %"unwind::libunwind::_Unwind_Exception"*, %"unwind::libunwind::_Unwind_Context"*)* @rust_eh_personality !dbg !1100 {
start:
  %3 = alloca { i8*, i32 }, align 8
  %v.dbg.spill = alloca i64, align 8
  %err.dbg.spill = alloca { i64, i64 }, align 8
  %_7 = alloca i8, align 1
  %self = alloca { i64, i64 }, align 8
  %4 = getelementptr inbounds { i64, i64 }, { i64, i64 }* %self, i32 0, i32 0
  store i64 %1, i64* %4, align 8
  %5 = getelementptr inbounds { i64, i64 }, { i64, i64 }* %self, i32 0, i32 1
  store i64 %2, i64* %5, align 8
  call void @llvm.dbg.declare(metadata { i64, i64 }* %self, metadata !1131, metadata !DIExpression()), !dbg !1135
  %6 = getelementptr inbounds { i64, i64 }, { i64, i64 }* %err.dbg.spill, i32 0, i32 0
  store i64 %err.0, i64* %6, align 8
  %7 = getelementptr inbounds { i64, i64 }, { i64, i64 }* %err.dbg.spill, i32 0, i32 1
  store i64 %err.1, i64* %7, align 8
  call void @llvm.dbg.declare(metadata { i64, i64 }* %err.dbg.spill, metadata !1132, metadata !DIExpression()), !dbg !1136
  store i8 0, i8* %_7, align 1, !dbg !1137
  store i8 1, i8* %_7, align 1, !dbg !1137
  %8 = bitcast { i64, i64 }* %self to i64*, !dbg !1137
  %_3 = load i64, i64* %8, align 8, !dbg !1137, !range !1089
  switch i64 %_3, label %bb2 [
    i64 0, label %bb1
    i64 1, label %bb3
  ], !dbg !1137

bb1:                                              ; preds = %start
  store i8 0, i8* %_7, align 1, !dbg !1138
  %9 = bitcast %"std::result::Result<usize, std::collections::TryReserveError>"* %0 to %"std::result::Result<usize, std::collections::TryReserveError>::Err"*, !dbg !1139
  %10 = getelementptr inbounds %"std::result::Result<usize, std::collections::TryReserveError>::Err", %"std::result::Result<usize, std::collections::TryReserveError>::Err"* %9, i32 0, i32 1, !dbg !1139
  %11 = getelementptr inbounds { i64, i64 }, { i64, i64 }* %10, i32 0, i32 0, !dbg !1139
  store i64 %err.0, i64* %11, align 8, !dbg !1139
  %12 = getelementptr inbounds { i64, i64 }, { i64, i64 }* %10, i32 0, i32 1, !dbg !1139
  store i64 %err.1, i64* %12, align 8, !dbg !1139
  %13 = bitcast %"std::result::Result<usize, std::collections::TryReserveError>"* %0 to i64*, !dbg !1139
  store i64 1, i64* %13, align 8, !dbg !1139
  br label %bb8, !dbg !1140

bb2:                                              ; preds = %start
  unreachable, !dbg !1141

bb3:                                              ; preds = %start
  %14 = bitcast { i64, i64 }* %self to %"std::option::Option<usize>::Some"*, !dbg !1142
  %15 = getelementptr inbounds %"std::option::Option<usize>::Some", %"std::option::Option<usize>::Some"* %14, i32 0, i32 1, !dbg !1142
  %v = load i64, i64* %15, align 8, !dbg !1142
  store i64 %v, i64* %v.dbg.spill, align 8, !dbg !1142
  call void @llvm.dbg.declare(metadata i64* %v.dbg.spill, metadata !1133, metadata !DIExpression()), !dbg !1143
  %16 = bitcast %"std::result::Result<usize, std::collections::TryReserveError>"* %0 to %"std::result::Result<usize, std::collections::TryReserveError>::Ok"*, !dbg !1144
  %17 = getelementptr inbounds %"std::result::Result<usize, std::collections::TryReserveError>::Ok", %"std::result::Result<usize, std::collections::TryReserveError>::Ok"* %16, i32 0, i32 1, !dbg !1144
  store i64 %v, i64* %17, align 8, !dbg !1144
  %18 = bitcast %"std::result::Result<usize, std::collections::TryReserveError>"* %0 to i64*, !dbg !1144
  store i64 0, i64* %18, align 8, !dbg !1144
  br label %bb8, !dbg !1145

bb4:                                              ; preds = %bb7, %bb8
  ret void, !dbg !1146

bb5:                                              ; No predecessors!
  br label %bb6, !dbg !1145

bb6:                                              ; preds = %bb5
  %19 = bitcast { i8*, i32 }* %3 to i8**, !dbg !1147
  %20 = load i8*, i8** %19, align 8, !dbg !1147
  %21 = getelementptr inbounds { i8*, i32 }, { i8*, i32 }* %3, i32 0, i32 1, !dbg !1147
  %22 = load i32, i32* %21, align 8, !dbg !1147
  %23 = insertvalue { i8*, i32 } undef, i8* %20, 0, !dbg !1147
  %24 = insertvalue { i8*, i32 } %23, i32 %22, 1, !dbg !1147
  resume { i8*, i32 } %24, !dbg !1147

bb7:                                              ; preds = %bb8
  br label %bb4, !dbg !1145

bb8:                                              ; preds = %bb1, %bb3
  %25 = load i8, i8* %_7, align 1, !dbg !1145, !range !947
  %26 = trunc i8 %25 to i1, !dbg !1145
  br i1 %26, label %bb7, label %bb4, !dbg !1145
}

; <core::option::Option<usize>>::ok_or::<core::alloc::layout::LayoutError>
; Function Attrs: inlinehint nonlazybind uwtable
define { i64, i64 } @_RINvMNtCs3p84KrD9aKt_4core6optionINtB3_6OptionjE5ok_orNtNtNtB5_5alloc6layout11LayoutErrorECs48Yq53b35jF_15crossbeam_utils(i64 %0, i64 %1) unnamed_addr #0 personality i32 (i32, i32, i64, %"unwind::libunwind::_Unwind_Exception"*, %"unwind::libunwind::_Unwind_Context"*)* @rust_eh_personality !dbg !1148 {
start:
  %2 = alloca { i8*, i32 }, align 8
  %v.dbg.spill = alloca i64, align 8
  %err.dbg.spill = alloca %"std::alloc::LayoutError", align 1
  %_7 = alloca i8, align 1
  %3 = alloca { i64, i64 }, align 8
  %self = alloca { i64, i64 }, align 8
  %4 = getelementptr inbounds { i64, i64 }, { i64, i64 }* %self, i32 0, i32 0
  store i64 %0, i64* %4, align 8
  %5 = getelementptr inbounds { i64, i64 }, { i64, i64 }* %self, i32 0, i32 1
  store i64 %1, i64* %5, align 8
  call void @llvm.dbg.declare(metadata { i64, i64 }* %self, metadata !1166, metadata !DIExpression()), !dbg !1170
  call void @llvm.dbg.declare(metadata %"std::alloc::LayoutError"* %err.dbg.spill, metadata !1167, metadata !DIExpression()), !dbg !1171
  store i8 0, i8* %_7, align 1, !dbg !1172
  store i8 1, i8* %_7, align 1, !dbg !1172
  %6 = bitcast { i64, i64 }* %self to i64*, !dbg !1172
  %_3 = load i64, i64* %6, align 8, !dbg !1172, !range !1089
  switch i64 %_3, label %bb2 [
    i64 0, label %bb1
    i64 1, label %bb3
  ], !dbg !1172

bb1:                                              ; preds = %start
  store i8 0, i8* %_7, align 1, !dbg !1173
  %7 = bitcast { i64, i64 }* %3 to %"std::result::Result<usize, std::alloc::LayoutError>::Err"*, !dbg !1174
  %8 = getelementptr inbounds %"std::result::Result<usize, std::alloc::LayoutError>::Err", %"std::result::Result<usize, std::alloc::LayoutError>::Err"* %7, i32 0, i32 1, !dbg !1174
  %9 = bitcast { i64, i64 }* %3 to i64*, !dbg !1174
  store i64 1, i64* %9, align 8, !dbg !1174
  br label %bb8, !dbg !1175

bb2:                                              ; preds = %start
  unreachable, !dbg !1176

bb3:                                              ; preds = %start
  %10 = bitcast { i64, i64 }* %self to %"std::option::Option<usize>::Some"*, !dbg !1177
  %11 = getelementptr inbounds %"std::option::Option<usize>::Some", %"std::option::Option<usize>::Some"* %10, i32 0, i32 1, !dbg !1177
  %v = load i64, i64* %11, align 8, !dbg !1177
  store i64 %v, i64* %v.dbg.spill, align 8, !dbg !1177
  call void @llvm.dbg.declare(metadata i64* %v.dbg.spill, metadata !1168, metadata !DIExpression()), !dbg !1178
  %12 = bitcast { i64, i64 }* %3 to %"std::result::Result<usize, std::alloc::LayoutError>::Ok"*, !dbg !1179
  %13 = getelementptr inbounds %"std::result::Result<usize, std::alloc::LayoutError>::Ok", %"std::result::Result<usize, std::alloc::LayoutError>::Ok"* %12, i32 0, i32 1, !dbg !1179
  store i64 %v, i64* %13, align 8, !dbg !1179
  %14 = bitcast { i64, i64 }* %3 to i64*, !dbg !1179
  store i64 0, i64* %14, align 8, !dbg !1179
  br label %bb8, !dbg !1180

bb4:                                              ; preds = %bb7, %bb8
  %15 = getelementptr inbounds { i64, i64 }, { i64, i64 }* %3, i32 0, i32 0, !dbg !1181
  %16 = load i64, i64* %15, align 8, !dbg !1181, !range !1089
  %17 = getelementptr inbounds { i64, i64 }, { i64, i64 }* %3, i32 0, i32 1, !dbg !1181
  %18 = load i64, i64* %17, align 8, !dbg !1181
  %19 = insertvalue { i64, i64 } undef, i64 %16, 0, !dbg !1181
  %20 = insertvalue { i64, i64 } %19, i64 %18, 1, !dbg !1181
  ret { i64, i64 } %20, !dbg !1181

bb5:                                              ; No predecessors!
  br label %bb6, !dbg !1180

bb6:                                              ; preds = %bb5
  %21 = bitcast { i8*, i32 }* %2 to i8**, !dbg !1182
  %22 = load i8*, i8** %21, align 8, !dbg !1182
  %23 = getelementptr inbounds { i8*, i32 }, { i8*, i32 }* %2, i32 0, i32 1, !dbg !1182
  %24 = load i32, i32* %23, align 8, !dbg !1182
  %25 = insertvalue { i8*, i32 } undef, i8* %22, 0, !dbg !1182
  %26 = insertvalue { i8*, i32 } %25, i32 %24, 1, !dbg !1182
  resume { i8*, i32 } %26, !dbg !1182

bb7:                                              ; preds = %bb8
  br label %bb4, !dbg !1180

bb8:                                              ; preds = %bb1, %bb3
  %27 = load i8, i8* %_7, align 1, !dbg !1180, !range !947
  %28 = trunc i8 %27 to i1, !dbg !1180
  br i1 %28, label %bb7, label %bb4, !dbg !1180
}

; <core::result::Result<core::ptr::non_null::NonNull<[u8]>, core::alloc::AllocError>>::map_err::<alloc::collections::TryReserveError, alloc::raw_vec::finish_grow<alloc::alloc::Global>::{closure#1}>
; Function Attrs: inlinehint nonlazybind uwtable
define void @_RINvMNtCs3p84KrD9aKt_4core6resultINtB3_6ResultINtNtNtB5_3ptr8non_null7NonNullShENtNtB5_5alloc10AllocErrorE7map_errNtNtCs8RW06R9lH2S_5alloc11collections15TryReserveErrorNCINvNtB1S_7raw_vec11finish_growNtNtB1S_5alloc6GlobalEs_0ECs48Yq53b35jF_15crossbeam_utils(%"std::result::Result<std::ptr::NonNull<[u8]>, std::collections::TryReserveError>"* noalias nocapture sret dereferenceable(24) %0, i8* %1, i64 %2, i64* noalias readonly align 8 dereferenceable(16) %op) unnamed_addr #0 personality i32 (i32, i32, i64, %"unwind::libunwind::_Unwind_Exception"*, %"unwind::libunwind::_Unwind_Context"*)* @rust_eh_personality !dbg !1183 {
start:
  %3 = alloca { i8*, i32 }, align 8
  %t.dbg.spill = alloca { i8*, i64 }, align 8
  %e.dbg.spill = alloca %"std::alloc::AllocError", align 1
  %op.dbg.spill = alloca i64*, align 8
  %_11 = alloca i8, align 1
  %_9 = alloca { [0 x i8], %"std::alloc::AllocError", [0 x i8] }, align 1
  %self = alloca { i8*, i64 }, align 8
  %4 = getelementptr inbounds { i8*, i64 }, { i8*, i64 }* %self, i32 0, i32 0
  store i8* %1, i8** %4, align 8
  %5 = getelementptr inbounds { i8*, i64 }, { i8*, i64 }* %self, i32 0, i32 1
  store i64 %2, i64* %5, align 8
  call void @llvm.dbg.declare(metadata { i8*, i64 }* %self, metadata !1228, metadata !DIExpression()), !dbg !1237
  store i64* %op, i64** %op.dbg.spill, align 8
  call void @llvm.dbg.declare(metadata i64** %op.dbg.spill, metadata !1229, metadata !DIExpression()), !dbg !1238
  call void @llvm.dbg.declare(metadata %"std::alloc::AllocError"* %e.dbg.spill, metadata !1232, metadata !DIExpression()), !dbg !1239
  store i8 0, i8* %_11, align 1, !dbg !1240
  store i8 1, i8* %_11, align 1, !dbg !1240
  %6 = bitcast { i8*, i64 }* %self to {}**, !dbg !1240
  %7 = load {}*, {}** %6, align 8, !dbg !1240
  %8 = icmp eq {}* %7, null, !dbg !1240
  %_3 = select i1 %8, i64 1, i64 0, !dbg !1240
  switch i64 %_3, label %bb2 [
    i64 0, label %bb3
    i64 1, label %bb1
  ], !dbg !1240

bb1:                                              ; preds = %start
  store i8 0, i8* %_11, align 1, !dbg !1241
  %9 = bitcast { [0 x i8], %"std::alloc::AllocError", [0 x i8] }* %_9 to %"std::alloc::AllocError"*, !dbg !1241
; call alloc::raw_vec::finish_grow::<alloc::alloc::Global>::{closure#1}
  %10 = call { i64, i64 } @_RNCINvNtCs8RW06R9lH2S_5alloc7raw_vec11finish_growNtNtB6_5alloc6GlobalEs_0Cs48Yq53b35jF_15crossbeam_utils(i64* noalias readonly align 8 dereferenceable(16) %op), !dbg !1241
  %_7.0 = extractvalue { i64, i64 } %10, 0, !dbg !1241
  %_7.1 = extractvalue { i64, i64 } %10, 1, !dbg !1241
  br label %bb4, !dbg !1241

bb2:                                              ; preds = %start
  unreachable, !dbg !1242

bb3:                                              ; preds = %start
  %11 = getelementptr inbounds { i8*, i64 }, { i8*, i64 }* %self, i32 0, i32 0, !dbg !1243
  %t.0 = load i8*, i8** %11, align 8, !dbg !1243, !nonnull !4
  %12 = getelementptr inbounds { i8*, i64 }, { i8*, i64 }* %self, i32 0, i32 1, !dbg !1243
  %t.1 = load i64, i64* %12, align 8, !dbg !1243
  %13 = getelementptr inbounds { i8*, i64 }, { i8*, i64 }* %t.dbg.spill, i32 0, i32 0, !dbg !1243
  store i8* %t.0, i8** %13, align 8, !dbg !1243
  %14 = getelementptr inbounds { i8*, i64 }, { i8*, i64 }* %t.dbg.spill, i32 0, i32 1, !dbg !1243
  store i64 %t.1, i64* %14, align 8, !dbg !1243
  call void @llvm.dbg.declare(metadata { i8*, i64 }* %t.dbg.spill, metadata !1230, metadata !DIExpression()), !dbg !1244
  %15 = bitcast %"std::result::Result<std::ptr::NonNull<[u8]>, std::collections::TryReserveError>"* %0 to %"std::result::Result<std::ptr::NonNull<[u8]>, std::collections::TryReserveError>::Ok"*, !dbg !1245
  %16 = getelementptr inbounds %"std::result::Result<std::ptr::NonNull<[u8]>, std::collections::TryReserveError>::Ok", %"std::result::Result<std::ptr::NonNull<[u8]>, std::collections::TryReserveError>::Ok"* %15, i32 0, i32 1, !dbg !1245
  %17 = getelementptr inbounds { i8*, i64 }, { i8*, i64 }* %16, i32 0, i32 0, !dbg !1245
  store i8* %t.0, i8** %17, align 8, !dbg !1245
  %18 = getelementptr inbounds { i8*, i64 }, { i8*, i64 }* %16, i32 0, i32 1, !dbg !1245
  store i64 %t.1, i64* %18, align 8, !dbg !1245
  %19 = bitcast %"std::result::Result<std::ptr::NonNull<[u8]>, std::collections::TryReserveError>"* %0 to i64*, !dbg !1245
  store i64 0, i64* %19, align 8, !dbg !1245
  br label %bb5, !dbg !1246

bb4:                                              ; preds = %bb1
  %20 = bitcast %"std::result::Result<std::ptr::NonNull<[u8]>, std::collections::TryReserveError>"* %0 to %"std::result::Result<std::ptr::NonNull<[u8]>, std::collections::TryReserveError>::Err"*, !dbg !1247
  %21 = getelementptr inbounds %"std::result::Result<std::ptr::NonNull<[u8]>, std::collections::TryReserveError>::Err", %"std::result::Result<std::ptr::NonNull<[u8]>, std::collections::TryReserveError>::Err"* %20, i32 0, i32 1, !dbg !1247
  %22 = getelementptr inbounds { i64, i64 }, { i64, i64 }* %21, i32 0, i32 0, !dbg !1247
  store i64 %_7.0, i64* %22, align 8, !dbg !1247
  %23 = getelementptr inbounds { i64, i64 }, { i64, i64 }* %21, i32 0, i32 1, !dbg !1247
  store i64 %_7.1, i64* %23, align 8, !dbg !1247
  %24 = bitcast %"std::result::Result<std::ptr::NonNull<[u8]>, std::collections::TryReserveError>"* %0 to i64*, !dbg !1247
  store i64 1, i64* %24, align 8, !dbg !1247
  br label %bb5, !dbg !1246

bb5:                                              ; preds = %bb3, %bb4
  %25 = load i8, i8* %_11, align 1, !dbg !1248, !range !947
  %26 = trunc i8 %25 to i1, !dbg !1248
  br i1 %26, label %bb9, label %bb6, !dbg !1248

bb6:                                              ; preds = %bb9, %bb5
  ret void, !dbg !1249

bb7:                                              ; No predecessors!
  br label %bb8, !dbg !1248

bb8:                                              ; preds = %bb7
  %27 = bitcast { i8*, i32 }* %3 to i8**, !dbg !1250
  %28 = load i8*, i8** %27, align 8, !dbg !1250
  %29 = getelementptr inbounds { i8*, i32 }, { i8*, i32 }* %3, i32 0, i32 1, !dbg !1250
  %30 = load i32, i32* %29, align 8, !dbg !1250
  %31 = insertvalue { i8*, i32 } undef, i8* %28, 0, !dbg !1250
  %32 = insertvalue { i8*, i32 } %31, i32 %30, 1, !dbg !1250
  resume { i8*, i32 } %32, !dbg !1250

bb9:                                              ; preds = %bb5
  br label %bb6, !dbg !1248
}

; <core::result::Result<core::alloc::layout::Layout, core::alloc::layout::LayoutError>>::map_err::<alloc::collections::TryReserveError, alloc::raw_vec::finish_grow<alloc::alloc::Global>::{closure#0}>
; Function Attrs: inlinehint nonlazybind uwtable
define void @_RINvMNtCs3p84KrD9aKt_4core6resultINtB3_6ResultNtNtNtB5_5alloc6layout6LayoutNtBK_11LayoutErrorE7map_errNtNtCs8RW06R9lH2S_5alloc11collections15TryReserveErrorNCINvNtB1G_7raw_vec11finish_growNtNtB1G_5alloc6GlobalE0ECs48Yq53b35jF_15crossbeam_utils(%"std::result::Result<std::alloc::Layout, std::collections::TryReserveError>"* noalias nocapture sret dereferenceable(24) %0, i64 %1, i64 %2) unnamed_addr #0 personality i32 (i32, i32, i64, %"unwind::libunwind::_Unwind_Exception"*, %"unwind::libunwind::_Unwind_Context"*)* @rust_eh_personality !dbg !1251 {
start:
  %3 = alloca { i8*, i32 }, align 8
  %t.dbg.spill = alloca { i64, i64 }, align 8
  %e.dbg.spill = alloca %"std::alloc::LayoutError", align 1
  %op.dbg.spill = alloca %"[closure@alloc::raw_vec::finish_grow<std::alloc::Global>::{closure#0}]", align 1
  %_11 = alloca i8, align 1
  %_9 = alloca { [0 x i8], %"std::alloc::LayoutError", [0 x i8] }, align 1
  %self = alloca { i64, i64 }, align 8
  %4 = getelementptr inbounds { i64, i64 }, { i64, i64 }* %self, i32 0, i32 0
  store i64 %1, i64* %4, align 8
  %5 = getelementptr inbounds { i64, i64 }, { i64, i64 }* %self, i32 0, i32 1
  store i64 %2, i64* %5, align 8
  call void @llvm.dbg.declare(metadata { i64, i64 }* %self, metadata !1282, metadata !DIExpression()), !dbg !1290
  call void @llvm.dbg.declare(metadata %"[closure@alloc::raw_vec::finish_grow<std::alloc::Global>::{closure#0}]"* %op.dbg.spill, metadata !1283, metadata !DIExpression()), !dbg !1291
  call void @llvm.dbg.declare(metadata %"std::alloc::LayoutError"* %e.dbg.spill, metadata !1286, metadata !DIExpression()), !dbg !1292
  store i8 0, i8* %_11, align 1, !dbg !1293
  store i8 1, i8* %_11, align 1, !dbg !1293
  %6 = getelementptr inbounds { i64, i64 }, { i64, i64 }* %self, i32 0, i32 1, !dbg !1293
  %7 = load i64, i64* %6, align 8, !dbg !1293
  %8 = icmp eq i64 %7, 0, !dbg !1293
  %_3 = select i1 %8, i64 1, i64 0, !dbg !1293
  switch i64 %_3, label %bb2 [
    i64 0, label %bb3
    i64 1, label %bb1
  ], !dbg !1293

bb1:                                              ; preds = %start
  store i8 0, i8* %_11, align 1, !dbg !1294
  %9 = bitcast { [0 x i8], %"std::alloc::LayoutError", [0 x i8] }* %_9 to %"std::alloc::LayoutError"*, !dbg !1294
; call alloc::raw_vec::finish_grow::<alloc::alloc::Global>::{closure#0}
  %10 = call { i64, i64 } @_RNCINvNtCs8RW06R9lH2S_5alloc7raw_vec11finish_growNtNtB6_5alloc6GlobalE0Cs48Yq53b35jF_15crossbeam_utils(), !dbg !1294
  %_7.0 = extractvalue { i64, i64 } %10, 0, !dbg !1294
  %_7.1 = extractvalue { i64, i64 } %10, 1, !dbg !1294
  br label %bb4, !dbg !1294

bb2:                                              ; preds = %start
  unreachable, !dbg !1295

bb3:                                              ; preds = %start
  %11 = getelementptr inbounds { i64, i64 }, { i64, i64 }* %self, i32 0, i32 0, !dbg !1296
  %t.0 = load i64, i64* %11, align 8, !dbg !1296
  %12 = getelementptr inbounds { i64, i64 }, { i64, i64 }* %self, i32 0, i32 1, !dbg !1296
  %t.1 = load i64, i64* %12, align 8, !dbg !1296, !range !999
  %13 = getelementptr inbounds { i64, i64 }, { i64, i64 }* %t.dbg.spill, i32 0, i32 0, !dbg !1296
  store i64 %t.0, i64* %13, align 8, !dbg !1296
  %14 = getelementptr inbounds { i64, i64 }, { i64, i64 }* %t.dbg.spill, i32 0, i32 1, !dbg !1296
  store i64 %t.1, i64* %14, align 8, !dbg !1296
  call void @llvm.dbg.declare(metadata { i64, i64 }* %t.dbg.spill, metadata !1284, metadata !DIExpression()), !dbg !1297
  %15 = bitcast %"std::result::Result<std::alloc::Layout, std::collections::TryReserveError>"* %0 to %"std::result::Result<std::alloc::Layout, std::collections::TryReserveError>::Ok"*, !dbg !1298
  %16 = getelementptr inbounds %"std::result::Result<std::alloc::Layout, std::collections::TryReserveError>::Ok", %"std::result::Result<std::alloc::Layout, std::collections::TryReserveError>::Ok"* %15, i32 0, i32 1, !dbg !1298
  %17 = getelementptr inbounds { i64, i64 }, { i64, i64 }* %16, i32 0, i32 0, !dbg !1298
  store i64 %t.0, i64* %17, align 8, !dbg !1298
  %18 = getelementptr inbounds { i64, i64 }, { i64, i64 }* %16, i32 0, i32 1, !dbg !1298
  store i64 %t.1, i64* %18, align 8, !dbg !1298
  %19 = bitcast %"std::result::Result<std::alloc::Layout, std::collections::TryReserveError>"* %0 to i64*, !dbg !1298
  store i64 0, i64* %19, align 8, !dbg !1298
  br label %bb5, !dbg !1299

bb4:                                              ; preds = %bb1
  %20 = bitcast %"std::result::Result<std::alloc::Layout, std::collections::TryReserveError>"* %0 to %"std::result::Result<std::alloc::Layout, std::collections::TryReserveError>::Err"*, !dbg !1300
  %21 = getelementptr inbounds %"std::result::Result<std::alloc::Layout, std::collections::TryReserveError>::Err", %"std::result::Result<std::alloc::Layout, std::collections::TryReserveError>::Err"* %20, i32 0, i32 1, !dbg !1300
  %22 = getelementptr inbounds { i64, i64 }, { i64, i64 }* %21, i32 0, i32 0, !dbg !1300
  store i64 %_7.0, i64* %22, align 8, !dbg !1300
  %23 = getelementptr inbounds { i64, i64 }, { i64, i64 }* %21, i32 0, i32 1, !dbg !1300
  store i64 %_7.1, i64* %23, align 8, !dbg !1300
  %24 = bitcast %"std::result::Result<std::alloc::Layout, std::collections::TryReserveError>"* %0 to i64*, !dbg !1300
  store i64 1, i64* %24, align 8, !dbg !1300
  br label %bb5, !dbg !1299

bb5:                                              ; preds = %bb3, %bb4
  %25 = load i8, i8* %_11, align 1, !dbg !1301, !range !947
  %26 = trunc i8 %25 to i1, !dbg !1301
  br i1 %26, label %bb9, label %bb6, !dbg !1301

bb6:                                              ; preds = %bb9, %bb5
  ret void, !dbg !1302

bb7:                                              ; No predecessors!
  br label %bb8, !dbg !1301

bb8:                                              ; preds = %bb7
  %27 = bitcast { i8*, i32 }* %3 to i8**, !dbg !1303
  %28 = load i8*, i8** %27, align 8, !dbg !1303
  %29 = getelementptr inbounds { i8*, i32 }, { i8*, i32 }* %3, i32 0, i32 1, !dbg !1303
  %30 = load i32, i32* %29, align 8, !dbg !1303
  %31 = insertvalue { i8*, i32 } undef, i8* %28, 0, !dbg !1303
  %32 = insertvalue { i8*, i32 } %31, i32 %30, 1, !dbg !1303
  resume { i8*, i32 } %32, !dbg !1303

bb9:                                              ; preds = %bb5
  br label %bb6, !dbg !1301
}

; <core::alloc::layout::Layout>::for_value_raw::<alloc::sync::ArcInner<std::thread::Inner>>
; Function Attrs: nonlazybind uwtable
define { i64, i64 } @_RINvMNtNtCs3p84KrD9aKt_4core5alloc6layoutNtB3_6Layout13for_value_rawINtNtCs8RW06R9lH2S_5alloc4sync8ArcInnerNtNtCs2bNvlddUlXM_3std6thread5InnerEECs48Yq53b35jF_15crossbeam_utils(%"alloc::sync::ArcInner<std::thread::Inner>"* %t) unnamed_addr #1 !dbg !1304 {
start:
  %align.dbg.spill = alloca i64, align 8
  %size.dbg.spill = alloca i64, align 8
  %t.dbg.spill = alloca %"alloc::sync::ArcInner<std::thread::Inner>"*, align 8
  %_4 = alloca { i64, i64 }, align 8
  store %"alloc::sync::ArcInner<std::thread::Inner>"* %t, %"alloc::sync::ArcInner<std::thread::Inner>"** %t.dbg.spill, align 8
  call void @llvm.dbg.declare(metadata %"alloc::sync::ArcInner<std::thread::Inner>"** %t.dbg.spill, metadata !1309, metadata !DIExpression()), !dbg !1313
; call core::mem::size_of_val_raw::<alloc::sync::ArcInner<std::thread::Inner>>
  %_5 = call i64 @_RINvNtCs3p84KrD9aKt_4core3mem15size_of_val_rawINtNtCs8RW06R9lH2S_5alloc4sync8ArcInnerNtNtCs2bNvlddUlXM_3std6thread5InnerEECs48Yq53b35jF_15crossbeam_utils(%"alloc::sync::ArcInner<std::thread::Inner>"* %t), !dbg !1314
  br label %bb1, !dbg !1314

bb1:                                              ; preds = %start
; call core::mem::align_of_val_raw::<alloc::sync::ArcInner<std::thread::Inner>>
  %_7 = call i64 @_RINvNtCs3p84KrD9aKt_4core3mem16align_of_val_rawINtNtCs8RW06R9lH2S_5alloc4sync8ArcInnerNtNtCs2bNvlddUlXM_3std6thread5InnerEECs48Yq53b35jF_15crossbeam_utils(%"alloc::sync::ArcInner<std::thread::Inner>"* %t), !dbg !1315
  br label %bb2, !dbg !1315

bb2:                                              ; preds = %bb1
  %0 = bitcast { i64, i64 }* %_4 to i64*, !dbg !1316
  store i64 %_5, i64* %0, align 8, !dbg !1316
  %1 = getelementptr inbounds { i64, i64 }, { i64, i64 }* %_4, i32 0, i32 1, !dbg !1316
  store i64 %_7, i64* %1, align 8, !dbg !1316
  %2 = bitcast { i64, i64 }* %_4 to i64*, !dbg !1317
  %size = load i64, i64* %2, align 8, !dbg !1317
  store i64 %size, i64* %size.dbg.spill, align 8, !dbg !1317
  call void @llvm.dbg.declare(metadata i64* %size.dbg.spill, metadata !1310, metadata !DIExpression()), !dbg !1318
  %3 = getelementptr inbounds { i64, i64 }, { i64, i64 }* %_4, i32 0, i32 1, !dbg !1319
  %align = load i64, i64* %3, align 8, !dbg !1319
  store i64 %align, i64* %align.dbg.spill, align 8, !dbg !1319
  call void @llvm.dbg.declare(metadata i64* %align.dbg.spill, metadata !1312, metadata !DIExpression()), !dbg !1320
; call <core::alloc::layout::Layout>::from_size_align_unchecked
  %4 = call { i64, i64 } @_RNvMNtNtCs3p84KrD9aKt_4core5alloc6layoutNtB2_6Layout25from_size_align_uncheckedCs48Yq53b35jF_15crossbeam_utils(i64 %size, i64 %align), !dbg !1321
  %5 = extractvalue { i64, i64 } %4, 0, !dbg !1321
  %6 = extractvalue { i64, i64 } %4, 1, !dbg !1321
  br label %bb3, !dbg !1321

bb3:                                              ; preds = %bb2
  %7 = insertvalue { i64, i64 } undef, i64 %5, 0, !dbg !1322
  %8 = insertvalue { i64, i64 } %7, i64 %6, 1, !dbg !1322
  ret { i64, i64 } %8, !dbg !1322
}

; <core::alloc::layout::Layout>::for_value_raw::<alloc::sync::ArcInner<crossbeam_utils::sync::wait_group::Inner>>
; Function Attrs: nonlazybind uwtable
define { i64, i64 } @_RINvMNtNtCs3p84KrD9aKt_4core5alloc6layoutNtB3_6Layout13for_value_rawINtNtCs8RW06R9lH2S_5alloc4sync8ArcInnerNtNtNtCs48Yq53b35jF_15crossbeam_utils4sync10wait_group5InnerEEB1N_(%"alloc::sync::ArcInner<sync::wait_group::Inner>"* %t) unnamed_addr #1 !dbg !1323 {
start:
  %align.dbg.spill = alloca i64, align 8
  %size.dbg.spill = alloca i64, align 8
  %t.dbg.spill = alloca %"alloc::sync::ArcInner<sync::wait_group::Inner>"*, align 8
  %_4 = alloca { i64, i64 }, align 8
  store %"alloc::sync::ArcInner<sync::wait_group::Inner>"* %t, %"alloc::sync::ArcInner<sync::wait_group::Inner>"** %t.dbg.spill, align 8
  call void @llvm.dbg.declare(metadata %"alloc::sync::ArcInner<sync::wait_group::Inner>"** %t.dbg.spill, metadata !1327, metadata !DIExpression()), !dbg !1331
; call core::mem::size_of_val_raw::<alloc::sync::ArcInner<crossbeam_utils::sync::wait_group::Inner>>
  %_5 = call i64 @_RINvNtCs3p84KrD9aKt_4core3mem15size_of_val_rawINtNtCs8RW06R9lH2S_5alloc4sync8ArcInnerNtNtNtCs48Yq53b35jF_15crossbeam_utils4sync10wait_group5InnerEEB1r_(%"alloc::sync::ArcInner<sync::wait_group::Inner>"* %t), !dbg !1332
  br label %bb1, !dbg !1332

bb1:                                              ; preds = %start
; call core::mem::align_of_val_raw::<alloc::sync::ArcInner<crossbeam_utils::sync::wait_group::Inner>>
  %_7 = call i64 @_RINvNtCs3p84KrD9aKt_4core3mem16align_of_val_rawINtNtCs8RW06R9lH2S_5alloc4sync8ArcInnerNtNtNtCs48Yq53b35jF_15crossbeam_utils4sync10wait_group5InnerEEB1s_(%"alloc::sync::ArcInner<sync::wait_group::Inner>"* %t), !dbg !1333
  br label %bb2, !dbg !1333

bb2:                                              ; preds = %bb1
  %0 = bitcast { i64, i64 }* %_4 to i64*, !dbg !1334
  store i64 %_5, i64* %0, align 8, !dbg !1334
  %1 = getelementptr inbounds { i64, i64 }, { i64, i64 }* %_4, i32 0, i32 1, !dbg !1334
  store i64 %_7, i64* %1, align 8, !dbg !1334
  %2 = bitcast { i64, i64 }* %_4 to i64*, !dbg !1335
  %size = load i64, i64* %2, align 8, !dbg !1335
  store i64 %size, i64* %size.dbg.spill, align 8, !dbg !1335
  call void @llvm.dbg.declare(metadata i64* %size.dbg.spill, metadata !1328, metadata !DIExpression()), !dbg !1336
  %3 = getelementptr inbounds { i64, i64 }, { i64, i64 }* %_4, i32 0, i32 1, !dbg !1337
  %align = load i64, i64* %3, align 8, !dbg !1337
  store i64 %align, i64* %align.dbg.spill, align 8, !dbg !1337
  call void @llvm.dbg.declare(metadata i64* %align.dbg.spill, metadata !1330, metadata !DIExpression()), !dbg !1338
; call <core::alloc::layout::Layout>::from_size_align_unchecked
  %4 = call { i64, i64 } @_RNvMNtNtCs3p84KrD9aKt_4core5alloc6layoutNtB2_6Layout25from_size_align_uncheckedCs48Yq53b35jF_15crossbeam_utils(i64 %size, i64 %align), !dbg !1339
  %5 = extractvalue { i64, i64 } %4, 0, !dbg !1339
  %6 = extractvalue { i64, i64 } %4, 1, !dbg !1339
  br label %bb3, !dbg !1339

bb3:                                              ; preds = %bb2
  %7 = insertvalue { i64, i64 } undef, i64 %5, 0, !dbg !1340
  %8 = insertvalue { i64, i64 } %7, i64 %6, 1, !dbg !1340
  ret { i64, i64 } %8, !dbg !1340
}

; <core::alloc::layout::Layout>::for_value_raw::<alloc::sync::ArcInner<crossbeam_utils::sync::parker::Inner>>
; Function Attrs: nonlazybind uwtable
define { i64, i64 } @_RINvMNtNtCs3p84KrD9aKt_4core5alloc6layoutNtB3_6Layout13for_value_rawINtNtCs8RW06R9lH2S_5alloc4sync8ArcInnerNtNtNtCs48Yq53b35jF_15crossbeam_utils4sync6parker5InnerEEB1N_(%"alloc::sync::ArcInner<sync::parker::Inner>"* %t) unnamed_addr #1 !dbg !1341 {
start:
  %align.dbg.spill = alloca i64, align 8
  %size.dbg.spill = alloca i64, align 8
  %t.dbg.spill = alloca %"alloc::sync::ArcInner<sync::parker::Inner>"*, align 8
  %_4 = alloca { i64, i64 }, align 8
  store %"alloc::sync::ArcInner<sync::parker::Inner>"* %t, %"alloc::sync::ArcInner<sync::parker::Inner>"** %t.dbg.spill, align 8
  call void @llvm.dbg.declare(metadata %"alloc::sync::ArcInner<sync::parker::Inner>"** %t.dbg.spill, metadata !1359, metadata !DIExpression()), !dbg !1365
; call core::mem::size_of_val_raw::<alloc::sync::ArcInner<crossbeam_utils::sync::parker::Inner>>
  %_5 = call i64 @_RINvNtCs3p84KrD9aKt_4core3mem15size_of_val_rawINtNtCs8RW06R9lH2S_5alloc4sync8ArcInnerNtNtNtCs48Yq53b35jF_15crossbeam_utils4sync6parker5InnerEEB1r_(%"alloc::sync::ArcInner<sync::parker::Inner>"* %t), !dbg !1366
  br label %bb1, !dbg !1366

bb1:                                              ; preds = %start
; call core::mem::align_of_val_raw::<alloc::sync::ArcInner<crossbeam_utils::sync::parker::Inner>>
  %_7 = call i64 @_RINvNtCs3p84KrD9aKt_4core3mem16align_of_val_rawINtNtCs8RW06R9lH2S_5alloc4sync8ArcInnerNtNtNtCs48Yq53b35jF_15crossbeam_utils4sync6parker5InnerEEB1s_(%"alloc::sync::ArcInner<sync::parker::Inner>"* %t), !dbg !1367
  br label %bb2, !dbg !1367

bb2:                                              ; preds = %bb1
  %0 = bitcast { i64, i64 }* %_4 to i64*, !dbg !1368
  store i64 %_5, i64* %0, align 8, !dbg !1368
  %1 = getelementptr inbounds { i64, i64 }, { i64, i64 }* %_4, i32 0, i32 1, !dbg !1368
  store i64 %_7, i64* %1, align 8, !dbg !1368
  %2 = bitcast { i64, i64 }* %_4 to i64*, !dbg !1369
  %size = load i64, i64* %2, align 8, !dbg !1369
  store i64 %size, i64* %size.dbg.spill, align 8, !dbg !1369
  call void @llvm.dbg.declare(metadata i64* %size.dbg.spill, metadata !1360, metadata !DIExpression()), !dbg !1370
  %3 = getelementptr inbounds { i64, i64 }, { i64, i64 }* %_4, i32 0, i32 1, !dbg !1371
  %align = load i64, i64* %3, align 8, !dbg !1371
  store i64 %align, i64* %align.dbg.spill, align 8, !dbg !1371
  call void @llvm.dbg.declare(metadata i64* %align.dbg.spill, metadata !1362, metadata !DIExpression()), !dbg !1372
; call <core::alloc::layout::Layout>::from_size_align_unchecked
  %4 = call { i64, i64 } @_RNvMNtNtCs3p84KrD9aKt_4core5alloc6layoutNtB2_6Layout25from_size_align_uncheckedCs48Yq53b35jF_15crossbeam_utils(i64 %size, i64 %align), !dbg !1373
  %5 = extractvalue { i64, i64 } %4, 0, !dbg !1373
  %6 = extractvalue { i64, i64 } %4, 1, !dbg !1373
  br label %bb3, !dbg !1373

bb3:                                              ; preds = %bb2
  %7 = insertvalue { i64, i64 } undef, i64 %5, 0, !dbg !1374
  %8 = insertvalue { i64, i64 } %7, i64 %6, 1, !dbg !1374
  ret { i64, i64 } %8, !dbg !1374
}

; <core::alloc::layout::Layout>::new::<alloc::sync::ArcInner<()>>
; Function Attrs: inlinehint nonlazybind uwtable
define { i64, i64 } @_RINvMNtNtCs3p84KrD9aKt_4core5alloc6layoutNtB3_6Layout3newINtNtCs8RW06R9lH2S_5alloc4sync8ArcInneruEECs48Yq53b35jF_15crossbeam_utils() unnamed_addr #0 !dbg !1375 {
start:
  %align.dbg.spill = alloca i64, align 8, !dbg !1389
  %size.dbg.spill = alloca i64, align 8, !dbg !1389
; call core::alloc::layout::size_align::<alloc::sync::ArcInner<()>>
  %0 = call { i64, i64 } @_RINvNtNtCs3p84KrD9aKt_4core5alloc6layout10size_alignINtNtCs8RW06R9lH2S_5alloc4sync8ArcInneruEECs48Yq53b35jF_15crossbeam_utils(), !dbg !1389
  %_3.0 = extractvalue { i64, i64 } %0, 0, !dbg !1389
  %_3.1 = extractvalue { i64, i64 } %0, 1, !dbg !1389
  br label %bb1, !dbg !1389

bb1:                                              ; preds = %start
  store i64 %_3.0, i64* %size.dbg.spill, align 8, !dbg !1390
  call void @llvm.dbg.declare(metadata i64* %size.dbg.spill, metadata !1379, metadata !DIExpression()), !dbg !1391
  store i64 %_3.1, i64* %align.dbg.spill, align 8, !dbg !1392
  call void @llvm.dbg.declare(metadata i64* %align.dbg.spill, metadata !1381, metadata !DIExpression()), !dbg !1393
; call <core::alloc::layout::Layout>::from_size_align_unchecked
  %1 = call { i64, i64 } @_RNvMNtNtCs3p84KrD9aKt_4core5alloc6layoutNtB2_6Layout25from_size_align_uncheckedCs48Yq53b35jF_15crossbeam_utils(i64 %_3.0, i64 %_3.1), !dbg !1394
  %2 = extractvalue { i64, i64 } %1, 0, !dbg !1394
  %3 = extractvalue { i64, i64 } %1, 1, !dbg !1394
  br label %bb2, !dbg !1394

bb2:                                              ; preds = %bb1
  %4 = insertvalue { i64, i64 } undef, i64 %2, 0, !dbg !1395
  %5 = insertvalue { i64, i64 } %4, i64 %3, 1, !dbg !1395
  ret { i64, i64 } %5, !dbg !1395
}

; <core::alloc::layout::Layout>::new::<(std::thread::ThreadId, usize)>
; Function Attrs: inlinehint nonlazybind uwtable
define { i64, i64 } @_RINvMNtNtCs3p84KrD9aKt_4core5alloc6layoutNtB3_6Layout3newTNtNtCs2bNvlddUlXM_3std6thread8ThreadIdjEECs48Yq53b35jF_15crossbeam_utils() unnamed_addr #0 !dbg !1396 {
start:
  %align.dbg.spill = alloca i64, align 8, !dbg !1401
  %size.dbg.spill = alloca i64, align 8, !dbg !1401
; call core::alloc::layout::size_align::<(std::thread::ThreadId, usize)>
  %0 = call { i64, i64 } @_RINvNtNtCs3p84KrD9aKt_4core5alloc6layout10size_alignTNtNtCs2bNvlddUlXM_3std6thread8ThreadIdjEECs48Yq53b35jF_15crossbeam_utils(), !dbg !1401
  %_3.0 = extractvalue { i64, i64 } %0, 0, !dbg !1401
  %_3.1 = extractvalue { i64, i64 } %0, 1, !dbg !1401
  br label %bb1, !dbg !1401

bb1:                                              ; preds = %start
  store i64 %_3.0, i64* %size.dbg.spill, align 8, !dbg !1402
  call void @llvm.dbg.declare(metadata i64* %size.dbg.spill, metadata !1398, metadata !DIExpression()), !dbg !1403
  store i64 %_3.1, i64* %align.dbg.spill, align 8, !dbg !1404
  call void @llvm.dbg.declare(metadata i64* %align.dbg.spill, metadata !1400, metadata !DIExpression()), !dbg !1405
; call <core::alloc::layout::Layout>::from_size_align_unchecked
  %1 = call { i64, i64 } @_RNvMNtNtCs3p84KrD9aKt_4core5alloc6layoutNtB2_6Layout25from_size_align_uncheckedCs48Yq53b35jF_15crossbeam_utils(i64 %_3.0, i64 %_3.1), !dbg !1406
  %2 = extractvalue { i64, i64 } %1, 0, !dbg !1406
  %3 = extractvalue { i64, i64 } %1, 1, !dbg !1406
  br label %bb2, !dbg !1406

bb2:                                              ; preds = %bb1
  %4 = insertvalue { i64, i64 } undef, i64 %2, 0, !dbg !1407
  %5 = insertvalue { i64, i64 } %4, i64 %3, 1, !dbg !1407
  ret { i64, i64 } %5, !dbg !1407
}

; <core::alloc::layout::Layout>::new::<usize>
; Function Attrs: inlinehint nonlazybind uwtable
define { i64, i64 } @_RINvMNtNtCs3p84KrD9aKt_4core5alloc6layoutNtB3_6Layout3newjECs48Yq53b35jF_15crossbeam_utils() unnamed_addr #0 !dbg !1408 {
start:
  %align.dbg.spill = alloca i64, align 8, !dbg !1413
  %size.dbg.spill = alloca i64, align 8, !dbg !1413
; call core::alloc::layout::size_align::<usize>
  %0 = call { i64, i64 } @_RINvNtNtCs3p84KrD9aKt_4core5alloc6layout10size_alignjECs48Yq53b35jF_15crossbeam_utils(), !dbg !1413
  %_3.0 = extractvalue { i64, i64 } %0, 0, !dbg !1413
  %_3.1 = extractvalue { i64, i64 } %0, 1, !dbg !1413
  br label %bb1, !dbg !1413

bb1:                                              ; preds = %start
  store i64 %_3.0, i64* %size.dbg.spill, align 8, !dbg !1414
  call void @llvm.dbg.declare(metadata i64* %size.dbg.spill, metadata !1410, metadata !DIExpression()), !dbg !1415
  store i64 %_3.1, i64* %align.dbg.spill, align 8, !dbg !1416
  call void @llvm.dbg.declare(metadata i64* %align.dbg.spill, metadata !1412, metadata !DIExpression()), !dbg !1417
; call <core::alloc::layout::Layout>::from_size_align_unchecked
  %1 = call { i64, i64 } @_RNvMNtNtCs3p84KrD9aKt_4core5alloc6layoutNtB2_6Layout25from_size_align_uncheckedCs48Yq53b35jF_15crossbeam_utils(i64 %_3.0, i64 %_3.1), !dbg !1418
  %2 = extractvalue { i64, i64 } %1, 0, !dbg !1418
  %3 = extractvalue { i64, i64 } %1, 1, !dbg !1418
  br label %bb2, !dbg !1418

bb2:                                              ; preds = %bb1
  %4 = insertvalue { i64, i64 } undef, i64 %2, 0, !dbg !1419
  %5 = insertvalue { i64, i64 } %4, i64 %3, 1, !dbg !1419
  ret { i64, i64 } %5, !dbg !1419
}

; <core::alloc::layout::Layout>::array::<(std::thread::ThreadId, usize)>
; Function Attrs: inlinehint nonlazybind uwtable
define { i64, i64 } @_RINvMNtNtCs3p84KrD9aKt_4core5alloc6layoutNtB3_6Layout5arrayTNtNtCs2bNvlddUlXM_3std6thread8ThreadIdjEECs48Yq53b35jF_15crossbeam_utils(i64 %n) unnamed_addr #0 !dbg !1420 {
start:
  %offset.dbg.spill = alloca i64, align 8
  %err.dbg.spill = alloca %"std::alloc::LayoutError", align 1
  %n.dbg.spill = alloca i64, align 8
  %val = alloca { [0 x i64], { i64, i64 }, [0 x i64], i64, [0 x i64] }, align 8
  %_8 = alloca { i64, i64 }, align 8
  %_6 = alloca %"std::result::Result<(std::alloc::Layout, usize), std::alloc::LayoutError>", align 8
  %_5 = alloca %"std::result::Result<(std::alloc::Layout, usize), std::alloc::LayoutError>", align 8
  %_4 = alloca { [0 x i64], { i64, i64 }, [0 x i64], i64, [0 x i64] }, align 8
  %layout = alloca { i64, i64 }, align 8
  %0 = alloca { i64, i64 }, align 8
  store i64 %n, i64* %n.dbg.spill, align 8
  call void @llvm.dbg.declare(metadata i64* %n.dbg.spill, metadata !1424, metadata !DIExpression()), !dbg !1447
  call void @llvm.dbg.declare(metadata { i64, i64 }* %layout, metadata !1425, metadata !DIExpression()), !dbg !1448
  call void @llvm.dbg.declare(metadata %"std::alloc::LayoutError"* %err.dbg.spill, metadata !1428, metadata !DIExpression()), !dbg !1449
  call void @llvm.dbg.declare(metadata { [0 x i64], { i64, i64 }, [0 x i64], i64, [0 x i64] }* %val, metadata !1430, metadata !DIExpression()), !dbg !1450
; call <core::alloc::layout::Layout>::new::<(std::thread::ThreadId, usize)>
  %1 = call { i64, i64 } @_RINvMNtNtCs3p84KrD9aKt_4core5alloc6layoutNtB3_6Layout3newTNtNtCs2bNvlddUlXM_3std6thread8ThreadIdjEECs48Yq53b35jF_15crossbeam_utils(), !dbg !1451
  store { i64, i64 } %1, { i64, i64 }* %_8, align 8, !dbg !1451
  br label %bb1, !dbg !1451

bb1:                                              ; preds = %start
; call <core::alloc::layout::Layout>::repeat
  call void @_RNvMNtNtCs3p84KrD9aKt_4core5alloc6layoutNtB2_6Layout6repeatCs48Yq53b35jF_15crossbeam_utils(%"std::result::Result<(std::alloc::Layout, usize), std::alloc::LayoutError>"* noalias nocapture sret dereferenceable(24) %_6, { i64, i64 }* noalias readonly align 8 dereferenceable(16) %_8, i64 %n), !dbg !1451
  br label %bb2, !dbg !1451

bb2:                                              ; preds = %bb1
; call <core::result::Result<(core::alloc::layout::Layout, usize), core::alloc::layout::LayoutError> as core::ops::try::Try>::into_result
  call void @_RNvXsw_NtCs3p84KrD9aKt_4core6resultINtB5_6ResultTNtNtNtB7_5alloc6layout6LayoutjENtBN_11LayoutErrorENtNtNtB7_3ops3try3Try11into_resultCs48Yq53b35jF_15crossbeam_utils(%"std::result::Result<(std::alloc::Layout, usize), std::alloc::LayoutError>"* noalias nocapture sret dereferenceable(24) %_5, %"std::result::Result<(std::alloc::Layout, usize), std::alloc::LayoutError>"* noalias nocapture dereferenceable(24) %_6), !dbg !1451
  br label %bb3, !dbg !1451

bb3:                                              ; preds = %bb2
  %2 = getelementptr inbounds %"std::result::Result<(std::alloc::Layout, usize), std::alloc::LayoutError>", %"std::result::Result<(std::alloc::Layout, usize), std::alloc::LayoutError>"* %_5, i32 0, i32 1, !dbg !1452
  %3 = load i64, i64* %2, align 8, !dbg !1452
  %4 = icmp eq i64 %3, 0, !dbg !1452
  %_10 = select i1 %4, i64 1, i64 0, !dbg !1452
  switch i64 %_10, label %bb5 [
    i64 0, label %bb4
    i64 1, label %bb6
  ], !dbg !1452

bb4:                                              ; preds = %bb3
  %5 = bitcast %"std::result::Result<(std::alloc::Layout, usize), std::alloc::LayoutError>"* %_5 to %"std::result::Result<(std::alloc::Layout, usize), std::alloc::LayoutError>::Ok"*, !dbg !1451
  %6 = bitcast %"std::result::Result<(std::alloc::Layout, usize), std::alloc::LayoutError>::Ok"* %5 to { [0 x i64], { i64, i64 }, [0 x i64], i64, [0 x i64] }*, !dbg !1451
  %7 = bitcast { [0 x i64], { i64, i64 }, [0 x i64], i64, [0 x i64] }* %val to i8*, !dbg !1451
  %8 = bitcast { [0 x i64], { i64, i64 }, [0 x i64], i64, [0 x i64] }* %6 to i8*, !dbg !1451
  call void @llvm.memcpy.p0i8.p0i8.i64(i8* align 8 %7, i8* align 8 %8, i64 24, i1 false), !dbg !1451
  %9 = bitcast { [0 x i64], { i64, i64 }, [0 x i64], i64, [0 x i64] }* %_4 to i8*, !dbg !1450
  %10 = bitcast { [0 x i64], { i64, i64 }, [0 x i64], i64, [0 x i64] }* %val to i8*, !dbg !1450
  call void @llvm.memcpy.p0i8.p0i8.i64(i8* align 8 %9, i8* align 8 %10, i64 24, i1 false), !dbg !1450
  %11 = bitcast { [0 x i64], { i64, i64 }, [0 x i64], i64, [0 x i64] }* %_4 to { i64, i64 }*, !dbg !1453
  %12 = getelementptr inbounds { i64, i64 }, { i64, i64 }* %11, i32 0, i32 0, !dbg !1453
  %13 = load i64, i64* %12, align 8, !dbg !1453
  %14 = getelementptr inbounds { i64, i64 }, { i64, i64 }* %11, i32 0, i32 1, !dbg !1453
  %15 = load i64, i64* %14, align 8, !dbg !1453, !range !999
  %16 = getelementptr inbounds { i64, i64 }, { i64, i64 }* %layout, i32 0, i32 0, !dbg !1453
  store i64 %13, i64* %16, align 8, !dbg !1453
  %17 = getelementptr inbounds { i64, i64 }, { i64, i64 }* %layout, i32 0, i32 1, !dbg !1453
  store i64 %15, i64* %17, align 8, !dbg !1453
  %18 = getelementptr inbounds { [0 x i64], { i64, i64 }, [0 x i64], i64, [0 x i64] }, { [0 x i64], { i64, i64 }, [0 x i64], i64, [0 x i64] }* %_4, i32 0, i32 3, !dbg !1454
  %offset = load i64, i64* %18, align 8, !dbg !1454
  store i64 %offset, i64* %offset.dbg.spill, align 8, !dbg !1454
  call void @llvm.dbg.declare(metadata i64* %offset.dbg.spill, metadata !1427, metadata !DIExpression()), !dbg !1455
; call <core::alloc::layout::Layout>::pad_to_align
  %19 = call { i64, i64 } @_RNvMNtNtCs3p84KrD9aKt_4core5alloc6layoutNtB2_6Layout12pad_to_alignCs48Yq53b35jF_15crossbeam_utils({ i64, i64 }* noalias readonly align 8 dereferenceable(16) %layout), !dbg !1456
  %_19.0 = extractvalue { i64, i64 } %19, 0, !dbg !1456
  %_19.1 = extractvalue { i64, i64 } %19, 1, !dbg !1456
  br label %bb9, !dbg !1456

bb5:                                              ; preds = %bb3
  unreachable, !dbg !1451

bb6:                                              ; preds = %bb3
; call <core::alloc::layout::LayoutError as core::convert::From<core::alloc::layout::LayoutError>>::from
  call void @_RNvXs2_NtCs3p84KrD9aKt_4core7convertNtNtNtB7_5alloc6layout11LayoutErrorINtB5_4FromBy_E4fromCs48Yq53b35jF_15crossbeam_utils(), !dbg !1449
  br label %bb7, !dbg !1449

bb7:                                              ; preds = %bb6
; call <core::result::Result<core::alloc::layout::Layout, core::alloc::layout::LayoutError> as core::ops::try::Try>::from_error
  %20 = call { i64, i64 } @_RNvXsw_NtCs3p84KrD9aKt_4core6resultINtB5_6ResultNtNtNtB7_5alloc6layout6LayoutNtBM_11LayoutErrorENtNtNtB7_3ops3try3Try10from_errorCs48Yq53b35jF_15crossbeam_utils(), !dbg !1457
  store { i64, i64 } %20, { i64, i64 }* %0, align 8, !dbg !1457
  br label %bb8, !dbg !1457

bb8:                                              ; preds = %bb7
  br label %bb10, !dbg !1458

bb9:                                              ; preds = %bb4
  %21 = getelementptr inbounds { i64, i64 }, { i64, i64 }* %0, i32 0, i32 0, !dbg !1459
  store i64 %_19.0, i64* %21, align 8, !dbg !1459
  %22 = getelementptr inbounds { i64, i64 }, { i64, i64 }* %0, i32 0, i32 1, !dbg !1459
  store i64 %_19.1, i64* %22, align 8, !dbg !1459
  br label %bb10, !dbg !1458

bb10:                                             ; preds = %bb9, %bb8
  %23 = getelementptr inbounds { i64, i64 }, { i64, i64 }* %0, i32 0, i32 0, !dbg !1458
  %24 = load i64, i64* %23, align 8, !dbg !1458
  %25 = getelementptr inbounds { i64, i64 }, { i64, i64 }* %0, i32 0, i32 1, !dbg !1458
  %26 = load i64, i64* %25, align 8, !dbg !1458
  %27 = insertvalue { i64, i64 } undef, i64 %24, 0, !dbg !1458
  %28 = insertvalue { i64, i64 } %27, i64 %26, 1, !dbg !1458
  ret { i64, i64 } %28, !dbg !1458
}

; <core::alloc::layout::Layout>::array::<usize>
; Function Attrs: inlinehint nonlazybind uwtable
define { i64, i64 } @_RINvMNtNtCs3p84KrD9aKt_4core5alloc6layoutNtB3_6Layout5arrayjECs48Yq53b35jF_15crossbeam_utils(i64 %n) unnamed_addr #0 !dbg !1460 {
start:
  %offset.dbg.spill = alloca i64, align 8
  %err.dbg.spill = alloca %"std::alloc::LayoutError", align 1
  %n.dbg.spill = alloca i64, align 8
  %val = alloca { [0 x i64], { i64, i64 }, [0 x i64], i64, [0 x i64] }, align 8
  %_8 = alloca { i64, i64 }, align 8
  %_6 = alloca %"std::result::Result<(std::alloc::Layout, usize), std::alloc::LayoutError>", align 8
  %_5 = alloca %"std::result::Result<(std::alloc::Layout, usize), std::alloc::LayoutError>", align 8
  %_4 = alloca { [0 x i64], { i64, i64 }, [0 x i64], i64, [0 x i64] }, align 8
  %layout = alloca { i64, i64 }, align 8
  %0 = alloca { i64, i64 }, align 8
  store i64 %n, i64* %n.dbg.spill, align 8
  call void @llvm.dbg.declare(metadata i64* %n.dbg.spill, metadata !1462, metadata !DIExpression()), !dbg !1478
  call void @llvm.dbg.declare(metadata { i64, i64 }* %layout, metadata !1463, metadata !DIExpression()), !dbg !1479
  call void @llvm.dbg.declare(metadata %"std::alloc::LayoutError"* %err.dbg.spill, metadata !1466, metadata !DIExpression()), !dbg !1480
  call void @llvm.dbg.declare(metadata { [0 x i64], { i64, i64 }, [0 x i64], i64, [0 x i64] }* %val, metadata !1468, metadata !DIExpression()), !dbg !1481
; call <core::alloc::layout::Layout>::new::<usize>
  %1 = call { i64, i64 } @_RINvMNtNtCs3p84KrD9aKt_4core5alloc6layoutNtB3_6Layout3newjECs48Yq53b35jF_15crossbeam_utils(), !dbg !1482
  store { i64, i64 } %1, { i64, i64 }* %_8, align 8, !dbg !1482
  br label %bb1, !dbg !1482

bb1:                                              ; preds = %start
; call <core::alloc::layout::Layout>::repeat
  call void @_RNvMNtNtCs3p84KrD9aKt_4core5alloc6layoutNtB2_6Layout6repeatCs48Yq53b35jF_15crossbeam_utils(%"std::result::Result<(std::alloc::Layout, usize), std::alloc::LayoutError>"* noalias nocapture sret dereferenceable(24) %_6, { i64, i64 }* noalias readonly align 8 dereferenceable(16) %_8, i64 %n), !dbg !1482
  br label %bb2, !dbg !1482

bb2:                                              ; preds = %bb1
; call <core::result::Result<(core::alloc::layout::Layout, usize), core::alloc::layout::LayoutError> as core::ops::try::Try>::into_result
  call void @_RNvXsw_NtCs3p84KrD9aKt_4core6resultINtB5_6ResultTNtNtNtB7_5alloc6layout6LayoutjENtBN_11LayoutErrorENtNtNtB7_3ops3try3Try11into_resultCs48Yq53b35jF_15crossbeam_utils(%"std::result::Result<(std::alloc::Layout, usize), std::alloc::LayoutError>"* noalias nocapture sret dereferenceable(24) %_5, %"std::result::Result<(std::alloc::Layout, usize), std::alloc::LayoutError>"* noalias nocapture dereferenceable(24) %_6), !dbg !1482
  br label %bb3, !dbg !1482

bb3:                                              ; preds = %bb2
  %2 = getelementptr inbounds %"std::result::Result<(std::alloc::Layout, usize), std::alloc::LayoutError>", %"std::result::Result<(std::alloc::Layout, usize), std::alloc::LayoutError>"* %_5, i32 0, i32 1, !dbg !1483
  %3 = load i64, i64* %2, align 8, !dbg !1483
  %4 = icmp eq i64 %3, 0, !dbg !1483
  %_10 = select i1 %4, i64 1, i64 0, !dbg !1483
  switch i64 %_10, label %bb5 [
    i64 0, label %bb4
    i64 1, label %bb6
  ], !dbg !1483

bb4:                                              ; preds = %bb3
  %5 = bitcast %"std::result::Result<(std::alloc::Layout, usize), std::alloc::LayoutError>"* %_5 to %"std::result::Result<(std::alloc::Layout, usize), std::alloc::LayoutError>::Ok"*, !dbg !1482
  %6 = bitcast %"std::result::Result<(std::alloc::Layout, usize), std::alloc::LayoutError>::Ok"* %5 to { [0 x i64], { i64, i64 }, [0 x i64], i64, [0 x i64] }*, !dbg !1482
  %7 = bitcast { [0 x i64], { i64, i64 }, [0 x i64], i64, [0 x i64] }* %val to i8*, !dbg !1482
  %8 = bitcast { [0 x i64], { i64, i64 }, [0 x i64], i64, [0 x i64] }* %6 to i8*, !dbg !1482
  call void @llvm.memcpy.p0i8.p0i8.i64(i8* align 8 %7, i8* align 8 %8, i64 24, i1 false), !dbg !1482
  %9 = bitcast { [0 x i64], { i64, i64 }, [0 x i64], i64, [0 x i64] }* %_4 to i8*, !dbg !1481
  %10 = bitcast { [0 x i64], { i64, i64 }, [0 x i64], i64, [0 x i64] }* %val to i8*, !dbg !1481
  call void @llvm.memcpy.p0i8.p0i8.i64(i8* align 8 %9, i8* align 8 %10, i64 24, i1 false), !dbg !1481
  %11 = bitcast { [0 x i64], { i64, i64 }, [0 x i64], i64, [0 x i64] }* %_4 to { i64, i64 }*, !dbg !1484
  %12 = getelementptr inbounds { i64, i64 }, { i64, i64 }* %11, i32 0, i32 0, !dbg !1484
  %13 = load i64, i64* %12, align 8, !dbg !1484
  %14 = getelementptr inbounds { i64, i64 }, { i64, i64 }* %11, i32 0, i32 1, !dbg !1484
  %15 = load i64, i64* %14, align 8, !dbg !1484, !range !999
  %16 = getelementptr inbounds { i64, i64 }, { i64, i64 }* %layout, i32 0, i32 0, !dbg !1484
  store i64 %13, i64* %16, align 8, !dbg !1484
  %17 = getelementptr inbounds { i64, i64 }, { i64, i64 }* %layout, i32 0, i32 1, !dbg !1484
  store i64 %15, i64* %17, align 8, !dbg !1484
  %18 = getelementptr inbounds { [0 x i64], { i64, i64 }, [0 x i64], i64, [0 x i64] }, { [0 x i64], { i64, i64 }, [0 x i64], i64, [0 x i64] }* %_4, i32 0, i32 3, !dbg !1485
  %offset = load i64, i64* %18, align 8, !dbg !1485
  store i64 %offset, i64* %offset.dbg.spill, align 8, !dbg !1485
  call void @llvm.dbg.declare(metadata i64* %offset.dbg.spill, metadata !1465, metadata !DIExpression()), !dbg !1486
; call <core::alloc::layout::Layout>::pad_to_align
  %19 = call { i64, i64 } @_RNvMNtNtCs3p84KrD9aKt_4core5alloc6layoutNtB2_6Layout12pad_to_alignCs48Yq53b35jF_15crossbeam_utils({ i64, i64 }* noalias readonly align 8 dereferenceable(16) %layout), !dbg !1487
  %_19.0 = extractvalue { i64, i64 } %19, 0, !dbg !1487
  %_19.1 = extractvalue { i64, i64 } %19, 1, !dbg !1487
  br label %bb9, !dbg !1487

bb5:                                              ; preds = %bb3
  unreachable, !dbg !1482

bb6:                                              ; preds = %bb3
; call <core::alloc::layout::LayoutError as core::convert::From<core::alloc::layout::LayoutError>>::from
  call void @_RNvXs2_NtCs3p84KrD9aKt_4core7convertNtNtNtB7_5alloc6layout11LayoutErrorINtB5_4FromBy_E4fromCs48Yq53b35jF_15crossbeam_utils(), !dbg !1480
  br label %bb7, !dbg !1480

bb7:                                              ; preds = %bb6
; call <core::result::Result<core::alloc::layout::Layout, core::alloc::layout::LayoutError> as core::ops::try::Try>::from_error
  %20 = call { i64, i64 } @_RNvXsw_NtCs3p84KrD9aKt_4core6resultINtB5_6ResultNtNtNtB7_5alloc6layout6LayoutNtBM_11LayoutErrorENtNtNtB7_3ops3try3Try10from_errorCs48Yq53b35jF_15crossbeam_utils(), !dbg !1488
  store { i64, i64 } %20, { i64, i64 }* %0, align 8, !dbg !1488
  br label %bb8, !dbg !1488

bb8:                                              ; preds = %bb7
  br label %bb10, !dbg !1489

bb9:                                              ; preds = %bb4
  %21 = getelementptr inbounds { i64, i64 }, { i64, i64 }* %0, i32 0, i32 0, !dbg !1490
  store i64 %_19.0, i64* %21, align 8, !dbg !1490
  %22 = getelementptr inbounds { i64, i64 }, { i64, i64 }* %0, i32 0, i32 1, !dbg !1490
  store i64 %_19.1, i64* %22, align 8, !dbg !1490
  br label %bb10, !dbg !1489

bb10:                                             ; preds = %bb9, %bb8
  %23 = getelementptr inbounds { i64, i64 }, { i64, i64 }* %0, i32 0, i32 0, !dbg !1489
  %24 = load i64, i64* %23, align 8, !dbg !1489
  %25 = getelementptr inbounds { i64, i64 }, { i64, i64 }* %0, i32 0, i32 1, !dbg !1489
  %26 = load i64, i64* %25, align 8, !dbg !1489
  %27 = insertvalue { i64, i64 } undef, i64 %24, 0, !dbg !1489
  %28 = insertvalue { i64, i64 } %27, i64 %26, 1, !dbg !1489
  ret { i64, i64 } %28, !dbg !1489
}

; <std::thread::local::lazy::LazyKeyInner<crossbeam_utils::sync::sharded_lock::Registration>>::initialize::<crossbeam_utils::sync::sharded_lock::REGISTRATION::__init>
; Function Attrs: nonlazybind uwtable
define align 8 dereferenceable(16) { i64, i64 }* @_RINvMNtNtNtCs2bNvlddUlXM_3std6thread5local4lazyINtB3_12LazyKeyInnerNtNtNtCs48Yq53b35jF_15crossbeam_utils4sync12sharded_lock12RegistrationE10initializeNvNvB15_12REGISTRATION6___initEB19_({ i64, i64 }* align 8 dereferenceable(16) %self) unnamed_addr #1 personality i32 (i32, i32, i64, %"unwind::libunwind::_Unwind_Exception"*, %"unwind::libunwind::_Unwind_Context"*)* @rust_eh_personality !dbg !1491 {
start:
  %x.dbg.spill = alloca { i64, i64 }*, align 8
  %ptr.dbg.spill = alloca { i64, i64 }*, align 8
  %0 = alloca { i8*, i32 }, align 8
  %init.dbg.spill = alloca {}, align 1
  %self.dbg.spill = alloca { i64, i64 }*, align 8
  %_14 = alloca i8, align 1
  %_11 = alloca { i64, i64 }, align 8
  %_8 = alloca { i64, i64 }, align 8
  %_5 = alloca {}, align 1
  %value = alloca { i64, i64 }, align 8
  store { i64, i64 }* %self, { i64, i64 }** %self.dbg.spill, align 8
  call void @llvm.dbg.declare(metadata { i64, i64 }** %self.dbg.spill, metadata !1500, metadata !DIExpression()), !dbg !1511
  call void @llvm.dbg.declare(metadata {}* %init.dbg.spill, metadata !1501, metadata !DIExpression()), !dbg !1512
  call void @llvm.dbg.declare(metadata { i64, i64 }* %value, metadata !1502, metadata !DIExpression()), !dbg !1513
  store i8 0, i8* %_14, align 1, !dbg !1514
; call <crossbeam_utils::sync::sharded_lock::REGISTRATION::__init as core::ops::function::FnOnce<()>>::call_once
  %1 = call { i64, i64 } @_RNvYNvNvNtNtCs48Yq53b35jF_15crossbeam_utils4sync12sharded_lock12REGISTRATION6___initINtNtNtCs3p84KrD9aKt_4core3ops8function6FnOnceuE9call_onceBa_(), !dbg !1515
  store { i64, i64 } %1, { i64, i64 }* %value, align 8, !dbg !1515
  br label %bb1, !dbg !1515

bb1:                                              ; preds = %start
  store i8 1, i8* %_14, align 1, !dbg !1516
; invoke <core::cell::UnsafeCell<core::option::Option<crossbeam_utils::sync::sharded_lock::Registration>>>::get
  %ptr = invoke { i64, i64 }* @_RNvMsK_NtCs3p84KrD9aKt_4core4cellINtB5_10UnsafeCellINtNtB7_6option6OptionNtNtNtCs48Yq53b35jF_15crossbeam_utils4sync12sharded_lock12RegistrationEE3getB1f_({ i64, i64 }* align 8 dereferenceable(16) %self)
          to label %bb2 unwind label %cleanup, !dbg !1517

bb2:                                              ; preds = %bb1
  store { i64, i64 }* %ptr, { i64, i64 }** %ptr.dbg.spill, align 8, !dbg !1517
  call void @llvm.dbg.declare(metadata { i64, i64 }** %ptr.dbg.spill, metadata !1504, metadata !DIExpression()), !dbg !1518
  store i8 0, i8* %_14, align 1, !dbg !1519
  %2 = getelementptr inbounds { i64, i64 }, { i64, i64 }* %value, i32 0, i32 0, !dbg !1519
  %_12.0 = load i64, i64* %2, align 8, !dbg !1519
  %3 = getelementptr inbounds { i64, i64 }, { i64, i64 }* %value, i32 0, i32 1, !dbg !1519
  %_12.1 = load i64, i64* %3, align 8, !dbg !1519, !range !999
  %4 = getelementptr inbounds { i64, i64 }, { i64, i64 }* %_11, i32 0, i32 0, !dbg !1520
  store i64 %_12.0, i64* %4, align 8, !dbg !1520
  %5 = getelementptr inbounds { i64, i64 }, { i64, i64 }* %_11, i32 0, i32 1, !dbg !1520
  store i64 %_12.1, i64* %5, align 8, !dbg !1520
  %6 = getelementptr inbounds { i64, i64 }, { i64, i64 }* %_11, i32 0, i32 0, !dbg !1521
  %7 = load i64, i64* %6, align 8, !dbg !1521
  %8 = getelementptr inbounds { i64, i64 }, { i64, i64 }* %_11, i32 0, i32 1, !dbg !1521
  %9 = load i64, i64* %8, align 8, !dbg !1521
; invoke core::mem::replace::<core::option::Option<crossbeam_utils::sync::sharded_lock::Registration>>
  %10 = invoke { i64, i64 } @_RINvNtCs3p84KrD9aKt_4core3mem7replaceINtNtB4_6option6OptionNtNtNtCs48Yq53b35jF_15crossbeam_utils4sync12sharded_lock12RegistrationEEB11_({ i64, i64 }* align 8 dereferenceable(16) %ptr, i64 %7, i64 %9)
          to label %bb3 unwind label %cleanup, !dbg !1521

bb3:                                              ; preds = %bb2
  store { i64, i64 } %10, { i64, i64 }* %_8, align 8, !dbg !1521
; invoke core::ptr::drop_in_place::<core::option::Option<crossbeam_utils::sync::sharded_lock::Registration>>
  invoke void @_RINvNtCs3p84KrD9aKt_4core3ptr13drop_in_placeINtNtB4_6option6OptionNtNtNtCs48Yq53b35jF_15crossbeam_utils4sync12sharded_lock12RegistrationEEB18_({ i64, i64 }* %_8)
          to label %bb4 unwind label %cleanup, !dbg !1522

bb4:                                              ; preds = %bb3
  %11 = getelementptr inbounds { i64, i64 }, { i64, i64 }* %ptr, i32 0, i32 1, !dbg !1523
  %12 = load i64, i64* %11, align 8, !dbg !1523
  %13 = icmp eq i64 %12, 0, !dbg !1523
  %_13 = select i1 %13, i64 0, i64 1, !dbg !1523
  switch i64 %_13, label %bb6 [
    i64 0, label %bb5
    i64 1, label %bb7
  ], !dbg !1523

bb5:                                              ; preds = %bb4
; invoke core::hint::unreachable_unchecked
  invoke void @_RNvNtCs3p84KrD9aKt_4core4hint21unreachable_uncheckedCs48Yq53b35jF_15crossbeam_utils()
          to label %unreachable unwind label %cleanup, !dbg !1524

bb6:                                              ; preds = %bb4
  unreachable, !dbg !1525

bb7:                                              ; preds = %bb4
  store { i64, i64 }* %ptr, { i64, i64 }** %x.dbg.spill, align 8, !dbg !1526
  call void @llvm.dbg.declare(metadata { i64, i64 }** %x.dbg.spill, metadata !1507, metadata !DIExpression()), !dbg !1527
  store i8 0, i8* %_14, align 1, !dbg !1528
  ret { i64, i64 }* %ptr, !dbg !1529

bb8:                                              ; preds = %bb9, %bb10
  %14 = bitcast { i8*, i32 }* %0 to i8**, !dbg !1530
  %15 = load i8*, i8** %14, align 8, !dbg !1530
  %16 = getelementptr inbounds { i8*, i32 }, { i8*, i32 }* %0, i32 0, i32 1, !dbg !1530
  %17 = load i32, i32* %16, align 8, !dbg !1530
  %18 = insertvalue { i8*, i32 } undef, i8* %15, 0, !dbg !1530
  %19 = insertvalue { i8*, i32 } %18, i32 %17, 1, !dbg !1530
  resume { i8*, i32 } %19, !dbg !1530

bb9:                                              ; preds = %bb10
; call core::ptr::drop_in_place::<crossbeam_utils::sync::sharded_lock::Registration>
  call void @_RINvNtCs3p84KrD9aKt_4core3ptr13drop_in_placeNtNtNtCs48Yq53b35jF_15crossbeam_utils4sync12sharded_lock12RegistrationEBM_({ i64, i64 }* %value) #20, !dbg !1528
  br label %bb8, !dbg !1528

bb10:                                             ; preds = %cleanup
  %20 = load i8, i8* %_14, align 1, !dbg !1528, !range !947
  %21 = trunc i8 %20 to i1, !dbg !1528
  br i1 %21, label %bb9, label %bb8, !dbg !1528

cleanup:                                          ; preds = %bb5, %bb3, %bb2, %bb1
  %22 = landingpad { i8*, i32 }
          cleanup
  %23 = extractvalue { i8*, i32 } %22, 0
  %24 = extractvalue { i8*, i32 } %22, 1
  %25 = getelementptr inbounds { i8*, i32 }, { i8*, i32 }* %0, i32 0, i32 0
  store i8* %23, i8** %25, align 8
  %26 = getelementptr inbounds { i8*, i32 }, { i8*, i32 }* %0, i32 0, i32 1
  store i32 %24, i32* %26, align 8
  br label %bb10

unreachable:                                      ; preds = %bb5
  unreachable
}

; <hashbrown::map::HashMap<std::thread::ThreadId, usize, std::collections::hash::map::RandomState>>::remove_entry::<std::thread::ThreadId>
; Function Attrs: nonlazybind uwtable
define { i64, i64 } @_RINvMs0_NtCs7hm1Hx7fNtn_9hashbrown3mapINtB6_7HashMapNtNtCs2bNvlddUlXM_3std6thread8ThreadIdjNtNtNtNtBS_11collections4hash3map11RandomStateE12remove_entryBO_ECs48Yq53b35jF_15crossbeam_utils(%"hashbrown::map::HashMap<std::thread::ThreadId, usize, std::collections::hash_map::RandomState>"* align 8 dereferenceable(48) %self, i64* noalias readonly align 8 dereferenceable(8) %0) unnamed_addr #1 !dbg !1531 {
start:
  %item.dbg.spill = alloca i64*, align 8
  %hash.dbg.spill = alloca i64, align 8
  %self.dbg.spill = alloca %"hashbrown::map::HashMap<std::thread::ThreadId, usize, std::collections::hash_map::RandomState>"*, align 8
  %_11 = alloca i64*, align 8
  %_8 = alloca i64*, align 8
  %1 = alloca { i64, i64 }, align 8
  %k = alloca i64*, align 8
  store i64* %0, i64** %k, align 8
  store %"hashbrown::map::HashMap<std::thread::ThreadId, usize, std::collections::hash_map::RandomState>"* %self, %"hashbrown::map::HashMap<std::thread::ThreadId, usize, std::collections::hash_map::RandomState>"** %self.dbg.spill, align 8
  call void @llvm.dbg.declare(metadata %"hashbrown::map::HashMap<std::thread::ThreadId, usize, std::collections::hash_map::RandomState>"** %self.dbg.spill, metadata !1548, metadata !DIExpression()), !dbg !1563
  call void @llvm.dbg.declare(metadata i64** %k, metadata !1549, metadata !DIExpression()), !dbg !1564
  %_5 = bitcast %"hashbrown::map::HashMap<std::thread::ThreadId, usize, std::collections::hash_map::RandomState>"* %self to { i64, i64 }*, !dbg !1565
; call hashbrown::map::make_hash::<&std::thread::ThreadId, std::collections::hash::map::RandomState>
  %hash = call i64 @_RINvNtCs7hm1Hx7fNtn_9hashbrown3map9make_hashRNtNtCs2bNvlddUlXM_3std6thread8ThreadIdNtNtNtNtBL_11collections4hash3map11RandomStateECs48Yq53b35jF_15crossbeam_utils({ i64, i64 }* noalias readonly align 8 dereferenceable(16) %_5, i64** noalias readonly align 8 dereferenceable(8) %k), !dbg !1566
  store i64 %hash, i64* %hash.dbg.spill, align 8, !dbg !1566
  call void @llvm.dbg.declare(metadata i64* %hash.dbg.spill, metadata !1550, metadata !DIExpression()), !dbg !1567
  br label %bb1, !dbg !1566

bb1:                                              ; preds = %start
  %_9 = getelementptr inbounds %"hashbrown::map::HashMap<std::thread::ThreadId, usize, std::collections::hash_map::RandomState>", %"hashbrown::map::HashMap<std::thread::ThreadId, usize, std::collections::hash_map::RandomState>"* %self, i32 0, i32 3, !dbg !1568
  %2 = bitcast i64** %_11 to i64***, !dbg !1569
  store i64** %k, i64*** %2, align 8, !dbg !1569
  %3 = load i64*, i64** %_11, align 8, !dbg !1568, !nonnull !4
; call <hashbrown::raw::RawTable<(std::thread::ThreadId, usize)>>::find::<<hashbrown::map::HashMap<std::thread::ThreadId, usize, std::collections::hash::map::RandomState>>::remove_entry<std::thread::ThreadId>::{closure#0}>
  %4 = call i64* @_RINvMs3_NtCs7hm1Hx7fNtn_9hashbrown3rawINtB6_8RawTableTNtNtCs2bNvlddUlXM_3std6thread8ThreadIdjEE4findNCINvMs0_NtB8_3mapINtB1J_7HashMapBQ_jNtNtNtNtBU_11collections4hash3map11RandomStateE12remove_entryBQ_E0ECs48Yq53b35jF_15crossbeam_utils(%"hashbrown::raw::RawTable<(std::thread::ThreadId, usize)>"* noalias readonly align 8 dereferenceable(32) %_9, i64 %hash, i64* noalias readonly align 8 dereferenceable(8) %3), !dbg !1568
  store i64* %4, i64** %_8, align 8, !dbg !1568
  br label %bb2, !dbg !1568

bb2:                                              ; preds = %bb1
  %5 = bitcast i64** %_8 to {}**, !dbg !1570
  %6 = load {}*, {}** %5, align 8, !dbg !1570
  %7 = icmp eq {}* %6, null, !dbg !1570
  %_13 = select i1 %7, i64 0, i64 1, !dbg !1570
  %8 = icmp eq i64 %_13, 1, !dbg !1570
  br i1 %8, label %bb4, label %bb3, !dbg !1570

bb3:                                              ; preds = %bb2
  %9 = bitcast { i64, i64 }* %1 to i64*, !dbg !1571
  store i64 0, i64* %9, align 8, !dbg !1571
  br label %bb6, !dbg !1572

bb4:                                              ; preds = %bb2
  %item = load i64*, i64** %_8, align 8, !dbg !1573, !nonnull !4
  store i64* %item, i64** %item.dbg.spill, align 8, !dbg !1573
  call void @llvm.dbg.declare(metadata i64** %item.dbg.spill, metadata !1552, metadata !DIExpression()), !dbg !1574
  %_16 = getelementptr inbounds %"hashbrown::map::HashMap<std::thread::ThreadId, usize, std::collections::hash_map::RandomState>", %"hashbrown::map::HashMap<std::thread::ThreadId, usize, std::collections::hash_map::RandomState>"* %self, i32 0, i32 3, !dbg !1575
; call <hashbrown::raw::RawTable<(std::thread::ThreadId, usize)>>::remove
  %10 = call { i64, i64 } @_RNvMs3_NtCs7hm1Hx7fNtn_9hashbrown3rawINtB5_8RawTableTNtNtCs2bNvlddUlXM_3std6thread8ThreadIdjEE6removeCs48Yq53b35jF_15crossbeam_utils(%"hashbrown::raw::RawTable<(std::thread::ThreadId, usize)>"* align 8 dereferenceable(32) %_16, i64* nonnull %item), !dbg !1575
  %_15.0 = extractvalue { i64, i64 } %10, 0, !dbg !1575
  %_15.1 = extractvalue { i64, i64 } %10, 1, !dbg !1575
  br label %bb5, !dbg !1575

bb5:                                              ; preds = %bb4
  %11 = getelementptr inbounds { i64, i64 }, { i64, i64 }* %1, i32 0, i32 0, !dbg !1576
  store i64 %_15.0, i64* %11, align 8, !dbg !1576
  %12 = getelementptr inbounds { i64, i64 }, { i64, i64 }* %1, i32 0, i32 1, !dbg !1576
  store i64 %_15.1, i64* %12, align 8, !dbg !1576
  br label %bb6, !dbg !1572

bb6:                                              ; preds = %bb5, %bb3
  %13 = getelementptr inbounds { i64, i64 }, { i64, i64 }* %1, i32 0, i32 0, !dbg !1577
  %14 = load i64, i64* %13, align 8, !dbg !1577
  %15 = getelementptr inbounds { i64, i64 }, { i64, i64 }* %1, i32 0, i32 1, !dbg !1577
  %16 = load i64, i64* %15, align 8, !dbg !1577
  %17 = insertvalue { i64, i64 } undef, i64 %14, 0, !dbg !1577
  %18 = insertvalue { i64, i64 } %17, i64 %16, 1, !dbg !1577
  ret { i64, i64 } %18, !dbg !1577
}

; <hashbrown::map::HashMap<std::thread::ThreadId, usize, std::collections::hash::map::RandomState>>::remove::<std::thread::ThreadId>
; Function Attrs: nonlazybind uwtable
define { i64, i64 } @_RINvMs0_NtCs7hm1Hx7fNtn_9hashbrown3mapINtB6_7HashMapNtNtCs2bNvlddUlXM_3std6thread8ThreadIdjNtNtNtNtBS_11collections4hash3map11RandomStateE6removeBO_ECs48Yq53b35jF_15crossbeam_utils(%"hashbrown::map::HashMap<std::thread::ThreadId, usize, std::collections::hash_map::RandomState>"* align 8 dereferenceable(48) %self, i64* noalias readonly align 8 dereferenceable(8) %k) unnamed_addr #1 personality i32 (i32, i32, i64, %"unwind::libunwind::_Unwind_Exception"*, %"unwind::libunwind::_Unwind_Context"*)* @rust_eh_personality !dbg !1578 {
start:
  %0 = alloca { i8*, i32 }, align 8
  %v.dbg.spill = alloca i64, align 8
  %k.dbg.spill = alloca i64*, align 8
  %self.dbg.spill = alloca %"hashbrown::map::HashMap<std::thread::ThreadId, usize, std::collections::hash_map::RandomState>"*, align 8
  %_9 = alloca i8, align 1
  %_3 = alloca { i64, i64 }, align 8
  %1 = alloca { i64, i64 }, align 8
  store %"hashbrown::map::HashMap<std::thread::ThreadId, usize, std::collections::hash_map::RandomState>"* %self, %"hashbrown::map::HashMap<std::thread::ThreadId, usize, std::collections::hash_map::RandomState>"** %self.dbg.spill, align 8
  call void @llvm.dbg.declare(metadata %"hashbrown::map::HashMap<std::thread::ThreadId, usize, std::collections::hash_map::RandomState>"** %self.dbg.spill, metadata !1582, metadata !DIExpression()), !dbg !1586
  store i64* %k, i64** %k.dbg.spill, align 8
  call void @llvm.dbg.declare(metadata i64** %k.dbg.spill, metadata !1583, metadata !DIExpression()), !dbg !1587
  store i8 0, i8* %_9, align 1, !dbg !1588
  store i8 1, i8* %_9, align 1, !dbg !1588
; call <hashbrown::map::HashMap<std::thread::ThreadId, usize, std::collections::hash::map::RandomState>>::remove_entry::<std::thread::ThreadId>
  %2 = call { i64, i64 } @_RINvMs0_NtCs7hm1Hx7fNtn_9hashbrown3mapINtB6_7HashMapNtNtCs2bNvlddUlXM_3std6thread8ThreadIdjNtNtNtNtBS_11collections4hash3map11RandomStateE12remove_entryBO_ECs48Yq53b35jF_15crossbeam_utils(%"hashbrown::map::HashMap<std::thread::ThreadId, usize, std::collections::hash_map::RandomState>"* align 8 dereferenceable(48) %self, i64* noalias readonly align 8 dereferenceable(8) %k), !dbg !1588
  store { i64, i64 } %2, { i64, i64 }* %_3, align 8, !dbg !1588
  br label %bb1, !dbg !1588

bb1:                                              ; preds = %start
  %3 = bitcast { i64, i64 }* %_3 to i64*, !dbg !1589
  %4 = load i64, i64* %3, align 8, !dbg !1589
  %5 = icmp eq i64 %4, 0, !dbg !1589
  %_6 = select i1 %5, i64 0, i64 1, !dbg !1589
  switch i64 %_6, label %bb3 [
    i64 0, label %bb2
    i64 1, label %bb4
  ], !dbg !1589

bb2:                                              ; preds = %bb1
  %6 = bitcast { i64, i64 }* %1 to i64*, !dbg !1590
  store i64 0, i64* %6, align 8, !dbg !1590
  br label %bb11, !dbg !1591

bb3:                                              ; preds = %bb1
  unreachable, !dbg !1588

bb4:                                              ; preds = %bb1
  %7 = getelementptr inbounds { i64, i64 }, { i64, i64 }* %_3, i32 0, i32 1, !dbg !1592
  %v = load i64, i64* %7, align 8, !dbg !1592
  store i64 %v, i64* %v.dbg.spill, align 8, !dbg !1592
  call void @llvm.dbg.declare(metadata i64* %v.dbg.spill, metadata !1584, metadata !DIExpression()), !dbg !1593
  %8 = bitcast { i64, i64 }* %1 to %"std::option::Option<usize>::Some"*, !dbg !1594
  %9 = getelementptr inbounds %"std::option::Option<usize>::Some", %"std::option::Option<usize>::Some"* %8, i32 0, i32 1, !dbg !1594
  store i64 %v, i64* %9, align 8, !dbg !1594
  %10 = bitcast { i64, i64 }* %1 to i64*, !dbg !1594
  store i64 1, i64* %10, align 8, !dbg !1594
  br label %bb11, !dbg !1595

bb5:                                              ; preds = %bb8
  %11 = bitcast { i8*, i32 }* %0 to i8**, !dbg !1596
  %12 = load i8*, i8** %11, align 8, !dbg !1596
  %13 = getelementptr inbounds { i8*, i32 }, { i8*, i32 }* %0, i32 0, i32 1, !dbg !1596
  %14 = load i32, i32* %13, align 8, !dbg !1596
  %15 = insertvalue { i8*, i32 } undef, i8* %12, 0, !dbg !1596
  %16 = insertvalue { i8*, i32 } %15, i32 %14, 1, !dbg !1596
  resume { i8*, i32 } %16, !dbg !1596

bb6:                                              ; preds = %bb9, %bb11
  store i8 0, i8* %_9, align 1, !dbg !1595
  %17 = getelementptr inbounds { i64, i64 }, { i64, i64 }* %1, i32 0, i32 0, !dbg !1597
  %18 = load i64, i64* %17, align 8, !dbg !1597, !range !1089
  %19 = getelementptr inbounds { i64, i64 }, { i64, i64 }* %1, i32 0, i32 1, !dbg !1597
  %20 = load i64, i64* %19, align 8, !dbg !1597
  %21 = insertvalue { i64, i64 } undef, i64 %18, 0, !dbg !1597
  %22 = insertvalue { i64, i64 } %21, i64 %20, 1, !dbg !1597
  ret { i64, i64 } %22, !dbg !1597

bb7:                                              ; preds = %bb11
  %23 = load i8, i8* %_9, align 1, !dbg !1595, !range !947
  %24 = trunc i8 %23 to i1, !dbg !1595
  br i1 %24, label %bb10, label %bb9, !dbg !1595

bb8:                                              ; No predecessors!
  br label %bb5, !dbg !1595

bb9:                                              ; preds = %bb10, %bb7
  store i8 0, i8* %_9, align 1, !dbg !1595
  br label %bb6, !dbg !1595

bb10:                                             ; preds = %bb7
  br label %bb9, !dbg !1595

bb11:                                             ; preds = %bb2, %bb4
  %25 = bitcast { i64, i64 }* %_3 to i64*, !dbg !1595
  %26 = load i64, i64* %25, align 8, !dbg !1595
  %27 = icmp eq i64 %26, 0, !dbg !1595
  %_10 = select i1 %27, i64 0, i64 1, !dbg !1595
  %28 = icmp eq i64 %_10, 1, !dbg !1595
  br i1 %28, label %bb7, label %bb6, !dbg !1595
}

; <std::sync::once::Once>::call_once::<<lazy_static::lazy::Lazy<std::sync::mutex::Mutex<crossbeam_utils::sync::sharded_lock::ThreadIndices>>>::get<<crossbeam_utils::sync::sharded_lock::THREAD_INDICES as core::ops::deref::Deref>::deref::__static_ref_initialize>::{closure#0}>
; Function Attrs: nonlazybind uwtable
define void @_RINvMs0_NtNtCs2bNvlddUlXM_3std4sync4onceNtB6_4Once9call_onceNCINvMNtCsb4wc9W9SjmT_11lazy_static4lazyINtB12_4LazyINtNtB8_5mutex5MutexNtNtNtCs48Yq53b35jF_15crossbeam_utils4sync12sharded_lock13ThreadIndicesEE3getNvNvXsi_B28_NtB28_14THREAD_INDICESNtNtNtCs3p84KrD9aKt_4core3ops5deref5Deref5deref23___static_ref_initializeE0EB2c_(%"std::sync::Once"* align 8 dereferenceable(8) %self, i64* noalias readonly align 8 dereferenceable(8) %f) unnamed_addr #1 personality i32 (i32, i32, i64, %"unwind::libunwind::_Unwind_Exception"*, %"unwind::libunwind::_Unwind_Context"*)* @rust_eh_personality !dbg !1598 {
start:
  %0 = alloca { i8*, i32 }, align 8
  %f.dbg.spill = alloca i64*, align 8
  %self.dbg.spill = alloca %"std::sync::Once"*, align 8
  %_14 = alloca i8, align 1
  %_12 = alloca i64*, align 8
  %f1 = alloca i64*, align 8
  %1 = alloca {}, align 1
  store %"std::sync::Once"* %self, %"std::sync::Once"** %self.dbg.spill, align 8
  call void @llvm.dbg.declare(metadata %"std::sync::Once"** %self.dbg.spill, metadata !1604, metadata !DIExpression()), !dbg !1610
  store i64* %f, i64** %f.dbg.spill, align 8
  call void @llvm.dbg.declare(metadata i64** %f.dbg.spill, metadata !1605, metadata !DIExpression()), !dbg !1611
  call void @llvm.dbg.declare(metadata i64** %f1, metadata !1606, metadata !DIExpression()), !dbg !1612
  store i8 0, i8* %_14, align 1, !dbg !1613
  store i8 1, i8* %_14, align 1, !dbg !1613
; invoke <std::sync::once::Once>::is_completed
  %_3 = invoke zeroext i1 @_RNvMs0_NtNtCs2bNvlddUlXM_3std4sync4onceNtB5_4Once12is_completedCs48Yq53b35jF_15crossbeam_utils(%"std::sync::Once"* align 8 dereferenceable(8) %self)
          to label %bb1 unwind label %cleanup, !dbg !1614

bb1:                                              ; preds = %start
  br i1 %_3, label %bb2, label %bb3, !dbg !1613

bb2:                                              ; preds = %bb1
  br label %bb6, !dbg !1615

bb3:                                              ; preds = %bb1
  store i8 0, i8* %_14, align 1, !dbg !1616
  store i64* %f, i64** %f1, align 8, !dbg !1617
  %2 = bitcast i64** %_12 to i64***, !dbg !1618
  store i64** %f1, i64*** %2, align 8, !dbg !1618
  %_9.0 = bitcast i64** %_12 to {}*, !dbg !1619
; invoke std::sync::once::Once::call_inner
  invoke void @_ZN3std4sync4once4Once10call_inner17h2c350ddd5f41c65aE(%"std::sync::Once"* align 8 dereferenceable(8) %self, i1 zeroext false, {}* nonnull align 1 %_9.0, [3 x i64]* noalias readonly align 8 dereferenceable(24) bitcast ({ void (i64**)*, i64, i64, void (i64**, { i64, i8 }*)*, void (i64**, { i64, i8 }*)* }* @vtable.0 to [3 x i64]*))
          to label %bb4 unwind label %cleanup2, !dbg !1620

bb4:                                              ; preds = %bb3
  br label %bb5, !dbg !1615

bb5:                                              ; preds = %bb4
  br label %bb6, !dbg !1615

bb6:                                              ; preds = %bb5, %bb2
  ret void, !dbg !1621

bb7:                                              ; preds = %cleanup2
  br label %bb10, !dbg !1615

bb8:                                              ; preds = %bb9, %bb10
  %3 = bitcast { i8*, i32 }* %0 to i8**, !dbg !1622
  %4 = load i8*, i8** %3, align 8, !dbg !1622
  %5 = getelementptr inbounds { i8*, i32 }, { i8*, i32 }* %0, i32 0, i32 1, !dbg !1622
  %6 = load i32, i32* %5, align 8, !dbg !1622
  %7 = insertvalue { i8*, i32 } undef, i8* %4, 0, !dbg !1622
  %8 = insertvalue { i8*, i32 } %7, i32 %6, 1, !dbg !1622
  resume { i8*, i32 } %8, !dbg !1622

bb9:                                              ; preds = %bb10
  br label %bb8, !dbg !1615

bb10:                                             ; preds = %bb7, %cleanup
  %9 = load i8, i8* %_14, align 1, !dbg !1615, !range !947
  %10 = trunc i8 %9 to i1, !dbg !1615
  br i1 %10, label %bb9, label %bb8, !dbg !1615

cleanup:                                          ; preds = %start
  %11 = landingpad { i8*, i32 }
          cleanup
  %12 = extractvalue { i8*, i32 } %11, 0
  %13 = extractvalue { i8*, i32 } %11, 1
  %14 = getelementptr inbounds { i8*, i32 }, { i8*, i32 }* %0, i32 0, i32 0
  store i8* %12, i8** %14, align 8
  %15 = getelementptr inbounds { i8*, i32 }, { i8*, i32 }* %0, i32 0, i32 1
  store i32 %13, i32* %15, align 8
  br label %bb10

cleanup2:                                         ; preds = %bb3
  %16 = landingpad { i8*, i32 }
          cleanup
  %17 = extractvalue { i8*, i32 } %16, 0
  %18 = extractvalue { i8*, i32 } %16, 1
  %19 = getelementptr inbounds { i8*, i32 }, { i8*, i32 }* %0, i32 0, i32 0
  store i8* %17, i8** %19, align 8
  %20 = getelementptr inbounds { i8*, i32 }, { i8*, i32 }* %0, i32 0, i32 1
  store i32 %18, i32* %20, align 8
  br label %bb7
}

; <std::collections::hash::map::HashMap<std::thread::ThreadId, usize>>::remove::<std::thread::ThreadId>
; Function Attrs: inlinehint nonlazybind uwtable
define { i64, i64 } @_RINvMs0_NtNtNtCs2bNvlddUlXM_3std11collections4hash3mapINtB6_7HashMapNtNtBc_6thread8ThreadIdjE6removeB14_ECs48Yq53b35jF_15crossbeam_utils(%"std::collections::HashMap<std::thread::ThreadId, usize>"* align 8 dereferenceable(48) %self, i64* noalias readonly align 8 dereferenceable(8) %k) unnamed_addr #0 !dbg !1623 {
start:
  %k.dbg.spill = alloca i64*, align 8
  %self.dbg.spill = alloca %"std::collections::HashMap<std::thread::ThreadId, usize>"*, align 8
  store %"std::collections::HashMap<std::thread::ThreadId, usize>"* %self, %"std::collections::HashMap<std::thread::ThreadId, usize>"** %self.dbg.spill, align 8
  call void @llvm.dbg.declare(metadata %"std::collections::HashMap<std::thread::ThreadId, usize>"** %self.dbg.spill, metadata !1629, metadata !DIExpression()), !dbg !1631
  store i64* %k, i64** %k.dbg.spill, align 8
  call void @llvm.dbg.declare(metadata i64** %k.dbg.spill, metadata !1630, metadata !DIExpression()), !dbg !1632
  %_3 = bitcast %"std::collections::HashMap<std::thread::ThreadId, usize>"* %self to %"hashbrown::map::HashMap<std::thread::ThreadId, usize, std::collections::hash_map::RandomState>"*, !dbg !1633
; call <hashbrown::map::HashMap<std::thread::ThreadId, usize, std::collections::hash::map::RandomState>>::remove::<std::thread::ThreadId>
  %0 = call { i64, i64 } @_RINvMs0_NtCs7hm1Hx7fNtn_9hashbrown3mapINtB6_7HashMapNtNtCs2bNvlddUlXM_3std6thread8ThreadIdjNtNtNtNtBS_11collections4hash3map11RandomStateE6removeBO_ECs48Yq53b35jF_15crossbeam_utils(%"hashbrown::map::HashMap<std::thread::ThreadId, usize, std::collections::hash_map::RandomState>"* align 8 dereferenceable(48) %_3, i64* noalias readonly align 8 dereferenceable(8) %k), !dbg !1633
  %1 = extractvalue { i64, i64 } %0, 0, !dbg !1633
  %2 = extractvalue { i64, i64 } %0, 1, !dbg !1633
  br label %bb1, !dbg !1633

bb1:                                              ; preds = %start
  %3 = insertvalue { i64, i64 } undef, i64 %1, 0, !dbg !1634
  %4 = insertvalue { i64, i64 } %3, i64 %2, 1, !dbg !1634
  ret { i64, i64 } %4, !dbg !1634
}

; <core::ptr::unique::Unique<dyn core::any::Any + core::marker::Send>>::cast::<u8>
; Function Attrs: inlinehint nonlazybind uwtable
define nonnull i8* @_RINvMs1_NtNtCs3p84KrD9aKt_4core3ptr6uniqueINtB6_6UniqueDNtNtBa_3any3AnyNtNtBa_6marker4SendEL_E4casthECs48Yq53b35jF_15crossbeam_utils(i8* nonnull %self.0, i64* noalias readonly align 8 dereferenceable(24) %self.1) unnamed_addr #0 !dbg !1635 {
start:
  %self.dbg.spill = alloca { i8*, i64* }, align 8
  %0 = getelementptr inbounds { i8*, i64* }, { i8*, i64* }* %self.dbg.spill, i32 0, i32 0
  store i8* %self.0, i8** %0, align 8
  %1 = getelementptr inbounds { i8*, i64* }, { i8*, i64* }* %self.dbg.spill, i32 0, i32 1
  store i64* %self.1, i64** %1, align 8
  call void @llvm.dbg.declare(metadata { i8*, i64* }* %self.dbg.spill, metadata !1650, metadata !DIExpression()), !dbg !1653
; call <core::ptr::unique::Unique<dyn core::any::Any + core::marker::Send>>::as_ptr
  %2 = call { {}*, [3 x i64]* } @_RNvMs1_NtNtCs3p84KrD9aKt_4core3ptr6uniqueINtB5_6UniqueDNtNtB9_3any3AnyNtNtB9_6marker4SendEL_E6as_ptrCs48Yq53b35jF_15crossbeam_utils(i8* nonnull %self.0, i64* noalias readonly align 8 dereferenceable(24) %self.1), !dbg !1654
  %_3.0 = extractvalue { {}*, [3 x i64]* } %2, 0, !dbg !1654
  %_3.1 = extractvalue { {}*, [3 x i64]* } %2, 1, !dbg !1654
  br label %bb1, !dbg !1654

bb1:                                              ; preds = %start
  %_2 = bitcast {}* %_3.0 to i8*, !dbg !1654
; call <core::ptr::unique::Unique<u8>>::new_unchecked
  %3 = call nonnull i8* @_RNvMs1_NtNtCs3p84KrD9aKt_4core3ptr6uniqueINtB5_6UniquehE13new_uncheckedCs48Yq53b35jF_15crossbeam_utils(i8* %_2), !dbg !1655
  br label %bb2, !dbg !1655

bb2:                                              ; preds = %bb1
  ret i8* %3, !dbg !1656
}

; <core::ptr::unique::Unique<alloc::sync::ArcInner<crossbeam_utils::sync::wait_group::Inner>>>::cast::<u8>
; Function Attrs: inlinehint nonlazybind uwtable
define nonnull i8* @_RINvMs1_NtNtCs3p84KrD9aKt_4core3ptr6uniqueINtB6_6UniqueINtNtCs8RW06R9lH2S_5alloc4sync8ArcInnerNtNtNtCs48Yq53b35jF_15crossbeam_utils4sync10wait_group5InnerEE4casthEB1A_(i64* nonnull %self) unnamed_addr #0 !dbg !1657 {
start:
  %self.dbg.spill = alloca i64*, align 8
  store i64* %self, i64** %self.dbg.spill, align 8
  call void @llvm.dbg.declare(metadata i64** %self.dbg.spill, metadata !1665, metadata !DIExpression()), !dbg !1667
; call <core::ptr::unique::Unique<alloc::sync::ArcInner<crossbeam_utils::sync::wait_group::Inner>>>::as_ptr
  %_3 = call %"alloc::sync::ArcInner<sync::wait_group::Inner>"* @_RNvMs1_NtNtCs3p84KrD9aKt_4core3ptr6uniqueINtB5_6UniqueINtNtCs8RW06R9lH2S_5alloc4sync8ArcInnerNtNtNtCs48Yq53b35jF_15crossbeam_utils4sync10wait_group5InnerEE6as_ptrB1z_(i64* nonnull %self), !dbg !1668
  br label %bb1, !dbg !1668

bb1:                                              ; preds = %start
  %_2 = bitcast %"alloc::sync::ArcInner<sync::wait_group::Inner>"* %_3 to i8*, !dbg !1668
; call <core::ptr::unique::Unique<u8>>::new_unchecked
  %0 = call nonnull i8* @_RNvMs1_NtNtCs3p84KrD9aKt_4core3ptr6uniqueINtB5_6UniquehE13new_uncheckedCs48Yq53b35jF_15crossbeam_utils(i8* %_2), !dbg !1669
  br label %bb2, !dbg !1669

bb2:                                              ; preds = %bb1
  ret i8* %0, !dbg !1670
}

; <core::ptr::unique::Unique<alloc::sync::ArcInner<crossbeam_utils::sync::parker::Inner>>>::cast::<u8>
; Function Attrs: inlinehint nonlazybind uwtable
define nonnull i8* @_RINvMs1_NtNtCs3p84KrD9aKt_4core3ptr6uniqueINtB6_6UniqueINtNtCs8RW06R9lH2S_5alloc4sync8ArcInnerNtNtNtCs48Yq53b35jF_15crossbeam_utils4sync6parker5InnerEE4casthEB1A_(i64* nonnull %self) unnamed_addr #0 !dbg !1671 {
start:
  %self.dbg.spill = alloca i64*, align 8
  store i64* %self, i64** %self.dbg.spill, align 8
  call void @llvm.dbg.declare(metadata i64** %self.dbg.spill, metadata !1680, metadata !DIExpression()), !dbg !1682
; call <core::ptr::unique::Unique<alloc::sync::ArcInner<crossbeam_utils::sync::parker::Inner>>>::as_ptr
  %_3 = call %"alloc::sync::ArcInner<sync::parker::Inner>"* @_RNvMs1_NtNtCs3p84KrD9aKt_4core3ptr6uniqueINtB5_6UniqueINtNtCs8RW06R9lH2S_5alloc4sync8ArcInnerNtNtNtCs48Yq53b35jF_15crossbeam_utils4sync6parker5InnerEE6as_ptrB1z_(i64* nonnull %self), !dbg !1683
  br label %bb1, !dbg !1683

bb1:                                              ; preds = %start
  %_2 = bitcast %"alloc::sync::ArcInner<sync::parker::Inner>"* %_3 to i8*, !dbg !1683
; call <core::ptr::unique::Unique<u8>>::new_unchecked
  %0 = call nonnull i8* @_RNvMs1_NtNtCs3p84KrD9aKt_4core3ptr6uniqueINtB5_6UniquehE13new_uncheckedCs48Yq53b35jF_15crossbeam_utils(i8* %_2), !dbg !1684
  br label %bb2, !dbg !1684

bb2:                                              ; preds = %bb1
  ret i8* %0, !dbg !1685
}

; <core::ptr::unique::Unique<std::sys::unix::mutex::Mutex>>::cast::<u8>
; Function Attrs: inlinehint nonlazybind uwtable
define nonnull i8* @_RINvMs1_NtNtCs3p84KrD9aKt_4core3ptr6uniqueINtB6_6UniqueNtNtNtNtCs2bNvlddUlXM_3std3sys4unix5mutex5MutexE4casthECs48Yq53b35jF_15crossbeam_utils(i64* nonnull %self) unnamed_addr #0 !dbg !1686 {
start:
  %self.dbg.spill = alloca i64*, align 8
  store i64* %self, i64** %self.dbg.spill, align 8
  call void @llvm.dbg.declare(metadata i64** %self.dbg.spill, metadata !1698, metadata !DIExpression()), !dbg !1700
; call <core::ptr::unique::Unique<std::sys::unix::mutex::Mutex>>::as_ptr
  %_3 = call %"std::sys::unix::mutex::Mutex"* @_RNvMs1_NtNtCs3p84KrD9aKt_4core3ptr6uniqueINtB5_6UniqueNtNtNtNtCs2bNvlddUlXM_3std3sys4unix5mutex5MutexE6as_ptrCs48Yq53b35jF_15crossbeam_utils(i64* nonnull %self), !dbg !1701
  br label %bb1, !dbg !1701

bb1:                                              ; preds = %start
  %_2 = bitcast %"std::sys::unix::mutex::Mutex"* %_3 to i8*, !dbg !1701
; call <core::ptr::unique::Unique<u8>>::new_unchecked
  %0 = call nonnull i8* @_RNvMs1_NtNtCs3p84KrD9aKt_4core3ptr6uniqueINtB5_6UniquehE13new_uncheckedCs48Yq53b35jF_15crossbeam_utils(i8* %_2), !dbg !1702
  br label %bb2, !dbg !1702

bb2:                                              ; preds = %bb1
  ret i8* %0, !dbg !1703
}

; <core::ptr::unique::Unique<std::sys::unix::condvar::Condvar>>::cast::<u8>
; Function Attrs: inlinehint nonlazybind uwtable
define nonnull i8* @_RINvMs1_NtNtCs3p84KrD9aKt_4core3ptr6uniqueINtB6_6UniqueNtNtNtNtCs2bNvlddUlXM_3std3sys4unix7condvar7CondvarE4casthECs48Yq53b35jF_15crossbeam_utils(i64* nonnull %self) unnamed_addr #0 !dbg !1704 {
start:
  %self.dbg.spill = alloca i64*, align 8
  store i64* %self, i64** %self.dbg.spill, align 8
  call void @llvm.dbg.declare(metadata i64** %self.dbg.spill, metadata !1716, metadata !DIExpression()), !dbg !1718
; call <core::ptr::unique::Unique<std::sys::unix::condvar::Condvar>>::as_ptr
  %_3 = call %"std::sys::unix::condvar::Condvar"* @_RNvMs1_NtNtCs3p84KrD9aKt_4core3ptr6uniqueINtB5_6UniqueNtNtNtNtCs2bNvlddUlXM_3std3sys4unix7condvar7CondvarE6as_ptrCs48Yq53b35jF_15crossbeam_utils(i64* nonnull %self), !dbg !1719
  br label %bb1, !dbg !1719

bb1:                                              ; preds = %start
  %_2 = bitcast %"std::sys::unix::condvar::Condvar"* %_3 to i8*, !dbg !1719
; call <core::ptr::unique::Unique<u8>>::new_unchecked
  %0 = call nonnull i8* @_RNvMs1_NtNtCs3p84KrD9aKt_4core3ptr6uniqueINtB5_6UniquehE13new_uncheckedCs48Yq53b35jF_15crossbeam_utils(i8* %_2), !dbg !1720
  br label %bb2, !dbg !1720

bb2:                                              ; preds = %bb1
  ret i8* %0, !dbg !1721
}

; <core::ptr::unique::Unique<[u8]>>::cast::<u8>
; Function Attrs: inlinehint nonlazybind uwtable
define nonnull i8* @_RINvMs1_NtNtCs3p84KrD9aKt_4core3ptr6uniqueINtB6_6UniqueShE4casthECs48Yq53b35jF_15crossbeam_utils(i8* nonnull %self.0, i64 %self.1) unnamed_addr #0 !dbg !1722 {
start:
  %self.dbg.spill = alloca { i8*, i64 }, align 8
  %0 = getelementptr inbounds { i8*, i64 }, { i8*, i64 }* %self.dbg.spill, i32 0, i32 0
  store i8* %self.0, i8** %0, align 8
  %1 = getelementptr inbounds { i8*, i64 }, { i8*, i64 }* %self.dbg.spill, i32 0, i32 1
  store i64 %self.1, i64* %1, align 8
  call void @llvm.dbg.declare(metadata { i8*, i64 }* %self.dbg.spill, metadata !1731, metadata !DIExpression()), !dbg !1733
; call <core::ptr::unique::Unique<[u8]>>::as_ptr
  %2 = call { [0 x i8]*, i64 } @_RNvMs1_NtNtCs3p84KrD9aKt_4core3ptr6uniqueINtB5_6UniqueShE6as_ptrCs48Yq53b35jF_15crossbeam_utils(i8* nonnull %self.0, i64 %self.1), !dbg !1734
  %_3.0 = extractvalue { [0 x i8]*, i64 } %2, 0, !dbg !1734
  %_3.1 = extractvalue { [0 x i8]*, i64 } %2, 1, !dbg !1734
  br label %bb1, !dbg !1734

bb1:                                              ; preds = %start
  %_2 = bitcast [0 x i8]* %_3.0 to i8*, !dbg !1734
; call <core::ptr::unique::Unique<u8>>::new_unchecked
  %3 = call nonnull i8* @_RNvMs1_NtNtCs3p84KrD9aKt_4core3ptr6uniqueINtB5_6UniquehE13new_uncheckedCs48Yq53b35jF_15crossbeam_utils(i8* %_2), !dbg !1735
  br label %bb2, !dbg !1735

bb2:                                              ; preds = %bb1
  ret i8* %3, !dbg !1736
}

; <core::ptr::unique::Unique<usize>>::cast::<u8>
; Function Attrs: inlinehint nonlazybind uwtable
define nonnull i8* @_RINvMs1_NtNtCs3p84KrD9aKt_4core3ptr6uniqueINtB6_6UniquejE4casthECs48Yq53b35jF_15crossbeam_utils(i64* nonnull %self) unnamed_addr #0 !dbg !1737 {
start:
  %self.dbg.spill = alloca i64*, align 8
  store i64* %self, i64** %self.dbg.spill, align 8
  call void @llvm.dbg.declare(metadata i64** %self.dbg.spill, metadata !1741, metadata !DIExpression()), !dbg !1743
; call <core::ptr::unique::Unique<usize>>::as_ptr
  %_3 = call i64* @_RNvMs1_NtNtCs3p84KrD9aKt_4core3ptr6uniqueINtB5_6UniquejE6as_ptrCs48Yq53b35jF_15crossbeam_utils(i64* nonnull %self), !dbg !1744
  br label %bb1, !dbg !1744

bb1:                                              ; preds = %start
  %_2 = bitcast i64* %_3 to i8*, !dbg !1744
; call <core::ptr::unique::Unique<u8>>::new_unchecked
  %0 = call nonnull i8* @_RNvMs1_NtNtCs3p84KrD9aKt_4core3ptr6uniqueINtB5_6UniquehE13new_uncheckedCs48Yq53b35jF_15crossbeam_utils(i8* %_2), !dbg !1745
  br label %bb2, !dbg !1745

bb2:                                              ; preds = %bb1
  ret i8* %0, !dbg !1746
}

; <core::ptr::non_null::NonNull<alloc::sync::ArcInner<std::thread::Inner>>>::cast::<u8>
; Function Attrs: inlinehint nonlazybind uwtable
define nonnull i8* @_RINvMs1_NtNtCs3p84KrD9aKt_4core3ptr8non_nullINtB6_7NonNullINtNtCs8RW06R9lH2S_5alloc4sync8ArcInnerNtNtCs2bNvlddUlXM_3std6thread5InnerEE4casthECs48Yq53b35jF_15crossbeam_utils(i64* nonnull %self) unnamed_addr #0 !dbg !1747 {
start:
  %self.dbg.spill = alloca i64*, align 8
  store i64* %self, i64** %self.dbg.spill, align 8
  call void @llvm.dbg.declare(metadata i64** %self.dbg.spill, metadata !1752, metadata !DIExpression()), !dbg !1754
; call <core::ptr::non_null::NonNull<alloc::sync::ArcInner<std::thread::Inner>>>::as_ptr
  %_3 = call %"alloc::sync::ArcInner<std::thread::Inner>"* @_RNvMs1_NtNtCs3p84KrD9aKt_4core3ptr8non_nullINtB5_7NonNullINtNtCs8RW06R9lH2S_5alloc4sync8ArcInnerNtNtCs2bNvlddUlXM_3std6thread5InnerEE6as_ptrCs48Yq53b35jF_15crossbeam_utils(i64* nonnull %self), !dbg !1755
  br label %bb1, !dbg !1755

bb1:                                              ; preds = %start
  %_2 = bitcast %"alloc::sync::ArcInner<std::thread::Inner>"* %_3 to i8*, !dbg !1755
; call <core::ptr::non_null::NonNull<u8>>::new_unchecked
  %0 = call nonnull i8* @_RNvMs1_NtNtCs3p84KrD9aKt_4core3ptr8non_nullINtB5_7NonNullhE13new_uncheckedCs48Yq53b35jF_15crossbeam_utils(i8* %_2), !dbg !1756
  br label %bb2, !dbg !1756

bb2:                                              ; preds = %bb1
  ret i8* %0, !dbg !1757
}

; <core::ptr::non_null::NonNull<alloc::sync::ArcInner<crossbeam_utils::sync::wait_group::Inner>>>::cast::<u8>
; Function Attrs: inlinehint nonlazybind uwtable
define nonnull i8* @_RINvMs1_NtNtCs3p84KrD9aKt_4core3ptr8non_nullINtB6_7NonNullINtNtCs8RW06R9lH2S_5alloc4sync8ArcInnerNtNtNtCs48Yq53b35jF_15crossbeam_utils4sync10wait_group5InnerEE4casthEB1D_(i64* nonnull %self) unnamed_addr #0 !dbg !1758 {
start:
  %self.dbg.spill = alloca i64*, align 8
  store i64* %self, i64** %self.dbg.spill, align 8
  call void @llvm.dbg.declare(metadata i64** %self.dbg.spill, metadata !1762, metadata !DIExpression()), !dbg !1763
; call <core::ptr::non_null::NonNull<alloc::sync::ArcInner<crossbeam_utils::sync::wait_group::Inner>>>::as_ptr
  %_3 = call %"alloc::sync::ArcInner<sync::wait_group::Inner>"* @_RNvMs1_NtNtCs3p84KrD9aKt_4core3ptr8non_nullINtB5_7NonNullINtNtCs8RW06R9lH2S_5alloc4sync8ArcInnerNtNtNtCs48Yq53b35jF_15crossbeam_utils4sync10wait_group5InnerEE6as_ptrB1C_(i64* nonnull %self), !dbg !1764
  br label %bb1, !dbg !1764

bb1:                                              ; preds = %start
  %_2 = bitcast %"alloc::sync::ArcInner<sync::wait_group::Inner>"* %_3 to i8*, !dbg !1764
; call <core::ptr::non_null::NonNull<u8>>::new_unchecked
  %0 = call nonnull i8* @_RNvMs1_NtNtCs3p84KrD9aKt_4core3ptr8non_nullINtB5_7NonNullhE13new_uncheckedCs48Yq53b35jF_15crossbeam_utils(i8* %_2), !dbg !1765
  br label %bb2, !dbg !1765

bb2:                                              ; preds = %bb1
  ret i8* %0, !dbg !1766
}

; <core::ptr::non_null::NonNull<alloc::sync::ArcInner<crossbeam_utils::sync::parker::Inner>>>::cast::<u8>
; Function Attrs: inlinehint nonlazybind uwtable
define nonnull i8* @_RINvMs1_NtNtCs3p84KrD9aKt_4core3ptr8non_nullINtB6_7NonNullINtNtCs8RW06R9lH2S_5alloc4sync8ArcInnerNtNtNtCs48Yq53b35jF_15crossbeam_utils4sync6parker5InnerEE4casthEB1D_(i64* nonnull %self) unnamed_addr #0 !dbg !1767 {
start:
  %self.dbg.spill = alloca i64*, align 8
  store i64* %self, i64** %self.dbg.spill, align 8
  call void @llvm.dbg.declare(metadata i64** %self.dbg.spill, metadata !1774, metadata !DIExpression()), !dbg !1775
; call <core::ptr::non_null::NonNull<alloc::sync::ArcInner<crossbeam_utils::sync::parker::Inner>>>::as_ptr
  %_3 = call %"alloc::sync::ArcInner<sync::parker::Inner>"* @_RNvMs1_NtNtCs3p84KrD9aKt_4core3ptr8non_nullINtB5_7NonNullINtNtCs8RW06R9lH2S_5alloc4sync8ArcInnerNtNtNtCs48Yq53b35jF_15crossbeam_utils4sync6parker5InnerEE6as_ptrB1C_(i64* nonnull %self), !dbg !1776
  br label %bb1, !dbg !1776

bb1:                                              ; preds = %start
  %_2 = bitcast %"alloc::sync::ArcInner<sync::parker::Inner>"* %_3 to i8*, !dbg !1776
; call <core::ptr::non_null::NonNull<u8>>::new_unchecked
  %0 = call nonnull i8* @_RNvMs1_NtNtCs3p84KrD9aKt_4core3ptr8non_nullINtB5_7NonNullhE13new_uncheckedCs48Yq53b35jF_15crossbeam_utils(i8* %_2), !dbg !1777
  br label %bb2, !dbg !1777

bb2:                                              ; preds = %bb1
  ret i8* %0, !dbg !1778
}

; <core::ptr::non_null::NonNull<[u8]>>::cast::<usize>
; Function Attrs: inlinehint nonlazybind uwtable
define nonnull i64* @_RINvMs1_NtNtCs3p84KrD9aKt_4core3ptr8non_nullINtB6_7NonNullShE4castjECs48Yq53b35jF_15crossbeam_utils(i8* nonnull %self.0, i64 %self.1) unnamed_addr #0 !dbg !1779 {
start:
  %self.dbg.spill = alloca { i8*, i64 }, align 8
  %0 = getelementptr inbounds { i8*, i64 }, { i8*, i64 }* %self.dbg.spill, i32 0, i32 0
  store i8* %self.0, i8** %0, align 8
  %1 = getelementptr inbounds { i8*, i64 }, { i8*, i64 }* %self.dbg.spill, i32 0, i32 1
  store i64 %self.1, i64* %1, align 8
  call void @llvm.dbg.declare(metadata { i8*, i64 }* %self.dbg.spill, metadata !1786, metadata !DIExpression()), !dbg !1789
; call <core::ptr::non_null::NonNull<[u8]>>::as_ptr
  %2 = call { [0 x i8]*, i64 } @_RNvMs1_NtNtCs3p84KrD9aKt_4core3ptr8non_nullINtB5_7NonNullShE6as_ptrCs48Yq53b35jF_15crossbeam_utils(i8* nonnull %self.0, i64 %self.1), !dbg !1790
  %_3.0 = extractvalue { [0 x i8]*, i64 } %2, 0, !dbg !1790
  %_3.1 = extractvalue { [0 x i8]*, i64 } %2, 1, !dbg !1790
  br label %bb1, !dbg !1790

bb1:                                              ; preds = %start
  %_2 = bitcast [0 x i8]* %_3.0 to i64*, !dbg !1790
; call <core::ptr::non_null::NonNull<usize>>::new_unchecked
  %3 = call nonnull i64* @_RNvMs1_NtNtCs3p84KrD9aKt_4core3ptr8non_nullINtB5_7NonNulljE13new_uncheckedCs48Yq53b35jF_15crossbeam_utils(i64* %_2), !dbg !1791
  br label %bb2, !dbg !1791

bb2:                                              ; preds = %bb1
  ret i64* %3, !dbg !1792
}

; <std::thread::local::LocalKey<core::cell::Cell<(u64, u64)>>>::with::<<std::collections::hash::map::RandomState>::new::{closure#0}, std::collections::hash::map::RandomState>
; Function Attrs: nonlazybind uwtable
define { i64, i64 } @_RINvMs2_NtNtCs2bNvlddUlXM_3std6thread5localINtB6_8LocalKeyINtNtCs3p84KrD9aKt_4core4cell4CellTyyEEE4withNCNvMs1e_NtNtNtBa_11collections4hash3mapNtB1M_11RandomState3new0B2h_ECs48Yq53b35jF_15crossbeam_utils(i64** noalias readonly align 8 dereferenceable(8) %self) unnamed_addr #1 !dbg !1793 {
start:
  %f.dbg.spill = alloca %"[closure@std::collections::hash_map::RandomState::new::{closure#0}]", align 1
  %self.dbg.spill = alloca i64**, align 8
  %_3 = alloca %"std::result::Result<std::collections::hash_map::RandomState, std::thread::AccessError>", align 8
  store i64** %self, i64*** %self.dbg.spill, align 8
  call void @llvm.dbg.declare(metadata i64*** %self.dbg.spill, metadata !1809, metadata !DIExpression()), !dbg !1814
  call void @llvm.dbg.declare(metadata %"[closure@std::collections::hash_map::RandomState::new::{closure#0}]"* %f.dbg.spill, metadata !1810, metadata !DIExpression()), !dbg !1815
; call <std::thread::local::LocalKey<core::cell::Cell<(u64, u64)>>>::try_with::<<std::collections::hash::map::RandomState>::new::{closure#0}, std::collections::hash::map::RandomState>
  call void @_RINvMs2_NtNtCs2bNvlddUlXM_3std6thread5localINtB6_8LocalKeyINtNtCs3p84KrD9aKt_4core4cell4CellTyyEEE8try_withNCNvMs1e_NtNtNtBa_11collections4hash3mapNtB1Q_11RandomState3new0B2l_ECs48Yq53b35jF_15crossbeam_utils(%"std::result::Result<std::collections::hash_map::RandomState, std::thread::AccessError>"* noalias nocapture sret dereferenceable(24) %_3, i64** noalias readonly align 8 dereferenceable(8) %self), !dbg !1816
  br label %bb1, !dbg !1816

bb1:                                              ; preds = %start
; call <core::result::Result<std::collections::hash::map::RandomState, std::thread::local::AccessError>>::expect
  %0 = call { i64, i64 } @_RNvMs3_NtCs3p84KrD9aKt_4core6resultINtB5_6ResultNtNtNtNtCs2bNvlddUlXM_3std11collections4hash3map11RandomStateNtNtNtBS_6thread5local11AccessErrorE6expectCs48Yq53b35jF_15crossbeam_utils(%"std::result::Result<std::collections::hash_map::RandomState, std::thread::AccessError>"* noalias nocapture dereferenceable(24) %_3, [0 x i8]* noalias nonnull readonly align 1 bitcast (<{ [70 x i8] }>* @alloc976 to [0 x i8]*), i64 70, %"std::panic::Location"* noalias readonly align 8 dereferenceable(24) bitcast (<{ i8*, [16 x i8] }>* @alloc978 to %"std::panic::Location"*)), !dbg !1816
  %1 = extractvalue { i64, i64 } %0, 0, !dbg !1816
  %2 = extractvalue { i64, i64 } %0, 1, !dbg !1816
  br label %bb2, !dbg !1816

bb2:                                              ; preds = %bb1
  %3 = insertvalue { i64, i64 } undef, i64 %1, 0, !dbg !1817
  %4 = insertvalue { i64, i64 } %3, i64 %2, 1, !dbg !1817
  ret { i64, i64 } %4, !dbg !1817
}

; <std::thread::local::LocalKey<core::cell::Cell<(u64, u64)>>>::try_with::<<std::collections::hash::map::RandomState>::new::{closure#0}, std::collections::hash::map::RandomState>
; Function Attrs: inlinehint nonlazybind uwtable
define void @_RINvMs2_NtNtCs2bNvlddUlXM_3std6thread5localINtB6_8LocalKeyINtNtCs3p84KrD9aKt_4core4cell4CellTyyEEE8try_withNCNvMs1e_NtNtNtBa_11collections4hash3mapNtB1Q_11RandomState3new0B2l_ECs48Yq53b35jF_15crossbeam_utils(%"std::result::Result<std::collections::hash_map::RandomState, std::thread::AccessError>"* noalias nocapture sret dereferenceable(24) %0, i64** noalias readonly align 8 dereferenceable(8) %self) unnamed_addr #0 personality i32 (i32, i32, i64, %"unwind::libunwind::_Unwind_Exception"*, %"unwind::libunwind::_Unwind_Context"*)* @rust_eh_personality !dbg !1818 {
start:
  %thread_local.dbg.spill = alloca { i64, i64 }*, align 8
  %val.dbg.spill = alloca { i64, i64 }*, align 8
  %1 = alloca { i8*, i32 }, align 8
  %err.dbg.spill = alloca %"std::thread::AccessError", align 1
  %f.dbg.spill = alloca %"[closure@std::collections::hash_map::RandomState::new::{closure#0}]", align 1
  %self.dbg.spill = alloca i64**, align 8
  %_18 = alloca i8, align 1
  %_16 = alloca i64*, align 8
  %_8 = alloca %"std::thread::AccessError", align 1
  %_4 = alloca i64*, align 8
  store i64** %self, i64*** %self.dbg.spill, align 8
  call void @llvm.dbg.declare(metadata i64*** %self.dbg.spill, metadata !1836, metadata !DIExpression()), !dbg !1844
  call void @llvm.dbg.declare(metadata %"[closure@std::collections::hash_map::RandomState::new::{closure#0}]"* %f.dbg.spill, metadata !1837, metadata !DIExpression()), !dbg !1845
  call void @llvm.dbg.declare(metadata %"std::thread::AccessError"* %err.dbg.spill, metadata !1840, metadata !DIExpression()), !dbg !1846
  store i8 0, i8* %_18, align 1, !dbg !1847
  store i8 1, i8* %_18, align 1, !dbg !1847
  %2 = bitcast i64** %self to i64* ()**, !dbg !1848
  %_7 = load i64* ()*, i64* ()** %2, align 8, !dbg !1848, !nonnull !4
  %_6 = invoke align 8 dereferenceable_or_null(16) i64* %_7()
          to label %bb1 unwind label %cleanup, !dbg !1848

bb1:                                              ; preds = %start
  %3 = bitcast %"std::thread::AccessError"* %_8 to {}*, !dbg !1849
; invoke <core::option::Option<&core::cell::Cell<(u64, u64)>>>::ok_or::<std::thread::local::AccessError>
  %_5 = invoke align 8 dereferenceable_or_null(16) i64* @_RINvMNtCs3p84KrD9aKt_4core6optionINtB3_6OptionRINtNtB5_4cell4CellTyyEEE5ok_orNtNtNtCs2bNvlddUlXM_3std6thread5local11AccessErrorECs48Yq53b35jF_15crossbeam_utils(i64* align 8 dereferenceable_or_null(16) %_6)
          to label %bb2 unwind label %cleanup, !dbg !1848

bb2:                                              ; preds = %bb1
; invoke <core::result::Result<&core::cell::Cell<(u64, u64)>, std::thread::local::AccessError> as core::ops::try::Try>::into_result
  %4 = invoke align 8 dereferenceable_or_null(16) i64* @_RNvXsw_NtCs3p84KrD9aKt_4core6resultINtB5_6ResultRINtNtB7_4cell4CellTyyEENtNtNtCs2bNvlddUlXM_3std6thread5local11AccessErrorENtNtNtB7_3ops3try3Try11into_resultCs48Yq53b35jF_15crossbeam_utils(i64* align 8 dereferenceable_or_null(16) %_5)
          to label %bb3 unwind label %cleanup, !dbg !1848

bb3:                                              ; preds = %bb2
  store i64* %4, i64** %_4, align 8, !dbg !1848
  %5 = bitcast i64** %_4 to {}**, !dbg !1850
  %6 = load {}*, {}** %5, align 8, !dbg !1850
  %7 = icmp eq {}* %6, null, !dbg !1850
  %_9 = select i1 %7, i64 1, i64 0, !dbg !1850
  switch i64 %_9, label %bb5 [
    i64 0, label %bb4
    i64 1, label %bb6
  ], !dbg !1850

bb4:                                              ; preds = %bb3
  %8 = bitcast i64** %_4 to { i64, i64 }**, !dbg !1848
  %val = load { i64, i64 }*, { i64, i64 }** %8, align 8, !dbg !1848, !nonnull !4
  store { i64, i64 }* %val, { i64, i64 }** %val.dbg.spill, align 8, !dbg !1848
  call void @llvm.dbg.declare(metadata { i64, i64 }** %val.dbg.spill, metadata !1842, metadata !DIExpression()), !dbg !1851
  store { i64, i64 }* %val, { i64, i64 }** %thread_local.dbg.spill, align 8, !dbg !1851
  call void @llvm.dbg.declare(metadata { i64, i64 }** %thread_local.dbg.spill, metadata !1838, metadata !DIExpression()), !dbg !1852
  store i8 0, i8* %_18, align 1, !dbg !1853
  %9 = bitcast i64** %_16 to { i64, i64 }**, !dbg !1853
  store { i64, i64 }* %val, { i64, i64 }** %9, align 8, !dbg !1853
  %10 = load i64*, i64** %_16, align 8, !dbg !1853, !nonnull !4
  %11 = bitcast i64* %10 to { i64, i64 }*, !dbg !1853
; invoke <std::collections::hash::map::RandomState>::new::{closure#0}
  %12 = invoke { i64, i64 } @_RNCNvMs1e_NtNtNtCs2bNvlddUlXM_3std11collections4hash3mapNtB8_11RandomState3new0Cs48Yq53b35jF_15crossbeam_utils({ i64, i64 }* align 8 dereferenceable(16) %11)
          to label %bb9 unwind label %cleanup, !dbg !1853

bb5:                                              ; preds = %bb3
  unreachable, !dbg !1848

bb6:                                              ; preds = %bb3
; invoke <std::thread::local::AccessError as core::convert::From<std::thread::local::AccessError>>::from
  invoke void @_RNvXs2_NtCs3p84KrD9aKt_4core7convertNtNtNtCs2bNvlddUlXM_3std6thread5local11AccessErrorINtB5_4FromBy_E4fromCs48Yq53b35jF_15crossbeam_utils()
          to label %bb7 unwind label %cleanup, !dbg !1846

bb7:                                              ; preds = %bb6
; invoke <core::result::Result<std::collections::hash::map::RandomState, std::thread::local::AccessError> as core::ops::try::Try>::from_error
  invoke void @_RNvXsw_NtCs3p84KrD9aKt_4core6resultINtB5_6ResultNtNtNtNtCs2bNvlddUlXM_3std11collections4hash3map11RandomStateNtNtNtBS_6thread5local11AccessErrorENtNtNtB7_3ops3try3Try10from_errorCs48Yq53b35jF_15crossbeam_utils(%"std::result::Result<std::collections::hash_map::RandomState, std::thread::AccessError>"* noalias nocapture sret dereferenceable(24) %0)
          to label %bb8 unwind label %cleanup, !dbg !1854

bb8:                                              ; preds = %bb7
  br label %bb10, !dbg !1855

bb9:                                              ; preds = %bb4
  %_14.0 = extractvalue { i64, i64 } %12, 0, !dbg !1853
  %_14.1 = extractvalue { i64, i64 } %12, 1, !dbg !1853
  %13 = bitcast %"std::result::Result<std::collections::hash_map::RandomState, std::thread::AccessError>"* %0 to %"std::result::Result<std::collections::hash_map::RandomState, std::thread::AccessError>::Ok"*, !dbg !1856
  %14 = getelementptr inbounds %"std::result::Result<std::collections::hash_map::RandomState, std::thread::AccessError>::Ok", %"std::result::Result<std::collections::hash_map::RandomState, std::thread::AccessError>::Ok"* %13, i32 0, i32 1, !dbg !1856
  %15 = getelementptr inbounds { i64, i64 }, { i64, i64 }* %14, i32 0, i32 0, !dbg !1856
  store i64 %_14.0, i64* %15, align 8, !dbg !1856
  %16 = getelementptr inbounds { i64, i64 }, { i64, i64 }* %14, i32 0, i32 1, !dbg !1856
  store i64 %_14.1, i64* %16, align 8, !dbg !1856
  %17 = bitcast %"std::result::Result<std::collections::hash_map::RandomState, std::thread::AccessError>"* %0 to i64*, !dbg !1856
  store i64 0, i64* %17, align 8, !dbg !1856
  br label %bb10, !dbg !1855

bb10:                                             ; preds = %bb9, %bb8
  ret void, !dbg !1857

bb11:                                             ; No predecessors!
  br label %bb12, !dbg !1855

bb12:                                             ; preds = %bb13, %bb14, %bb11
  %18 = bitcast { i8*, i32 }* %1 to i8**, !dbg !1858
  %19 = load i8*, i8** %18, align 8, !dbg !1858
  %20 = getelementptr inbounds { i8*, i32 }, { i8*, i32 }* %1, i32 0, i32 1, !dbg !1858
  %21 = load i32, i32* %20, align 8, !dbg !1858
  %22 = insertvalue { i8*, i32 } undef, i8* %19, 0, !dbg !1858
  %23 = insertvalue { i8*, i32 } %22, i32 %21, 1, !dbg !1858
  resume { i8*, i32 } %23, !dbg !1858

bb13:                                             ; preds = %bb14
  br label %bb12, !dbg !1855

bb14:                                             ; preds = %cleanup
  %24 = load i8, i8* %_18, align 1, !dbg !1855, !range !947
  %25 = trunc i8 %24 to i1, !dbg !1855
  br i1 %25, label %bb13, label %bb12, !dbg !1855

cleanup:                                          ; preds = %bb4, %bb7, %bb6, %bb2, %bb1, %start
  %26 = landingpad { i8*, i32 }
          cleanup
  %27 = extractvalue { i8*, i32 } %26, 0
  %28 = extractvalue { i8*, i32 } %26, 1
  %29 = getelementptr inbounds { i8*, i32 }, { i8*, i32 }* %1, i32 0, i32 0
  store i8* %27, i8** %29, align 8
  %30 = getelementptr inbounds { i8*, i32 }, { i8*, i32 }* %1, i32 0, i32 1
  store i32 %28, i32* %30, align 8
  br label %bb14
}

; <hashbrown::raw::RawTable<(std::thread::ThreadId, usize)>>::reserve_rehash::<<hashbrown::map::HashMap<std::thread::ThreadId, usize, std::collections::hash::map::RandomState>>::insert::{closure#1}>
; Function Attrs: cold noinline nonlazybind uwtable
define void @_RINvMs3_NtCs7hm1Hx7fNtn_9hashbrown3rawINtB6_8RawTableTNtNtCs2bNvlddUlXM_3std6thread8ThreadIdjEE14reserve_rehashNCNvMs0_NtB8_3mapINtB1T_7HashMapBQ_jNtNtNtNtBU_11collections4hash3map11RandomStateE6inserts_0ECs48Yq53b35jF_15crossbeam_utils(%"std::result::Result<(), hashbrown::TryReserveError>"* noalias nocapture sret dereferenceable(24) %0, %"hashbrown::raw::RawTable<(std::thread::ThreadId, usize)>"* align 8 dereferenceable(32) %self, i64 %additional, i64* noalias readonly align 8 dereferenceable(8) %hasher, i1 zeroext %fallability) unnamed_addr #2 personality i32 (i32, i32, i64, %"unwind::libunwind::_Unwind_Exception"*, %"unwind::libunwind::_Unwind_Context"*)* @rust_eh_personality !dbg !1859 {
start:
  %full_capacity.dbg.spill = alloca i64, align 8
  %new_items.dbg.spill1 = alloca i64, align 8
  %new_items.dbg.spill = alloca i64, align 8
  %1 = alloca { i8*, i32 }, align 8
  %fallability.dbg.spill = alloca i8, align 1
  %hasher.dbg.spill = alloca i64*, align 8
  %additional.dbg.spill = alloca i64, align 8
  %self.dbg.spill = alloca %"hashbrown::raw::RawTable<(std::thread::ThreadId, usize)>"*, align 8
  %_29 = alloca i8, align 1
  %_6 = alloca { i64, i64 }, align 8
  store %"hashbrown::raw::RawTable<(std::thread::ThreadId, usize)>"* %self, %"hashbrown::raw::RawTable<(std::thread::ThreadId, usize)>"** %self.dbg.spill, align 8
  call void @llvm.dbg.declare(metadata %"hashbrown::raw::RawTable<(std::thread::ThreadId, usize)>"** %self.dbg.spill, metadata !1897, metadata !DIExpression()), !dbg !1909
  store i64 %additional, i64* %additional.dbg.spill, align 8
  call void @llvm.dbg.declare(metadata i64* %additional.dbg.spill, metadata !1898, metadata !DIExpression()), !dbg !1910
  store i64* %hasher, i64** %hasher.dbg.spill, align 8
  call void @llvm.dbg.declare(metadata i64** %hasher.dbg.spill, metadata !1899, metadata !DIExpression()), !dbg !1911
  %2 = zext i1 %fallability to i8
  store i8 %2, i8* %fallability.dbg.spill, align 1
  call void @llvm.dbg.declare(metadata i8* %fallability.dbg.spill, metadata !1900, metadata !DIExpression()), !dbg !1912
  store i8 0, i8* %_29, align 1, !dbg !1913
  store i8 1, i8* %_29, align 1, !dbg !1913
  %3 = getelementptr inbounds %"hashbrown::raw::RawTable<(std::thread::ThreadId, usize)>", %"hashbrown::raw::RawTable<(std::thread::ThreadId, usize)>"* %self, i32 0, i32 9, !dbg !1914
  %_7 = load i64, i64* %3, align 8, !dbg !1914
; invoke <usize>::checked_add
  %4 = invoke { i64, i64 } @_RNvMs9_NtCs3p84KrD9aKt_4core3numj11checked_addCs48Yq53b35jF_15crossbeam_utils(i64 %_7, i64 %additional)
          to label %bb1 unwind label %cleanup, !dbg !1914

bb1:                                              ; preds = %start
  store { i64, i64 } %4, { i64, i64 }* %_6, align 8, !dbg !1914
  %5 = bitcast { i64, i64 }* %_6 to i64*, !dbg !1915
  %_9 = load i64, i64* %5, align 8, !dbg !1915, !range !1089
  switch i64 %_9, label %bb3 [
    i64 0, label %bb2
    i64 1, label %bb4
  ], !dbg !1915

bb2:                                              ; preds = %bb1
; invoke hashbrown::raw::Fallibility::capacity_overflow
  %6 = invoke { i64, i64 } @_ZN9hashbrown3raw11Fallibility17capacity_overflow17h87e7aac91129865bE(i1 zeroext %fallability)
          to label %bb5 unwind label %cleanup, !dbg !1916

bb3:                                              ; preds = %bb1
  unreachable, !dbg !1914

bb4:                                              ; preds = %bb1
  %7 = bitcast { i64, i64 }* %_6 to %"std::option::Option<usize>::Some"*, !dbg !1917
  %8 = getelementptr inbounds %"std::option::Option<usize>::Some", %"std::option::Option<usize>::Some"* %7, i32 0, i32 1, !dbg !1917
  %new_items = load i64, i64* %8, align 8, !dbg !1917
  store i64 %new_items, i64* %new_items.dbg.spill, align 8, !dbg !1917
  call void @llvm.dbg.declare(metadata i64* %new_items.dbg.spill, metadata !1903, metadata !DIExpression()), !dbg !1918
  store i64 %new_items, i64* %new_items.dbg.spill1, align 8, !dbg !1919
  call void @llvm.dbg.declare(metadata i64* %new_items.dbg.spill1, metadata !1901, metadata !DIExpression()), !dbg !1920
  %9 = bitcast %"hashbrown::raw::RawTable<(std::thread::ThreadId, usize)>"* %self to i64*, !dbg !1921
  %_14 = load i64, i64* %9, align 8, !dbg !1921
; invoke hashbrown::raw::bucket_mask_to_capacity
  %full_capacity = invoke i64 @_RNvNtCs7hm1Hx7fNtn_9hashbrown3raw23bucket_mask_to_capacityCs48Yq53b35jF_15crossbeam_utils(i64 %_14)
          to label %bb6 unwind label %cleanup, !dbg !1922

bb5:                                              ; preds = %bb2
  %_11.0 = extractvalue { i64, i64 } %6, 0, !dbg !1916
  %_11.1 = extractvalue { i64, i64 } %6, 1, !dbg !1916
  %10 = bitcast %"std::result::Result<(), hashbrown::TryReserveError>"* %0 to %"std::result::Result<(), hashbrown::TryReserveError>::Err"*, !dbg !1923
  %11 = getelementptr inbounds %"std::result::Result<(), hashbrown::TryReserveError>::Err", %"std::result::Result<(), hashbrown::TryReserveError>::Err"* %10, i32 0, i32 1, !dbg !1923
  %12 = getelementptr inbounds { i64, i64 }, { i64, i64 }* %11, i32 0, i32 0, !dbg !1923
  store i64 %_11.0, i64* %12, align 8, !dbg !1923
  %13 = getelementptr inbounds { i64, i64 }, { i64, i64 }* %11, i32 0, i32 1, !dbg !1923
  store i64 %_11.1, i64* %13, align 8, !dbg !1923
  %14 = bitcast %"std::result::Result<(), hashbrown::TryReserveError>"* %0 to i64*, !dbg !1923
  store i64 1, i64* %14, align 8, !dbg !1923
  br label %bb13, !dbg !1924

bb6:                                              ; preds = %bb4
  store i64 %full_capacity, i64* %full_capacity.dbg.spill, align 8, !dbg !1922
  call void @llvm.dbg.declare(metadata i64* %full_capacity.dbg.spill, metadata !1905, metadata !DIExpression()), !dbg !1925
  %_17 = udiv i64 %full_capacity, 2, !dbg !1926
  %_15 = icmp ule i64 %new_items, %_17, !dbg !1927
  br i1 %_15, label %bb7, label %bb8, !dbg !1928

bb7:                                              ; preds = %bb6
  store i8 0, i8* %_29, align 1, !dbg !1929
; invoke <hashbrown::raw::RawTable<(std::thread::ThreadId, usize)>>::rehash_in_place::<<hashbrown::map::HashMap<std::thread::ThreadId, usize, std::collections::hash::map::RandomState>>::insert::{closure#1}>
  invoke void @_RINvMs3_NtCs7hm1Hx7fNtn_9hashbrown3rawINtB6_8RawTableTNtNtCs2bNvlddUlXM_3std6thread8ThreadIdjEE15rehash_in_placeNCNvMs0_NtB8_3mapINtB1U_7HashMapBQ_jNtNtNtNtBU_11collections4hash3map11RandomStateE6inserts_0ECs48Yq53b35jF_15crossbeam_utils(%"hashbrown::raw::RawTable<(std::thread::ThreadId, usize)>"* align 8 dereferenceable(32) %self, i64* noalias readonly align 8 dereferenceable(8) %hasher)
          to label %bb9 unwind label %cleanup, !dbg !1930

bb8:                                              ; preds = %bb6
  %_25 = add i64 %full_capacity, 1, !dbg !1931
; invoke <usize as core::cmp::Ord>::max
  %_23 = invoke i64 @_RNvYjNtNtCs3p84KrD9aKt_4core3cmp3Ord3maxCs48Yq53b35jF_15crossbeam_utils(i64 %new_items, i64 %_25)
          to label %bb10 unwind label %cleanup, !dbg !1932

bb9:                                              ; preds = %bb7
  %15 = bitcast %"std::result::Result<(), hashbrown::TryReserveError>"* %0 to %"std::result::Result<(), hashbrown::TryReserveError>::Ok"*, !dbg !1933
  %16 = getelementptr inbounds %"std::result::Result<(), hashbrown::TryReserveError>::Ok", %"std::result::Result<(), hashbrown::TryReserveError>::Ok"* %15, i32 0, i32 1, !dbg !1933
  %17 = bitcast %"std::result::Result<(), hashbrown::TryReserveError>"* %0 to i64*, !dbg !1933
  store i64 0, i64* %17, align 8, !dbg !1933
  br label %bb12, !dbg !1928

bb10:                                             ; preds = %bb8
  store i8 0, i8* %_29, align 1, !dbg !1934
; invoke <hashbrown::raw::RawTable<(std::thread::ThreadId, usize)>>::resize::<<hashbrown::map::HashMap<std::thread::ThreadId, usize, std::collections::hash::map::RandomState>>::insert::{closure#1}>
  invoke void @_RINvMs3_NtCs7hm1Hx7fNtn_9hashbrown3rawINtB6_8RawTableTNtNtCs2bNvlddUlXM_3std6thread8ThreadIdjEE6resizeNCNvMs0_NtB8_3mapINtB1K_7HashMapBQ_jNtNtNtNtBU_11collections4hash3map11RandomStateE6inserts_0ECs48Yq53b35jF_15crossbeam_utils(%"std::result::Result<(), hashbrown::TryReserveError>"* noalias nocapture sret dereferenceable(24) %0, %"hashbrown::raw::RawTable<(std::thread::ThreadId, usize)>"* align 8 dereferenceable(32) %self, i64 %_23, i64* noalias readonly align 8 dereferenceable(8) %hasher, i1 zeroext %fallability)
          to label %bb11 unwind label %cleanup, !dbg !1935

bb11:                                             ; preds = %bb10
  br label %bb12, !dbg !1928

bb12:                                             ; preds = %bb11, %bb9
  br label %bb13, !dbg !1924

bb13:                                             ; preds = %bb5, %bb12
  ret void, !dbg !1936

bb14:                                             ; preds = %bb15, %bb16
  %18 = bitcast { i8*, i32 }* %1 to i8**, !dbg !1937
  %19 = load i8*, i8** %18, align 8, !dbg !1937
  %20 = getelementptr inbounds { i8*, i32 }, { i8*, i32 }* %1, i32 0, i32 1, !dbg !1937
  %21 = load i32, i32* %20, align 8, !dbg !1937
  %22 = insertvalue { i8*, i32 } undef, i8* %19, 0, !dbg !1937
  %23 = insertvalue { i8*, i32 } %22, i32 %21, 1, !dbg !1937
  resume { i8*, i32 } %23, !dbg !1937

bb15:                                             ; preds = %bb16
  br label %bb14, !dbg !1924

bb16:                                             ; preds = %cleanup
  %24 = load i8, i8* %_29, align 1, !dbg !1924, !range !947
  %25 = trunc i8 %24 to i1, !dbg !1924
  br i1 %25, label %bb15, label %bb14, !dbg !1924

cleanup:                                          ; preds = %bb2, %bb10, %bb8, %bb7, %bb4, %start
  %26 = landingpad { i8*, i32 }
          cleanup
  %27 = extractvalue { i8*, i32 } %26, 0
  %28 = extractvalue { i8*, i32 } %26, 1
  %29 = getelementptr inbounds { i8*, i32 }, { i8*, i32 }* %1, i32 0, i32 0
  store i8* %27, i8** %29, align 8
  %30 = getelementptr inbounds { i8*, i32 }, { i8*, i32 }* %1, i32 0, i32 1
  store i32 %28, i32* %30, align 8
  br label %bb16
}

; <hashbrown::raw::RawTable<(std::thread::ThreadId, usize)>>::rehash_in_place::<<hashbrown::map::HashMap<std::thread::ThreadId, usize, std::collections::hash::map::RandomState>>::insert::{closure#1}>
; Function Attrs: nonlazybind uwtable
define void @_RINvMs3_NtCs7hm1Hx7fNtn_9hashbrown3rawINtB6_8RawTableTNtNtCs2bNvlddUlXM_3std6thread8ThreadIdjEE15rehash_in_placeNCNvMs0_NtB8_3mapINtB1U_7HashMapBQ_jNtNtNtNtBU_11collections4hash3map11RandomStateE6inserts_0ECs48Yq53b35jF_15crossbeam_utils(%"hashbrown::raw::RawTable<(std::thread::ThreadId, usize)>"* align 8 dereferenceable(32) %self, i64* noalias readonly align 8 dereferenceable(8) %0) unnamed_addr #1 personality i32 (i32, i32, i64, %"unwind::libunwind::_Unwind_Exception"*, %"unwind::libunwind::_Unwind_Context"*)* @rust_eh_personality !dbg !1938 {
start:
  %prev_ctrl.dbg.spill = alloca i8, align 1
  %1 = alloca i8, align 1
  %new_i.dbg.spill = alloca i64, align 8
  %i.dbg.spill8 = alloca i64, align 8
  %__next.dbg.spill7 = alloca i64, align 8
  %val.dbg.spill6 = alloca i64, align 8
  %2 = alloca <2 x i64>, align 16
  %group.dbg.spill3 = alloca <2 x i64>, align 16
  %3 = alloca <2 x i64>, align 16
  %4 = alloca <2 x i64>, align 16
  %group.dbg.spill = alloca <2 x i64>, align 16
  %5 = alloca <2 x i64>, align 16
  %i.dbg.spill = alloca i64, align 8
  %__next.dbg.spill = alloca i64, align 8
  %val.dbg.spill = alloca i64, align 8
  %6 = alloca { i8*, i32 }, align 8
  %self.dbg.spill = alloca %"hashbrown::raw::RawTable<(std::thread::ThreadId, usize)>"*, align 8
  %_163 = alloca i8, align 1
  %_144 = alloca i64*, align 8
  %_129 = alloca i64*, align 8
  %_98 = alloca i64, align 8
  %_94 = alloca i64, align 8
  %probe_index = alloca { i64*, i64* }, align 8
  %_78 = alloca i64*, align 8
  %hash = alloca i64, align 8
  %item = alloca i64*, align 8
  %_57 = alloca { i64, i64 }, align 8
  %iter1 = alloca { i64, i64 }, align 8
  %_50 = alloca { i64, i64 }, align 8
  %_48 = alloca %"[closure@hashbrown::raw::RawTable<(std::thread::ThreadId, usize)>::rehash_in_place<[closure@hashbrown::map::HashMap<std::thread::ThreadId, usize, std::collections::hash_map::RandomState>::insert::{closure#1}]>::{closure#0}]", align 1
  %guard = alloca i64*, align 8
  %_10 = alloca { i64, i64 }, align 8
  %iter = alloca %"std::iter::StepBy<std::ops::Range<usize>>", align 8
  %_5 = alloca { i64, i64 }, align 8
  %_4 = alloca %"std::iter::StepBy<std::ops::Range<usize>>", align 8
  %_3 = alloca %"std::iter::StepBy<std::ops::Range<usize>>", align 8
  %hasher = alloca i64*, align 8
  store i64* %0, i64** %hasher, align 8
  store %"hashbrown::raw::RawTable<(std::thread::ThreadId, usize)>"* %self, %"hashbrown::raw::RawTable<(std::thread::ThreadId, usize)>"** %self.dbg.spill, align 8
  call void @llvm.dbg.declare(metadata %"hashbrown::raw::RawTable<(std::thread::ThreadId, usize)>"** %self.dbg.spill, metadata !1942, metadata !DIExpression()), !dbg !2031
  call void @llvm.dbg.declare(metadata i64** %hasher, metadata !1943, metadata !DIExpression()), !dbg !2032
  call void @llvm.dbg.declare(metadata %"std::iter::StepBy<std::ops::Range<usize>>"* %iter, metadata !1944, metadata !DIExpression()), !dbg !2033
  call void @llvm.dbg.declare(metadata i64** %guard, metadata !1985, metadata !DIExpression()), !dbg !2034
  call void @llvm.dbg.declare(metadata { i64, i64 }* %iter1, metadata !1998, metadata !DIExpression()), !dbg !2035
  call void @llvm.dbg.declare(metadata i64** %item, metadata !2006, metadata !DIExpression()), !dbg !2036
  call void @llvm.dbg.declare(metadata i64* %hash, metadata !2008, metadata !DIExpression()), !dbg !2037
  call void @llvm.dbg.declare(metadata { i64*, i64* }* %probe_index, metadata !2012, metadata !DIExpression()), !dbg !2038
  store i8 0, i8* %_163, align 1, !dbg !2039
; invoke <hashbrown::raw::RawTable<(std::thread::ThreadId, usize)>>::buckets
  %_6 = invoke i64 @_RNvMs3_NtCs7hm1Hx7fNtn_9hashbrown3rawINtB5_8RawTableTNtNtCs2bNvlddUlXM_3std6thread8ThreadIdjEE7bucketsCs48Yq53b35jF_15crossbeam_utils(%"hashbrown::raw::RawTable<(std::thread::ThreadId, usize)>"* noalias readonly align 8 dereferenceable(32) %self)
          to label %bb1 unwind label %cleanup, !dbg !2040

bb1:                                              ; preds = %start
  %7 = bitcast { i64, i64 }* %_5 to i64*, !dbg !2039
  store i64 0, i64* %7, align 8, !dbg !2039
  %8 = getelementptr inbounds { i64, i64 }, { i64, i64 }* %_5, i32 0, i32 1, !dbg !2039
  store i64 %_6, i64* %8, align 8, !dbg !2039
  %9 = getelementptr inbounds { i64, i64 }, { i64, i64 }* %_5, i32 0, i32 0, !dbg !2039
  %10 = load i64, i64* %9, align 8, !dbg !2039
  %11 = getelementptr inbounds { i64, i64 }, { i64, i64 }* %_5, i32 0, i32 1, !dbg !2039
  %12 = load i64, i64* %11, align 8, !dbg !2039
; invoke <core::ops::range::Range<usize> as core::iter::traits::iterator::Iterator>::step_by
  invoke void @_RNvYINtNtNtCs3p84KrD9aKt_4core3ops5range5RangejENtNtNtNtB9_4iter6traits8iterator8Iterator7step_byCs48Yq53b35jF_15crossbeam_utils(%"std::iter::StepBy<std::ops::Range<usize>>"* noalias nocapture sret dereferenceable(32) %_4, i64 %10, i64 %12, i64 16)
          to label %bb2 unwind label %cleanup, !dbg !2039

bb2:                                              ; preds = %bb1
; invoke <core::iter::adapters::step_by::StepBy<core::ops::range::Range<usize>> as core::iter::traits::collect::IntoIterator>::into_iter
  invoke void @_RNvXNtNtNtCs3p84KrD9aKt_4core4iter6traits7collectINtNtNtB6_8adapters7step_by6StepByINtNtNtB8_3ops5range5RangejEENtB2_12IntoIterator9into_iterCs48Yq53b35jF_15crossbeam_utils(%"std::iter::StepBy<std::ops::Range<usize>>"* noalias nocapture sret dereferenceable(32) %_3, %"std::iter::StepBy<std::ops::Range<usize>>"* noalias nocapture dereferenceable(32) %_4)
          to label %bb3 unwind label %cleanup, !dbg !2039

bb3:                                              ; preds = %bb2
  %13 = bitcast %"std::iter::StepBy<std::ops::Range<usize>>"* %iter to i8*, !dbg !2039
  %14 = bitcast %"std::iter::StepBy<std::ops::Range<usize>>"* %_3 to i8*, !dbg !2039
  call void @llvm.memcpy.p0i8.p0i8.i64(i8* align 8 %13, i8* align 8 %14, i64 32, i1 false), !dbg !2039
  br label %bb4, !dbg !2041

bb4:                                              ; preds = %bb13, %bb3
; invoke <core::iter::adapters::step_by::StepBy<core::ops::range::Range<usize>> as core::iter::traits::iterator::Iterator>::next
  %15 = invoke { i64, i64 } @_RNvXs_NtNtNtCs3p84KrD9aKt_4core4iter8adapters7step_byINtB4_6StepByINtNtNtBa_3ops5range5RangejEENtNtNtB8_6traits8iterator8Iterator4nextCs48Yq53b35jF_15crossbeam_utils(%"std::iter::StepBy<std::ops::Range<usize>>"* align 8 dereferenceable(32) %iter)
          to label %bb5 unwind label %cleanup, !dbg !2042

bb5:                                              ; preds = %bb4
  store { i64, i64 } %15, { i64, i64 }* %_10, align 8, !dbg !2042
  %16 = bitcast { i64, i64 }* %_10 to i64*, !dbg !2043
  %_13 = load i64, i64* %16, align 8, !dbg !2043, !range !1089
  switch i64 %_13, label %bb7 [
    i64 0, label %bb6
    i64 1, label %bb8
  ], !dbg !2043

bb6:                                              ; preds = %bb5
; invoke <hashbrown::raw::RawTable<(std::thread::ThreadId, usize)>>::buckets
  %_30 = invoke i64 @_RNvMs3_NtCs7hm1Hx7fNtn_9hashbrown3rawINtB5_8RawTableTNtNtCs2bNvlddUlXM_3std6thread8ThreadIdjEE7bucketsCs48Yq53b35jF_15crossbeam_utils(%"hashbrown::raw::RawTable<(std::thread::ThreadId, usize)>"* noalias readonly align 8 dereferenceable(32) %self)
          to label %bb14 unwind label %cleanup, !dbg !2044

bb7:                                              ; preds = %bb5
  unreachable, !dbg !2042

bb8:                                              ; preds = %bb5
  %17 = bitcast { i64, i64 }* %_10 to %"std::option::Option<usize>::Some"*, !dbg !2043
  %18 = getelementptr inbounds %"std::option::Option<usize>::Some", %"std::option::Option<usize>::Some"* %17, i32 0, i32 1, !dbg !2043
  %val = load i64, i64* %18, align 8, !dbg !2043
  store i64 %val, i64* %val.dbg.spill, align 8, !dbg !2043
  call void @llvm.dbg.declare(metadata i64* %val.dbg.spill, metadata !1966, metadata !DIExpression()), !dbg !2045
  store i64 %val, i64* %__next.dbg.spill, align 8, !dbg !2045
  call void @llvm.dbg.declare(metadata i64* %__next.dbg.spill, metadata !1964, metadata !DIExpression()), !dbg !2042
  store i64 %val, i64* %i.dbg.spill, align 8, !dbg !2042
  call void @llvm.dbg.declare(metadata i64* %i.dbg.spill, metadata !1968, metadata !DIExpression()), !dbg !2046
; invoke <hashbrown::raw::RawTable<(std::thread::ThreadId, usize)>>::ctrl
  %_19 = invoke i8* @_RNvMs3_NtCs7hm1Hx7fNtn_9hashbrown3rawINtB5_8RawTableTNtNtCs2bNvlddUlXM_3std6thread8ThreadIdjEE4ctrlCs48Yq53b35jF_15crossbeam_utils(%"hashbrown::raw::RawTable<(std::thread::ThreadId, usize)>"* noalias readonly align 8 dereferenceable(32) %self, i64 %val)
          to label %bb9 unwind label %cleanup, !dbg !2047

bb9:                                              ; preds = %bb8
; invoke <hashbrown::raw::sse2::Group>::load_aligned
  invoke void @_RNvMNtNtCs7hm1Hx7fNtn_9hashbrown3raw4sse2NtB2_5Group12load_alignedCs48Yq53b35jF_15crossbeam_utils(<2 x i64>* noalias nocapture sret dereferenceable(16) %5, i8* %_19)
          to label %bb10 unwind label %cleanup, !dbg !2048

bb10:                                             ; preds = %bb9
  %group = load <2 x i64>, <2 x i64>* %5, align 16, !dbg !2048
  store <2 x i64> %group, <2 x i64>* %group.dbg.spill, align 16, !dbg !2048
  call void @llvm.dbg.declare(metadata <2 x i64>* %group.dbg.spill, metadata !1970, metadata !DIExpression()), !dbg !2049
  store <2 x i64> %group, <2 x i64>* %3, align 16, !dbg !2050
; invoke <hashbrown::raw::sse2::Group>::convert_special_to_empty_and_full_to_deleted
  invoke void @_RNvMNtNtCs7hm1Hx7fNtn_9hashbrown3raw4sse2NtB2_5Group44convert_special_to_empty_and_full_to_deletedCs48Yq53b35jF_15crossbeam_utils(<2 x i64>* noalias nocapture sret dereferenceable(16) %4, <2 x i64>* noalias nocapture dereferenceable(16) %3)
          to label %bb11 unwind label %cleanup, !dbg !2050

bb11:                                             ; preds = %bb10
  %group2 = load <2 x i64>, <2 x i64>* %4, align 16, !dbg !2050
  store <2 x i64> %group2, <2 x i64>* %group.dbg.spill3, align 16, !dbg !2050
  call void @llvm.dbg.declare(metadata <2 x i64>* %group.dbg.spill3, metadata !1983, metadata !DIExpression()), !dbg !2051
; invoke <hashbrown::raw::RawTable<(std::thread::ThreadId, usize)>>::ctrl
  %_26 = invoke i8* @_RNvMs3_NtCs7hm1Hx7fNtn_9hashbrown3rawINtB5_8RawTableTNtNtCs2bNvlddUlXM_3std6thread8ThreadIdjEE4ctrlCs48Yq53b35jF_15crossbeam_utils(%"hashbrown::raw::RawTable<(std::thread::ThreadId, usize)>"* noalias readonly align 8 dereferenceable(32) %self, i64 %val)
          to label %bb12 unwind label %cleanup, !dbg !2052

bb12:                                             ; preds = %bb11
  store <2 x i64> %group2, <2 x i64>* %2, align 16, !dbg !2053
; invoke <hashbrown::raw::sse2::Group>::store_aligned
  invoke void @_RNvMNtNtCs7hm1Hx7fNtn_9hashbrown3raw4sse2NtB2_5Group13store_alignedCs48Yq53b35jF_15crossbeam_utils(<2 x i64>* noalias nocapture dereferenceable(16) %2, i8* %_26)
          to label %bb13 unwind label %cleanup, !dbg !2053

bb13:                                             ; preds = %bb12
  br label %bb4, !dbg !2041

bb14:                                             ; preds = %bb6
  %_29 = icmp ult i64 %_30, 16, !dbg !2044
  br i1 %_29, label %bb15, label %bb16, !dbg !2054

bb15:                                             ; preds = %bb14
; invoke <hashbrown::raw::RawTable<(std::thread::ThreadId, usize)>>::ctrl
  %_33 = invoke i8* @_RNvMs3_NtCs7hm1Hx7fNtn_9hashbrown3rawINtB5_8RawTableTNtNtCs2bNvlddUlXM_3std6thread8ThreadIdjEE4ctrlCs48Yq53b35jF_15crossbeam_utils(%"hashbrown::raw::RawTable<(std::thread::ThreadId, usize)>"* noalias readonly align 8 dereferenceable(32) %self, i64 0)
          to label %bb17 unwind label %cleanup, !dbg !2055

bb16:                                             ; preds = %bb14
; invoke <hashbrown::raw::RawTable<(std::thread::ThreadId, usize)>>::ctrl
  %_40 = invoke i8* @_RNvMs3_NtCs7hm1Hx7fNtn_9hashbrown3rawINtB5_8RawTableTNtNtCs2bNvlddUlXM_3std6thread8ThreadIdjEE4ctrlCs48Yq53b35jF_15crossbeam_utils(%"hashbrown::raw::RawTable<(std::thread::ThreadId, usize)>"* noalias readonly align 8 dereferenceable(32) %self, i64 0)
          to label %bb21 unwind label %cleanup, !dbg !2056

bb17:                                             ; preds = %bb15
; invoke <hashbrown::raw::RawTable<(std::thread::ThreadId, usize)>>::ctrl
  %_35 = invoke i8* @_RNvMs3_NtCs7hm1Hx7fNtn_9hashbrown3rawINtB5_8RawTableTNtNtCs2bNvlddUlXM_3std6thread8ThreadIdjEE4ctrlCs48Yq53b35jF_15crossbeam_utils(%"hashbrown::raw::RawTable<(std::thread::ThreadId, usize)>"* noalias readonly align 8 dereferenceable(32) %self, i64 16)
          to label %bb18 unwind label %cleanup, !dbg !2057

bb18:                                             ; preds = %bb17
; invoke <hashbrown::raw::RawTable<(std::thread::ThreadId, usize)>>::buckets
  %_37 = invoke i64 @_RNvMs3_NtCs7hm1Hx7fNtn_9hashbrown3rawINtB5_8RawTableTNtNtCs2bNvlddUlXM_3std6thread8ThreadIdjEE7bucketsCs48Yq53b35jF_15crossbeam_utils(%"hashbrown::raw::RawTable<(std::thread::ThreadId, usize)>"* noalias readonly align 8 dereferenceable(32) %self)
          to label %bb19 unwind label %cleanup, !dbg !2058

bb19:                                             ; preds = %bb18
; invoke <*mut u8>::copy_to
  invoke void @_RNvMNtNtCs3p84KrD9aKt_4core3ptr7mut_ptrOh7copy_toCs48Yq53b35jF_15crossbeam_utils(i8* %_33, i8* %_35, i64 %_37)
          to label %bb20 unwind label %cleanup, !dbg !2055

bb20:                                             ; preds = %bb19
  br label %bb25, !dbg !2054

bb21:                                             ; preds = %bb16
; invoke <hashbrown::raw::RawTable<(std::thread::ThreadId, usize)>>::buckets
  %_44 = invoke i64 @_RNvMs3_NtCs7hm1Hx7fNtn_9hashbrown3rawINtB5_8RawTableTNtNtCs2bNvlddUlXM_3std6thread8ThreadIdjEE7bucketsCs48Yq53b35jF_15crossbeam_utils(%"hashbrown::raw::RawTable<(std::thread::ThreadId, usize)>"* noalias readonly align 8 dereferenceable(32) %self)
          to label %bb22 unwind label %cleanup, !dbg !2059

bb22:                                             ; preds = %bb21
; invoke <hashbrown::raw::RawTable<(std::thread::ThreadId, usize)>>::ctrl
  %_42 = invoke i8* @_RNvMs3_NtCs7hm1Hx7fNtn_9hashbrown3rawINtB5_8RawTableTNtNtCs2bNvlddUlXM_3std6thread8ThreadIdjEE4ctrlCs48Yq53b35jF_15crossbeam_utils(%"hashbrown::raw::RawTable<(std::thread::ThreadId, usize)>"* noalias readonly align 8 dereferenceable(32) %self, i64 %_44)
          to label %bb23 unwind label %cleanup, !dbg !2060

bb23:                                             ; preds = %bb22
; invoke <*mut u8>::copy_to
  invoke void @_RNvMNtNtCs3p84KrD9aKt_4core3ptr7mut_ptrOh7copy_toCs48Yq53b35jF_15crossbeam_utils(i8* %_40, i8* %_42, i64 16)
          to label %bb24 unwind label %cleanup, !dbg !2056

bb24:                                             ; preds = %bb23
  br label %bb25, !dbg !2054

bb25:                                             ; preds = %bb24, %bb20
; invoke hashbrown::scopeguard::guard::<&mut hashbrown::raw::RawTable<(std::thread::ThreadId, usize)>, <hashbrown::raw::RawTable<(std::thread::ThreadId, usize)>>::rehash_in_place<<hashbrown::map::HashMap<std::thread::ThreadId, usize, std::collections::hash::map::RandomState>>::insert::{closure#1}>::{closure#0}>
  %19 = invoke align 8 dereferenceable(32) i64* @_RINvNtCs7hm1Hx7fNtn_9hashbrown10scopeguard5guardQINtNtB4_3raw8RawTableTNtNtCs2bNvlddUlXM_3std6thread8ThreadIdjEENCINvMs3_BO_BL_15rehash_in_placeNCNvMs0_NtB4_3mapINtB2q_7HashMapB17_jNtNtNtNtB1b_11collections4hash3map11RandomStateE6inserts_0E0ECs48Yq53b35jF_15crossbeam_utils(%"hashbrown::raw::RawTable<(std::thread::ThreadId, usize)>"* align 8 dereferenceable(32) %self)
          to label %bb26 unwind label %cleanup, !dbg !2061

bb26:                                             ; preds = %bb25
  store i64* %19, i64** %guard, align 8, !dbg !2061
  store i8 1, i8* %_163, align 1, !dbg !2062
; invoke <hashbrown::scopeguard::ScopeGuard<&mut hashbrown::raw::RawTable<(std::thread::ThreadId, usize)>, <hashbrown::raw::RawTable<(std::thread::ThreadId, usize)>>::rehash_in_place<<hashbrown::map::HashMap<std::thread::ThreadId, usize, std::collections::hash::map::RandomState>>::insert::{closure#1}>::{closure#0}> as core::ops::deref::Deref>::deref
  %_53 = invoke align 8 dereferenceable(8) %"hashbrown::raw::RawTable<(std::thread::ThreadId, usize)>"** @_RNvXNtCs7hm1Hx7fNtn_9hashbrown10scopeguardINtB2_10ScopeGuardQINtNtB4_3raw8RawTableTNtNtCs2bNvlddUlXM_3std6thread8ThreadIdjEENCINvMs3_B10_BX_15rehash_in_placeNCNvMs0_NtB4_3mapINtB2D_7HashMapB1j_jNtNtNtNtB1n_11collections4hash3map11RandomStateE6inserts_0E0ENtNtNtCs3p84KrD9aKt_4core3ops5deref5Deref5derefCs48Yq53b35jF_15crossbeam_utils(i64** noalias readonly align 8 dereferenceable(8) %guard)
          to label %bb27 unwind label %cleanup4, !dbg !2063

bb27:                                             ; preds = %bb26
  %_52 = load %"hashbrown::raw::RawTable<(std::thread::ThreadId, usize)>"*, %"hashbrown::raw::RawTable<(std::thread::ThreadId, usize)>"** %_53, align 8, !dbg !2063, !nonnull !4
; invoke <hashbrown::raw::RawTable<(std::thread::ThreadId, usize)>>::buckets
  %_51 = invoke i64 @_RNvMs3_NtCs7hm1Hx7fNtn_9hashbrown3rawINtB5_8RawTableTNtNtCs2bNvlddUlXM_3std6thread8ThreadIdjEE7bucketsCs48Yq53b35jF_15crossbeam_utils(%"hashbrown::raw::RawTable<(std::thread::ThreadId, usize)>"* noalias readonly align 8 dereferenceable(32) %_52)
          to label %bb28 unwind label %cleanup4, !dbg !2063

bb28:                                             ; preds = %bb27
  %20 = bitcast { i64, i64 }* %_50 to i64*, !dbg !2064
  store i64 0, i64* %20, align 8, !dbg !2064
  %21 = getelementptr inbounds { i64, i64 }, { i64, i64 }* %_50, i32 0, i32 1, !dbg !2064
  store i64 %_51, i64* %21, align 8, !dbg !2064
  %22 = getelementptr inbounds { i64, i64 }, { i64, i64 }* %_50, i32 0, i32 0, !dbg !2064
  %23 = load i64, i64* %22, align 8, !dbg !2064
  %24 = getelementptr inbounds { i64, i64 }, { i64, i64 }* %_50, i32 0, i32 1, !dbg !2064
  %25 = load i64, i64* %24, align 8, !dbg !2064
; invoke <core::ops::range::Range<usize> as core::iter::traits::collect::IntoIterator>::into_iter
  %26 = invoke { i64, i64 } @_RNvXNtNtNtCs3p84KrD9aKt_4core4iter6traits7collectINtNtNtB8_3ops5range5RangejENtB2_12IntoIterator9into_iterCs48Yq53b35jF_15crossbeam_utils(i64 %23, i64 %25)
          to label %bb29 unwind label %cleanup4, !dbg !2064

bb29:                                             ; preds = %bb28
  %_49.0 = extractvalue { i64, i64 } %26, 0, !dbg !2064
  %_49.1 = extractvalue { i64, i64 } %26, 1, !dbg !2064
  %27 = getelementptr inbounds { i64, i64 }, { i64, i64 }* %iter1, i32 0, i32 0, !dbg !2064
  store i64 %_49.0, i64* %27, align 8, !dbg !2064
  %28 = getelementptr inbounds { i64, i64 }, { i64, i64 }* %iter1, i32 0, i32 1, !dbg !2064
  store i64 %_49.1, i64* %28, align 8, !dbg !2064
  br label %bb30, !dbg !2065

bb30:                                             ; preds = %bb72, %bb29
; invoke <core::ops::range::Range<usize> as core::iter::traits::iterator::Iterator>::next
  %29 = invoke { i64, i64 } @_RNvXs_NtNtCs3p84KrD9aKt_4core4iter5rangeINtNtNtB8_3ops5range5RangejENtNtNtB6_6traits8iterator8Iterator4nextCs48Yq53b35jF_15crossbeam_utils({ i64, i64 }* align 8 dereferenceable(16) %iter1)
          to label %bb31 unwind label %cleanup4, !dbg !2066

bb31:                                             ; preds = %bb30
  store { i64, i64 } %29, { i64, i64 }* %_57, align 8, !dbg !2066
  %30 = bitcast { i64, i64 }* %_57 to i64*, !dbg !2067
  %_60 = load i64, i64* %30, align 8, !dbg !2067, !range !1089
  switch i64 %_60, label %bb33 [
    i64 0, label %bb32
    i64 1, label %bb34
  ], !dbg !2067

bb32:                                             ; preds = %bb31
; invoke <hashbrown::scopeguard::ScopeGuard<&mut hashbrown::raw::RawTable<(std::thread::ThreadId, usize)>, <hashbrown::raw::RawTable<(std::thread::ThreadId, usize)>>::rehash_in_place<<hashbrown::map::HashMap<std::thread::ThreadId, usize, std::collections::hash::map::RandomState>>::insert::{closure#1}>::{closure#0}> as core::ops::deref::Deref>::deref
  %_154 = invoke align 8 dereferenceable(8) %"hashbrown::raw::RawTable<(std::thread::ThreadId, usize)>"** @_RNvXNtCs7hm1Hx7fNtn_9hashbrown10scopeguardINtB2_10ScopeGuardQINtNtB4_3raw8RawTableTNtNtCs2bNvlddUlXM_3std6thread8ThreadIdjEENCINvMs3_B10_BX_15rehash_in_placeNCNvMs0_NtB4_3mapINtB2D_7HashMapB1j_jNtNtNtNtB1n_11collections4hash3map11RandomStateE6inserts_0E0ENtNtNtCs3p84KrD9aKt_4core3ops5deref5Deref5derefCs48Yq53b35jF_15crossbeam_utils(i64** noalias readonly align 8 dereferenceable(8) %guard)
          to label %bb73 unwind label %cleanup4, !dbg !2068

bb33:                                             ; preds = %bb31
  unreachable, !dbg !2066

bb34:                                             ; preds = %bb31
  %31 = bitcast { i64, i64 }* %_57 to %"std::option::Option<usize>::Some"*, !dbg !2067
  %32 = getelementptr inbounds %"std::option::Option<usize>::Some", %"std::option::Option<usize>::Some"* %31, i32 0, i32 1, !dbg !2067
  %val5 = load i64, i64* %32, align 8, !dbg !2067
  store i64 %val5, i64* %val.dbg.spill6, align 8, !dbg !2067
  call void @llvm.dbg.declare(metadata i64* %val.dbg.spill6, metadata !2002, metadata !DIExpression()), !dbg !2069
  store i64 %val5, i64* %__next.dbg.spill7, align 8, !dbg !2069
  call void @llvm.dbg.declare(metadata i64* %__next.dbg.spill7, metadata !2000, metadata !DIExpression()), !dbg !2066
  store i64 %val5, i64* %i.dbg.spill8, align 8, !dbg !2066
  call void @llvm.dbg.declare(metadata i64* %i.dbg.spill8, metadata !2004, metadata !DIExpression()), !dbg !2070
; invoke <hashbrown::scopeguard::ScopeGuard<&mut hashbrown::raw::RawTable<(std::thread::ThreadId, usize)>, <hashbrown::raw::RawTable<(std::thread::ThreadId, usize)>>::rehash_in_place<<hashbrown::map::HashMap<std::thread::ThreadId, usize, std::collections::hash::map::RandomState>>::insert::{closure#1}>::{closure#0}> as core::ops::deref::Deref>::deref
  %_68 = invoke align 8 dereferenceable(8) %"hashbrown::raw::RawTable<(std::thread::ThreadId, usize)>"** @_RNvXNtCs7hm1Hx7fNtn_9hashbrown10scopeguardINtB2_10ScopeGuardQINtNtB4_3raw8RawTableTNtNtCs2bNvlddUlXM_3std6thread8ThreadIdjEENCINvMs3_B10_BX_15rehash_in_placeNCNvMs0_NtB4_3mapINtB2D_7HashMapB1j_jNtNtNtNtB1n_11collections4hash3map11RandomStateE6inserts_0E0ENtNtNtCs3p84KrD9aKt_4core3ops5deref5Deref5derefCs48Yq53b35jF_15crossbeam_utils(i64** noalias readonly align 8 dereferenceable(8) %guard)
          to label %bb35 unwind label %cleanup4, !dbg !2071

bb35:                                             ; preds = %bb34
  %_67 = load %"hashbrown::raw::RawTable<(std::thread::ThreadId, usize)>"*, %"hashbrown::raw::RawTable<(std::thread::ThreadId, usize)>"** %_68, align 8, !dbg !2071, !nonnull !4
; invoke <hashbrown::raw::RawTable<(std::thread::ThreadId, usize)>>::ctrl
  %_66 = invoke i8* @_RNvMs3_NtCs7hm1Hx7fNtn_9hashbrown3rawINtB5_8RawTableTNtNtCs2bNvlddUlXM_3std6thread8ThreadIdjEE4ctrlCs48Yq53b35jF_15crossbeam_utils(%"hashbrown::raw::RawTable<(std::thread::ThreadId, usize)>"* noalias readonly align 8 dereferenceable(32) %_67, i64 %val5)
          to label %bb36 unwind label %cleanup4, !dbg !2071

bb36:                                             ; preds = %bb35
  %_65 = load i8, i8* %_66, align 1, !dbg !2072
  %_64 = icmp ne i8 %_65, -128, !dbg !2072
  br i1 %_64, label %bb71, label %bb37, !dbg !2073

bb37:                                             ; preds = %bb36
  br label %bb38, !dbg !2074

bb38:                                             ; preds = %bb69, %bb37
; invoke <hashbrown::scopeguard::ScopeGuard<&mut hashbrown::raw::RawTable<(std::thread::ThreadId, usize)>, <hashbrown::raw::RawTable<(std::thread::ThreadId, usize)>>::rehash_in_place<<hashbrown::map::HashMap<std::thread::ThreadId, usize, std::collections::hash::map::RandomState>>::insert::{closure#1}>::{closure#0}> as core::ops::deref::Deref>::deref
  %_73 = invoke align 8 dereferenceable(8) %"hashbrown::raw::RawTable<(std::thread::ThreadId, usize)>"** @_RNvXNtCs7hm1Hx7fNtn_9hashbrown10scopeguardINtB2_10ScopeGuardQINtNtB4_3raw8RawTableTNtNtCs2bNvlddUlXM_3std6thread8ThreadIdjEENCINvMs3_B10_BX_15rehash_in_placeNCNvMs0_NtB4_3mapINtB2D_7HashMapB1j_jNtNtNtNtB1n_11collections4hash3map11RandomStateE6inserts_0E0ENtNtNtCs3p84KrD9aKt_4core3ops5deref5Deref5derefCs48Yq53b35jF_15crossbeam_utils(i64** noalias readonly align 8 dereferenceable(8) %guard)
          to label %bb39 unwind label %cleanup4, !dbg !2075

bb39:                                             ; preds = %bb38
  %_72 = load %"hashbrown::raw::RawTable<(std::thread::ThreadId, usize)>"*, %"hashbrown::raw::RawTable<(std::thread::ThreadId, usize)>"** %_73, align 8, !dbg !2075, !nonnull !4
; invoke <hashbrown::raw::RawTable<(std::thread::ThreadId, usize)>>::bucket
  %33 = invoke nonnull i64* @_RNvMs3_NtCs7hm1Hx7fNtn_9hashbrown3rawINtB5_8RawTableTNtNtCs2bNvlddUlXM_3std6thread8ThreadIdjEE6bucketCs48Yq53b35jF_15crossbeam_utils(%"hashbrown::raw::RawTable<(std::thread::ThreadId, usize)>"* noalias readonly align 8 dereferenceable(32) %_72, i64 %val5)
          to label %bb40 unwind label %cleanup4, !dbg !2075

bb40:                                             ; preds = %bb39
  store i64* %33, i64** %item, align 8, !dbg !2075
; invoke <hashbrown::raw::Bucket<(std::thread::ThreadId, usize)>>::as_ref
  %_80 = invoke align 8 dereferenceable(16) { i64, i64 }* @_RNvMs2_NtCs7hm1Hx7fNtn_9hashbrown3rawINtB5_6BucketTNtNtCs2bNvlddUlXM_3std6thread8ThreadIdjEE6as_refCs48Yq53b35jF_15crossbeam_utils(i64** noalias readonly align 8 dereferenceable(8) %item)
          to label %bb41 unwind label %cleanup4, !dbg !2076

bb41:                                             ; preds = %bb40
  %34 = bitcast i64** %_78 to { i64, i64 }**, !dbg !2077
  store { i64, i64 }* %_80, { i64, i64 }** %34, align 8, !dbg !2077
  %35 = load i64*, i64** %_78, align 8, !dbg !2077, !nonnull !4
  %36 = bitcast i64* %35 to { i64, i64 }*, !dbg !2077
; invoke <hashbrown::map::HashMap<std::thread::ThreadId, usize, std::collections::hash::map::RandomState>>::insert::{closure#1}
  %37 = invoke i64 @_RNCNvMs0_NtCs7hm1Hx7fNtn_9hashbrown3mapINtB7_7HashMapNtNtCs2bNvlddUlXM_3std6thread8ThreadIdjNtNtNtNtBT_11collections4hash3map11RandomStateE6inserts_0Cs48Yq53b35jF_15crossbeam_utils(i64** noalias readonly align 8 dereferenceable(8) %hasher, { i64, i64 }* noalias readonly align 8 dereferenceable(16) %36)
          to label %bb42 unwind label %cleanup4, !dbg !2077

bb42:                                             ; preds = %bb41
  store i64 %37, i64* %hash, align 8, !dbg !2077
; invoke <hashbrown::scopeguard::ScopeGuard<&mut hashbrown::raw::RawTable<(std::thread::ThreadId, usize)>, <hashbrown::raw::RawTable<(std::thread::ThreadId, usize)>>::rehash_in_place<<hashbrown::map::HashMap<std::thread::ThreadId, usize, std::collections::hash::map::RandomState>>::insert::{closure#1}>::{closure#0}> as core::ops::deref::Deref>::deref
  %_84 = invoke align 8 dereferenceable(8) %"hashbrown::raw::RawTable<(std::thread::ThreadId, usize)>"** @_RNvXNtCs7hm1Hx7fNtn_9hashbrown10scopeguardINtB2_10ScopeGuardQINtNtB4_3raw8RawTableTNtNtCs2bNvlddUlXM_3std6thread8ThreadIdjEENCINvMs3_B10_BX_15rehash_in_placeNCNvMs0_NtB4_3mapINtB2D_7HashMapB1j_jNtNtNtNtB1n_11collections4hash3map11RandomStateE6inserts_0E0ENtNtNtCs3p84KrD9aKt_4core3ops5deref5Deref5derefCs48Yq53b35jF_15crossbeam_utils(i64** noalias readonly align 8 dereferenceable(8) %guard)
          to label %bb43 unwind label %cleanup4, !dbg !2078

bb43:                                             ; preds = %bb42
  %_83 = load %"hashbrown::raw::RawTable<(std::thread::ThreadId, usize)>"*, %"hashbrown::raw::RawTable<(std::thread::ThreadId, usize)>"** %_84, align 8, !dbg !2078, !nonnull !4
  %_86 = load i64, i64* %hash, align 8, !dbg !2079
; invoke <hashbrown::raw::RawTable<(std::thread::ThreadId, usize)>>::find_insert_slot
  %new_i = invoke i64 @_RNvMs3_NtCs7hm1Hx7fNtn_9hashbrown3rawINtB5_8RawTableTNtNtCs2bNvlddUlXM_3std6thread8ThreadIdjEE16find_insert_slotCs48Yq53b35jF_15crossbeam_utils(%"hashbrown::raw::RawTable<(std::thread::ThreadId, usize)>"* noalias readonly align 8 dereferenceable(32) %_83, i64 %_86)
          to label %bb44 unwind label %cleanup4, !dbg !2078

bb44:                                             ; preds = %bb43
  store i64 %new_i, i64* %new_i.dbg.spill, align 8, !dbg !2078
  call void @llvm.dbg.declare(metadata i64* %new_i.dbg.spill, metadata !2010, metadata !DIExpression()), !dbg !2080
  %38 = bitcast { i64*, i64* }* %probe_index to i64***, !dbg !2081
  store i64** %guard, i64*** %38, align 8, !dbg !2081
  %39 = getelementptr inbounds { i64*, i64* }, { i64*, i64* }* %probe_index, i32 0, i32 1, !dbg !2081
  store i64* %hash, i64** %39, align 8, !dbg !2081
  store i64 %val5, i64* %_94, align 8, !dbg !2082
  %40 = load i64, i64* %_94, align 8, !dbg !2082
; invoke <hashbrown::raw::RawTable<(std::thread::ThreadId, usize)>>::rehash_in_place::<<hashbrown::map::HashMap<std::thread::ThreadId, usize, std::collections::hash::map::RandomState>>::insert::{closure#1}>::{closure#1}
  %_92 = invoke i64 @_RNCINvMs3_NtCs7hm1Hx7fNtn_9hashbrown3rawINtB8_8RawTableTNtNtCs2bNvlddUlXM_3std6thread8ThreadIdjEE15rehash_in_placeNCNvMs0_NtBa_3mapINtB1W_7HashMapBS_jNtNtNtNtBW_11collections4hash3map11RandomStateE6inserts_0Es_0Cs48Yq53b35jF_15crossbeam_utils({ i64*, i64* }* noalias readonly align 8 dereferenceable(16) %probe_index, i64 %40)
          to label %bb45 unwind label %cleanup4, !dbg !2082

bb45:                                             ; preds = %bb44
  store i64 %new_i, i64* %_98, align 8, !dbg !2083
  %41 = load i64, i64* %_98, align 8, !dbg !2083
; invoke <hashbrown::raw::RawTable<(std::thread::ThreadId, usize)>>::rehash_in_place::<<hashbrown::map::HashMap<std::thread::ThreadId, usize, std::collections::hash::map::RandomState>>::insert::{closure#1}>::{closure#1}
  %_96 = invoke i64 @_RNCINvMs3_NtCs7hm1Hx7fNtn_9hashbrown3rawINtB8_8RawTableTNtNtCs2bNvlddUlXM_3std6thread8ThreadIdjEE15rehash_in_placeNCNvMs0_NtBa_3mapINtB1W_7HashMapBS_jNtNtNtNtBW_11collections4hash3map11RandomStateE6inserts_0Es_0Cs48Yq53b35jF_15crossbeam_utils({ i64*, i64* }* noalias readonly align 8 dereferenceable(16) %probe_index, i64 %41)
          to label %bb46 unwind label %cleanup4, !dbg !2083

bb46:                                             ; preds = %bb45
  %_91 = icmp eq i64 %_92, %_96, !dbg !2082
  %42 = call i1 @llvm.expect.i1(i1 %_91, i1 true), !dbg !2084
  %43 = zext i1 %42 to i8, !dbg !2084
  store i8 %43, i8* %1, align 1, !dbg !2084
  %44 = load i8, i8* %1, align 1, !dbg !2084, !range !947
  %_90 = trunc i8 %44 to i1, !dbg !2084
  br label %bb47, !dbg !2084

bb47:                                             ; preds = %bb46
  br i1 %_90, label %bb48, label %bb49, !dbg !2085

bb48:                                             ; preds = %bb47
; invoke <hashbrown::scopeguard::ScopeGuard<&mut hashbrown::raw::RawTable<(std::thread::ThreadId, usize)>, <hashbrown::raw::RawTable<(std::thread::ThreadId, usize)>>::rehash_in_place<<hashbrown::map::HashMap<std::thread::ThreadId, usize, std::collections::hash::map::RandomState>>::insert::{closure#1}>::{closure#0}> as core::ops::deref::Deref>::deref
  %_102 = invoke align 8 dereferenceable(8) %"hashbrown::raw::RawTable<(std::thread::ThreadId, usize)>"** @_RNvXNtCs7hm1Hx7fNtn_9hashbrown10scopeguardINtB2_10ScopeGuardQINtNtB4_3raw8RawTableTNtNtCs2bNvlddUlXM_3std6thread8ThreadIdjEENCINvMs3_B10_BX_15rehash_in_placeNCNvMs0_NtB4_3mapINtB2D_7HashMapB1j_jNtNtNtNtB1n_11collections4hash3map11RandomStateE6inserts_0E0ENtNtNtCs3p84KrD9aKt_4core3ops5deref5Deref5derefCs48Yq53b35jF_15crossbeam_utils(i64** noalias readonly align 8 dereferenceable(8) %guard)
          to label %bb50 unwind label %cleanup4, !dbg !2086

bb49:                                             ; preds = %bb47
; invoke <hashbrown::scopeguard::ScopeGuard<&mut hashbrown::raw::RawTable<(std::thread::ThreadId, usize)>, <hashbrown::raw::RawTable<(std::thread::ThreadId, usize)>>::rehash_in_place<<hashbrown::map::HashMap<std::thread::ThreadId, usize, std::collections::hash::map::RandomState>>::insert::{closure#1}>::{closure#0}> as core::ops::deref::Deref>::deref
  %_110 = invoke align 8 dereferenceable(8) %"hashbrown::raw::RawTable<(std::thread::ThreadId, usize)>"** @_RNvXNtCs7hm1Hx7fNtn_9hashbrown10scopeguardINtB2_10ScopeGuardQINtNtB4_3raw8RawTableTNtNtCs2bNvlddUlXM_3std6thread8ThreadIdjEENCINvMs3_B10_BX_15rehash_in_placeNCNvMs0_NtB4_3mapINtB2D_7HashMapB1j_jNtNtNtNtB1n_11collections4hash3map11RandomStateE6inserts_0E0ENtNtNtCs3p84KrD9aKt_4core3ops5deref5Deref5derefCs48Yq53b35jF_15crossbeam_utils(i64** noalias readonly align 8 dereferenceable(8) %guard)
          to label %bb53 unwind label %cleanup4, !dbg !2087

bb50:                                             ; preds = %bb48
  %_101 = load %"hashbrown::raw::RawTable<(std::thread::ThreadId, usize)>"*, %"hashbrown::raw::RawTable<(std::thread::ThreadId, usize)>"** %_102, align 8, !dbg !2086, !nonnull !4
  %_106 = load i64, i64* %hash, align 8, !dbg !2088
; invoke hashbrown::raw::h2
  %_105 = invoke i8 @_RNvNtCs7hm1Hx7fNtn_9hashbrown3raw2h2Cs48Yq53b35jF_15crossbeam_utils(i64 %_106)
          to label %bb51 unwind label %cleanup4, !dbg !2089

bb51:                                             ; preds = %bb50
; invoke <hashbrown::raw::RawTable<(std::thread::ThreadId, usize)>>::set_ctrl
  invoke void @_RNvMs3_NtCs7hm1Hx7fNtn_9hashbrown3rawINtB5_8RawTableTNtNtCs2bNvlddUlXM_3std6thread8ThreadIdjEE8set_ctrlCs48Yq53b35jF_15crossbeam_utils(%"hashbrown::raw::RawTable<(std::thread::ThreadId, usize)>"* noalias readonly align 8 dereferenceable(32) %_101, i64 %val5, i8 %_105)
          to label %bb52 unwind label %cleanup4, !dbg !2086

bb52:                                             ; preds = %bb51
  br label %bb70, !dbg !2090

bb53:                                             ; preds = %bb49
  %_109 = load %"hashbrown::raw::RawTable<(std::thread::ThreadId, usize)>"*, %"hashbrown::raw::RawTable<(std::thread::ThreadId, usize)>"** %_110, align 8, !dbg !2087, !nonnull !4
; invoke <hashbrown::raw::RawTable<(std::thread::ThreadId, usize)>>::ctrl
  %_108 = invoke i8* @_RNvMs3_NtCs7hm1Hx7fNtn_9hashbrown3rawINtB5_8RawTableTNtNtCs2bNvlddUlXM_3std6thread8ThreadIdjEE4ctrlCs48Yq53b35jF_15crossbeam_utils(%"hashbrown::raw::RawTable<(std::thread::ThreadId, usize)>"* noalias readonly align 8 dereferenceable(32) %_109, i64 %new_i)
          to label %bb54 unwind label %cleanup4, !dbg !2087

bb54:                                             ; preds = %bb53
  %prev_ctrl = load i8, i8* %_108, align 1, !dbg !2093
  store i8 %prev_ctrl, i8* %prev_ctrl.dbg.spill, align 1, !dbg !2093
  call void @llvm.dbg.declare(metadata i8* %prev_ctrl.dbg.spill, metadata !2020, metadata !DIExpression()), !dbg !2094
; invoke <hashbrown::scopeguard::ScopeGuard<&mut hashbrown::raw::RawTable<(std::thread::ThreadId, usize)>, <hashbrown::raw::RawTable<(std::thread::ThreadId, usize)>>::rehash_in_place<<hashbrown::map::HashMap<std::thread::ThreadId, usize, std::collections::hash::map::RandomState>>::insert::{closure#1}>::{closure#0}> as core::ops::deref::Deref>::deref
  %_115 = invoke align 8 dereferenceable(8) %"hashbrown::raw::RawTable<(std::thread::ThreadId, usize)>"** @_RNvXNtCs7hm1Hx7fNtn_9hashbrown10scopeguardINtB2_10ScopeGuardQINtNtB4_3raw8RawTableTNtNtCs2bNvlddUlXM_3std6thread8ThreadIdjEENCINvMs3_B10_BX_15rehash_in_placeNCNvMs0_NtB4_3mapINtB2D_7HashMapB1j_jNtNtNtNtB1n_11collections4hash3map11RandomStateE6inserts_0E0ENtNtNtCs3p84KrD9aKt_4core3ops5deref5Deref5derefCs48Yq53b35jF_15crossbeam_utils(i64** noalias readonly align 8 dereferenceable(8) %guard)
          to label %bb55 unwind label %cleanup4, !dbg !2095

bb55:                                             ; preds = %bb54
  %_114 = load %"hashbrown::raw::RawTable<(std::thread::ThreadId, usize)>"*, %"hashbrown::raw::RawTable<(std::thread::ThreadId, usize)>"** %_115, align 8, !dbg !2095, !nonnull !4
  %_119 = load i64, i64* %hash, align 8, !dbg !2096
; invoke hashbrown::raw::h2
  %_118 = invoke i8 @_RNvNtCs7hm1Hx7fNtn_9hashbrown3raw2h2Cs48Yq53b35jF_15crossbeam_utils(i64 %_119)
          to label %bb56 unwind label %cleanup4, !dbg !2097

bb56:                                             ; preds = %bb55
; invoke <hashbrown::raw::RawTable<(std::thread::ThreadId, usize)>>::set_ctrl
  invoke void @_RNvMs3_NtCs7hm1Hx7fNtn_9hashbrown3rawINtB5_8RawTableTNtNtCs2bNvlddUlXM_3std6thread8ThreadIdjEE8set_ctrlCs48Yq53b35jF_15crossbeam_utils(%"hashbrown::raw::RawTable<(std::thread::ThreadId, usize)>"* noalias readonly align 8 dereferenceable(32) %_114, i64 %new_i, i8 %_118)
          to label %bb57 unwind label %cleanup4, !dbg !2095

bb57:                                             ; preds = %bb56
  %_120 = icmp eq i8 %prev_ctrl, -1, !dbg !2098
  br i1 %_120, label %bb58, label %bb59, !dbg !2099

bb58:                                             ; preds = %bb57
; invoke <hashbrown::scopeguard::ScopeGuard<&mut hashbrown::raw::RawTable<(std::thread::ThreadId, usize)>, <hashbrown::raw::RawTable<(std::thread::ThreadId, usize)>>::rehash_in_place<<hashbrown::map::HashMap<std::thread::ThreadId, usize, std::collections::hash::map::RandomState>>::insert::{closure#1}>::{closure#0}> as core::ops::deref::Deref>::deref
  %_124 = invoke align 8 dereferenceable(8) %"hashbrown::raw::RawTable<(std::thread::ThreadId, usize)>"** @_RNvXNtCs7hm1Hx7fNtn_9hashbrown10scopeguardINtB2_10ScopeGuardQINtNtB4_3raw8RawTableTNtNtCs2bNvlddUlXM_3std6thread8ThreadIdjEENCINvMs3_B10_BX_15rehash_in_placeNCNvMs0_NtB4_3mapINtB2D_7HashMapB1j_jNtNtNtNtB1n_11collections4hash3map11RandomStateE6inserts_0E0ENtNtNtCs3p84KrD9aKt_4core3ops5deref5Deref5derefCs48Yq53b35jF_15crossbeam_utils(i64** noalias readonly align 8 dereferenceable(8) %guard)
          to label %bb60 unwind label %cleanup4, !dbg !2100

bb59:                                             ; preds = %bb57
; invoke <hashbrown::scopeguard::ScopeGuard<&mut hashbrown::raw::RawTable<(std::thread::ThreadId, usize)>, <hashbrown::raw::RawTable<(std::thread::ThreadId, usize)>>::rehash_in_place<<hashbrown::map::HashMap<std::thread::ThreadId, usize, std::collections::hash::map::RandomState>>::insert::{closure#1}>::{closure#0}> as core::ops::deref::Deref>::deref
  %_146 = invoke align 8 dereferenceable(8) %"hashbrown::raw::RawTable<(std::thread::ThreadId, usize)>"** @_RNvXNtCs7hm1Hx7fNtn_9hashbrown10scopeguardINtB2_10ScopeGuardQINtNtB4_3raw8RawTableTNtNtCs2bNvlddUlXM_3std6thread8ThreadIdjEENCINvMs3_B10_BX_15rehash_in_placeNCNvMs0_NtB4_3mapINtB2D_7HashMapB1j_jNtNtNtNtB1n_11collections4hash3map11RandomStateE6inserts_0E0ENtNtNtCs3p84KrD9aKt_4core3ops5deref5Deref5derefCs48Yq53b35jF_15crossbeam_utils(i64** noalias readonly align 8 dereferenceable(8) %guard)
          to label %bb65 unwind label %cleanup4, !dbg !2101

bb60:                                             ; preds = %bb58
  %_123 = load %"hashbrown::raw::RawTable<(std::thread::ThreadId, usize)>"*, %"hashbrown::raw::RawTable<(std::thread::ThreadId, usize)>"** %_124, align 8, !dbg !2100, !nonnull !4
; invoke <hashbrown::raw::RawTable<(std::thread::ThreadId, usize)>>::set_ctrl
  invoke void @_RNvMs3_NtCs7hm1Hx7fNtn_9hashbrown3rawINtB5_8RawTableTNtNtCs2bNvlddUlXM_3std6thread8ThreadIdjEE8set_ctrlCs48Yq53b35jF_15crossbeam_utils(%"hashbrown::raw::RawTable<(std::thread::ThreadId, usize)>"* noalias readonly align 8 dereferenceable(32) %_123, i64 %val5, i8 -1)
          to label %bb61 unwind label %cleanup4, !dbg !2100

bb61:                                             ; preds = %bb60
; invoke <hashbrown::scopeguard::ScopeGuard<&mut hashbrown::raw::RawTable<(std::thread::ThreadId, usize)>, <hashbrown::raw::RawTable<(std::thread::ThreadId, usize)>>::rehash_in_place<<hashbrown::map::HashMap<std::thread::ThreadId, usize, std::collections::hash::map::RandomState>>::insert::{closure#1}>::{closure#0}> as core::ops::deref::Deref>::deref
  %_131 = invoke align 8 dereferenceable(8) %"hashbrown::raw::RawTable<(std::thread::ThreadId, usize)>"** @_RNvXNtCs7hm1Hx7fNtn_9hashbrown10scopeguardINtB2_10ScopeGuardQINtNtB4_3raw8RawTableTNtNtCs2bNvlddUlXM_3std6thread8ThreadIdjEENCINvMs3_B10_BX_15rehash_in_placeNCNvMs0_NtB4_3mapINtB2D_7HashMapB1j_jNtNtNtNtB1n_11collections4hash3map11RandomStateE6inserts_0E0ENtNtNtCs3p84KrD9aKt_4core3ops5deref5Deref5derefCs48Yq53b35jF_15crossbeam_utils(i64** noalias readonly align 8 dereferenceable(8) %guard)
          to label %bb62 unwind label %cleanup4, !dbg !2102

bb62:                                             ; preds = %bb61
  %_130 = load %"hashbrown::raw::RawTable<(std::thread::ThreadId, usize)>"*, %"hashbrown::raw::RawTable<(std::thread::ThreadId, usize)>"** %_131, align 8, !dbg !2102, !nonnull !4
; invoke <hashbrown::raw::RawTable<(std::thread::ThreadId, usize)>>::bucket
  %45 = invoke nonnull i64* @_RNvMs3_NtCs7hm1Hx7fNtn_9hashbrown3rawINtB5_8RawTableTNtNtCs2bNvlddUlXM_3std6thread8ThreadIdjEE6bucketCs48Yq53b35jF_15crossbeam_utils(%"hashbrown::raw::RawTable<(std::thread::ThreadId, usize)>"* noalias readonly align 8 dereferenceable(32) %_130, i64 %new_i)
          to label %bb63 unwind label %cleanup4, !dbg !2102

bb63:                                             ; preds = %bb62
  store i64* %45, i64** %_129, align 8, !dbg !2102
; invoke <hashbrown::raw::Bucket<(std::thread::ThreadId, usize)>>::copy_from_nonoverlapping
  invoke void @_RNvMs2_NtCs7hm1Hx7fNtn_9hashbrown3rawINtB5_6BucketTNtNtCs2bNvlddUlXM_3std6thread8ThreadIdjEE24copy_from_nonoverlappingCs48Yq53b35jF_15crossbeam_utils(i64** noalias readonly align 8 dereferenceable(8) %_129, i64** noalias readonly align 8 dereferenceable(8) %item)
          to label %bb64 unwind label %cleanup4, !dbg !2102

bb64:                                             ; preds = %bb63
  br label %bb70, !dbg !2090

bb65:                                             ; preds = %bb59
  %_145 = load %"hashbrown::raw::RawTable<(std::thread::ThreadId, usize)>"*, %"hashbrown::raw::RawTable<(std::thread::ThreadId, usize)>"** %_146, align 8, !dbg !2101, !nonnull !4
; invoke <hashbrown::raw::RawTable<(std::thread::ThreadId, usize)>>::bucket
  %46 = invoke nonnull i64* @_RNvMs3_NtCs7hm1Hx7fNtn_9hashbrown3rawINtB5_8RawTableTNtNtCs2bNvlddUlXM_3std6thread8ThreadIdjEE6bucketCs48Yq53b35jF_15crossbeam_utils(%"hashbrown::raw::RawTable<(std::thread::ThreadId, usize)>"* noalias readonly align 8 dereferenceable(32) %_145, i64 %new_i)
          to label %bb66 unwind label %cleanup4, !dbg !2101

bb66:                                             ; preds = %bb65
  store i64* %46, i64** %_144, align 8, !dbg !2101
; invoke <hashbrown::raw::Bucket<(std::thread::ThreadId, usize)>>::as_mut
  %_142 = invoke align 8 dereferenceable(16) { i64, i64 }* @_RNvMs2_NtCs7hm1Hx7fNtn_9hashbrown3rawINtB5_6BucketTNtNtCs2bNvlddUlXM_3std6thread8ThreadIdjEE6as_mutCs48Yq53b35jF_15crossbeam_utils(i64** noalias readonly align 8 dereferenceable(8) %_144)
          to label %bb67 unwind label %cleanup4, !dbg !2101

bb67:                                             ; preds = %bb66
; invoke <hashbrown::raw::Bucket<(std::thread::ThreadId, usize)>>::as_mut
  %_150 = invoke align 8 dereferenceable(16) { i64, i64 }* @_RNvMs2_NtCs7hm1Hx7fNtn_9hashbrown3rawINtB5_6BucketTNtNtCs2bNvlddUlXM_3std6thread8ThreadIdjEE6as_mutCs48Yq53b35jF_15crossbeam_utils(i64** noalias readonly align 8 dereferenceable(8) %item)
          to label %bb68 unwind label %cleanup4, !dbg !2103

bb68:                                             ; preds = %bb67
; invoke core::mem::swap::<(std::thread::ThreadId, usize)>
  invoke void @_RINvNtCs3p84KrD9aKt_4core3mem4swapTNtNtCs2bNvlddUlXM_3std6thread8ThreadIdjEECs48Yq53b35jF_15crossbeam_utils({ i64, i64 }* align 8 dereferenceable(16) %_142, { i64, i64 }* align 8 dereferenceable(16) %_150)
          to label %bb69 unwind label %cleanup4, !dbg !2104

bb69:                                             ; preds = %bb68
  br label %bb38, !dbg !2105

bb70:                                             ; preds = %bb64, %bb52
  br label %bb72, !dbg !2105

bb71:                                             ; preds = %bb36
  br label %bb72, !dbg !2105

bb72:                                             ; preds = %bb70, %bb71
  br label %bb30, !dbg !2107

bb73:                                             ; preds = %bb32
  %47 = load %"hashbrown::raw::RawTable<(std::thread::ThreadId, usize)>"*, %"hashbrown::raw::RawTable<(std::thread::ThreadId, usize)>"** %_154, align 8, !dbg !2068, !nonnull !4
  %48 = bitcast %"hashbrown::raw::RawTable<(std::thread::ThreadId, usize)>"* %47 to i64*, !dbg !2068
  %_153 = load i64, i64* %48, align 8, !dbg !2068
; invoke hashbrown::raw::bucket_mask_to_capacity
  %_152 = invoke i64 @_RNvNtCs7hm1Hx7fNtn_9hashbrown3raw23bucket_mask_to_capacityCs48Yq53b35jF_15crossbeam_utils(i64 %_153)
          to label %bb74 unwind label %cleanup4, !dbg !2109

bb74:                                             ; preds = %bb73
; invoke <hashbrown::scopeguard::ScopeGuard<&mut hashbrown::raw::RawTable<(std::thread::ThreadId, usize)>, <hashbrown::raw::RawTable<(std::thread::ThreadId, usize)>>::rehash_in_place<<hashbrown::map::HashMap<std::thread::ThreadId, usize, std::collections::hash::map::RandomState>>::insert::{closure#1}>::{closure#0}> as core::ops::deref::Deref>::deref
  %_157 = invoke align 8 dereferenceable(8) %"hashbrown::raw::RawTable<(std::thread::ThreadId, usize)>"** @_RNvXNtCs7hm1Hx7fNtn_9hashbrown10scopeguardINtB2_10ScopeGuardQINtNtB4_3raw8RawTableTNtNtCs2bNvlddUlXM_3std6thread8ThreadIdjEENCINvMs3_B10_BX_15rehash_in_placeNCNvMs0_NtB4_3mapINtB2D_7HashMapB1j_jNtNtNtNtB1n_11collections4hash3map11RandomStateE6inserts_0E0ENtNtNtCs3p84KrD9aKt_4core3ops5deref5Deref5derefCs48Yq53b35jF_15crossbeam_utils(i64** noalias readonly align 8 dereferenceable(8) %guard)
          to label %bb75 unwind label %cleanup4, !dbg !2110

bb75:                                             ; preds = %bb74
  %49 = load %"hashbrown::raw::RawTable<(std::thread::ThreadId, usize)>"*, %"hashbrown::raw::RawTable<(std::thread::ThreadId, usize)>"** %_157, align 8, !dbg !2110, !nonnull !4
  %50 = getelementptr inbounds %"hashbrown::raw::RawTable<(std::thread::ThreadId, usize)>", %"hashbrown::raw::RawTable<(std::thread::ThreadId, usize)>"* %49, i32 0, i32 9, !dbg !2110
  %_156 = load i64, i64* %50, align 8, !dbg !2110
; invoke <hashbrown::scopeguard::ScopeGuard<&mut hashbrown::raw::RawTable<(std::thread::ThreadId, usize)>, <hashbrown::raw::RawTable<(std::thread::ThreadId, usize)>>::rehash_in_place<<hashbrown::map::HashMap<std::thread::ThreadId, usize, std::collections::hash::map::RandomState>>::insert::{closure#1}>::{closure#0}> as core::ops::deref::DerefMut>::deref_mut
  %_159 = invoke align 8 dereferenceable(8) %"hashbrown::raw::RawTable<(std::thread::ThreadId, usize)>"** @_RNvXs_NtCs7hm1Hx7fNtn_9hashbrown10scopeguardINtB4_10ScopeGuardQINtNtB6_3raw8RawTableTNtNtCs2bNvlddUlXM_3std6thread8ThreadIdjEENCINvMs3_B12_BZ_15rehash_in_placeNCNvMs0_NtB6_3mapINtB2F_7HashMapB1l_jNtNtNtNtB1p_11collections4hash3map11RandomStateE6inserts_0E0ENtNtNtCs3p84KrD9aKt_4core3ops5deref8DerefMut9deref_mutCs48Yq53b35jF_15crossbeam_utils(i64** align 8 dereferenceable(8) %guard)
          to label %bb76 unwind label %cleanup4, !dbg !2111

bb76:                                             ; preds = %bb75
  %51 = load %"hashbrown::raw::RawTable<(std::thread::ThreadId, usize)>"*, %"hashbrown::raw::RawTable<(std::thread::ThreadId, usize)>"** %_159, align 8, !dbg !2111, !nonnull !4
  %52 = getelementptr inbounds %"hashbrown::raw::RawTable<(std::thread::ThreadId, usize)>", %"hashbrown::raw::RawTable<(std::thread::ThreadId, usize)>"* %51, i32 0, i32 7, !dbg !2111
  %53 = sub i64 %_152, %_156, !dbg !2111
  store i64 %53, i64* %52, align 8, !dbg !2111
  store i8 0, i8* %_163, align 1, !dbg !2112
  %_162 = load i64*, i64** %guard, align 8, !dbg !2112, !nonnull !4
; invoke core::mem::forget::<hashbrown::scopeguard::ScopeGuard<&mut hashbrown::raw::RawTable<(std::thread::ThreadId, usize)>, <hashbrown::raw::RawTable<(std::thread::ThreadId, usize)>>::rehash_in_place<<hashbrown::map::HashMap<std::thread::ThreadId, usize, std::collections::hash::map::RandomState>>::insert::{closure#1}>::{closure#0}>>
  invoke void @_RINvNtCs3p84KrD9aKt_4core3mem6forgetINtNtCs7hm1Hx7fNtn_9hashbrown10scopeguard10ScopeGuardQINtNtBD_3raw8RawTableTNtNtCs2bNvlddUlXM_3std6thread8ThreadIdjEENCINvMs3_B1t_B1q_15rehash_in_placeNCNvMs0_NtBD_3mapINtB37_7HashMapB1M_jNtNtNtNtB1Q_11collections4hash3map11RandomStateE6inserts_0E0EECs48Yq53b35jF_15crossbeam_utils(i64* align 8 dereferenceable(32) %_162)
          to label %bb77 unwind label %cleanup4, !dbg !2113

bb77:                                             ; preds = %bb76
  store i8 0, i8* %_163, align 1, !dbg !2114
  br label %bb78, !dbg !2115

bb78:                                             ; preds = %bb77
  ret void, !dbg !2116

bb79:                                             ; preds = %bb81, %bb82, %cleanup
  br label %bb80, !dbg !2115

bb80:                                             ; preds = %bb79
  %54 = bitcast { i8*, i32 }* %6 to i8**, !dbg !2117
  %55 = load i8*, i8** %54, align 8, !dbg !2117
  %56 = getelementptr inbounds { i8*, i32 }, { i8*, i32 }* %6, i32 0, i32 1, !dbg !2117
  %57 = load i32, i32* %56, align 8, !dbg !2117
  %58 = insertvalue { i8*, i32 } undef, i8* %55, 0, !dbg !2117
  %59 = insertvalue { i8*, i32 } %58, i32 %57, 1, !dbg !2117
  resume { i8*, i32 } %59, !dbg !2117

bb81:                                             ; preds = %bb82
; call core::ptr::drop_in_place::<hashbrown::scopeguard::ScopeGuard<&mut hashbrown::raw::RawTable<(std::thread::ThreadId, usize)>, <hashbrown::raw::RawTable<(std::thread::ThreadId, usize)>>::rehash_in_place<<hashbrown::map::HashMap<std::thread::ThreadId, usize, std::collections::hash::map::RandomState>>::insert::{closure#1}>::{closure#0}>>
  call void @_RINvNtCs3p84KrD9aKt_4core3ptr13drop_in_placeINtNtCs7hm1Hx7fNtn_9hashbrown10scopeguard10ScopeGuardQINtNtBL_3raw8RawTableTNtNtCs2bNvlddUlXM_3std6thread8ThreadIdjEENCINvMs3_B1B_B1y_15rehash_in_placeNCNvMs0_NtBL_3mapINtB3f_7HashMapB1U_jNtNtNtNtB1Y_11collections4hash3map11RandomStateE6inserts_0E0EECs48Yq53b35jF_15crossbeam_utils(i64** %guard) #20, !dbg !2114
  br label %bb79, !dbg !2114

bb82:                                             ; preds = %cleanup4
  %60 = load i8, i8* %_163, align 1, !dbg !2114, !range !947
  %61 = trunc i8 %60 to i1, !dbg !2114
  br i1 %61, label %bb81, label %bb79, !dbg !2114

cleanup:                                          ; preds = %bb25, %bb23, %bb22, %bb21, %bb16, %bb19, %bb18, %bb17, %bb15, %bb6, %bb12, %bb11, %bb10, %bb9, %bb8, %bb4, %bb2, %bb1, %start
  %62 = landingpad { i8*, i32 }
          cleanup
  %63 = extractvalue { i8*, i32 } %62, 0
  %64 = extractvalue { i8*, i32 } %62, 1
  %65 = getelementptr inbounds { i8*, i32 }, { i8*, i32 }* %6, i32 0, i32 0
  store i8* %63, i8** %65, align 8
  %66 = getelementptr inbounds { i8*, i32 }, { i8*, i32 }* %6, i32 0, i32 1
  store i32 %64, i32* %66, align 8
  br label %bb79

cleanup4:                                         ; preds = %bb76, %bb75, %bb74, %bb73, %bb32, %bb68, %bb67, %bb66, %bb65, %bb59, %bb63, %bb62, %bb61, %bb60, %bb58, %bb56, %bb55, %bb54, %bb53, %bb49, %bb51, %bb50, %bb48, %bb45, %bb44, %bb43, %bb42, %bb41, %bb40, %bb39, %bb38, %bb35, %bb34, %bb30, %bb28, %bb27, %bb26
  %67 = landingpad { i8*, i32 }
          cleanup
  %68 = extractvalue { i8*, i32 } %67, 0
  %69 = extractvalue { i8*, i32 } %67, 1
  %70 = getelementptr inbounds { i8*, i32 }, { i8*, i32 }* %6, i32 0, i32 0
  store i8* %68, i8** %70, align 8
  %71 = getelementptr inbounds { i8*, i32 }, { i8*, i32 }* %6, i32 0, i32 1
  store i32 %69, i32* %71, align 8
  br label %bb82
}

; <hashbrown::raw::RawTable<(std::thread::ThreadId, usize)>>::find::<<hashbrown::map::HashMap<std::thread::ThreadId, usize, std::collections::hash::map::RandomState>>::remove_entry<std::thread::ThreadId>::{closure#0}>
; Function Attrs: inlinehint nonlazybind uwtable
define i64* @_RINvMs3_NtCs7hm1Hx7fNtn_9hashbrown3rawINtB6_8RawTableTNtNtCs2bNvlddUlXM_3std6thread8ThreadIdjEE4findNCINvMs0_NtB8_3mapINtB1J_7HashMapBQ_jNtNtNtNtBU_11collections4hash3map11RandomStateE12remove_entryBQ_E0ECs48Yq53b35jF_15crossbeam_utils(%"hashbrown::raw::RawTable<(std::thread::ThreadId, usize)>"* noalias readonly align 8 dereferenceable(32) %self, i64 %hash, i64* noalias readonly align 8 dereferenceable(8) %0) unnamed_addr #0 personality i32 (i32, i32, i64, %"unwind::libunwind::_Unwind_Exception"*, %"unwind::libunwind::_Unwind_Context"*)* @rust_eh_personality !dbg !2118 {
start:
  %1 = alloca i8, align 1
  %elm.dbg.spill = alloca { i64, i64 }*, align 8
  %__next.dbg.spill = alloca i64*, align 8
  %val.dbg.spill = alloca i64*, align 8
  %2 = alloca { i8*, i32 }, align 8
  %hash.dbg.spill = alloca i64, align 8
  %self.dbg.spill = alloca %"hashbrown::raw::RawTable<(std::thread::ThreadId, usize)>"*, align 8
  %_22 = alloca i64*, align 8
  %bucket = alloca i64*, align 8
  %_10 = alloca i64*, align 8
  %iter = alloca %"hashbrown::raw::RawIterHash<(std::thread::ThreadId, usize)>", align 16
  %_5 = alloca %"hashbrown::raw::RawIterHash<(std::thread::ThreadId, usize)>", align 16
  %_4 = alloca %"hashbrown::raw::RawIterHash<(std::thread::ThreadId, usize)>", align 16
  %3 = alloca i64*, align 8
  %eq = alloca i64*, align 8
  store i64* %0, i64** %eq, align 8
  store %"hashbrown::raw::RawTable<(std::thread::ThreadId, usize)>"* %self, %"hashbrown::raw::RawTable<(std::thread::ThreadId, usize)>"** %self.dbg.spill, align 8
  call void @llvm.dbg.declare(metadata %"hashbrown::raw::RawTable<(std::thread::ThreadId, usize)>"** %self.dbg.spill, metadata !2140, metadata !DIExpression()), !dbg !2177
  store i64 %hash, i64* %hash.dbg.spill, align 8
  call void @llvm.dbg.declare(metadata i64* %hash.dbg.spill, metadata !2141, metadata !DIExpression()), !dbg !2178
  call void @llvm.dbg.declare(metadata i64** %eq, metadata !2142, metadata !DIExpression()), !dbg !2179
  call void @llvm.dbg.declare(metadata %"hashbrown::raw::RawIterHash<(std::thread::ThreadId, usize)>"* %iter, metadata !2143, metadata !DIExpression()), !dbg !2180
  call void @llvm.dbg.declare(metadata i64** %bucket, metadata !2170, metadata !DIExpression()), !dbg !2181
; invoke <hashbrown::raw::RawTable<(std::thread::ThreadId, usize)>>::iter_hash
  invoke void @_RNvMs3_NtCs7hm1Hx7fNtn_9hashbrown3rawINtB5_8RawTableTNtNtCs2bNvlddUlXM_3std6thread8ThreadIdjEE9iter_hashCs48Yq53b35jF_15crossbeam_utils(%"hashbrown::raw::RawIterHash<(std::thread::ThreadId, usize)>"* noalias nocapture sret dereferenceable(64) %_5, %"hashbrown::raw::RawTable<(std::thread::ThreadId, usize)>"* noalias readonly align 8 dereferenceable(32) %self, i64 %hash)
          to label %bb1 unwind label %cleanup, !dbg !2182

bb1:                                              ; preds = %start
; invoke <hashbrown::raw::RawIterHash<(std::thread::ThreadId, usize)> as core::iter::traits::collect::IntoIterator>::into_iter
  invoke void @_RNvXNtNtNtCs3p84KrD9aKt_4core4iter6traits7collectINtNtCs7hm1Hx7fNtn_9hashbrown3raw11RawIterHashTNtNtCs2bNvlddUlXM_3std6thread8ThreadIdjEENtB2_12IntoIterator9into_iterCs48Yq53b35jF_15crossbeam_utils(%"hashbrown::raw::RawIterHash<(std::thread::ThreadId, usize)>"* noalias nocapture sret dereferenceable(64) %_4, %"hashbrown::raw::RawIterHash<(std::thread::ThreadId, usize)>"* noalias nocapture dereferenceable(64) %_5)
          to label %bb2 unwind label %cleanup, !dbg !2182

bb2:                                              ; preds = %bb1
  %4 = bitcast %"hashbrown::raw::RawIterHash<(std::thread::ThreadId, usize)>"* %iter to i8*, !dbg !2182
  %5 = bitcast %"hashbrown::raw::RawIterHash<(std::thread::ThreadId, usize)>"* %_4 to i8*, !dbg !2182
  call void @llvm.memcpy.p0i8.p0i8.i64(i8* align 16 %4, i8* align 16 %5, i64 64, i1 false), !dbg !2182
  br label %bb3, !dbg !2183

bb3:                                              ; preds = %bb12, %bb2
; invoke <hashbrown::raw::RawIterHash<(std::thread::ThreadId, usize)> as core::iter::traits::iterator::Iterator>::next
  %6 = invoke i64* @_RNvXsC_NtCs7hm1Hx7fNtn_9hashbrown3rawINtB5_11RawIterHashTNtNtCs2bNvlddUlXM_3std6thread8ThreadIdjEENtNtNtNtCs3p84KrD9aKt_4core4iter6traits8iterator8Iterator4nextCs48Yq53b35jF_15crossbeam_utils(%"hashbrown::raw::RawIterHash<(std::thread::ThreadId, usize)>"* align 16 dereferenceable(64) %iter)
          to label %bb4 unwind label %cleanup, !dbg !2184

bb4:                                              ; preds = %bb3
  store i64* %6, i64** %_10, align 8, !dbg !2184
  %7 = bitcast i64** %_10 to {}**, !dbg !2185
  %8 = load {}*, {}** %7, align 8, !dbg !2185
  %9 = icmp eq {}* %8, null, !dbg !2185
  %_13 = select i1 %9, i64 0, i64 1, !dbg !2185
  switch i64 %_13, label %bb6 [
    i64 0, label %bb5
    i64 1, label %bb7
  ], !dbg !2185

bb5:                                              ; preds = %bb4
  %10 = bitcast i64** %3 to {}**, !dbg !2186
  store {}* null, {}** %10, align 8, !dbg !2186
  br label %bb13, !dbg !2187

bb6:                                              ; preds = %bb4
  unreachable, !dbg !2184

bb7:                                              ; preds = %bb4
  %val = load i64*, i64** %_10, align 8, !dbg !2185, !nonnull !4
  store i64* %val, i64** %val.dbg.spill, align 8, !dbg !2185
  call void @llvm.dbg.declare(metadata i64** %val.dbg.spill, metadata !2168, metadata !DIExpression()), !dbg !2188
  store i64* %val, i64** %__next.dbg.spill, align 8, !dbg !2188
  call void @llvm.dbg.declare(metadata i64** %__next.dbg.spill, metadata !2166, metadata !DIExpression()), !dbg !2184
  store i64* %val, i64** %bucket, align 8, !dbg !2184
; invoke <hashbrown::raw::Bucket<(std::thread::ThreadId, usize)>>::as_ref
  %elm = invoke align 8 dereferenceable(16) { i64, i64 }* @_RNvMs2_NtCs7hm1Hx7fNtn_9hashbrown3rawINtB5_6BucketTNtNtCs2bNvlddUlXM_3std6thread8ThreadIdjEE6as_refCs48Yq53b35jF_15crossbeam_utils(i64** noalias readonly align 8 dereferenceable(8) %bucket)
          to label %bb8 unwind label %cleanup, !dbg !2189

bb8:                                              ; preds = %bb7
  store { i64, i64 }* %elm, { i64, i64 }** %elm.dbg.spill, align 8, !dbg !2189
  call void @llvm.dbg.declare(metadata { i64, i64 }** %elm.dbg.spill, metadata !2172, metadata !DIExpression()), !dbg !2190
  %11 = bitcast i64** %_22 to { i64, i64 }**, !dbg !2191
  store { i64, i64 }* %elm, { i64, i64 }** %11, align 8, !dbg !2191
  %12 = load i64*, i64** %_22, align 8, !dbg !2191, !nonnull !4
  %13 = bitcast i64* %12 to { i64, i64 }*, !dbg !2191
; invoke <hashbrown::map::HashMap<std::thread::ThreadId, usize, std::collections::hash::map::RandomState>>::remove_entry::<std::thread::ThreadId>::{closure#0}
  %_20 = invoke zeroext i1 @_RNCINvMs0_NtCs7hm1Hx7fNtn_9hashbrown3mapINtB8_7HashMapNtNtCs2bNvlddUlXM_3std6thread8ThreadIdjNtNtNtNtBU_11collections4hash3map11RandomStateE12remove_entryBQ_E0Cs48Yq53b35jF_15crossbeam_utils(i64** align 8 dereferenceable(8) %eq, { i64, i64 }* noalias readonly align 8 dereferenceable(16) %13)
          to label %bb9 unwind label %cleanup, !dbg !2191

bb9:                                              ; preds = %bb8
  %14 = call i1 @llvm.expect.i1(i1 %_20, i1 true), !dbg !2192
  %15 = zext i1 %14 to i8, !dbg !2192
  store i8 %15, i8* %1, align 1, !dbg !2192
  %16 = load i8, i8* %1, align 1, !dbg !2192, !range !947
  %_19 = trunc i8 %16 to i1, !dbg !2192
  br label %bb10, !dbg !2192

bb10:                                             ; preds = %bb9
  br i1 %_19, label %bb11, label %bb12, !dbg !2193

bb11:                                             ; preds = %bb10
  %_24 = load i64*, i64** %bucket, align 8, !dbg !2194, !nonnull !4
  store i64* %_24, i64** %3, align 8, !dbg !2195
  br label %bb13, !dbg !2187

bb12:                                             ; preds = %bb10
  br label %bb3, !dbg !2183

bb13:                                             ; preds = %bb5, %bb11
  %17 = load i64*, i64** %3, align 8, !dbg !2196
  ret i64* %17, !dbg !2196

bb14:                                             ; preds = %cleanup
  br label %bb15, !dbg !2187

bb15:                                             ; preds = %bb14
  %18 = bitcast { i8*, i32 }* %2 to i8**, !dbg !2197
  %19 = load i8*, i8** %18, align 8, !dbg !2197
  %20 = getelementptr inbounds { i8*, i32 }, { i8*, i32 }* %2, i32 0, i32 1, !dbg !2197
  %21 = load i32, i32* %20, align 8, !dbg !2197
  %22 = insertvalue { i8*, i32 } undef, i8* %19, 0, !dbg !2197
  %23 = insertvalue { i8*, i32 } %22, i32 %21, 1, !dbg !2197
  resume { i8*, i32 } %23, !dbg !2197

cleanup:                                          ; preds = %bb8, %bb7, %bb3, %bb1, %start
  %24 = landingpad { i8*, i32 }
          cleanup
  %25 = extractvalue { i8*, i32 } %24, 0
  %26 = extractvalue { i8*, i32 } %24, 1
  %27 = getelementptr inbounds { i8*, i32 }, { i8*, i32 }* %2, i32 0, i32 0
  store i8* %25, i8** %27, align 8
  %28 = getelementptr inbounds { i8*, i32 }, { i8*, i32 }* %2, i32 0, i32 1
  store i32 %26, i32* %28, align 8
  br label %bb14
}

; <hashbrown::raw::RawTable<(std::thread::ThreadId, usize)>>::find::<<hashbrown::map::HashMap<std::thread::ThreadId, usize, std::collections::hash::map::RandomState>>::insert::{closure#0}>
; Function Attrs: inlinehint nonlazybind uwtable
define i64* @_RINvMs3_NtCs7hm1Hx7fNtn_9hashbrown3rawINtB6_8RawTableTNtNtCs2bNvlddUlXM_3std6thread8ThreadIdjEE4findNCNvMs0_NtB8_3mapINtB1I_7HashMapBQ_jNtNtNtNtBU_11collections4hash3map11RandomStateE6insert0ECs48Yq53b35jF_15crossbeam_utils(%"hashbrown::raw::RawTable<(std::thread::ThreadId, usize)>"* noalias readonly align 8 dereferenceable(32) %self, i64 %hash, i64* noalias readonly align 8 dereferenceable(8) %0) unnamed_addr #0 personality i32 (i32, i32, i64, %"unwind::libunwind::_Unwind_Exception"*, %"unwind::libunwind::_Unwind_Context"*)* @rust_eh_personality !dbg !2198 {
start:
  %1 = alloca i8, align 1
  %elm.dbg.spill = alloca { i64, i64 }*, align 8
  %__next.dbg.spill = alloca i64*, align 8
  %val.dbg.spill = alloca i64*, align 8
  %2 = alloca { i8*, i32 }, align 8
  %hash.dbg.spill = alloca i64, align 8
  %self.dbg.spill = alloca %"hashbrown::raw::RawTable<(std::thread::ThreadId, usize)>"*, align 8
  %_22 = alloca i64*, align 8
  %bucket = alloca i64*, align 8
  %_10 = alloca i64*, align 8
  %iter = alloca %"hashbrown::raw::RawIterHash<(std::thread::ThreadId, usize)>", align 16
  %_5 = alloca %"hashbrown::raw::RawIterHash<(std::thread::ThreadId, usize)>", align 16
  %_4 = alloca %"hashbrown::raw::RawIterHash<(std::thread::ThreadId, usize)>", align 16
  %3 = alloca i64*, align 8
  %eq = alloca i64*, align 8
  store i64* %0, i64** %eq, align 8
  store %"hashbrown::raw::RawTable<(std::thread::ThreadId, usize)>"* %self, %"hashbrown::raw::RawTable<(std::thread::ThreadId, usize)>"** %self.dbg.spill, align 8
  call void @llvm.dbg.declare(metadata %"hashbrown::raw::RawTable<(std::thread::ThreadId, usize)>"** %self.dbg.spill, metadata !2205, metadata !DIExpression()), !dbg !2220
  store i64 %hash, i64* %hash.dbg.spill, align 8
  call void @llvm.dbg.declare(metadata i64* %hash.dbg.spill, metadata !2206, metadata !DIExpression()), !dbg !2221
  call void @llvm.dbg.declare(metadata i64** %eq, metadata !2207, metadata !DIExpression()), !dbg !2222
  call void @llvm.dbg.declare(metadata %"hashbrown::raw::RawIterHash<(std::thread::ThreadId, usize)>"* %iter, metadata !2208, metadata !DIExpression()), !dbg !2223
  call void @llvm.dbg.declare(metadata i64** %bucket, metadata !2214, metadata !DIExpression()), !dbg !2224
; invoke <hashbrown::raw::RawTable<(std::thread::ThreadId, usize)>>::iter_hash
  invoke void @_RNvMs3_NtCs7hm1Hx7fNtn_9hashbrown3rawINtB5_8RawTableTNtNtCs2bNvlddUlXM_3std6thread8ThreadIdjEE9iter_hashCs48Yq53b35jF_15crossbeam_utils(%"hashbrown::raw::RawIterHash<(std::thread::ThreadId, usize)>"* noalias nocapture sret dereferenceable(64) %_5, %"hashbrown::raw::RawTable<(std::thread::ThreadId, usize)>"* noalias readonly align 8 dereferenceable(32) %self, i64 %hash)
          to label %bb1 unwind label %cleanup, !dbg !2225

bb1:                                              ; preds = %start
; invoke <hashbrown::raw::RawIterHash<(std::thread::ThreadId, usize)> as core::iter::traits::collect::IntoIterator>::into_iter
  invoke void @_RNvXNtNtNtCs3p84KrD9aKt_4core4iter6traits7collectINtNtCs7hm1Hx7fNtn_9hashbrown3raw11RawIterHashTNtNtCs2bNvlddUlXM_3std6thread8ThreadIdjEENtB2_12IntoIterator9into_iterCs48Yq53b35jF_15crossbeam_utils(%"hashbrown::raw::RawIterHash<(std::thread::ThreadId, usize)>"* noalias nocapture sret dereferenceable(64) %_4, %"hashbrown::raw::RawIterHash<(std::thread::ThreadId, usize)>"* noalias nocapture dereferenceable(64) %_5)
          to label %bb2 unwind label %cleanup, !dbg !2225

bb2:                                              ; preds = %bb1
  %4 = bitcast %"hashbrown::raw::RawIterHash<(std::thread::ThreadId, usize)>"* %iter to i8*, !dbg !2225
  %5 = bitcast %"hashbrown::raw::RawIterHash<(std::thread::ThreadId, usize)>"* %_4 to i8*, !dbg !2225
  call void @llvm.memcpy.p0i8.p0i8.i64(i8* align 16 %4, i8* align 16 %5, i64 64, i1 false), !dbg !2225
  br label %bb3, !dbg !2226

bb3:                                              ; preds = %bb12, %bb2
; invoke <hashbrown::raw::RawIterHash<(std::thread::ThreadId, usize)> as core::iter::traits::iterator::Iterator>::next
  %6 = invoke i64* @_RNvXsC_NtCs7hm1Hx7fNtn_9hashbrown3rawINtB5_11RawIterHashTNtNtCs2bNvlddUlXM_3std6thread8ThreadIdjEENtNtNtNtCs3p84KrD9aKt_4core4iter6traits8iterator8Iterator4nextCs48Yq53b35jF_15crossbeam_utils(%"hashbrown::raw::RawIterHash<(std::thread::ThreadId, usize)>"* align 16 dereferenceable(64) %iter)
          to label %bb4 unwind label %cleanup, !dbg !2227

bb4:                                              ; preds = %bb3
  store i64* %6, i64** %_10, align 8, !dbg !2227
  %7 = bitcast i64** %_10 to {}**, !dbg !2228
  %8 = load {}*, {}** %7, align 8, !dbg !2228
  %9 = icmp eq {}* %8, null, !dbg !2228
  %_13 = select i1 %9, i64 0, i64 1, !dbg !2228
  switch i64 %_13, label %bb6 [
    i64 0, label %bb5
    i64 1, label %bb7
  ], !dbg !2228

bb5:                                              ; preds = %bb4
  %10 = bitcast i64** %3 to {}**, !dbg !2229
  store {}* null, {}** %10, align 8, !dbg !2229
  br label %bb13, !dbg !2230

bb6:                                              ; preds = %bb4
  unreachable, !dbg !2227

bb7:                                              ; preds = %bb4
  %val = load i64*, i64** %_10, align 8, !dbg !2228, !nonnull !4
  store i64* %val, i64** %val.dbg.spill, align 8, !dbg !2228
  call void @llvm.dbg.declare(metadata i64** %val.dbg.spill, metadata !2212, metadata !DIExpression()), !dbg !2231
  store i64* %val, i64** %__next.dbg.spill, align 8, !dbg !2231
  call void @llvm.dbg.declare(metadata i64** %__next.dbg.spill, metadata !2210, metadata !DIExpression()), !dbg !2227
  store i64* %val, i64** %bucket, align 8, !dbg !2227
; invoke <hashbrown::raw::Bucket<(std::thread::ThreadId, usize)>>::as_ref
  %elm = invoke align 8 dereferenceable(16) { i64, i64 }* @_RNvMs2_NtCs7hm1Hx7fNtn_9hashbrown3rawINtB5_6BucketTNtNtCs2bNvlddUlXM_3std6thread8ThreadIdjEE6as_refCs48Yq53b35jF_15crossbeam_utils(i64** noalias readonly align 8 dereferenceable(8) %bucket)
          to label %bb8 unwind label %cleanup, !dbg !2232

bb8:                                              ; preds = %bb7
  store { i64, i64 }* %elm, { i64, i64 }** %elm.dbg.spill, align 8, !dbg !2232
  call void @llvm.dbg.declare(metadata { i64, i64 }** %elm.dbg.spill, metadata !2216, metadata !DIExpression()), !dbg !2233
  %11 = bitcast i64** %_22 to { i64, i64 }**, !dbg !2234
  store { i64, i64 }* %elm, { i64, i64 }** %11, align 8, !dbg !2234
  %12 = load i64*, i64** %_22, align 8, !dbg !2234, !nonnull !4
  %13 = bitcast i64* %12 to { i64, i64 }*, !dbg !2234
; invoke <hashbrown::map::HashMap<std::thread::ThreadId, usize, std::collections::hash::map::RandomState>>::insert::{closure#0}
  %_20 = invoke zeroext i1 @_RNCNvMs0_NtCs7hm1Hx7fNtn_9hashbrown3mapINtB7_7HashMapNtNtCs2bNvlddUlXM_3std6thread8ThreadIdjNtNtNtNtBT_11collections4hash3map11RandomStateE6insert0Cs48Yq53b35jF_15crossbeam_utils(i64** align 8 dereferenceable(8) %eq, { i64, i64 }* noalias readonly align 8 dereferenceable(16) %13)
