; ModuleID = '1l5gi2d3p19efp08'
source_filename = "1l5gi2d3p19efp08"
target datalayout = "e-m:e-p270:32:32-p271:32:32-p272:64:64-i64:64-f80:128-n8:16:32:64-S128"
target triple = "x86_64-unknown-linux-gnu"

%"[closure@std::thread::Builder::spawn_unchecked<[closure@src/main.rs:18:21: 24:8], ()>::{closure#0}]" = type { [0 x i64], i64*, [0 x i64], i64*, [0 x i64], i64*, [0 x i64], i64*, [0 x i64] }
%"std::io::Error" = type { [0 x i64], %"std::io::error::Repr", [0 x i64] }
%"std::io::error::Repr" = type { [0 x i8], i8, [15 x i8] }
%"std::fmt::Formatter" = type { [0 x i64], { i64, i64 }, [0 x i64], { i64, i64 }, [0 x i64], { {}*, [3 x i64]* }, [0 x i32], i32, [0 x i32], i32, [0 x i8], i8, [7 x i8] }
%"std::result::Result<std::thread::JoinHandle<()>, std::io::Error>" = type { [0 x i64], i64, [4 x i64] }
%"std::thread::Builder" = type { [0 x i64], %"std::option::Option<std::string::String>", [0 x i64], { i64, i64 }, [0 x i64] }
%"std::option::Option<std::string::String>" = type { [0 x i64], {}*, [2 x i64] }
%"std::result::Result<std::sys::unix::thread::Thread, std::io::Error>" = type { [0 x i64], i64, [2 x i64] }
%"std::thread::JoinInner<()>" = type { [0 x i64], { i64, i64 }, [0 x i64], i64*, [0 x i64], i64*, [0 x i64] }
%"std::thread::JoinHandle<()>" = type { [0 x i64], %"std::thread::JoinInner<()>", [0 x i64] }
%"std::option::Option<std::result::Result<(), std::boxed::Box<dyn std::any::Any + std::marker::Send>>>" = type { [0 x i64], i64, [2 x i64] }
%"std::cell::UnsafeCell<std::option::Option<std::result::Result<(), std::boxed::Box<dyn std::any::Any + std::marker::Send>>>>" = type { [0 x i64], %"std::option::Option<std::result::Result<(), std::boxed::Box<dyn std::any::Any + std::marker::Send>>>", [0 x i64] }
%"std::result::Result<std::sys::unix::thread::Thread, std::io::Error>::Ok" = type { [1 x i64], i64, [0 x i64] }
%"std::option::Option<std::sys::unix::thread::Thread>::Some" = type { [1 x i64], i64, [0 x i64] }
%"std::result::Result<std::thread::JoinHandle<()>, std::io::Error>::Ok" = type { [1 x i64], %"std::thread::JoinHandle<()>", [0 x i64] }
%"std::result::Result<std::sys::unix::thread::Thread, std::io::Error>::Err" = type { [1 x i64], %"std::io::Error", [0 x i64] }
%"std::option::Option<usize>::Some" = type { [1 x i64], i64, [0 x i64] }
%"alloc::sync::ArcInner<std::cell::UnsafeCell<std::option::Option<std::result::Result<(), std::boxed::Box<dyn std::any::Any + std::marker::Send>>>>>" = type { [0 x i64], %"std::sync::atomic::AtomicUsize", [0 x i64], %"std::sync::atomic::AtomicUsize", [0 x i64], %"std::cell::UnsafeCell<std::option::Option<std::result::Result<(), std::boxed::Box<dyn std::any::Any + std::marker::Send>>>>", [0 x i64] }
%"std::sync::atomic::AtomicUsize" = type { [0 x i64], i64, [0 x i64] }
%"alloc::sync::ArcInner<std::sync::Mutex<std::vec::Vec<u8>>>" = type { [0 x i64], %"std::sync::atomic::AtomicUsize", [0 x i64], %"std::sync::atomic::AtomicUsize", [0 x i64], %"std::sync::Mutex<std::vec::Vec<u8>>", [0 x i64] }
%"std::sync::Mutex<std::vec::Vec<u8>>" = type { [0 x i64], i64*, [0 x i8], %"std::sys_common::poison::Flag", [7 x i8], %"std::cell::UnsafeCell<std::vec::Vec<u8>>", [0 x i64] }
%"std::sys_common::poison::Flag" = type { [0 x i8], %"std::sync::atomic::AtomicBool", [0 x i8] }
%"std::sync::atomic::AtomicBool" = type { [0 x i8], i8, [0 x i8] }
%"std::cell::UnsafeCell<std::vec::Vec<u8>>" = type { [0 x i64], %"std::vec::Vec<u8>", [0 x i64] }
%"std::vec::Vec<u8>" = type { [0 x i64], { i8*, i64 }, [0 x i64], i64, [0 x i64] }
%"std::io::error::Custom" = type { [0 x i64], { {}*, [3 x i64]* }, [0 x i8], i8, [7 x i8] }
%"core::fmt::Opaque" = type {}
%"std::panic::Location" = type { [0 x i64], { [0 x i8]*, i64 }, [0 x i32], i32, [0 x i32], i32, [0 x i32] }
%"std::panicking::r#try::Data<std::panic::AssertUnwindSafe<[closure@std::thread::Builder::spawn_unchecked<[closure@src/main.rs:18:21: 24:8], ()>::{closure#0}::{closure#0}]>, ()>" = type { [2 x i64] }
%"std::mem::ManuallyDrop<()>" = type { [0 x i8], {}, [0 x i8] }
%"std::result::Result<(), std::boxed::Box<dyn std::any::Any + std::marker::Send>>::Ok" = type { [0 x i8], {}, [0 x i8] }
%"std::option::Option<std::result::Result<(), std::boxed::Box<dyn std::any::Any + std::marker::Send>>>::Some" = type { [1 x i64], { i8*, i8* }, [0 x i64] }
%"std::option::Option<std::string::String>::Some" = type { [0 x i64], %"std::string::String", [0 x i64] }
%"std::string::String" = type { [0 x i64], %"std::vec::Vec<u8>", [0 x i64] }
%"std::result::Result<std::thread::JoinHandle<()>, std::io::Error>::Err" = type { [1 x i64], %"std::io::Error", [0 x i64] }
%"std::io::error::Repr::Custom" = type { [1 x i64], %"std::io::error::Custom"*, [0 x i64] }
%"std::alloc::Global" = type {}
%"std::ffi::CStr" = type { [0 x i8], [0 x i8] }
%"std::option::Option<std::ops::Range<usize>>" = type { [0 x i64], i64, [2 x i64] }
%"std::alloc::AllocError" = type {}
%"std::fmt::Arguments" = type { [0 x i64], { [0 x { [0 x i8]*, i64 }]*, i64 }, [0 x i64], { i64*, i64 }, [0 x i64], { [0 x { i8*, i64* }]*, i64 }, [0 x i64] }
%"std::marker::PhantomData<alloc::sync::ArcInner<std::cell::UnsafeCell<std::option::Option<std::result::Result<(), std::boxed::Box<dyn std::any::Any + std::marker::Send>>>>>>" = type {}
%"std::marker::PhantomData<alloc::sync::ArcInner<std::sync::Mutex<std::vec::Vec<u8>>>>" = type {}
%"std::marker::PhantomData<alloc::sync::ArcInner<std::thread::Inner>>" = type {}
%"std::option::Option<(std::ptr::NonNull<u8>, std::alloc::Layout)>" = type { [0 x i64], {}*, [2 x i64] }
%"std::option::Option<(std::ptr::NonNull<u8>, std::alloc::Layout)>::Some" = type { [0 x i64], { [0 x i64], i8*, [0 x i64], { i64, i64 }, [0 x i64] }, [0 x i64] }
%"alloc::sync::ArcInner<std::thread::Inner>" = type { [0 x i64], %"std::sync::atomic::AtomicUsize", [0 x i64], %"std::sync::atomic::AtomicUsize", [0 x i64], %"std::thread::Inner", [0 x i64] }
%"std::thread::Inner" = type { [0 x i64], { i8*, i64 }, [0 x i64], i64, [0 x i32], %"std::sys_common::thread_parker::futex::Parker", [1 x i32] }
%"std::sys_common::thread_parker::futex::Parker" = type { [0 x i32], %"std::sync::atomic::AtomicI32", [0 x i32] }
%"std::sync::atomic::AtomicI32" = type { [0 x i32], i32, [0 x i32] }
%"std::option::Option<i32>::Some" = type { [1 x i32], i32, [0 x i32] }
%"unwind::libunwind::_Unwind_Exception" = type { [0 x i64], i64, [0 x i64], void (i32, %"unwind::libunwind::_Unwind_Exception"*)*, [0 x i64], [6 x i64], [0 x i64] }
%"unwind::libunwind::_Unwind_Context" = type { [0 x i8] }

@vtable.0 = private unnamed_addr constant { void (%"[closure@std::thread::Builder::spawn_unchecked<[closure@src/main.rs:18:21: 24:8], ()>::{closure#0}]"*)*, i64, i64, void (%"[closure@std::thread::Builder::spawn_unchecked<[closure@src/main.rs:18:21: 24:8], ()>::{closure#0}]"*)* } { void (%"[closure@std::thread::Builder::spawn_unchecked<[closure@src/main.rs:18:21: 24:8], ()>::{closure#0}]"*)* @_RINvNtCs3p84KrD9aKt_4core3ptr13drop_in_placeNCINvMNtCs2bNvlddUlXM_3std6threadNtBM_7Builder15spawn_uncheckedNCNvCsedCAef59i8L_14waitgroup_test4main0uE0EB1L_, i64 32, i64 8, void (%"[closure@std::thread::Builder::spawn_unchecked<[closure@src/main.rs:18:21: 24:8], ()>::{closure#0}]"*)* @_RNSNvYNCINvMNtCs2bNvlddUlXM_3std6threadNtBa_7Builder15spawn_uncheckedNCNvCsedCAef59i8L_14waitgroup_test4main0uE0INtNtNtCs3p84KrD9aKt_4core3ops8function6FnOnceuE9call_once6vtableB19_ }, align 8, !dbg !0
@vtable.1 = private unnamed_addr constant { void (i64**)*, i64, i64, i32 (i64**)*, i32 (i64**)*, i32 (i64**)* } { void (i64**)* @_RINvNtCs3p84KrD9aKt_4core3ptr13drop_in_placeNCINvNtCs2bNvlddUlXM_3std2rt10lang_startuE0ECsedCAef59i8L_14waitgroup_test, i64 8, i64 8, i32 (i64**)* @_RNCINvNtCs2bNvlddUlXM_3std2rt10lang_startuE0CsedCAef59i8L_14waitgroup_test, i32 (i64**)* @_RNCINvNtCs2bNvlddUlXM_3std2rt10lang_startuE0CsedCAef59i8L_14waitgroup_test, i32 (i64**)* @_RNSNvYNCINvNtCs2bNvlddUlXM_3std2rt10lang_startuE0INtNtNtCs3p84KrD9aKt_4core3ops8function6FnOnceuE9call_once6vtableCsedCAef59i8L_14waitgroup_test }, align 8, !dbg !350
@alloc27 = private unnamed_addr constant <{ [22 x i8] }> <{ [22 x i8] c"failed to spawn thread" }>, align 1
@alloc28 = private unnamed_addr constant <{ [77 x i8] }> <{ [77 x i8] c"/rustc/e38fb306b7f5e65cca34df2dab1f0db15e1defb4/library/std/src/thread/mod.rs" }>, align 1
@alloc29 = private unnamed_addr constant <{ i8*, [16 x i8] }> <{ i8* getelementptr inbounds (<{ [77 x i8] }>, <{ [77 x i8] }>* @alloc28, i32 0, i32 0, i32 0), [16 x i8] c"M\00\00\00\00\00\00\00l\02\00\00\1D\00\00\00" }>, align 8
@vtable.2 = private unnamed_addr constant { void (%"std::io::Error"*)*, i64, i64, i1 (%"std::io::Error"*, %"std::fmt::Formatter"*)* } { void (%"std::io::Error"*)* @_RINvNtCs3p84KrD9aKt_4core3ptr13drop_in_placeNtNtNtCs2bNvlddUlXM_3std2io5error5ErrorECsedCAef59i8L_14waitgroup_test, i64 16, i64 8, i1 (%"std::io::Error"*, %"std::fmt::Formatter"*)* @"_ZN58_$LT$std..io..error..Error$u20$as$u20$core..fmt..Debug$GT$3fmt17h9846d30f97792c23E" }, align 8, !dbg !361
@alloc11 = private unnamed_addr constant <{ [0 x i8] }> zeroinitializer, align 8
@alloc30 = private unnamed_addr constant <{ [41 x i8] }> <{ [41 x i8] c"there is no such thing as a relaxed fence" }>, align 1
@alloc31 = private unnamed_addr constant <{ [79 x i8] }> <{ [79 x i8] c"/rustc/e38fb306b7f5e65cca34df2dab1f0db15e1defb4/library/core/src/sync/atomic.rs" }>, align 1
@alloc32 = private unnamed_addr constant <{ i8*, [16 x i8] }> <{ i8* getelementptr inbounds (<{ [79 x i8] }>, <{ [79 x i8] }>* @alloc31, i32 0, i32 0, i32 0), [16 x i8] c"O\00\00\00\00\00\00\00n\0A\00\00\18\00\00\00" }>, align 8
@alloc5 = private unnamed_addr constant <{ [66 x i8] }> <{ [66 x i8] c"Parent thread here, I unblocked, as wait group wait() terminated!\0A" }>, align 1
@alloc6 = private unnamed_addr constant <{ i8*, [8 x i8] }> <{ i8* getelementptr inbounds (<{ [66 x i8] }>, <{ [66 x i8] }>* @alloc5, i32 0, i32 0, i32 0), [8 x i8] c"B\00\00\00\00\00\00\00" }>, align 8
@alloc15 = private unnamed_addr constant <{ [17 x i8] }> <{ [17 x i8] c"value of data is " }>, align 1
@alloc17 = private unnamed_addr constant <{ [1 x i8] }> <{ [1 x i8] c"\0A" }>, align 1
@alloc16 = private unnamed_addr constant <{ i8*, [8 x i8], i8*, [8 x i8] }> <{ i8* getelementptr inbounds (<{ [17 x i8] }>, <{ [17 x i8] }>* @alloc15, i32 0, i32 0, i32 0), [8 x i8] c"\11\00\00\00\00\00\00\00", i8* getelementptr inbounds (<{ [1 x i8] }>, <{ [1 x i8] }>* @alloc17, i32 0, i32 0, i32 0), [8 x i8] c"\01\00\00\00\00\00\00\00" }>, align 8
@alloc33 = private unnamed_addr constant <{ [11 x i8] }> <{ [11 x i8] c"src/main.rs" }>, align 1
@alloc34 = private unnamed_addr constant <{ i8*, [16 x i8] }> <{ i8* getelementptr inbounds (<{ [11 x i8] }>, <{ [11 x i8] }>* @alloc33, i32 0, i32 0, i32 0), [16 x i8] c"\0B\00\00\00\00\00\00\00\14\00\00\00\0D\00\00\00" }>, align 8
@str.3 = internal constant [28 x i8] c"attempt to add with overflow"
@_RNvNvCsedCAef59i8L_14waitgroup_test4main4data = internal global <{ [1 x i8] }> zeroinitializer, align 1, !dbg !422
@__rustc_debug_gdb_scripts_section__ = linkonce_odr unnamed_addr constant [34 x i8] c"\01gdb_load_rust_pretty_printers.py\00", section ".debug_gdb_scripts", align 1

; <std::thread::Builder>::spawn_unchecked::<waitgroup_test::main::{closure#0}, ()>
; Function Attrs: nonlazybind uwtable
define internal void @_RINvMNtCs2bNvlddUlXM_3std6threadNtB3_7Builder15spawn_uncheckedNCNvCsedCAef59i8L_14waitgroup_test4main0uEB12_(%"std::result::Result<std::thread::JoinHandle<()>, std::io::Error>"* noalias nocapture sret dereferenceable(40) %0, %"std::thread::Builder"* noalias nocapture dereferenceable(40) %self, i64* nonnull %1) unnamed_addr #0 personality i32 (i32, i32, i64, %"unwind::libunwind::_Unwind_Exception"*, %"unwind::libunwind::_Unwind_Context"*)* @rust_eh_personality !dbg !453 {
start:
  %val.dbg.spill = alloca i64, align 8
  %2 = alloca i128, align 8
  %3 = alloca { {}*, [3 x i64]* }, align 8
  %stack_size.dbg.spill1 = alloca i64, align 8
  %4 = alloca { i8*, i32 }, align 8
  %stack_size.dbg.spill = alloca { i64, i64 }, align 8
  %_46 = alloca i8, align 1
  %_45 = alloca i8, align 1
  %_44 = alloca i8, align 1
  %_43 = alloca i8, align 1
  %_42 = alloca i8, align 1
  %_40 = alloca i64*, align 8
  %_37 = alloca %"std::io::Error", align 8
  %_36 = alloca %"std::io::Error", align 8
  %err = alloca %"std::io::Error", align 8
  %_33 = alloca %"[closure@std::thread::Builder::spawn_unchecked<[closure@src/main.rs:18:21: 24:8], ()>::{closure#0}]", align 8
  %_27 = alloca %"std::result::Result<std::sys::unix::thread::Thread, std::io::Error>", align 8
  %_26 = alloca %"std::result::Result<std::sys::unix::thread::Thread, std::io::Error>", align 8
  %_24 = alloca { i64, i64 }, align 8
  %_23 = alloca %"std::thread::JoinInner<()>", align 8
  %_22 = alloca %"std::thread::JoinHandle<()>", align 8
  %main = alloca %"[closure@std::thread::Builder::spawn_unchecked<[closure@src/main.rs:18:21: 24:8], ()>::{closure#0}]", align 8
  %_18 = alloca i64*, align 8
  %_17 = alloca i64*, align 8
  %output_capture = alloca i64*, align 8
  %their_packet = alloca i64*, align 8
  %_13 = alloca %"std::option::Option<std::result::Result<(), std::boxed::Box<dyn std::any::Any + std::marker::Send>>>", align 8
  %_12 = alloca %"std::cell::UnsafeCell<std::option::Option<std::result::Result<(), std::boxed::Box<dyn std::any::Any + std::marker::Send>>>>", align 8
  %my_packet = alloca i64*, align 8
  %their_thread = alloca i64*, align 8
  %_8 = alloca %"std::option::Option<std::string::String>", align 8
  %my_thread = alloca i64*, align 8
  %name = alloca %"std::option::Option<std::string::String>", align 8
  %f = alloca i64*, align 8
  store i64* %1, i64** %f, align 8
  call void @llvm.dbg.declare(metadata %"std::thread::Builder"* %self, metadata !531, metadata !DIExpression()), !dbg !556
  call void @llvm.dbg.declare(metadata i64** %f, metadata !532, metadata !DIExpression()), !dbg !557
  call void @llvm.dbg.declare(metadata %"std::option::Option<std::string::String>"* %name, metadata !533, metadata !DIExpression()), !dbg !558
  call void @llvm.dbg.declare(metadata i64** %my_thread, metadata !538, metadata !DIExpression()), !dbg !559
  call void @llvm.dbg.declare(metadata i64** %their_thread, metadata !540, metadata !DIExpression()), !dbg !560
  call void @llvm.dbg.declare(metadata i64** %my_packet, metadata !542, metadata !DIExpression()), !dbg !561
  call void @llvm.dbg.declare(metadata i64** %their_packet, metadata !544, metadata !DIExpression()), !dbg !562
  call void @llvm.dbg.declare(metadata i64** %output_capture, metadata !546, metadata !DIExpression()), !dbg !563
  call void @llvm.dbg.declare(metadata %"[closure@std::thread::Builder::spawn_unchecked<[closure@src/main.rs:18:21: 24:8], ()>::{closure#0}]"* %main, metadata !548, metadata !DIExpression()), !dbg !564
  call void @llvm.dbg.declare(metadata %"std::io::Error"* %err, metadata !550, metadata !DIExpression()), !dbg !565
  store i8 0, i8* %_42, align 1, !dbg !566
  store i8 0, i8* %_46, align 1, !dbg !566
  store i8 0, i8* %_44, align 1, !dbg !566
  store i8 0, i8* %_43, align 1, !dbg !566
  store i8 0, i8* %_45, align 1, !dbg !566
  store i8 1, i8* %_46, align 1, !dbg !566
  store i8 1, i8* %_45, align 1, !dbg !566
  %5 = bitcast %"std::thread::Builder"* %self to %"std::option::Option<std::string::String>"*, !dbg !566
  %6 = bitcast %"std::option::Option<std::string::String>"* %name to i8*, !dbg !566
  %7 = bitcast %"std::option::Option<std::string::String>"* %5 to i8*, !dbg !566
  call void @llvm.memcpy.p0i8.p0i8.i64(i8* align 8 %6, i8* align 8 %7, i64 24, i1 false), !dbg !566
  %8 = getelementptr inbounds %"std::thread::Builder", %"std::thread::Builder"* %self, i32 0, i32 3, !dbg !567
  %9 = getelementptr inbounds { i64, i64 }, { i64, i64 }* %8, i32 0, i32 0, !dbg !567
  %stack_size.0 = load i64, i64* %9, align 8, !dbg !567, !range !568
  %10 = getelementptr inbounds { i64, i64 }, { i64, i64 }* %8, i32 0, i32 1, !dbg !567
  %stack_size.1 = load i64, i64* %10, align 8, !dbg !567
  %11 = getelementptr inbounds { i64, i64 }, { i64, i64 }* %stack_size.dbg.spill, i32 0, i32 0, !dbg !567
  store i64 %stack_size.0, i64* %11, align 8, !dbg !567
  %12 = getelementptr inbounds { i64, i64 }, { i64, i64 }* %stack_size.dbg.spill, i32 0, i32 1, !dbg !567
  store i64 %stack_size.1, i64* %12, align 8, !dbg !567
  call void @llvm.dbg.declare(metadata { i64, i64 }* %stack_size.dbg.spill, metadata !535, metadata !DIExpression()), !dbg !569
; invoke <core::option::Option<usize>>::unwrap_or_else::<std::sys_common::thread::min_stack>
  %stack_size = invoke i64 @_RINvMNtCs3p84KrD9aKt_4core6optionINtB3_6OptionjE14unwrap_or_elseNvNtNtCs2bNvlddUlXM_3std10sys_common6thread9min_stackECsedCAef59i8L_14waitgroup_test(i64 %stack_size.0, i64 %stack_size.1)
          to label %bb1 unwind label %cleanup, !dbg !570

bb1:                                              ; preds = %start
  store i64 %stack_size, i64* %stack_size.dbg.spill1, align 8, !dbg !570
  call void @llvm.dbg.declare(metadata i64* %stack_size.dbg.spill1, metadata !536, metadata !DIExpression()), !dbg !571
  store i8 0, i8* %_45, align 1, !dbg !572
  %13 = bitcast %"std::option::Option<std::string::String>"* %_8 to i8*, !dbg !572
  %14 = bitcast %"std::option::Option<std::string::String>"* %name to i8*, !dbg !572
  call void @llvm.memcpy.p0i8.p0i8.i64(i8* align 8 %13, i8* align 8 %14, i64 24, i1 false), !dbg !572
; invoke std::thread::Thread::new
  %15 = invoke nonnull i64* @_ZN3std6thread6Thread3new17hb6f98794e2c3d412E(%"std::option::Option<std::string::String>"* noalias nocapture dereferenceable(24) %_8)
          to label %bb2 unwind label %cleanup, !dbg !573

bb2:                                              ; preds = %bb1
  store i64* %15, i64** %my_thread, align 8, !dbg !573
; invoke <std::thread::Thread as core::clone::Clone>::clone
  %16 = invoke nonnull i64* @_RNvXsk_NtCs2bNvlddUlXM_3std6threadNtB5_6ThreadNtNtCs3p84KrD9aKt_4core5clone5Clone5cloneCsedCAef59i8L_14waitgroup_test(i64** noalias readonly align 8 dereferenceable(8) %my_thread)
          to label %bb3 unwind label %cleanup2, !dbg !574

bb3:                                              ; preds = %bb2
  store i64* %16, i64** %their_thread, align 8, !dbg !574
  store i8 1, i8* %_44, align 1, !dbg !575
  %17 = bitcast %"std::option::Option<std::result::Result<(), std::boxed::Box<dyn std::any::Any + std::marker::Send>>>"* %_13 to i64*, !dbg !576
  store i64 0, i64* %17, align 8, !dbg !576
; invoke <core::cell::UnsafeCell<core::option::Option<core::result::Result<(), alloc::boxed::Box<dyn core::any::Any + core::marker::Send>>>>>::new
  invoke void @_RNvMsJ_NtCs3p84KrD9aKt_4core4cellINtB5_10UnsafeCellINtNtB7_6option6OptionINtNtB7_6result6ResultuINtNtCs8RW06R9lH2S_5alloc5boxed3BoxDNtNtB7_3any3AnyNtNtB7_6marker4SendEL_EEEE3newCsedCAef59i8L_14waitgroup_test(%"std::cell::UnsafeCell<std::option::Option<std::result::Result<(), std::boxed::Box<dyn std::any::Any + std::marker::Send>>>>"* noalias nocapture sret dereferenceable(24) %_12, %"std::option::Option<std::result::Result<(), std::boxed::Box<dyn std::any::Any + std::marker::Send>>>"* noalias nocapture dereferenceable(24) %_13)
          to label %bb4 unwind label %cleanup3, !dbg !577

bb4:                                              ; preds = %bb3
; invoke <alloc::sync::Arc<core::cell::UnsafeCell<core::option::Option<core::result::Result<(), alloc::boxed::Box<dyn core::any::Any + core::marker::Send>>>>>>::new
  %18 = invoke nonnull i64* @_RNvMsa_NtCs8RW06R9lH2S_5alloc4syncINtB5_3ArcINtNtCs3p84KrD9aKt_4core4cell10UnsafeCellINtNtBL_6option6OptionINtNtBL_6result6ResultuINtNtB7_5boxed3BoxDNtNtBL_3any3AnyNtNtBL_6marker4SendEL_EEEEE3newCsedCAef59i8L_14waitgroup_test(%"std::cell::UnsafeCell<std::option::Option<std::result::Result<(), std::boxed::Box<dyn std::any::Any + std::marker::Send>>>>"* noalias nocapture dereferenceable(24) %_12)
          to label %bb5 unwind label %cleanup3, !dbg !578

bb5:                                              ; preds = %bb4
  store i64* %18, i64** %my_packet, align 8, !dbg !578
; invoke <alloc::sync::Arc<core::cell::UnsafeCell<core::option::Option<core::result::Result<(), alloc::boxed::Box<dyn core::any::Any + core::marker::Send>>>>> as core::clone::Clone>::clone
  %19 = invoke nonnull i64* @_RNvXsk_NtCs8RW06R9lH2S_5alloc4syncINtB5_3ArcINtNtCs3p84KrD9aKt_4core4cell10UnsafeCellINtNtBL_6option6OptionINtNtBL_6result6ResultuINtNtB7_5boxed3BoxDNtNtBL_3any3AnyNtNtBL_6marker4SendEL_EEEEENtNtBL_5clone5Clone5cloneCsedCAef59i8L_14waitgroup_test(i64** noalias readonly align 8 dereferenceable(8) %my_packet)
          to label %bb6 unwind label %cleanup4, !dbg !579

bb6:                                              ; preds = %bb5
  store i64* %19, i64** %their_packet, align 8, !dbg !579
  store i8 1, i8* %_43, align 1, !dbg !580
  %20 = bitcast i64** %_17 to {}**, !dbg !581
  store {}* null, {}** %20, align 8, !dbg !581
  %21 = load i64*, i64** %_17, align 8, !dbg !582
; invoke std::io::stdio::set_output_capture
  %22 = invoke i64* @_ZN3std2io5stdio18set_output_capture17he178fcaf92baad96E(i64* %21)
          to label %bb7 unwind label %cleanup5, !dbg !582

bb7:                                              ; preds = %bb6
  store i64* %22, i64** %output_capture, align 8, !dbg !582
  store i8 1, i8* %_42, align 1, !dbg !583
; invoke <core::option::Option<alloc::sync::Arc<std::sync::mutex::Mutex<alloc::vec::Vec<u8>>>> as core::clone::Clone>::clone
  %_19 = invoke i64* @_RNvXs8_NtCs3p84KrD9aKt_4core6optionINtB5_6OptionINtNtCs8RW06R9lH2S_5alloc4sync3ArcINtNtNtCs2bNvlddUlXM_3std4sync5mutex5MutexINtNtBP_3vec3VechEEEENtNtB7_5clone5Clone5cloneCsedCAef59i8L_14waitgroup_test(i64** noalias readonly align 8 dereferenceable(8) %output_capture)
          to label %bb8 unwind label %cleanup6, !dbg !584

bb8:                                              ; preds = %bb7
; invoke std::io::stdio::set_output_capture
  %23 = invoke i64* @_ZN3std2io5stdio18set_output_capture17he178fcaf92baad96E(i64* %_19)
          to label %bb9 unwind label %cleanup6, !dbg !585

bb9:                                              ; preds = %bb8
  store i64* %23, i64** %_18, align 8, !dbg !585
; invoke core::ptr::drop_in_place::<core::option::Option<alloc::sync::Arc<std::sync::mutex::Mutex<alloc::vec::Vec<u8>>>>>
  invoke void @_RINvNtCs3p84KrD9aKt_4core3ptr13drop_in_placeINtNtB4_6option6OptionINtNtCs8RW06R9lH2S_5alloc4sync3ArcINtNtNtCs2bNvlddUlXM_3std4sync5mutex5MutexINtNtB17_3vec3VechEEEEECsedCAef59i8L_14waitgroup_test(i64** %_18)
          to label %bb10 unwind label %cleanup6, !dbg !586

bb10:                                             ; preds = %bb9
  store i8 0, i8* %_44, align 1, !dbg !587
  store i8 0, i8* %_42, align 1, !dbg !587
  store i8 0, i8* %_46, align 1, !dbg !587
  store i8 0, i8* %_43, align 1, !dbg !587
  %24 = bitcast %"[closure@std::thread::Builder::spawn_unchecked<[closure@src/main.rs:18:21: 24:8], ()>::{closure#0}]"* %main to i64**, !dbg !587
  %25 = load i64*, i64** %their_thread, align 8, !dbg !587, !nonnull !4
  store i64* %25, i64** %24, align 8, !dbg !587
  %26 = getelementptr inbounds %"[closure@std::thread::Builder::spawn_unchecked<[closure@src/main.rs:18:21: 24:8], ()>::{closure#0}]", %"[closure@std::thread::Builder::spawn_unchecked<[closure@src/main.rs:18:21: 24:8], ()>::{closure#0}]"* %main, i32 0, i32 3, !dbg !587
  %27 = load i64*, i64** %output_capture, align 8, !dbg !587
  store i64* %27, i64** %26, align 8, !dbg !587
  %28 = getelementptr inbounds %"[closure@std::thread::Builder::spawn_unchecked<[closure@src/main.rs:18:21: 24:8], ()>::{closure#0}]", %"[closure@std::thread::Builder::spawn_unchecked<[closure@src/main.rs:18:21: 24:8], ()>::{closure#0}]"* %main, i32 0, i32 5, !dbg !587
  %29 = load i64*, i64** %f, align 8, !dbg !587, !nonnull !4
  store i64* %29, i64** %28, align 8, !dbg !587
  %30 = getelementptr inbounds %"[closure@std::thread::Builder::spawn_unchecked<[closure@src/main.rs:18:21: 24:8], ()>::{closure#0}]", %"[closure@std::thread::Builder::spawn_unchecked<[closure@src/main.rs:18:21: 24:8], ()>::{closure#0}]"* %main, i32 0, i32 7, !dbg !587
  %31 = load i64*, i64** %their_packet, align 8, !dbg !587, !nonnull !4
  store i64* %31, i64** %30, align 8, !dbg !587
  %32 = bitcast %"[closure@std::thread::Builder::spawn_unchecked<[closure@src/main.rs:18:21: 24:8], ()>::{closure#0}]"* %_33 to i8*, !dbg !588
  %33 = bitcast %"[closure@std::thread::Builder::spawn_unchecked<[closure@src/main.rs:18:21: 24:8], ()>::{closure#0}]"* %main to i8*, !dbg !588
  call void @llvm.memcpy.p0i8.p0i8.i64(i8* align 8 %32, i8* align 8 %33, i64 32, i1 false), !dbg !588
  call void @llvm.dbg.declare(metadata %"[closure@std::thread::Builder::spawn_unchecked<[closure@src/main.rs:18:21: 24:8], ()>::{closure#0}]"* %_33, metadata !589, metadata !DIExpression()), !dbg !600
; invoke alloc::alloc::exchange_malloc
  %34 = invoke i8* @_RNvNtCs8RW06R9lH2S_5alloc5alloc15exchange_mallocCsedCAef59i8L_14waitgroup_test(i64 32, i64 8)
          to label %_RNvMNtCs8RW06R9lH2S_5alloc5boxedINtB2_3BoxNCINvMNtCs2bNvlddUlXM_3std6threadNtBK_7Builder15spawn_uncheckedNCNvCsedCAef59i8L_14waitgroup_test4main0uE0E3newB1J_.exit unwind label %cleanup6, !dbg !602

_RNvMNtCs8RW06R9lH2S_5alloc5boxedINtB2_3BoxNCINvMNtCs2bNvlddUlXM_3std6threadNtBK_7Builder15spawn_uncheckedNCNvCsedCAef59i8L_14waitgroup_test4main0uE0E3newB1J_.exit: ; preds = %bb10
  %35 = bitcast i8* %34 to %"[closure@std::thread::Builder::spawn_unchecked<[closure@src/main.rs:18:21: 24:8], ()>::{closure#0}]"*, !dbg !602
  %36 = bitcast %"[closure@std::thread::Builder::spawn_unchecked<[closure@src/main.rs:18:21: 24:8], ()>::{closure#0}]"* %_33 to i8*, !dbg !603
  call void @llvm.memcpy.p0i8.p0i8.i64(i8* align 8 %34, i8* align 8 %36, i64 32, i1 false), !dbg !603
  br label %bb11, !dbg !604

bb11:                                             ; preds = %_RNvMNtCs8RW06R9lH2S_5alloc5boxedINtB2_3BoxNCINvMNtCs2bNvlddUlXM_3std6threadNtBK_7Builder15spawn_uncheckedNCNvCsedCAef59i8L_14waitgroup_test4main0uE0E3newB1J_.exit
  %37 = bitcast %"[closure@std::thread::Builder::spawn_unchecked<[closure@src/main.rs:18:21: 24:8], ()>::{closure#0}]"* %35 to {}*, !dbg !605
  %38 = bitcast {}* %37 to i8*, !dbg !605
  %_31.0 = bitcast i8* %38 to {}*, !dbg !605
  %39 = getelementptr inbounds { {}*, [3 x i64]* }, { {}*, [3 x i64]* }* %3, i32 0, i32 0, !dbg !606
  store {}* %_31.0, {}** %39, align 8, !dbg !606
  %40 = getelementptr inbounds { {}*, [3 x i64]* }, { {}*, [3 x i64]* }* %3, i32 0, i32 1, !dbg !606
  store [3 x i64]* bitcast ({ void (%"[closure@std::thread::Builder::spawn_unchecked<[closure@src/main.rs:18:21: 24:8], ()>::{closure#0}]"*)*, i64, i64, void (%"[closure@std::thread::Builder::spawn_unchecked<[closure@src/main.rs:18:21: 24:8], ()>::{closure#0}]"*)* }* @vtable.0 to [3 x i64]*), [3 x i64]** %40, align 8, !dbg !606
  %41 = getelementptr inbounds { {}*, [3 x i64]* }, { {}*, [3 x i64]* }* %3, i32 0, i32 0, !dbg !606
  %_30.0 = load {}*, {}** %41, align 8, !dbg !606, !nonnull !4
  %42 = getelementptr inbounds { {}*, [3 x i64]* }, { {}*, [3 x i64]* }* %3, i32 0, i32 1, !dbg !606
  %_30.1 = load [3 x i64]*, [3 x i64]** %42, align 8, !dbg !606, !nonnull !4
  br label %bb12, !dbg !606

bb12:                                             ; preds = %bb11
; invoke std::sys::unix::thread::Thread::new
  invoke void @_ZN3std3sys4unix6thread6Thread3new17h3bc268f2aed68233E(%"std::result::Result<std::sys::unix::thread::Thread, std::io::Error>"* noalias nocapture sret dereferenceable(24) %_27, i64 %stack_size, {}* noalias nonnull align 1 %_30.0, [3 x i64]* noalias readonly align 8 dereferenceable(24) %_30.1)
          to label %bb13 unwind label %cleanup6, !dbg !607

bb13:                                             ; preds = %bb12
; invoke <core::result::Result<std::sys::unix::thread::Thread, std::io::error::Error> as core::ops::try::Try>::into_result
  invoke void @_RNvXsw_NtCs3p84KrD9aKt_4core6resultINtB5_6ResultNtNtNtNtCs2bNvlddUlXM_3std3sys4unix6thread6ThreadNtNtNtBS_2io5error5ErrorENtNtNtB7_3ops3try3Try11into_resultCsedCAef59i8L_14waitgroup_test(%"std::result::Result<std::sys::unix::thread::Thread, std::io::Error>"* noalias nocapture sret dereferenceable(24) %_26, %"std::result::Result<std::sys::unix::thread::Thread, std::io::Error>"* noalias nocapture dereferenceable(24) %_27)
          to label %bb14 unwind label %cleanup6, !dbg !607

bb14:                                             ; preds = %bb13
  %43 = bitcast %"std::result::Result<std::sys::unix::thread::Thread, std::io::Error>"* %_26 to i64*, !dbg !608
  %_34 = load i64, i64* %43, align 8, !dbg !608, !range !568
  switch i64 %_34, label %bb16 [
    i64 0, label %bb15
    i64 1, label %bb17
  ], !dbg !608

bb15:                                             ; preds = %bb14
  %44 = bitcast %"std::result::Result<std::sys::unix::thread::Thread, std::io::Error>"* %_26 to %"std::result::Result<std::sys::unix::thread::Thread, std::io::Error>::Ok"*, !dbg !607
  %45 = getelementptr inbounds %"std::result::Result<std::sys::unix::thread::Thread, std::io::Error>::Ok", %"std::result::Result<std::sys::unix::thread::Thread, std::io::Error>::Ok"* %44, i32 0, i32 1, !dbg !607
  %val = load i64, i64* %45, align 8, !dbg !607
  store i64 %val, i64* %val.dbg.spill, align 8, !dbg !607
  call void @llvm.dbg.declare(metadata i64* %val.dbg.spill, metadata !552, metadata !DIExpression()), !dbg !609
  %46 = bitcast { i64, i64 }* %_24 to %"std::option::Option<std::sys::unix::thread::Thread>::Some"*, !dbg !610
  %47 = getelementptr inbounds %"std::option::Option<std::sys::unix::thread::Thread>::Some", %"std::option::Option<std::sys::unix::thread::Thread>::Some"* %46, i32 0, i32 1, !dbg !610
  store i64 %val, i64* %47, align 8, !dbg !610
  %48 = bitcast { i64, i64 }* %_24 to i64*, !dbg !610
  store i64 1, i64* %48, align 8, !dbg !610
  %_39 = load i64*, i64** %my_thread, align 8, !dbg !611, !nonnull !4
  %_41 = load i64*, i64** %my_packet, align 8, !dbg !612, !nonnull !4
  store i64* %_41, i64** %_40, align 8, !dbg !613
  %49 = bitcast %"std::thread::JoinInner<()>"* %_23 to { i64, i64 }*, !dbg !614
  %50 = getelementptr inbounds { i64, i64 }, { i64, i64 }* %_24, i32 0, i32 0, !dbg !614
  %51 = load i64, i64* %50, align 8, !dbg !614, !range !568
  %52 = getelementptr inbounds { i64, i64 }, { i64, i64 }* %_24, i32 0, i32 1, !dbg !614
  %53 = load i64, i64* %52, align 8, !dbg !614
  %54 = getelementptr inbounds { i64, i64 }, { i64, i64 }* %49, i32 0, i32 0, !dbg !614
  store i64 %51, i64* %54, align 8, !dbg !614
  %55 = getelementptr inbounds { i64, i64 }, { i64, i64 }* %49, i32 0, i32 1, !dbg !614
  store i64 %53, i64* %55, align 8, !dbg !614
  %56 = getelementptr inbounds %"std::thread::JoinInner<()>", %"std::thread::JoinInner<()>"* %_23, i32 0, i32 3, !dbg !614
  store i64* %_39, i64** %56, align 8, !dbg !614
  %57 = getelementptr inbounds %"std::thread::JoinInner<()>", %"std::thread::JoinInner<()>"* %_23, i32 0, i32 5, !dbg !614
  %58 = load i64*, i64** %_40, align 8, !dbg !614, !nonnull !4
  store i64* %58, i64** %57, align 8, !dbg !614
  %59 = bitcast %"std::thread::JoinHandle<()>"* %_22 to %"std::thread::JoinInner<()>"*, !dbg !615
  %60 = bitcast %"std::thread::JoinInner<()>"* %59 to i8*, !dbg !615
  %61 = bitcast %"std::thread::JoinInner<()>"* %_23 to i8*, !dbg !615
  call void @llvm.memcpy.p0i8.p0i8.i64(i8* align 8 %60, i8* align 8 %61, i64 32, i1 false), !dbg !615
  %62 = bitcast %"std::result::Result<std::thread::JoinHandle<()>, std::io::Error>"* %0 to %"std::result::Result<std::thread::JoinHandle<()>, std::io::Error>::Ok"*, !dbg !616
  %63 = getelementptr inbounds %"std::result::Result<std::thread::JoinHandle<()>, std::io::Error>::Ok", %"std::result::Result<std::thread::JoinHandle<()>, std::io::Error>::Ok"* %62, i32 0, i32 1, !dbg !616
  %64 = bitcast %"std::thread::JoinHandle<()>"* %63 to i8*, !dbg !616
  %65 = bitcast %"std::thread::JoinHandle<()>"* %_22 to i8*, !dbg !616
  call void @llvm.memcpy.p0i8.p0i8.i64(i8* align 8 %64, i8* align 8 %65, i64 32, i1 false), !dbg !616
  %66 = bitcast %"std::result::Result<std::thread::JoinHandle<()>, std::io::Error>"* %0 to i64*, !dbg !616
  store i64 0, i64* %66, align 8, !dbg !616
  store i8 0, i8* %_42, align 1, !dbg !617
  store i8 0, i8* %_43, align 1, !dbg !618
  store i8 0, i8* %_44, align 1, !dbg !619
  store i8 0, i8* %_45, align 1, !dbg !620
  br label %bb22, !dbg !620

bb16:                                             ; preds = %bb14
  unreachable, !dbg !607

bb17:                                             ; preds = %bb14
  %67 = bitcast %"std::result::Result<std::sys::unix::thread::Thread, std::io::Error>"* %_26 to %"std::result::Result<std::sys::unix::thread::Thread, std::io::Error>::Err"*, !dbg !608
  %68 = getelementptr inbounds %"std::result::Result<std::sys::unix::thread::Thread, std::io::Error>::Err", %"std::result::Result<std::sys::unix::thread::Thread, std::io::Error>::Err"* %67, i32 0, i32 1, !dbg !608
  %69 = bitcast %"std::io::Error"* %err to i8*, !dbg !608
  %70 = bitcast %"std::io::Error"* %68 to i8*, !dbg !608
  call void @llvm.memcpy.p0i8.p0i8.i64(i8* align 8 %69, i8* align 8 %70, i64 16, i1 false), !dbg !608
  %71 = bitcast %"std::io::Error"* %_37 to i8*, !dbg !565
  %72 = bitcast %"std::io::Error"* %err to i8*, !dbg !565
  call void @llvm.memcpy.p0i8.p0i8.i64(i8* align 8 %71, i8* align 8 %72, i64 16, i1 false), !dbg !565
  %73 = bitcast %"std::io::Error"* %_37 to i128*, !dbg !565
  %74 = load i128, i128* %73, align 8, !dbg !565
; invoke <std::io::error::Error as core::convert::From<std::io::error::Error>>::from
  %75 = invoke i128 @_RNvXs2_NtCs3p84KrD9aKt_4core7convertNtNtNtCs2bNvlddUlXM_3std2io5error5ErrorINtB5_4FromBy_E4fromCsedCAef59i8L_14waitgroup_test(i128 %74)
          to label %bb18 unwind label %cleanup7, !dbg !565

bb18:                                             ; preds = %bb17
  store i128 %75, i128* %2, align 8, !dbg !565
  %76 = bitcast %"std::io::Error"* %_36 to i8*, !dbg !565
  %77 = bitcast i128* %2 to i8*, !dbg !565
  call void @llvm.memcpy.p0i8.p0i8.i64(i8* align 8 %76, i8* align 8 %77, i64 16, i1 false), !dbg !565
  %78 = bitcast %"std::io::Error"* %_36 to i128*, !dbg !621
  %79 = load i128, i128* %78, align 8, !dbg !621
; invoke <core::result::Result<std::thread::JoinHandle<()>, std::io::error::Error> as core::ops::try::Try>::from_error
  invoke void @_RNvXsw_NtCs3p84KrD9aKt_4core6resultINtB5_6ResultINtNtCs2bNvlddUlXM_3std6thread10JoinHandleuENtNtNtBP_2io5error5ErrorENtNtNtB7_3ops3try3Try10from_errorCsedCAef59i8L_14waitgroup_test(%"std::result::Result<std::thread::JoinHandle<()>, std::io::Error>"* noalias nocapture sret dereferenceable(40) %0, i128 %79)
          to label %bb19 unwind label %cleanup7, !dbg !621

bb19:                                             ; preds = %bb18
  store i8 0, i8* %_42, align 1, !dbg !617
  store i8 0, i8* %_43, align 1, !dbg !618
; invoke core::ptr::drop_in_place::<alloc::sync::Arc<core::cell::UnsafeCell<core::option::Option<core::result::Result<(), alloc::boxed::Box<dyn core::any::Any + core::marker::Send>>>>>>
  invoke void @_RINvNtCs3p84KrD9aKt_4core3ptr13drop_in_placeINtNtCs8RW06R9lH2S_5alloc4sync3ArcINtNtB4_4cell10UnsafeCellINtNtB4_6option6OptionINtNtB4_6result6ResultuINtNtBL_5boxed3BoxDNtNtB4_3any3AnyNtNtB4_6marker4SendEL_EEEEEECsedCAef59i8L_14waitgroup_test(i64** %my_packet)
          to label %bb20 unwind label %cleanup8, !dbg !622

bb20:                                             ; preds = %bb19
  store i8 0, i8* %_44, align 1, !dbg !619
; invoke core::ptr::drop_in_place::<std::thread::Thread>
  invoke void @_RINvNtCs3p84KrD9aKt_4core3ptr13drop_in_placeNtNtCs2bNvlddUlXM_3std6thread6ThreadECs48Yq53b35jF_15crossbeam_utils(i64** %my_thread)
          to label %bb21 unwind label %cleanup9, !dbg !623

bb21:                                             ; preds = %bb20
  store i8 0, i8* %_45, align 1, !dbg !620
  br label %bb22, !dbg !620

bb22:                                             ; preds = %bb15, %bb21
  ret void, !dbg !624

bb23:                                             ; preds = %cleanup8
; call core::ptr::drop_in_place::<std::thread::Thread>
  call void @_RINvNtCs3p84KrD9aKt_4core3ptr13drop_in_placeNtNtCs2bNvlddUlXM_3std6thread6ThreadECs48Yq53b35jF_15crossbeam_utils(i64** %my_thread) #13, !dbg !623
  br label %bb24, !dbg !623

bb24:                                             ; preds = %cleanup9, %bb23
; call core::ptr::drop_in_place::<core::result::Result<std::thread::JoinHandle<()>, std::io::error::Error>>
  call void @_RINvNtCs3p84KrD9aKt_4core3ptr13drop_in_placeINtNtB4_6result6ResultINtNtCs2bNvlddUlXM_3std6thread10JoinHandleuENtNtNtB17_2io5error5ErrorEECsedCAef59i8L_14waitgroup_test(%"std::result::Result<std::thread::JoinHandle<()>, std::io::Error>"* %0) #13, !dbg !620
  br label %bb30, !dbg !620

bb25:                                             ; preds = %cleanup7
; call core::ptr::drop_in_place::<alloc::sync::Arc<core::cell::UnsafeCell<core::option::Option<core::result::Result<(), alloc::boxed::Box<dyn core::any::Any + core::marker::Send>>>>>>
  call void @_RINvNtCs3p84KrD9aKt_4core3ptr13drop_in_placeINtNtCs8RW06R9lH2S_5alloc4sync3ArcINtNtB4_4cell10UnsafeCellINtNtB4_6option6OptionINtNtB4_6result6ResultuINtNtBL_5boxed3BoxDNtNtB4_3any3AnyNtNtB4_6marker4SendEL_EEEEEECsedCAef59i8L_14waitgroup_test(i64** %my_packet) #13, !dbg !622
  br label %bb26, !dbg !622

bb26:                                             ; preds = %bb25
; call core::ptr::drop_in_place::<std::thread::Thread>
  call void @_RINvNtCs3p84KrD9aKt_4core3ptr13drop_in_placeNtNtCs2bNvlddUlXM_3std6thread6ThreadECs48Yq53b35jF_15crossbeam_utils(i64** %my_thread) #13, !dbg !623
  br label %bb31, !dbg !623

bb27:                                             ; preds = %bb34, %bb35, %cleanup4
; call core::ptr::drop_in_place::<alloc::sync::Arc<core::cell::UnsafeCell<core::option::Option<core::result::Result<(), alloc::boxed::Box<dyn core::any::Any + core::marker::Send>>>>>>
  call void @_RINvNtCs3p84KrD9aKt_4core3ptr13drop_in_placeINtNtCs8RW06R9lH2S_5alloc4sync3ArcINtNtB4_4cell10UnsafeCellINtNtB4_6option6OptionINtNtB4_6result6ResultuINtNtBL_5boxed3BoxDNtNtB4_3any3AnyNtNtB4_6marker4SendEL_EEEEEECsedCAef59i8L_14waitgroup_test(i64** %my_packet) #13, !dbg !622
  br label %bb37, !dbg !622

bb28:                                             ; preds = %bb36, %bb37, %cleanup2
; call core::ptr::drop_in_place::<std::thread::Thread>
  call void @_RINvNtCs3p84KrD9aKt_4core3ptr13drop_in_placeNtNtCs2bNvlddUlXM_3std6thread6ThreadECs48Yq53b35jF_15crossbeam_utils(i64** %my_thread) #13, !dbg !623
  br label %bb39, !dbg !623

bb29:                                             ; preds = %bb31, %bb38, %bb39
  %80 = load i8, i8* %_46, align 1, !dbg !620, !range !625
  %81 = trunc i8 %80 to i1, !dbg !620
  br i1 %81, label %bb40, label %bb30, !dbg !620

bb30:                                             ; preds = %bb24, %bb40, %bb29
  %82 = bitcast { i8*, i32 }* %4 to i8**, !dbg !626
  %83 = load i8*, i8** %82, align 8, !dbg !626
  %84 = getelementptr inbounds { i8*, i32 }, { i8*, i32 }* %4, i32 0, i32 1, !dbg !626
  %85 = load i32, i32* %84, align 8, !dbg !626
  %86 = insertvalue { i8*, i32 } undef, i8* %83, 0, !dbg !626
  %87 = insertvalue { i8*, i32 } %86, i32 %85, 1, !dbg !626
  resume { i8*, i32 } %87, !dbg !626

bb31:                                             ; preds = %bb26
  br label %bb29, !dbg !620

bb32:                                             ; preds = %bb33
; call core::ptr::drop_in_place::<core::option::Option<alloc::sync::Arc<std::sync::mutex::Mutex<alloc::vec::Vec<u8>>>>>
  call void @_RINvNtCs3p84KrD9aKt_4core3ptr13drop_in_placeINtNtB4_6option6OptionINtNtCs8RW06R9lH2S_5alloc4sync3ArcINtNtNtCs2bNvlddUlXM_3std4sync5mutex5MutexINtNtB17_3vec3VechEEEEECsedCAef59i8L_14waitgroup_test(i64** %output_capture) #13, !dbg !617
  br label %bb35, !dbg !617

bb33:                                             ; preds = %cleanup6
  %88 = load i8, i8* %_42, align 1, !dbg !617, !range !625
  %89 = trunc i8 %88 to i1, !dbg !617
  br i1 %89, label %bb32, label %bb35, !dbg !617

bb34:                                             ; preds = %bb35
; call core::ptr::drop_in_place::<alloc::sync::Arc<core::cell::UnsafeCell<core::option::Option<core::result::Result<(), alloc::boxed::Box<dyn core::any::Any + core::marker::Send>>>>>>
  call void @_RINvNtCs3p84KrD9aKt_4core3ptr13drop_in_placeINtNtCs8RW06R9lH2S_5alloc4sync3ArcINtNtB4_4cell10UnsafeCellINtNtB4_6option6OptionINtNtB4_6result6ResultuINtNtBL_5boxed3BoxDNtNtB4_3any3AnyNtNtB4_6marker4SendEL_EEEEEECsedCAef59i8L_14waitgroup_test(i64** %their_packet) #13, !dbg !618
  br label %bb27, !dbg !618

bb35:                                             ; preds = %bb32, %bb33, %cleanup5
  %90 = load i8, i8* %_43, align 1, !dbg !618, !range !625
  %91 = trunc i8 %90 to i1, !dbg !618
  br i1 %91, label %bb34, label %bb27, !dbg !618

bb36:                                             ; preds = %bb37
; call core::ptr::drop_in_place::<std::thread::Thread>
  call void @_RINvNtCs3p84KrD9aKt_4core3ptr13drop_in_placeNtNtCs2bNvlddUlXM_3std6thread6ThreadECs48Yq53b35jF_15crossbeam_utils(i64** %their_thread) #13, !dbg !619
  br label %bb28, !dbg !619

bb37:                                             ; preds = %bb27, %cleanup3
  %92 = load i8, i8* %_44, align 1, !dbg !619, !range !625
  %93 = trunc i8 %92 to i1, !dbg !619
  br i1 %93, label %bb36, label %bb28, !dbg !619

bb38:                                             ; preds = %bb39
; call core::ptr::drop_in_place::<core::option::Option<alloc::string::String>>
  call void @_RINvNtCs3p84KrD9aKt_4core3ptr13drop_in_placeINtNtB4_6option6OptionNtNtCs8RW06R9lH2S_5alloc6string6StringEECsedCAef59i8L_14waitgroup_test(%"std::option::Option<std::string::String>"* %name) #13, !dbg !620
  br label %bb29, !dbg !620

bb39:                                             ; preds = %bb28, %cleanup
  %94 = load i8, i8* %_45, align 1, !dbg !620, !range !625
  %95 = trunc i8 %94 to i1, !dbg !620
  br i1 %95, label %bb38, label %bb29, !dbg !620

bb40:                                             ; preds = %bb29
; call core::ptr::drop_in_place::<waitgroup_test::main::{closure#0}>
  call void @_RINvNtCs3p84KrD9aKt_4core3ptr13drop_in_placeNCNvCsedCAef59i8L_14waitgroup_test4main0EBK_(i64** %f) #13, !dbg !620
  br label %bb30, !dbg !620

cleanup:                                          ; preds = %bb1, %start
  %96 = landingpad { i8*, i32 }
          cleanup
  %97 = extractvalue { i8*, i32 } %96, 0
  %98 = extractvalue { i8*, i32 } %96, 1
  %99 = getelementptr inbounds { i8*, i32 }, { i8*, i32 }* %4, i32 0, i32 0
  store i8* %97, i8** %99, align 8
  %100 = getelementptr inbounds { i8*, i32 }, { i8*, i32 }* %4, i32 0, i32 1
  store i32 %98, i32* %100, align 8
  br label %bb39

cleanup2:                                         ; preds = %bb2
  %101 = landingpad { i8*, i32 }
          cleanup
  %102 = extractvalue { i8*, i32 } %101, 0
  %103 = extractvalue { i8*, i32 } %101, 1
  %104 = getelementptr inbounds { i8*, i32 }, { i8*, i32 }* %4, i32 0, i32 0
  store i8* %102, i8** %104, align 8
  %105 = getelementptr inbounds { i8*, i32 }, { i8*, i32 }* %4, i32 0, i32 1
  store i32 %103, i32* %105, align 8
  br label %bb28

cleanup3:                                         ; preds = %bb4, %bb3
  %106 = landingpad { i8*, i32 }
          cleanup
  %107 = extractvalue { i8*, i32 } %106, 0
  %108 = extractvalue { i8*, i32 } %106, 1
  %109 = getelementptr inbounds { i8*, i32 }, { i8*, i32 }* %4, i32 0, i32 0
  store i8* %107, i8** %109, align 8
  %110 = getelementptr inbounds { i8*, i32 }, { i8*, i32 }* %4, i32 0, i32 1
  store i32 %108, i32* %110, align 8
  br label %bb37

cleanup4:                                         ; preds = %bb5
  %111 = landingpad { i8*, i32 }
          cleanup
  %112 = extractvalue { i8*, i32 } %111, 0
  %113 = extractvalue { i8*, i32 } %111, 1
  %114 = getelementptr inbounds { i8*, i32 }, { i8*, i32 }* %4, i32 0, i32 0
  store i8* %112, i8** %114, align 8
  %115 = getelementptr inbounds { i8*, i32 }, { i8*, i32 }* %4, i32 0, i32 1
  store i32 %113, i32* %115, align 8
  br label %bb27

cleanup5:                                         ; preds = %bb6
  %116 = landingpad { i8*, i32 }
          cleanup
  %117 = extractvalue { i8*, i32 } %116, 0
  %118 = extractvalue { i8*, i32 } %116, 1
  %119 = getelementptr inbounds { i8*, i32 }, { i8*, i32 }* %4, i32 0, i32 0
  store i8* %117, i8** %119, align 8
  %120 = getelementptr inbounds { i8*, i32 }, { i8*, i32 }* %4, i32 0, i32 1
  store i32 %118, i32* %120, align 8
  br label %bb35

cleanup6:                                         ; preds = %bb10, %bb13, %bb12, %bb9, %bb8, %bb7
  %121 = landingpad { i8*, i32 }
          cleanup
  %122 = extractvalue { i8*, i32 } %121, 0
  %123 = extractvalue { i8*, i32 } %121, 1
  %124 = getelementptr inbounds { i8*, i32 }, { i8*, i32 }* %4, i32 0, i32 0
  store i8* %122, i8** %124, align 8
  %125 = getelementptr inbounds { i8*, i32 }, { i8*, i32 }* %4, i32 0, i32 1
  store i32 %123, i32* %125, align 8
  br label %bb33

cleanup7:                                         ; preds = %bb18, %bb17
  %126 = landingpad { i8*, i32 }
          cleanup
  %127 = extractvalue { i8*, i32 } %126, 0
  %128 = extractvalue { i8*, i32 } %126, 1
  %129 = getelementptr inbounds { i8*, i32 }, { i8*, i32 }* %4, i32 0, i32 0
  store i8* %127, i8** %129, align 8
  %130 = getelementptr inbounds { i8*, i32 }, { i8*, i32 }* %4, i32 0, i32 1
  store i32 %128, i32* %130, align 8
  br label %bb25

cleanup8:                                         ; preds = %bb19
  %131 = landingpad { i8*, i32 }
          cleanup
  %132 = extractvalue { i8*, i32 } %131, 0
  %133 = extractvalue { i8*, i32 } %131, 1
  %134 = getelementptr inbounds { i8*, i32 }, { i8*, i32 }* %4, i32 0, i32 0
  store i8* %132, i8** %134, align 8
  %135 = getelementptr inbounds { i8*, i32 }, { i8*, i32 }* %4, i32 0, i32 1
  store i32 %133, i32* %135, align 8
  br label %bb23

cleanup9:                                         ; preds = %bb20
  %136 = landingpad { i8*, i32 }
          cleanup
  %137 = extractvalue { i8*, i32 } %136, 0
  %138 = extractvalue { i8*, i32 } %136, 1
  %139 = getelementptr inbounds { i8*, i32 }, { i8*, i32 }* %4, i32 0, i32 0
  store i8* %137, i8** %139, align 8
  %140 = getelementptr inbounds { i8*, i32 }, { i8*, i32 }* %4, i32 0, i32 1
  store i32 %138, i32* %140, align 8
  br label %bb24
}

; <std::thread::Builder>::spawn::<waitgroup_test::main::{closure#0}, ()>
; Function Attrs: nonlazybind uwtable
define internal void @_RINvMNtCs2bNvlddUlXM_3std6threadNtB3_7Builder5spawnNCNvCsedCAef59i8L_14waitgroup_test4main0uEBR_(%"std::result::Result<std::thread::JoinHandle<()>, std::io::Error>"* noalias nocapture sret dereferenceable(40) %0, %"std::thread::Builder"* noalias nocapture dereferenceable(40) %self, i64* nonnull %f) unnamed_addr #0 !dbg !627 {
start:
  %f.dbg.spill = alloca i64*, align 8
  %_3 = alloca %"std::thread::Builder", align 8
  call void @llvm.dbg.declare(metadata %"std::thread::Builder"* %self, metadata !629, metadata !DIExpression()), !dbg !631
  store i64* %f, i64** %f.dbg.spill, align 8
  call void @llvm.dbg.declare(metadata i64** %f.dbg.spill, metadata !630, metadata !DIExpression()), !dbg !632
  %1 = bitcast %"std::thread::Builder"* %_3 to i8*, !dbg !633
  %2 = bitcast %"std::thread::Builder"* %self to i8*, !dbg !633
  call void @llvm.memcpy.p0i8.p0i8.i64(i8* align 8 %1, i8* align 8 %2, i64 40, i1 false), !dbg !633
; call <std::thread::Builder>::spawn_unchecked::<waitgroup_test::main::{closure#0}, ()>
  call void @_RINvMNtCs2bNvlddUlXM_3std6threadNtB3_7Builder15spawn_uncheckedNCNvCsedCAef59i8L_14waitgroup_test4main0uEB12_(%"std::result::Result<std::thread::JoinHandle<()>, std::io::Error>"* noalias nocapture sret dereferenceable(40) %0, %"std::thread::Builder"* noalias nocapture dereferenceable(40) %_3, i64* nonnull %f), !dbg !633
  br label %bb1, !dbg !633

bb1:                                              ; preds = %start
  ret void, !dbg !634
}

; <core::option::Option<usize>>::unwrap_or_else::<std::sys_common::thread::min_stack>
; Function Attrs: inlinehint nonlazybind uwtable
define internal i64 @_RINvMNtCs3p84KrD9aKt_4core6optionINtB3_6OptionjE14unwrap_or_elseNvNtNtCs2bNvlddUlXM_3std10sys_common6thread9min_stackECsedCAef59i8L_14waitgroup_test(i64 %0, i64 %1) unnamed_addr #1 personality i32 (i32, i32, i64, %"unwind::libunwind::_Unwind_Exception"*, %"unwind::libunwind::_Unwind_Context"*)* @rust_eh_personality !dbg !635 {
start:
  %2 = alloca { i8*, i32 }, align 8
  %x.dbg.spill = alloca i64, align 8
  %f.dbg.spill = alloca {}, align 1
  %_7 = alloca i8, align 1
  %_6 = alloca {}, align 1
  %3 = alloca i64, align 8
  %self = alloca { i64, i64 }, align 8
  %4 = getelementptr inbounds { i64, i64 }, { i64, i64 }* %self, i32 0, i32 0
  store i64 %0, i64* %4, align 8
  %5 = getelementptr inbounds { i64, i64 }, { i64, i64 }* %self, i32 0, i32 1
  store i64 %1, i64* %5, align 8
  call void @llvm.dbg.declare(metadata { i64, i64 }* %self, metadata !643, metadata !DIExpression()), !dbg !649
  call void @llvm.dbg.declare(metadata {}* %f.dbg.spill, metadata !644, metadata !DIExpression()), !dbg !650
  store i8 0, i8* %_7, align 1, !dbg !651
  store i8 1, i8* %_7, align 1, !dbg !651
  %6 = bitcast { i64, i64 }* %self to i64*, !dbg !651
  %_3 = load i64, i64* %6, align 8, !dbg !651, !range !568
  switch i64 %_3, label %bb2 [
    i64 0, label %bb1
    i64 1, label %bb3
  ], !dbg !651

bb1:                                              ; preds = %start
  store i8 0, i8* %_7, align 1, !dbg !652
; call <std::sys_common::thread::min_stack as core::ops::function::FnOnce<()>>::call_once
  %7 = call i64 @_RNvYNvNtNtCs2bNvlddUlXM_3std10sys_common6thread9min_stackINtNtNtCs3p84KrD9aKt_4core3ops8function6FnOnceuE9call_onceCsedCAef59i8L_14waitgroup_test(), !dbg !652
  store i64 %7, i64* %3, align 8, !dbg !652
  br label %bb4, !dbg !652

bb2:                                              ; preds = %start
  unreachable, !dbg !653

bb3:                                              ; preds = %start
  %8 = bitcast { i64, i64 }* %self to %"std::option::Option<usize>::Some"*, !dbg !654
  %9 = getelementptr inbounds %"std::option::Option<usize>::Some", %"std::option::Option<usize>::Some"* %8, i32 0, i32 1, !dbg !654
  %x = load i64, i64* %9, align 8, !dbg !654
  store i64 %x, i64* %x.dbg.spill, align 8, !dbg !654
  call void @llvm.dbg.declare(metadata i64* %x.dbg.spill, metadata !645, metadata !DIExpression()), !dbg !655
  store i64 %x, i64* %3, align 8, !dbg !656
  br label %bb9, !dbg !657

bb4:                                              ; preds = %bb1
  br label %bb9, !dbg !657

bb5:                                              ; preds = %bb8, %bb9
  %10 = load i64, i64* %3, align 8, !dbg !658
  ret i64 %10, !dbg !658

bb6:                                              ; No predecessors!
  br label %bb7, !dbg !659

bb7:                                              ; preds = %bb6
  %11 = bitcast { i8*, i32 }* %2 to i8**, !dbg !660
  %12 = load i8*, i8** %11, align 8, !dbg !660
  %13 = getelementptr inbounds { i8*, i32 }, { i8*, i32 }* %2, i32 0, i32 1, !dbg !660
  %14 = load i32, i32* %13, align 8, !dbg !660
  %15 = insertvalue { i8*, i32 } undef, i8* %12, 0, !dbg !660
  %16 = insertvalue { i8*, i32 } %15, i32 %14, 1, !dbg !660
  resume { i8*, i32 } %16, !dbg !660

bb8:                                              ; preds = %bb9
  br label %bb5, !dbg !659

bb9:                                              ; preds = %bb4, %bb3
  %17 = load i8, i8* %_7, align 1, !dbg !659, !range !625
  %18 = trunc i8 %17 to i1, !dbg !659
  br i1 %18, label %bb8, label %bb5, !dbg !659
}

; <core::alloc::layout::Layout>::for_value_raw::<alloc::sync::ArcInner<core::cell::UnsafeCell<core::option::Option<core::result::Result<(), alloc::boxed::Box<dyn core::any::Any + core::marker::Send>>>>>>
; Function Attrs: nonlazybind uwtable
define internal { i64, i64 } @_RINvMNtNtCs3p84KrD9aKt_4core5alloc6layoutNtB3_6Layout13for_value_rawINtNtCs8RW06R9lH2S_5alloc4sync8ArcInnerINtNtB7_4cell10UnsafeCellINtNtB7_6option6OptionINtNtB7_6result6ResultuINtNtB19_5boxed3BoxDNtNtB7_3any3AnyNtNtB7_6marker4SendEL_EEEEEECsedCAef59i8L_14waitgroup_test(%"alloc::sync::ArcInner<std::cell::UnsafeCell<std::option::Option<std::result::Result<(), std::boxed::Box<dyn std::any::Any + std::marker::Send>>>>>"* %t) unnamed_addr #0 !dbg !661 {
start:
  %align.dbg.spill = alloca i64, align 8
  %size.dbg.spill = alloca i64, align 8
  %t.dbg.spill = alloca %"alloc::sync::ArcInner<std::cell::UnsafeCell<std::option::Option<std::result::Result<(), std::boxed::Box<dyn std::any::Any + std::marker::Send>>>>>"*, align 8
  %_4 = alloca { i64, i64 }, align 8
  store %"alloc::sync::ArcInner<std::cell::UnsafeCell<std::option::Option<std::result::Result<(), std::boxed::Box<dyn std::any::Any + std::marker::Send>>>>>"* %t, %"alloc::sync::ArcInner<std::cell::UnsafeCell<std::option::Option<std::result::Result<(), std::boxed::Box<dyn std::any::Any + std::marker::Send>>>>>"** %t.dbg.spill, align 8
  call void @llvm.dbg.declare(metadata %"alloc::sync::ArcInner<std::cell::UnsafeCell<std::option::Option<std::result::Result<(), std::boxed::Box<dyn std::any::Any + std::marker::Send>>>>>"** %t.dbg.spill, metadata !675, metadata !DIExpression()), !dbg !679
; call core::mem::size_of_val_raw::<alloc::sync::ArcInner<core::cell::UnsafeCell<core::option::Option<core::result::Result<(), alloc::boxed::Box<dyn core::any::Any + core::marker::Send>>>>>>
  %_5 = call i64 @_RINvNtCs3p84KrD9aKt_4core3mem15size_of_val_rawINtNtCs8RW06R9lH2S_5alloc4sync8ArcInnerINtNtB4_4cell10UnsafeCellINtNtB4_6option6OptionINtNtB4_6result6ResultuINtNtBN_5boxed3BoxDNtNtB4_3any3AnyNtNtB4_6marker4SendEL_EEEEEECsedCAef59i8L_14waitgroup_test(%"alloc::sync::ArcInner<std::cell::UnsafeCell<std::option::Option<std::result::Result<(), std::boxed::Box<dyn std::any::Any + std::marker::Send>>>>>"* %t), !dbg !680
  br label %bb1, !dbg !680

bb1:                                              ; preds = %start
; call core::mem::align_of_val_raw::<alloc::sync::ArcInner<core::cell::UnsafeCell<core::option::Option<core::result::Result<(), alloc::boxed::Box<dyn core::any::Any + core::marker::Send>>>>>>
  %_7 = call i64 @_RINvNtCs3p84KrD9aKt_4core3mem16align_of_val_rawINtNtCs8RW06R9lH2S_5alloc4sync8ArcInnerINtNtB4_4cell10UnsafeCellINtNtB4_6option6OptionINtNtB4_6result6ResultuINtNtBO_5boxed3BoxDNtNtB4_3any3AnyNtNtB4_6marker4SendEL_EEEEEECsedCAef59i8L_14waitgroup_test(%"alloc::sync::ArcInner<std::cell::UnsafeCell<std::option::Option<std::result::Result<(), std::boxed::Box<dyn std::any::Any + std::marker::Send>>>>>"* %t), !dbg !681
  br label %bb2, !dbg !681

bb2:                                              ; preds = %bb1
  %0 = bitcast { i64, i64 }* %_4 to i64*, !dbg !682
  store i64 %_5, i64* %0, align 8, !dbg !682
  %1 = getelementptr inbounds { i64, i64 }, { i64, i64 }* %_4, i32 0, i32 1, !dbg !682
  store i64 %_7, i64* %1, align 8, !dbg !682
  %2 = bitcast { i64, i64 }* %_4 to i64*, !dbg !683
  %size = load i64, i64* %2, align 8, !dbg !683
  store i64 %size, i64* %size.dbg.spill, align 8, !dbg !683
  call void @llvm.dbg.declare(metadata i64* %size.dbg.spill, metadata !676, metadata !DIExpression()), !dbg !684
  %3 = getelementptr inbounds { i64, i64 }, { i64, i64 }* %_4, i32 0, i32 1, !dbg !685
  %align = load i64, i64* %3, align 8, !dbg !685
  store i64 %align, i64* %align.dbg.spill, align 8, !dbg !685
  call void @llvm.dbg.declare(metadata i64* %align.dbg.spill, metadata !678, metadata !DIExpression()), !dbg !686
; call <core::alloc::layout::Layout>::from_size_align_unchecked
  %4 = call { i64, i64 } @_RNvMNtNtCs3p84KrD9aKt_4core5alloc6layoutNtB2_6Layout25from_size_align_uncheckedCsedCAef59i8L_14waitgroup_test(i64 %size, i64 %align), !dbg !687
  %5 = extractvalue { i64, i64 } %4, 0, !dbg !687
  %6 = extractvalue { i64, i64 } %4, 1, !dbg !687
  br label %bb3, !dbg !687

bb3:                                              ; preds = %bb2
  %7 = insertvalue { i64, i64 } undef, i64 %5, 0, !dbg !688
  %8 = insertvalue { i64, i64 } %7, i64 %6, 1, !dbg !688
  ret { i64, i64 } %8, !dbg !688
}

; <core::alloc::layout::Layout>::for_value_raw::<alloc::sync::ArcInner<std::sync::mutex::Mutex<alloc::vec::Vec<u8>>>>
; Function Attrs: nonlazybind uwtable
define internal { i64, i64 } @_RINvMNtNtCs3p84KrD9aKt_4core5alloc6layoutNtB3_6Layout13for_value_rawINtNtCs8RW06R9lH2S_5alloc4sync8ArcInnerINtNtNtCs2bNvlddUlXM_3std4sync5mutex5MutexINtNtB19_3vec3VechEEEECsedCAef59i8L_14waitgroup_test(%"alloc::sync::ArcInner<std::sync::Mutex<std::vec::Vec<u8>>>"* %t) unnamed_addr #0 !dbg !689 {
start:
  %align.dbg.spill = alloca i64, align 8
  %size.dbg.spill = alloca i64, align 8
  %t.dbg.spill = alloca %"alloc::sync::ArcInner<std::sync::Mutex<std::vec::Vec<u8>>>"*, align 8
  %_4 = alloca { i64, i64 }, align 8
  store %"alloc::sync::ArcInner<std::sync::Mutex<std::vec::Vec<u8>>>"* %t, %"alloc::sync::ArcInner<std::sync::Mutex<std::vec::Vec<u8>>>"** %t.dbg.spill, align 8
  call void @llvm.dbg.declare(metadata %"alloc::sync::ArcInner<std::sync::Mutex<std::vec::Vec<u8>>>"** %t.dbg.spill, metadata !693, metadata !DIExpression()), !dbg !697
; call core::mem::size_of_val_raw::<alloc::sync::ArcInner<std::sync::mutex::Mutex<alloc::vec::Vec<u8>>>>
  %_5 = call i64 @_RINvNtCs3p84KrD9aKt_4core3mem15size_of_val_rawINtNtCs8RW06R9lH2S_5alloc4sync8ArcInnerINtNtNtCs2bNvlddUlXM_3std4sync5mutex5MutexINtNtBN_3vec3VechEEEECsedCAef59i8L_14waitgroup_test(%"alloc::sync::ArcInner<std::sync::Mutex<std::vec::Vec<u8>>>"* %t), !dbg !698
  br label %bb1, !dbg !698

bb1:                                              ; preds = %start
; call core::mem::align_of_val_raw::<alloc::sync::ArcInner<std::sync::mutex::Mutex<alloc::vec::Vec<u8>>>>
  %_7 = call i64 @_RINvNtCs3p84KrD9aKt_4core3mem16align_of_val_rawINtNtCs8RW06R9lH2S_5alloc4sync8ArcInnerINtNtNtCs2bNvlddUlXM_3std4sync5mutex5MutexINtNtBO_3vec3VechEEEECsedCAef59i8L_14waitgroup_test(%"alloc::sync::ArcInner<std::sync::Mutex<std::vec::Vec<u8>>>"* %t), !dbg !699
  br label %bb2, !dbg !699

bb2:                                              ; preds = %bb1
  %0 = bitcast { i64, i64 }* %_4 to i64*, !dbg !700
  store i64 %_5, i64* %0, align 8, !dbg !700
  %1 = getelementptr inbounds { i64, i64 }, { i64, i64 }* %_4, i32 0, i32 1, !dbg !700
  store i64 %_7, i64* %1, align 8, !dbg !700
  %2 = bitcast { i64, i64 }* %_4 to i64*, !dbg !701
  %size = load i64, i64* %2, align 8, !dbg !701
  store i64 %size, i64* %size.dbg.spill, align 8, !dbg !701
  call void @llvm.dbg.declare(metadata i64* %size.dbg.spill, metadata !694, metadata !DIExpression()), !dbg !702
  %3 = getelementptr inbounds { i64, i64 }, { i64, i64 }* %_4, i32 0, i32 1, !dbg !703
  %align = load i64, i64* %3, align 8, !dbg !703
  store i64 %align, i64* %align.dbg.spill, align 8, !dbg !703
  call void @llvm.dbg.declare(metadata i64* %align.dbg.spill, metadata !696, metadata !DIExpression()), !dbg !704
; call <core::alloc::layout::Layout>::from_size_align_unchecked
  %4 = call { i64, i64 } @_RNvMNtNtCs3p84KrD9aKt_4core5alloc6layoutNtB2_6Layout25from_size_align_uncheckedCsedCAef59i8L_14waitgroup_test(i64 %size, i64 %align), !dbg !705
  %5 = extractvalue { i64, i64 } %4, 0, !dbg !705
  %6 = extractvalue { i64, i64 } %4, 1, !dbg !705
  br label %bb3, !dbg !705

bb3:                                              ; preds = %bb2
  %7 = insertvalue { i64, i64 } undef, i64 %5, 0, !dbg !706
  %8 = insertvalue { i64, i64 } %7, i64 %6, 1, !dbg !706
  ret { i64, i64 } %8, !dbg !706
}

; <core::ptr::unique::Unique<dyn std::error::Error + core::marker::Send + core::marker::Sync>>::cast::<u8>
; Function Attrs: inlinehint nonlazybind uwtable
define internal nonnull i8* @_RINvMs1_NtNtCs3p84KrD9aKt_4core3ptr6uniqueINtB6_6UniqueDNtNtCs2bNvlddUlXM_3std5error5ErrorNtNtBa_6marker4SendNtB1s_4SyncEL_E4casthECsedCAef59i8L_14waitgroup_test(i8* nonnull %self.0, i64* noalias readonly align 8 dereferenceable(24) %self.1) unnamed_addr #1 !dbg !707 {
start:
  %self.dbg.spill = alloca { i8*, i64* }, align 8
  %0 = getelementptr inbounds { i8*, i64* }, { i8*, i64* }* %self.dbg.spill, i32 0, i32 0
  store i8* %self.0, i8** %0, align 8
  %1 = getelementptr inbounds { i8*, i64* }, { i8*, i64* }* %self.dbg.spill, i32 0, i32 1
  store i64* %self.1, i64** %1, align 8
  call void @llvm.dbg.declare(metadata { i8*, i64* }* %self.dbg.spill, metadata !722, metadata !DIExpression()), !dbg !725
; call <core::ptr::unique::Unique<dyn std::error::Error + core::marker::Send + core::marker::Sync>>::as_ptr
  %2 = call { {}*, [3 x i64]* } @_RNvMs1_NtNtCs3p84KrD9aKt_4core3ptr6uniqueINtB5_6UniqueDNtNtCs2bNvlddUlXM_3std5error5ErrorNtNtB9_6marker4SendNtB1r_4SyncEL_E6as_ptrCsedCAef59i8L_14waitgroup_test(i8* nonnull %self.0, i64* noalias readonly align 8 dereferenceable(24) %self.1), !dbg !726
  %_3.0 = extractvalue { {}*, [3 x i64]* } %2, 0, !dbg !726
  %_3.1 = extractvalue { {}*, [3 x i64]* } %2, 1, !dbg !726
  br label %bb1, !dbg !726

bb1:                                              ; preds = %start
  %_2 = bitcast {}* %_3.0 to i8*, !dbg !726
; call <core::ptr::unique::Unique<u8>>::new_unchecked
  %3 = call nonnull i8* @_RNvMs1_NtNtCs3p84KrD9aKt_4core3ptr6uniqueINtB5_6UniquehE13new_uncheckedCs48Yq53b35jF_15crossbeam_utils(i8* %_2), !dbg !727
  br label %bb2, !dbg !727

bb2:                                              ; preds = %bb1
  ret i8* %3, !dbg !728
}

; <core::ptr::unique::Unique<alloc::sync::ArcInner<core::cell::UnsafeCell<core::option::Option<core::result::Result<(), alloc::boxed::Box<dyn core::any::Any + core::marker::Send>>>>>>>::cast::<u8>
; Function Attrs: inlinehint nonlazybind uwtable
define internal nonnull i8* @_RINvMs1_NtNtCs3p84KrD9aKt_4core3ptr6uniqueINtB6_6UniqueINtNtCs8RW06R9lH2S_5alloc4sync8ArcInnerINtNtBa_4cell10UnsafeCellINtNtBa_6option6OptionINtNtBa_6result6ResultuINtNtBW_5boxed3BoxDNtNtBa_3any3AnyNtNtBa_6marker4SendEL_EEEEEE4casthECsedCAef59i8L_14waitgroup_test(i64* nonnull %self) unnamed_addr #1 !dbg !729 {
start:
  %self.dbg.spill = alloca i64*, align 8
  store i64* %self, i64** %self.dbg.spill, align 8
  call void @llvm.dbg.declare(metadata i64** %self.dbg.spill, metadata !737, metadata !DIExpression()), !dbg !739
; call <core::ptr::unique::Unique<alloc::sync::ArcInner<core::cell::UnsafeCell<core::option::Option<core::result::Result<(), alloc::boxed::Box<dyn core::any::Any + core::marker::Send>>>>>>>::as_ptr
  %_3 = call %"alloc::sync::ArcInner<std::cell::UnsafeCell<std::option::Option<std::result::Result<(), std::boxed::Box<dyn std::any::Any + std::marker::Send>>>>>"* @_RNvMs1_NtNtCs3p84KrD9aKt_4core3ptr6uniqueINtB5_6UniqueINtNtCs8RW06R9lH2S_5alloc4sync8ArcInnerINtNtB9_4cell10UnsafeCellINtNtB9_6option6OptionINtNtB9_6result6ResultuINtNtBV_5boxed3BoxDNtNtB9_3any3AnyNtNtB9_6marker4SendEL_EEEEEE6as_ptrCsedCAef59i8L_14waitgroup_test(i64* nonnull %self), !dbg !740
  br label %bb1, !dbg !740

bb1:                                              ; preds = %start
  %_2 = bitcast %"alloc::sync::ArcInner<std::cell::UnsafeCell<std::option::Option<std::result::Result<(), std::boxed::Box<dyn std::any::Any + std::marker::Send>>>>>"* %_3 to i8*, !dbg !740
; call <core::ptr::unique::Unique<u8>>::new_unchecked
  %0 = call nonnull i8* @_RNvMs1_NtNtCs3p84KrD9aKt_4core3ptr6uniqueINtB5_6UniquehE13new_uncheckedCs48Yq53b35jF_15crossbeam_utils(i8* %_2), !dbg !741
  br label %bb2, !dbg !741

bb2:                                              ; preds = %bb1
  ret i8* %0, !dbg !742
}

; <core::ptr::unique::Unique<std::io::error::Custom>>::cast::<u8>
; Function Attrs: inlinehint nonlazybind uwtable
define internal nonnull i8* @_RINvMs1_NtNtCs3p84KrD9aKt_4core3ptr6uniqueINtB6_6UniqueNtNtNtCs2bNvlddUlXM_3std2io5error6CustomE4casthECsedCAef59i8L_14waitgroup_test(i64* nonnull %self) unnamed_addr #1 !dbg !743 {
start:
  %self.dbg.spill = alloca i64*, align 8
  store i64* %self, i64** %self.dbg.spill, align 8
  call void @llvm.dbg.declare(metadata i64** %self.dbg.spill, metadata !755, metadata !DIExpression()), !dbg !757
; call <core::ptr::unique::Unique<std::io::error::Custom>>::as_ptr
  %_3 = call %"std::io::error::Custom"* @_RNvMs1_NtNtCs3p84KrD9aKt_4core3ptr6uniqueINtB5_6UniqueNtNtNtCs2bNvlddUlXM_3std2io5error6CustomE6as_ptrCsedCAef59i8L_14waitgroup_test(i64* nonnull %self), !dbg !758
  br label %bb1, !dbg !758

bb1:                                              ; preds = %start
  %_2 = bitcast %"std::io::error::Custom"* %_3 to i8*, !dbg !758
; call <core::ptr::unique::Unique<u8>>::new_unchecked
  %0 = call nonnull i8* @_RNvMs1_NtNtCs3p84KrD9aKt_4core3ptr6uniqueINtB5_6UniquehE13new_uncheckedCs48Yq53b35jF_15crossbeam_utils(i8* %_2), !dbg !759
  br label %bb2, !dbg !759

bb2:                                              ; preds = %bb1
  ret i8* %0, !dbg !760
}

; <core::ptr::unique::Unique<u8>>::cast::<u8>
; Function Attrs: inlinehint nonlazybind uwtable
define internal nonnull i8* @_RINvMs1_NtNtCs3p84KrD9aKt_4core3ptr6uniqueINtB6_6UniquehE4casthECsedCAef59i8L_14waitgroup_test(i8* nonnull %self) unnamed_addr #1 !dbg !761 {
start:
  %self.dbg.spill = alloca i8*, align 8
  store i8* %self, i8** %self.dbg.spill, align 8
  call void @llvm.dbg.declare(metadata i8** %self.dbg.spill, metadata !765, metadata !DIExpression()), !dbg !767
; call <core::ptr::unique::Unique<u8>>::as_ptr
  %_3 = call i8* @_RNvMs1_NtNtCs3p84KrD9aKt_4core3ptr6uniqueINtB5_6UniquehE6as_ptrCs48Yq53b35jF_15crossbeam_utils(i8* nonnull %self), !dbg !768
  br label %bb1, !dbg !768

bb1:                                              ; preds = %start
; call <core::ptr::unique::Unique<u8>>::new_unchecked
  %0 = call nonnull i8* @_RNvMs1_NtNtCs3p84KrD9aKt_4core3ptr6uniqueINtB5_6UniquehE13new_uncheckedCs48Yq53b35jF_15crossbeam_utils(i8* %_3), !dbg !769
  br label %bb2, !dbg !769

bb2:                                              ; preds = %bb1
  ret i8* %0, !dbg !770
}

; <core::ptr::non_null::NonNull<alloc::sync::ArcInner<core::cell::UnsafeCell<core::option::Option<core::result::Result<(), alloc::boxed::Box<dyn core::any::Any + core::marker::Send>>>>>>>::cast::<u8>
; Function Attrs: inlinehint nonlazybind uwtable
define internal nonnull i8* @_RINvMs1_NtNtCs3p84KrD9aKt_4core3ptr8non_nullINtB6_7NonNullINtNtCs8RW06R9lH2S_5alloc4sync8ArcInnerINtNtBa_4cell10UnsafeCellINtNtBa_6option6OptionINtNtBa_6result6ResultuINtNtBZ_5boxed3BoxDNtNtBa_3any3AnyNtNtBa_6marker4SendEL_EEEEEE4casthECsedCAef59i8L_14waitgroup_test(i64* nonnull %self) unnamed_addr #1 !dbg !771 {
start:
  %self.dbg.spill = alloca i64*, align 8
  store i64* %self, i64** %self.dbg.spill, align 8
  call void @llvm.dbg.declare(metadata i64** %self.dbg.spill, metadata !779, metadata !DIExpression()), !dbg !780
; call <core::ptr::non_null::NonNull<alloc::sync::ArcInner<core::cell::UnsafeCell<core::option::Option<core::result::Result<(), alloc::boxed::Box<dyn core::any::Any + core::marker::Send>>>>>>>::as_ptr
  %_3 = call %"alloc::sync::ArcInner<std::cell::UnsafeCell<std::option::Option<std::result::Result<(), std::boxed::Box<dyn std::any::Any + std::marker::Send>>>>>"* @_RNvMs1_NtNtCs3p84KrD9aKt_4core3ptr8non_nullINtB5_7NonNullINtNtCs8RW06R9lH2S_5alloc4sync8ArcInnerINtNtB9_4cell10UnsafeCellINtNtB9_6option6OptionINtNtB9_6result6ResultuINtNtBY_5boxed3BoxDNtNtB9_3any3AnyNtNtB9_6marker4SendEL_EEEEEE6as_ptrCsedCAef59i8L_14waitgroup_test(i64* nonnull %self), !dbg !781
  br label %bb1, !dbg !781

bb1:                                              ; preds = %start
  %_2 = bitcast %"alloc::sync::ArcInner<std::cell::UnsafeCell<std::option::Option<std::result::Result<(), std::boxed::Box<dyn std::any::Any + std::marker::Send>>>>>"* %_3 to i8*, !dbg !781
; call <core::ptr::non_null::NonNull<u8>>::new_unchecked
  %0 = call nonnull i8* @_RNvMs1_NtNtCs3p84KrD9aKt_4core3ptr8non_nullINtB5_7NonNullhE13new_uncheckedCs48Yq53b35jF_15crossbeam_utils(i8* %_2), !dbg !782
  br label %bb2, !dbg !782

bb2:                                              ; preds = %bb1
  ret i8* %0, !dbg !783
}

; <core::ptr::non_null::NonNull<alloc::sync::ArcInner<std::sync::mutex::Mutex<alloc::vec::Vec<u8>>>>>::cast::<u8>
; Function Attrs: inlinehint nonlazybind uwtable
define internal nonnull i8* @_RINvMs1_NtNtCs3p84KrD9aKt_4core3ptr8non_nullINtB6_7NonNullINtNtCs8RW06R9lH2S_5alloc4sync8ArcInnerINtNtNtCs2bNvlddUlXM_3std4sync5mutex5MutexINtNtBZ_3vec3VechEEEE4casthECsedCAef59i8L_14waitgroup_test(i64* nonnull %self) unnamed_addr #1 !dbg !784 {
start:
  %self.dbg.spill = alloca i64*, align 8
  store i64* %self, i64** %self.dbg.spill, align 8
  call void @llvm.dbg.declare(metadata i64** %self.dbg.spill, metadata !788, metadata !DIExpression()), !dbg !790
; call <core::ptr::non_null::NonNull<alloc::sync::ArcInner<std::sync::mutex::Mutex<alloc::vec::Vec<u8>>>>>::as_ptr
  %_3 = call %"alloc::sync::ArcInner<std::sync::Mutex<std::vec::Vec<u8>>>"* @_RNvMs1_NtNtCs3p84KrD9aKt_4core3ptr8non_nullINtB5_7NonNullINtNtCs8RW06R9lH2S_5alloc4sync8ArcInnerINtNtNtCs2bNvlddUlXM_3std4sync5mutex5MutexINtNtBY_3vec3VechEEEE6as_ptrCsedCAef59i8L_14waitgroup_test(i64* nonnull %self), !dbg !791
  br label %bb1, !dbg !791

bb1:                                              ; preds = %start
  %_2 = bitcast %"alloc::sync::ArcInner<std::sync::Mutex<std::vec::Vec<u8>>>"* %_3 to i8*, !dbg !791
; call <core::ptr::non_null::NonNull<u8>>::new_unchecked
  %0 = call nonnull i8* @_RNvMs1_NtNtCs3p84KrD9aKt_4core3ptr8non_nullINtB5_7NonNullhE13new_uncheckedCs48Yq53b35jF_15crossbeam_utils(i8* %_2), !dbg !792
  br label %bb2, !dbg !792

bb2:                                              ; preds = %bb1
  ret i8* %0, !dbg !793
}

; <core::fmt::ArgumentV1>::new::<u8>
; Function Attrs: nonlazybind uwtable
define internal { i8*, i64* } @_RINvMs_NtCs3p84KrD9aKt_4core3fmtNtB5_10ArgumentV13newhECsedCAef59i8L_14waitgroup_test(i8* noalias readonly align 1 dereferenceable(1) %x, i1 (i8*, %"std::fmt::Formatter"*)* nonnull %f) unnamed_addr #0 !dbg !794 {
start:
  %0 = alloca %"core::fmt::Opaque"*, align 8
  %1 = alloca i1 (%"core::fmt::Opaque"*, %"std::fmt::Formatter"*)*, align 8
  %f.dbg.spill = alloca i1 (i8*, %"std::fmt::Formatter"*)*, align 8
  %x.dbg.spill = alloca i8*, align 8
  %2 = alloca { i8*, i64* }, align 8
  store i8* %x, i8** %x.dbg.spill, align 8
  call void @llvm.dbg.declare(metadata i8** %x.dbg.spill, metadata !827, metadata !DIExpression()), !dbg !829
  store i1 (i8*, %"std::fmt::Formatter"*)* %f, i1 (i8*, %"std::fmt::Formatter"*)** %f.dbg.spill, align 8
  call void @llvm.dbg.declare(metadata i1 (i8*, %"std::fmt::Formatter"*)** %f.dbg.spill, metadata !828, metadata !DIExpression()), !dbg !830
  %3 = bitcast i1 (i8*, %"std::fmt::Formatter"*)* %f to i1 (%"core::fmt::Opaque"*, %"std::fmt::Formatter"*)*, !dbg !831
  store i1 (%"core::fmt::Opaque"*, %"std::fmt::Formatter"*)* %3, i1 (%"core::fmt::Opaque"*, %"std::fmt::Formatter"*)** %1, align 8, !dbg !831
  %_3 = load i1 (%"core::fmt::Opaque"*, %"std::fmt::Formatter"*)*, i1 (%"core::fmt::Opaque"*, %"std::fmt::Formatter"*)** %1, align 8, !dbg !831, !nonnull !4
  br label %bb1, !dbg !831

bb1:                                              ; preds = %start
  %4 = bitcast i8* %x to %"core::fmt::Opaque"*, !dbg !832
  store %"core::fmt::Opaque"* %4, %"core::fmt::Opaque"** %0, align 8, !dbg !832
  %_5 = load %"core::fmt::Opaque"*, %"core::fmt::Opaque"** %0, align 8, !dbg !832, !nonnull !4
  br label %bb2, !dbg !832

bb2:                                              ; preds = %bb1
  %5 = bitcast { i8*, i64* }* %2 to %"core::fmt::Opaque"**, !dbg !833
  store %"core::fmt::Opaque"* %_5, %"core::fmt::Opaque"** %5, align 8, !dbg !833
  %6 = getelementptr inbounds { i8*, i64* }, { i8*, i64* }* %2, i32 0, i32 1, !dbg !833
  %7 = bitcast i64** %6 to i1 (%"core::fmt::Opaque"*, %"std::fmt::Formatter"*)**, !dbg !833
  store i1 (%"core::fmt::Opaque"*, %"std::fmt::Formatter"*)* %_3, i1 (%"core::fmt::Opaque"*, %"std::fmt::Formatter"*)** %7, align 8, !dbg !833
  %8 = getelementptr inbounds { i8*, i64* }, { i8*, i64* }* %2, i32 0, i32 0, !dbg !834
  %9 = load i8*, i8** %8, align 8, !dbg !834, !nonnull !4
  %10 = getelementptr inbounds { i8*, i64* }, { i8*, i64* }* %2, i32 0, i32 1, !dbg !834
  %11 = load i64*, i64** %10, align 8, !dbg !834, !nonnull !4
  %12 = insertvalue { i8*, i64* } undef, i8* %9, 0, !dbg !834
  %13 = insertvalue { i8*, i64* } %12, i64* %11, 1, !dbg !834
  ret { i8*, i64* } %13, !dbg !834
}

; std::rt::lang_start::<()>
; Function Attrs: nonlazybind uwtable
define hidden i64 @_RINvNtCs2bNvlddUlXM_3std2rt10lang_startuECsedCAef59i8L_14waitgroup_test(void ()* nonnull %main, i64 %argc, i8** %argv) unnamed_addr #0 !dbg !835 {
start:
  %argv.dbg.spill = alloca i8**, align 8
  %argc.dbg.spill = alloca i64, align 8
  %main.dbg.spill = alloca void ()*, align 8
  %_7 = alloca i64*, align 8
  store void ()* %main, void ()** %main.dbg.spill, align 8
  call void @llvm.dbg.declare(metadata void ()** %main.dbg.spill, metadata !842, metadata !DIExpression()), !dbg !845
  store i64 %argc, i64* %argc.dbg.spill, align 8
  call void @llvm.dbg.declare(metadata i64* %argc.dbg.spill, metadata !843, metadata !DIExpression()), !dbg !846
  store i8** %argv, i8*** %argv.dbg.spill, align 8
  call void @llvm.dbg.declare(metadata i8*** %argv.dbg.spill, metadata !844, metadata !DIExpression()), !dbg !847
  %0 = bitcast i64** %_7 to void ()**, !dbg !848
  store void ()* %main, void ()** %0, align 8, !dbg !848
  %_4.0 = bitcast i64** %_7 to {}*, !dbg !849
; call std::rt::lang_start_internal
  %1 = call i64 @_ZN3std2rt19lang_start_internal17he4958117ec6901fdE({}* nonnull align 1 %_4.0, [3 x i64]* noalias readonly align 8 dereferenceable(24) bitcast ({ void (i64**)*, i64, i64, i32 (i64**)*, i32 (i64**)*, i32 (i64**)* }* @vtable.1 to [3 x i64]*), i64 %argc, i8** %argv), !dbg !850
  br label %bb1, !dbg !850

bb1:                                              ; preds = %start
  ret i64 %1, !dbg !851
}

; std::panic::catch_unwind::<std::panic::AssertUnwindSafe<<std::thread::Builder>::spawn_unchecked<waitgroup_test::main::{closure#0}, ()>::{closure#0}::{closure#0}>, ()>
; Function Attrs: nonlazybind uwtable
define internal { i8*, i8* } @_RINvNtCs2bNvlddUlXM_3std5panic12catch_unwindINtB2_16AssertUnwindSafeNCNCINvMNtB4_6threadNtB1c_7Builder15spawn_uncheckedNCNvCsedCAef59i8L_14waitgroup_test4main0uE00EuEB1X_(i64* nonnull %f) unnamed_addr #0 !dbg !852 {
start:
  %f.dbg.spill = alloca i64*, align 8
  store i64* %f, i64** %f.dbg.spill, align 8
  call void @llvm.dbg.declare(metadata i64** %f.dbg.spill, metadata !867, metadata !DIExpression()), !dbg !871
; call std::panicking::try::<(), std::panic::AssertUnwindSafe<<std::thread::Builder>::spawn_unchecked<waitgroup_test::main::{closure#0}, ()>::{closure#0}::{closure#0}>>
  %0 = call { i8*, i8* } @_RINvNtCs2bNvlddUlXM_3std9panicking3tryuINtNtB4_5panic16AssertUnwindSafeNCNCINvMNtB4_6threadNtB1f_7Builder15spawn_uncheckedNCNvCsedCAef59i8L_14waitgroup_test4main0uE00EEB20_(i64* nonnull %f), !dbg !872
  %1 = extractvalue { i8*, i8* } %0, 0, !dbg !872
  %2 = extractvalue { i8*, i8* } %0, 1, !dbg !872
  br label %bb1, !dbg !872

bb1:                                              ; preds = %start
  %3 = insertvalue { i8*, i8* } undef, i8* %1, 0, !dbg !873
  %4 = insertvalue { i8*, i8* } %3, i8* %2, 1, !dbg !873
  ret { i8*, i8* } %4, !dbg !873
}

; std::thread::spawn::<waitgroup_test::main::{closure#0}, ()>
; Function Attrs: nonlazybind uwtable
define internal void @_RINvNtCs2bNvlddUlXM_3std6thread5spawnNCNvCsedCAef59i8L_14waitgroup_test4main0uEBD_(%"std::thread::JoinHandle<()>"* noalias nocapture sret dereferenceable(32) %0, i64* nonnull %1) unnamed_addr #0 personality i32 (i32, i32, i64, %"unwind::libunwind::_Unwind_Exception"*, %"unwind::libunwind::_Unwind_Context"*)* @rust_eh_personality !dbg !874 {
start:
  %2 = alloca { i8*, i32 }, align 8
  %_7 = alloca i8, align 1
  %_3 = alloca %"std::thread::Builder", align 8
  %_2 = alloca %"std::result::Result<std::thread::JoinHandle<()>, std::io::Error>", align 8
  %f = alloca i64*, align 8
  store i64* %1, i64** %f, align 8
  call void @llvm.dbg.declare(metadata i64** %f, metadata !878, metadata !DIExpression()), !dbg !879
  store i8 0, i8* %_7, align 1, !dbg !880
  store i8 1, i8* %_7, align 1, !dbg !880
; invoke std::thread::Builder::new
  invoke void @_ZN3std6thread7Builder3new17h18aec502241fcaefE(%"std::thread::Builder"* noalias nocapture sret dereferenceable(40) %_3)
          to label %bb1 unwind label %cleanup, !dbg !880

bb1:                                              ; preds = %start
  store i8 0, i8* %_7, align 1, !dbg !881
  %_4 = load i64*, i64** %f, align 8, !dbg !881, !nonnull !4
; invoke <std::thread::Builder>::spawn::<waitgroup_test::main::{closure#0}, ()>
  invoke void @_RINvMNtCs2bNvlddUlXM_3std6threadNtB3_7Builder5spawnNCNvCsedCAef59i8L_14waitgroup_test4main0uEBR_(%"std::result::Result<std::thread::JoinHandle<()>, std::io::Error>"* noalias nocapture sret dereferenceable(40) %_2, %"std::thread::Builder"* noalias nocapture dereferenceable(40) %_3, i64* nonnull %_4)
          to label %bb2 unwind label %cleanup, !dbg !880

bb2:                                              ; preds = %bb1
; invoke <core::result::Result<std::thread::JoinHandle<()>, std::io::error::Error>>::expect
  invoke void @_RNvMs3_NtCs3p84KrD9aKt_4core6resultINtB5_6ResultINtNtCs2bNvlddUlXM_3std6thread10JoinHandleuENtNtNtBP_2io5error5ErrorE6expectCsedCAef59i8L_14waitgroup_test(%"std::thread::JoinHandle<()>"* noalias nocapture sret dereferenceable(32) %0, %"std::result::Result<std::thread::JoinHandle<()>, std::io::Error>"* noalias nocapture dereferenceable(40) %_2, [0 x i8]* noalias nonnull readonly align 1 bitcast (<{ [22 x i8] }>* @alloc27 to [0 x i8]*), i64 22, %"std::panic::Location"* noalias readonly align 8 dereferenceable(24) bitcast (<{ i8*, [16 x i8] }>* @alloc29 to %"std::panic::Location"*))
          to label %bb3 unwind label %cleanup, !dbg !880

bb3:                                              ; preds = %bb2
  ret void, !dbg !882

bb4:                                              ; preds = %bb5, %bb6
  %3 = bitcast { i8*, i32 }* %2 to i8**, !dbg !883
  %4 = load i8*, i8** %3, align 8, !dbg !883
  %5 = getelementptr inbounds { i8*, i32 }, { i8*, i32 }* %2, i32 0, i32 1, !dbg !883
  %6 = load i32, i32* %5, align 8, !dbg !883
  %7 = insertvalue { i8*, i32 } undef, i8* %4, 0, !dbg !883
  %8 = insertvalue { i8*, i32 } %7, i32 %6, 1, !dbg !883
  resume { i8*, i32 } %8, !dbg !883

bb5:                                              ; preds = %bb6
; call core::ptr::drop_in_place::<waitgroup_test::main::{closure#0}>
  call void @_RINvNtCs3p84KrD9aKt_4core3ptr13drop_in_placeNCNvCsedCAef59i8L_14waitgroup_test4main0EBK_(i64** %f) #13, !dbg !884
  br label %bb4, !dbg !884

bb6:                                              ; preds = %cleanup
  %9 = load i8, i8* %_7, align 1, !dbg !884, !range !625
  %10 = trunc i8 %9 to i1, !dbg !884
  br i1 %10, label %bb5, label %bb4, !dbg !884

cleanup:                                          ; preds = %bb2, %bb1, %start
  %11 = landingpad { i8*, i32 }
          cleanup
  %12 = extractvalue { i8*, i32 } %11, 0
  %13 = extractvalue { i8*, i32 } %11, 1
  %14 = getelementptr inbounds { i8*, i32 }, { i8*, i32 }* %2, i32 0, i32 0
  store i8* %12, i8** %14, align 8
  %15 = getelementptr inbounds { i8*, i32 }, { i8*, i32 }* %2, i32 0, i32 1
  store i32 %13, i32* %15, align 8
  br label %bb6
}

; std::panicking::try::<(), std::panic::AssertUnwindSafe<<std::thread::Builder>::spawn_unchecked<waitgroup_test::main::{closure#0}, ()>::{closure#0}::{closure#0}>>
; Function Attrs: nonlazybind uwtable
define internal { i8*, i8* } @_RINvNtCs2bNvlddUlXM_3std9panicking3tryuINtNtB4_5panic16AssertUnwindSafeNCNCINvMNtB4_6threadNtB1f_7Builder15spawn_uncheckedNCNvCsedCAef59i8L_14waitgroup_test4main0uE00EEB20_(i64* nonnull %f) unnamed_addr #0 !dbg !885 {
start:
  %slot.dbg.spill.i = alloca { i8*, i64* }, align 8
  %value.dbg.spill.i = alloca i64*, align 8
  %0 = alloca i64*, align 8
  %1 = alloca i32, align 4
  %data_ptr.dbg.spill = alloca i8*, align 8
  %f.dbg.spill = alloca i64*, align 8
  %data = alloca %"std::panicking::r#try::Data<std::panic::AssertUnwindSafe<[closure@std::thread::Builder::spawn_unchecked<[closure@src/main.rs:18:21: 24:8], ()>::{closure#0}::{closure#0}]>, ()>", align 8
  %2 = alloca { i8*, i8* }, align 8
  store i64* %f, i64** %f.dbg.spill, align 8
  call void @llvm.dbg.declare(metadata i64** %f.dbg.spill, metadata !889, metadata !DIExpression()), !dbg !916
  call void @llvm.dbg.declare(metadata %"std::panicking::r#try::Data<std::panic::AssertUnwindSafe<[closure@std::thread::Builder::spawn_unchecked<[closure@src/main.rs:18:21: 24:8], ()>::{closure#0}::{closure#0}]>, ()>"* %data, metadata !890, metadata !DIExpression()), !dbg !917
  store i64* %f, i64** %value.dbg.spill.i, align 8
  call void @llvm.dbg.declare(metadata i64** %value.dbg.spill.i, metadata !918, metadata !DIExpression()), !dbg !924
  store i64* %f, i64** %0, align 8, !dbg !926
  %3 = load i64*, i64** %0, align 8, !dbg !927, !nonnull !4
  br label %bb1, !dbg !928

bb1:                                              ; preds = %start
  %4 = bitcast %"std::panicking::r#try::Data<std::panic::AssertUnwindSafe<[closure@std::thread::Builder::spawn_unchecked<[closure@src/main.rs:18:21: 24:8], ()>::{closure#0}::{closure#0}]>, ()>"* %data to i64**, !dbg !929
  store i64* %3, i64** %4, align 8, !dbg !929
  %data_ptr = bitcast %"std::panicking::r#try::Data<std::panic::AssertUnwindSafe<[closure@std::thread::Builder::spawn_unchecked<[closure@src/main.rs:18:21: 24:8], ()>::{closure#0}::{closure#0}]>, ()>"* %data to i8*, !dbg !930
  store i8* %data_ptr, i8** %data_ptr.dbg.spill, align 8, !dbg !930
  call void @llvm.dbg.declare(metadata i8** %data_ptr.dbg.spill, metadata !913, metadata !DIExpression()), !dbg !931
  %5 = call i32 @__rust_try(void (i8*)* @_RINvNvNtCs2bNvlddUlXM_3std9panicking3try7do_callINtNtB6_5panic16AssertUnwindSafeNCNCINvMNtB6_6threadNtB1o_7Builder15spawn_uncheckedNCNvCsedCAef59i8L_14waitgroup_test4main0uE00EuEB29_, i8* %data_ptr, void (i8*, i8*)* @_RINvNvNtCs2bNvlddUlXM_3std9panicking3try8do_catchINtNtB6_5panic16AssertUnwindSafeNCNCINvMNtB6_6threadNtB1p_7Builder15spawn_uncheckedNCNvCsedCAef59i8L_14waitgroup_test4main0uE00EuEB2a_), !dbg !932
  store i32 %5, i32* %1, align 4, !dbg !932
  %_9 = load i32, i32* %1, align 4, !dbg !932
  br label %bb2, !dbg !932

bb2:                                              ; preds = %bb1
  %6 = icmp eq i32 %_9, 0, !dbg !933
  br i1 %6, label %bb3, label %bb4, !dbg !933

bb3:                                              ; preds = %bb2
  call void @llvm.dbg.declare(metadata %"std::mem::ManuallyDrop<()>"* undef, metadata !934, metadata !DIExpression()), !dbg !939
  br label %bb5, !dbg !941

bb4:                                              ; preds = %bb2
  %7 = bitcast %"std::panicking::r#try::Data<std::panic::AssertUnwindSafe<[closure@std::thread::Builder::spawn_unchecked<[closure@src/main.rs:18:21: 24:8], ()>::{closure#0}::{closure#0}]>, ()>"* %data to { i8*, i64* }*, !dbg !942
  %8 = getelementptr inbounds { i8*, i64* }, { i8*, i64* }* %7, i32 0, i32 0, !dbg !942
  %_17.0 = load i8*, i8** %8, align 8, !dbg !942, !nonnull !4
  %9 = getelementptr inbounds { i8*, i64* }, { i8*, i64* }* %7, i32 0, i32 1, !dbg !942
  %_17.1 = load i64*, i64** %9, align 8, !dbg !942, !nonnull !4
  %10 = getelementptr inbounds { i8*, i64* }, { i8*, i64* }* %slot.dbg.spill.i, i32 0, i32 0
  store i8* %_17.0, i8** %10, align 8, !noalias !943
  %11 = getelementptr inbounds { i8*, i64* }, { i8*, i64* }* %slot.dbg.spill.i, i32 0, i32 1
  store i64* %_17.1, i64** %11, align 8, !noalias !943
  call void @llvm.dbg.declare(metadata { i8*, i64* }* %slot.dbg.spill.i, metadata !947, metadata !DIExpression()), !dbg !952
  %12 = bitcast i8* %_17.0 to {}*, !dbg !954
  %13 = bitcast i64* %_17.1 to [3 x i64]*, !dbg !954
  %14 = insertvalue { {}*, [3 x i64]* } undef, {}* %12, 0, !dbg !955
  %15 = insertvalue { {}*, [3 x i64]* } %14, [3 x i64]* %13, 1, !dbg !955
  %_16.0 = extractvalue { {}*, [3 x i64]* } %15, 0, !dbg !956
  %_16.1 = extractvalue { {}*, [3 x i64]* } %15, 1, !dbg !956
  br label %bb6, !dbg !956

bb5:                                              ; preds = %bb3
  %16 = bitcast { i8*, i8* }* %2 to %"std::result::Result<(), std::boxed::Box<dyn std::any::Any + std::marker::Send>>::Ok"*, !dbg !957
  %17 = bitcast %"std::result::Result<(), std::boxed::Box<dyn std::any::Any + std::marker::Send>>::Ok"* %16 to {}*, !dbg !957
  %18 = bitcast { i8*, i8* }* %2 to {}**, !dbg !957
  store {}* null, {}** %18, align 8, !dbg !957
  br label %bb7, !dbg !933

bb6:                                              ; preds = %bb4
  %19 = bitcast { i8*, i8* }* %2 to { {}*, [3 x i64]* }*, !dbg !958
  %20 = getelementptr inbounds { {}*, [3 x i64]* }, { {}*, [3 x i64]* }* %19, i32 0, i32 0, !dbg !958
  store {}* %_16.0, {}** %20, align 8, !dbg !958
  %21 = getelementptr inbounds { {}*, [3 x i64]* }, { {}*, [3 x i64]* }* %19, i32 0, i32 1, !dbg !958
  store [3 x i64]* %_16.1, [3 x i64]** %21, align 8, !dbg !958
  br label %bb7, !dbg !933

bb7:                                              ; preds = %bb5, %bb6
  %22 = getelementptr inbounds { i8*, i8* }, { i8*, i8* }* %2, i32 0, i32 0, !dbg !959
  %23 = load i8*, i8** %22, align 8, !dbg !959
  %24 = getelementptr inbounds { i8*, i8* }, { i8*, i8* }* %2, i32 0, i32 1, !dbg !959
  %25 = load i8*, i8** %24, align 8, !dbg !959
  %26 = insertvalue { i8*, i8* } undef, i8* %23, 0, !dbg !959
  %27 = insertvalue { i8*, i8* } %26, i8* %25, 1, !dbg !959
  ret { i8*, i8* } %27, !dbg !959
}

; core::intrinsics::copy_nonoverlapping::<std::panic::AssertUnwindSafe<<std::thread::Builder>::spawn_unchecked<waitgroup_test::main::{closure#0}, ()>::{closure#0}::{closure#0}>>
; Function Attrs: inlinehint nonlazybind uwtable
define internal void @_RINvNtCs3p84KrD9aKt_4core10intrinsics19copy_nonoverlappingINtNtCs2bNvlddUlXM_3std5panic16AssertUnwindSafeNCNCINvMNtBZ_6threadNtB1N_7Builder15spawn_uncheckedNCNvCsedCAef59i8L_14waitgroup_test4main0uE00EEB2y_(i64** %src, i64** %dst, i64 %count) unnamed_addr #1 !dbg !960 {
start:
  %count.dbg.spill = alloca i64, align 8
  %dst.dbg.spill = alloca i64**, align 8
  %src.dbg.spill = alloca i64**, align 8
  store i64** %src, i64*** %src.dbg.spill, align 8
  call void @llvm.dbg.declare(metadata i64*** %src.dbg.spill, metadata !968, metadata !DIExpression()), !dbg !971
  store i64** %dst, i64*** %dst.dbg.spill, align 8
  call void @llvm.dbg.declare(metadata i64*** %dst.dbg.spill, metadata !969, metadata !DIExpression()), !dbg !972
  store i64 %count, i64* %count.dbg.spill, align 8
  call void @llvm.dbg.declare(metadata i64* %count.dbg.spill, metadata !970, metadata !DIExpression()), !dbg !973
  %0 = mul i64 8, %count, !dbg !974
  %1 = bitcast i64** %dst to i8*, !dbg !974
  %2 = bitcast i64** %src to i8*, !dbg !974
  call void @llvm.memcpy.p0i8.p0i8.i64(i8* align 8 %1, i8* align 8 %2, i64 %0, i1 false), !dbg !974
  br label %bb1, !dbg !974

bb1:                                              ; preds = %start
  ret void, !dbg !975
}

; core::mem::size_of_val_raw::<alloc::sync::ArcInner<core::cell::UnsafeCell<core::option::Option<core::result::Result<(), alloc::boxed::Box<dyn core::any::Any + core::marker::Send>>>>>>
; Function Attrs: inlinehint nonlazybind uwtable
define internal i64 @_RINvNtCs3p84KrD9aKt_4core3mem15size_of_val_rawINtNtCs8RW06R9lH2S_5alloc4sync8ArcInnerINtNtB4_4cell10UnsafeCellINtNtB4_6option6OptionINtNtB4_6result6ResultuINtNtBN_5boxed3BoxDNtNtB4_3any3AnyNtNtB4_6marker4SendEL_EEEEEECsedCAef59i8L_14waitgroup_test(%"alloc::sync::ArcInner<std::cell::UnsafeCell<std::option::Option<std::result::Result<(), std::boxed::Box<dyn std::any::Any + std::marker::Send>>>>>"* %val) unnamed_addr #1 !dbg !976 {
start:
  %0 = alloca i64, align 8
  %val.dbg.spill = alloca %"alloc::sync::ArcInner<std::cell::UnsafeCell<std::option::Option<std::result::Result<(), std::boxed::Box<dyn std::any::Any + std::marker::Send>>>>>"*, align 8
  store %"alloc::sync::ArcInner<std::cell::UnsafeCell<std::option::Option<std::result::Result<(), std::boxed::Box<dyn std::any::Any + std::marker::Send>>>>>"* %val, %"alloc::sync::ArcInner<std::cell::UnsafeCell<std::option::Option<std::result::Result<(), std::boxed::Box<dyn std::any::Any + std::marker::Send>>>>>"** %val.dbg.spill, align 8
  call void @llvm.dbg.declare(metadata %"alloc::sync::ArcInner<std::cell::UnsafeCell<std::option::Option<std::result::Result<(), std::boxed::Box<dyn std::any::Any + std::marker::Send>>>>>"** %val.dbg.spill, metadata !981, metadata !DIExpression()), !dbg !982
  store i64 40, i64* %0, align 8, !dbg !983
  %1 = load i64, i64* %0, align 8, !dbg !983
  br label %bb1, !dbg !983

bb1:                                              ; preds = %start
  ret i64 %1, !dbg !984
}

; core::mem::size_of_val_raw::<alloc::sync::ArcInner<std::sync::mutex::Mutex<alloc::vec::Vec<u8>>>>
; Function Attrs: inlinehint nonlazybind uwtable
define internal i64 @_RINvNtCs3p84KrD9aKt_4core3mem15size_of_val_rawINtNtCs8RW06R9lH2S_5alloc4sync8ArcInnerINtNtNtCs2bNvlddUlXM_3std4sync5mutex5MutexINtNtBN_3vec3VechEEEECsedCAef59i8L_14waitgroup_test(%"alloc::sync::ArcInner<std::sync::Mutex<std::vec::Vec<u8>>>"* %val) unnamed_addr #1 !dbg !985 {
start:
  %0 = alloca i64, align 8
  %val.dbg.spill = alloca %"alloc::sync::ArcInner<std::sync::Mutex<std::vec::Vec<u8>>>"*, align 8
  store %"alloc::sync::ArcInner<std::sync::Mutex<std::vec::Vec<u8>>>"* %val, %"alloc::sync::ArcInner<std::sync::Mutex<std::vec::Vec<u8>>>"** %val.dbg.spill, align 8
  call void @llvm.dbg.declare(metadata %"alloc::sync::ArcInner<std::sync::Mutex<std::vec::Vec<u8>>>"** %val.dbg.spill, metadata !989, metadata !DIExpression()), !dbg !990
  store i64 56, i64* %0, align 8, !dbg !991
  %1 = load i64, i64* %0, align 8, !dbg !991
  br label %bb1, !dbg !991

bb1:                                              ; preds = %start
  ret i64 %1, !dbg !992
}

; core::mem::align_of_val_raw::<alloc::sync::ArcInner<core::cell::UnsafeCell<core::option::Option<core::result::Result<(), alloc::boxed::Box<dyn core::any::Any + core::marker::Send>>>>>>
; Function Attrs: inlinehint nonlazybind uwtable
define internal i64 @_RINvNtCs3p84KrD9aKt_4core3mem16align_of_val_rawINtNtCs8RW06R9lH2S_5alloc4sync8ArcInnerINtNtB4_4cell10UnsafeCellINtNtB4_6option6OptionINtNtB4_6result6ResultuINtNtBO_5boxed3BoxDNtNtB4_3any3AnyNtNtB4_6marker4SendEL_EEEEEECsedCAef59i8L_14waitgroup_test(%"alloc::sync::ArcInner<std::cell::UnsafeCell<std::option::Option<std::result::Result<(), std::boxed::Box<dyn std::any::Any + std::marker::Send>>>>>"* %val) unnamed_addr #1 !dbg !993 {
start:
  %0 = alloca i64, align 8
  %val.dbg.spill = alloca %"alloc::sync::ArcInner<std::cell::UnsafeCell<std::option::Option<std::result::Result<(), std::boxed::Box<dyn std::any::Any + std::marker::Send>>>>>"*, align 8
  store %"alloc::sync::ArcInner<std::cell::UnsafeCell<std::option::Option<std::result::Result<(), std::boxed::Box<dyn std::any::Any + std::marker::Send>>>>>"* %val, %"alloc::sync::ArcInner<std::cell::UnsafeCell<std::option::Option<std::result::Result<(), std::boxed::Box<dyn std::any::Any + std::marker::Send>>>>>"** %val.dbg.spill, align 8
  call void @llvm.dbg.declare(metadata %"alloc::sync::ArcInner<std::cell::UnsafeCell<std::option::Option<std::result::Result<(), std::boxed::Box<dyn std::any::Any + std::marker::Send>>>>>"** %val.dbg.spill, metadata !995, metadata !DIExpression()), !dbg !996
  store i64 8, i64* %0, align 8, !dbg !997
  %1 = load i64, i64* %0, align 8, !dbg !997
  br label %bb1, !dbg !997

bb1:                                              ; preds = %start
  ret i64 %1, !dbg !998
}

; core::mem::align_of_val_raw::<alloc::sync::ArcInner<std::sync::mutex::Mutex<alloc::vec::Vec<u8>>>>
; Function Attrs: inlinehint nonlazybind uwtable
define internal i64 @_RINvNtCs3p84KrD9aKt_4core3mem16align_of_val_rawINtNtCs8RW06R9lH2S_5alloc4sync8ArcInnerINtNtNtCs2bNvlddUlXM_3std4sync5mutex5MutexINtNtBO_3vec3VechEEEECsedCAef59i8L_14waitgroup_test(%"alloc::sync::ArcInner<std::sync::Mutex<std::vec::Vec<u8>>>"* %val) unnamed_addr #1 !dbg !999 {
start:
  %0 = alloca i64, align 8
  %val.dbg.spill = alloca %"alloc::sync::ArcInner<std::sync::Mutex<std::vec::Vec<u8>>>"*, align 8
  store %"alloc::sync::ArcInner<std::sync::Mutex<std::vec::Vec<u8>>>"* %val, %"alloc::sync::ArcInner<std::sync::Mutex<std::vec::Vec<u8>>>"** %val.dbg.spill, align 8
  call void @llvm.dbg.declare(metadata %"alloc::sync::ArcInner<std::sync::Mutex<std::vec::Vec<u8>>>"** %val.dbg.spill, metadata !1001, metadata !DIExpression()), !dbg !1002
  store i64 8, i64* %0, align 8, !dbg !1003
  %1 = load i64, i64* %0, align 8, !dbg !1003
  br label %bb1, !dbg !1003

bb1:                                              ; preds = %start
  ret i64 %1, !dbg !1004
}

; core::mem::drop::<alloc::sync::Weak<core::cell::UnsafeCell<core::option::Option<core::result::Result<(), alloc::boxed::Box<dyn core::any::Any + core::marker::Send>>>>>>
; Function Attrs: inlinehint nonlazybind uwtable
define internal void @_RINvNtCs3p84KrD9aKt_4core3mem4dropINtNtCs8RW06R9lH2S_5alloc4sync4WeakINtNtB4_4cell10UnsafeCellINtNtB4_6option6OptionINtNtB4_6result6ResultuINtNtBB_5boxed3BoxDNtNtB4_3any3AnyNtNtB4_6marker4SendEL_EEEEEECsedCAef59i8L_14waitgroup_test(i64* nonnull %0) unnamed_addr #1 !dbg !1005 {
start:
  %_x = alloca i64*, align 8
  store i64* %0, i64** %_x, align 8
  call void @llvm.dbg.declare(metadata i64** %_x, metadata !1012, metadata !DIExpression()), !dbg !1015
; call core::ptr::drop_in_place::<alloc::sync::Weak<core::cell::UnsafeCell<core::option::Option<core::result::Result<(), alloc::boxed::Box<dyn core::any::Any + core::marker::Send>>>>>>
  call void @_RINvNtCs3p84KrD9aKt_4core3ptr13drop_in_placeINtNtCs8RW06R9lH2S_5alloc4sync4WeakINtNtB4_4cell10UnsafeCellINtNtB4_6option6OptionINtNtB4_6result6ResultuINtNtBL_5boxed3BoxDNtNtB4_3any3AnyNtNtB4_6marker4SendEL_EEEEEECsedCAef59i8L_14waitgroup_test(i64** %_x), !dbg !1016
  br label %bb1, !dbg !1016

bb1:                                              ; preds = %start
  ret void, !dbg !1017
}

; core::mem::drop::<alloc::sync::Weak<std::sync::mutex::Mutex<alloc::vec::Vec<u8>>>>
; Function Attrs: inlinehint nonlazybind uwtable
define internal void @_RINvNtCs3p84KrD9aKt_4core3mem4dropINtNtCs8RW06R9lH2S_5alloc4sync4WeakINtNtNtCs2bNvlddUlXM_3std4sync5mutex5MutexINtNtBB_3vec3VechEEEECsedCAef59i8L_14waitgroup_test(i64* nonnull %0) unnamed_addr #1 !dbg !1018 {
start:
  %_x = alloca i64*, align 8
  store i64* %0, i64** %_x, align 8
  call void @llvm.dbg.declare(metadata i64** %_x, metadata !1025, metadata !DIExpression()), !dbg !1028
; call core::ptr::drop_in_place::<alloc::sync::Weak<std::sync::mutex::Mutex<alloc::vec::Vec<u8>>>>
  call void @_RINvNtCs3p84KrD9aKt_4core3ptr13drop_in_placeINtNtCs8RW06R9lH2S_5alloc4sync4WeakINtNtNtCs2bNvlddUlXM_3std4sync5mutex5MutexINtNtBL_3vec3VechEEEECsedCAef59i8L_14waitgroup_test(i64** %_x), !dbg !1029
  br label %bb1, !dbg !1029

bb1:                                              ; preds = %start
  ret void, !dbg !1030
}

; core::ptr::drop_in_place::<dyn std::error::Error + core::marker::Send + core::marker::Sync>
; Function Attrs: nonlazybind uwtable
define internal void @_RINvNtCs3p84KrD9aKt_4core3ptr13drop_in_placeDNtNtCs2bNvlddUlXM_3std5error5ErrorNtNtB4_6marker4SendNtB1h_4SyncEL_ECsedCAef59i8L_14waitgroup_test({}* %_1.0, [3 x i64]* noalias readonly align 8 dereferenceable(24) %_1.1) unnamed_addr #0 !dbg !1031 {
start:
  %_1.dbg.spill = alloca { {}*, [3 x i64]* }, align 8
  %0 = alloca {}, align 1
  %1 = getelementptr inbounds { {}*, [3 x i64]* }, { {}*, [3 x i64]* }* %_1.dbg.spill, i32 0, i32 0
  store {}* %_1.0, {}** %1, align 8
  %2 = getelementptr inbounds { {}*, [3 x i64]* }, { {}*, [3 x i64]* }* %_1.dbg.spill, i32 0, i32 1
  store [3 x i64]* %_1.1, [3 x i64]** %2, align 8
  call void @llvm.dbg.declare(metadata { {}*, [3 x i64]* }* %_1.dbg.spill, metadata !1040, metadata !DIExpression()), !dbg !1041
  %3 = bitcast [3 x i64]* %_1.1 to void ({}*)**, !dbg !1041
  %4 = getelementptr inbounds void ({}*)*, void ({}*)** %3, i64 0, !dbg !1041
  %5 = load void ({}*)*, void ({}*)** %4, align 8, !dbg !1041, !invariant.load !4, !nonnull !4
  call void %5({}* %_1.0), !dbg !1041
  br label %bb1, !dbg !1041

bb1:                                              ; preds = %start
  ret void, !dbg !1041
}

; core::ptr::drop_in_place::<core::cell::UnsafeCell<core::option::Option<core::result::Result<(), alloc::boxed::Box<dyn core::any::Any + core::marker::Send>>>>>
; Function Attrs: nonlazybind uwtable
define internal void @_RINvNtCs3p84KrD9aKt_4core3ptr13drop_in_placeINtNtB4_4cell10UnsafeCellINtNtB4_6option6OptionINtNtB4_6result6ResultuINtNtCs8RW06R9lH2S_5alloc5boxed3BoxDNtNtB4_3any3AnyNtNtB4_6marker4SendEL_EEEEECsedCAef59i8L_14waitgroup_test(%"std::cell::UnsafeCell<std::option::Option<std::result::Result<(), std::boxed::Box<dyn std::any::Any + std::marker::Send>>>>"* %_1) unnamed_addr #0 !dbg !1042 {
start:
  %_1.dbg.spill = alloca %"std::cell::UnsafeCell<std::option::Option<std::result::Result<(), std::boxed::Box<dyn std::any::Any + std::marker::Send>>>>"*, align 8
  %0 = alloca {}, align 1
  store %"std::cell::UnsafeCell<std::option::Option<std::result::Result<(), std::boxed::Box<dyn std::any::Any + std::marker::Send>>>>"* %_1, %"std::cell::UnsafeCell<std::option::Option<std::result::Result<(), std::boxed::Box<dyn std::any::Any + std::marker::Send>>>>"** %_1.dbg.spill, align 8
  call void @llvm.dbg.declare(metadata %"std::cell::UnsafeCell<std::option::Option<std::result::Result<(), std::boxed::Box<dyn std::any::Any + std::marker::Send>>>>"** %_1.dbg.spill, metadata !1047, metadata !DIExpression()), !dbg !1048
  %1 = bitcast %"std::cell::UnsafeCell<std::option::Option<std::result::Result<(), std::boxed::Box<dyn std::any::Any + std::marker::Send>>>>"* %_1 to %"std::option::Option<std::result::Result<(), std::boxed::Box<dyn std::any::Any + std::marker::Send>>>"*, !dbg !1048
; call core::ptr::drop_in_place::<core::option::Option<core::result::Result<(), alloc::boxed::Box<dyn core::any::Any + core::marker::Send>>>>
  call void @_RINvNtCs3p84KrD9aKt_4core3ptr13drop_in_placeINtNtB4_6option6OptionINtNtB4_6result6ResultuINtNtCs8RW06R9lH2S_5alloc5boxed3BoxDNtNtB4_3any3AnyNtNtB4_6marker4SendEL_EEEECsedCAef59i8L_14waitgroup_test(%"std::option::Option<std::result::Result<(), std::boxed::Box<dyn std::any::Any + std::marker::Send>>>"* %1), !dbg !1048
  br label %bb1, !dbg !1048

bb1:                                              ; preds = %start
  ret void, !dbg !1048
}

; core::ptr::drop_in_place::<core::cell::UnsafeCell<alloc::vec::Vec<u8>>>
; Function Attrs: nonlazybind uwtable
define internal void @_RINvNtCs3p84KrD9aKt_4core3ptr13drop_in_placeINtNtB4_4cell10UnsafeCellINtNtCs8RW06R9lH2S_5alloc3vec3VechEEECsedCAef59i8L_14waitgroup_test(%"std::cell::UnsafeCell<std::vec::Vec<u8>>"* %_1) unnamed_addr #0 !dbg !1049 {
start:
  %_1.dbg.spill = alloca %"std::cell::UnsafeCell<std::vec::Vec<u8>>"*, align 8
  %0 = alloca {}, align 1
  store %"std::cell::UnsafeCell<std::vec::Vec<u8>>"* %_1, %"std::cell::UnsafeCell<std::vec::Vec<u8>>"** %_1.dbg.spill, align 8
  call void @llvm.dbg.declare(metadata %"std::cell::UnsafeCell<std::vec::Vec<u8>>"** %_1.dbg.spill, metadata !1054, metadata !DIExpression()), !dbg !1057
  %1 = bitcast %"std::cell::UnsafeCell<std::vec::Vec<u8>>"* %_1 to %"std::vec::Vec<u8>"*, !dbg !1057
; call core::ptr::drop_in_place::<alloc::vec::Vec<u8>>
  call void @_RINvNtCs3p84KrD9aKt_4core3ptr13drop_in_placeINtNtCs8RW06R9lH2S_5alloc3vec3VechEECsedCAef59i8L_14waitgroup_test(%"std::vec::Vec<u8>"* %1), !dbg !1057
  br label %bb1, !dbg !1057

bb1:                                              ; preds = %start
  ret void, !dbg !1057
}

; core::ptr::drop_in_place::<core::option::Option<core::result::Result<(), alloc::boxed::Box<dyn core::any::Any + core::marker::Send>>>>
; Function Attrs: nonlazybind uwtable
define internal void @_RINvNtCs3p84KrD9aKt_4core3ptr13drop_in_placeINtNtB4_6option6OptionINtNtB4_6result6ResultuINtNtCs8RW06R9lH2S_5alloc5boxed3BoxDNtNtB4_3any3AnyNtNtB4_6marker4SendEL_EEEECsedCAef59i8L_14waitgroup_test(%"std::option::Option<std::result::Result<(), std::boxed::Box<dyn std::any::Any + std::marker::Send>>>"* %_1) unnamed_addr #0 !dbg !1058 {
start:
  %_1.dbg.spill = alloca %"std::option::Option<std::result::Result<(), std::boxed::Box<dyn std::any::Any + std::marker::Send>>>"*, align 8
  %0 = alloca {}, align 1
  store %"std::option::Option<std::result::Result<(), std::boxed::Box<dyn std::any::Any + std::marker::Send>>>"* %_1, %"std::option::Option<std::result::Result<(), std::boxed::Box<dyn std::any::Any + std::marker::Send>>>"** %_1.dbg.spill, align 8
  call void @llvm.dbg.declare(metadata %"std::option::Option<std::result::Result<(), std::boxed::Box<dyn std::any::Any + std::marker::Send>>>"** %_1.dbg.spill, metadata !1063, metadata !DIExpression()), !dbg !1064
  %1 = bitcast %"std::option::Option<std::result::Result<(), std::boxed::Box<dyn std::any::Any + std::marker::Send>>>"* %_1 to i64*, !dbg !1064
  %_2 = load i64, i64* %1, align 8, !dbg !1064, !range !568
  %2 = icmp eq i64 %_2, 0, !dbg !1064
  br i1 %2, label %bb1, label %bb2, !dbg !1064

bb1:                                              ; preds = %bb2, %start
  ret void, !dbg !1064

bb2:                                              ; preds = %start
  %3 = bitcast %"std::option::Option<std::result::Result<(), std::boxed::Box<dyn std::any::Any + std::marker::Send>>>"* %_1 to %"std::option::Option<std::result::Result<(), std::boxed::Box<dyn std::any::Any + std::marker::Send>>>::Some"*, !dbg !1064
  %4 = getelementptr inbounds %"std::option::Option<std::result::Result<(), std::boxed::Box<dyn std::any::Any + std::marker::Send>>>::Some", %"std::option::Option<std::result::Result<(), std::boxed::Box<dyn std::any::Any + std::marker::Send>>>::Some"* %3, i32 0, i32 1, !dbg !1064
; call core::ptr::drop_in_place::<core::result::Result<(), alloc::boxed::Box<dyn core::any::Any + core::marker::Send>>>
  call void @_RINvNtCs3p84KrD9aKt_4core3ptr13drop_in_placeINtNtB4_6result6ResultuINtNtCs8RW06R9lH2S_5alloc5boxed3BoxDNtNtB4_3any3AnyNtNtB4_6marker4SendEL_EEECsedCAef59i8L_14waitgroup_test({ i8*, i8* }* %4), !dbg !1064
  br label %bb1, !dbg !1064
}

; core::ptr::drop_in_place::<core::option::Option<alloc::sync::Arc<std::sync::mutex::Mutex<alloc::vec::Vec<u8>>>>>
; Function Attrs: nonlazybind uwtable
define internal void @_RINvNtCs3p84KrD9aKt_4core3ptr13drop_in_placeINtNtB4_6option6OptionINtNtCs8RW06R9lH2S_5alloc4sync3ArcINtNtNtCs2bNvlddUlXM_3std4sync5mutex5MutexINtNtB17_3vec3VechEEEEECsedCAef59i8L_14waitgroup_test(i64** %_1) unnamed_addr #0 !dbg !1065 {
start:
  %_1.dbg.spill = alloca i64**, align 8
  %0 = alloca {}, align 1
  store i64** %_1, i64*** %_1.dbg.spill, align 8
  call void @llvm.dbg.declare(metadata i64*** %_1.dbg.spill, metadata !1070, metadata !DIExpression()), !dbg !1073
  %1 = bitcast i64** %_1 to {}**, !dbg !1073
  %2 = load {}*, {}** %1, align 8, !dbg !1073
  %3 = icmp eq {}* %2, null, !dbg !1073
  %_2 = select i1 %3, i64 0, i64 1, !dbg !1073
  %4 = icmp eq i64 %_2, 0, !dbg !1073
  br i1 %4, label %bb1, label %bb2, !dbg !1073

bb1:                                              ; preds = %bb2, %start
  ret void, !dbg !1073

bb2:                                              ; preds = %start
; call core::ptr::drop_in_place::<alloc::sync::Arc<std::sync::mutex::Mutex<alloc::vec::Vec<u8>>>>
  call void @_RINvNtCs3p84KrD9aKt_4core3ptr13drop_in_placeINtNtCs8RW06R9lH2S_5alloc4sync3ArcINtNtNtCs2bNvlddUlXM_3std4sync5mutex5MutexINtNtBL_3vec3VechEEEECsedCAef59i8L_14waitgroup_test(i64** %_1), !dbg !1073
  br label %bb1, !dbg !1073
}

; core::ptr::drop_in_place::<core::option::Option<alloc::string::String>>
; Function Attrs: nonlazybind uwtable
define internal void @_RINvNtCs3p84KrD9aKt_4core3ptr13drop_in_placeINtNtB4_6option6OptionNtNtCs8RW06R9lH2S_5alloc6string6StringEECsedCAef59i8L_14waitgroup_test(%"std::option::Option<std::string::String>"* %_1) unnamed_addr #0 !dbg !1074 {
start:
  %_1.dbg.spill = alloca %"std::option::Option<std::string::String>"*, align 8
  %0 = alloca {}, align 1
  store %"std::option::Option<std::string::String>"* %_1, %"std::option::Option<std::string::String>"** %_1.dbg.spill, align 8
  call void @llvm.dbg.declare(metadata %"std::option::Option<std::string::String>"** %_1.dbg.spill, metadata !1079, metadata !DIExpression()), !dbg !1082
  %1 = bitcast %"std::option::Option<std::string::String>"* %_1 to {}**, !dbg !1082
  %2 = load {}*, {}** %1, align 8, !dbg !1082
  %3 = icmp eq {}* %2, null, !dbg !1082
  %_2 = select i1 %3, i64 0, i64 1, !dbg !1082
  %4 = icmp eq i64 %_2, 0, !dbg !1082
  br i1 %4, label %bb1, label %bb2, !dbg !1082

bb1:                                              ; preds = %bb2, %start
  ret void, !dbg !1082

bb2:                                              ; preds = %start
  %5 = bitcast %"std::option::Option<std::string::String>"* %_1 to %"std::option::Option<std::string::String>::Some"*, !dbg !1082
  %6 = bitcast %"std::option::Option<std::string::String>::Some"* %5 to %"std::string::String"*, !dbg !1082
; call core::ptr::drop_in_place::<alloc::string::String>
  call void @_RINvNtCs3p84KrD9aKt_4core3ptr13drop_in_placeNtNtCs8RW06R9lH2S_5alloc6string6StringECsedCAef59i8L_14waitgroup_test(%"std::string::String"* %6), !dbg !1082
  br label %bb1, !dbg !1082
}

; core::ptr::drop_in_place::<core::option::Option<std::sys::unix::thread::Thread>>
; Function Attrs: nonlazybind uwtable
define internal void @_RINvNtCs3p84KrD9aKt_4core3ptr13drop_in_placeINtNtB4_6option6OptionNtNtNtNtCs2bNvlddUlXM_3std3sys4unix6thread6ThreadEECsedCAef59i8L_14waitgroup_test({ i64, i64 }* %_1) unnamed_addr #0 !dbg !1083 {
start:
  %_1.dbg.spill = alloca { i64, i64 }*, align 8
  %0 = alloca {}, align 1
  store { i64, i64 }* %_1, { i64, i64 }** %_1.dbg.spill, align 8
  call void @llvm.dbg.declare(metadata { i64, i64 }** %_1.dbg.spill, metadata !1088, metadata !DIExpression()), !dbg !1091
  %1 = bitcast { i64, i64 }* %_1 to i64*, !dbg !1091
  %_2 = load i64, i64* %1, align 8, !dbg !1091, !range !568
  %2 = icmp eq i64 %_2, 0, !dbg !1091
  br i1 %2, label %bb1, label %bb2, !dbg !1091

bb1:                                              ; preds = %bb2, %start
  ret void, !dbg !1091

bb2:                                              ; preds = %start
  %3 = bitcast { i64, i64 }* %_1 to %"std::option::Option<std::sys::unix::thread::Thread>::Some"*, !dbg !1091
  %4 = getelementptr inbounds %"std::option::Option<std::sys::unix::thread::Thread>::Some", %"std::option::Option<std::sys::unix::thread::Thread>::Some"* %3, i32 0, i32 1, !dbg !1091
; call core::ptr::drop_in_place::<std::sys::unix::thread::Thread>
  call void @_RINvNtCs3p84KrD9aKt_4core3ptr13drop_in_placeNtNtNtNtCs2bNvlddUlXM_3std3sys4unix6thread6ThreadECsedCAef59i8L_14waitgroup_test(i64* %4), !dbg !1091
  br label %bb1, !dbg !1091
}

; core::ptr::drop_in_place::<core::result::Result<std::thread::JoinHandle<()>, std::io::error::Error>>
; Function Attrs: nonlazybind uwtable
define internal void @_RINvNtCs3p84KrD9aKt_4core3ptr13drop_in_placeINtNtB4_6result6ResultINtNtCs2bNvlddUlXM_3std6thread10JoinHandleuENtNtNtB17_2io5error5ErrorEECsedCAef59i8L_14waitgroup_test(%"std::result::Result<std::thread::JoinHandle<()>, std::io::Error>"* %_1) unnamed_addr #0 !dbg !1092 {
start:
  %_1.dbg.spill = alloca %"std::result::Result<std::thread::JoinHandle<()>, std::io::Error>"*, align 8
  %0 = alloca {}, align 1
  store %"std::result::Result<std::thread::JoinHandle<()>, std::io::Error>"* %_1, %"std::result::Result<std::thread::JoinHandle<()>, std::io::Error>"** %_1.dbg.spill, align 8
  call void @llvm.dbg.declare(metadata %"std::result::Result<std::thread::JoinHandle<()>, std::io::Error>"** %_1.dbg.spill, metadata !1097, metadata !DIExpression()), !dbg !1100
  %1 = bitcast %"std::result::Result<std::thread::JoinHandle<()>, std::io::Error>"* %_1 to i64*, !dbg !1100
  %_2 = load i64, i64* %1, align 8, !dbg !1100, !range !568
  %2 = icmp eq i64 %_2, 0, !dbg !1100
  br i1 %2, label %bb2, label %bb3, !dbg !1100

bb1:                                              ; preds = %bb2, %bb3
  ret void, !dbg !1100

bb2:                                              ; preds = %start
  %3 = bitcast %"std::result::Result<std::thread::JoinHandle<()>, std::io::Error>"* %_1 to %"std::result::Result<std::thread::JoinHandle<()>, std::io::Error>::Ok"*, !dbg !1100
  %4 = getelementptr inbounds %"std::result::Result<std::thread::JoinHandle<()>, std::io::Error>::Ok", %"std::result::Result<std::thread::JoinHandle<()>, std::io::Error>::Ok"* %3, i32 0, i32 1, !dbg !1100
; call core::ptr::drop_in_place::<std::thread::JoinHandle<()>>
  call void @_RINvNtCs3p84KrD9aKt_4core3ptr13drop_in_placeINtNtCs2bNvlddUlXM_3std6thread10JoinHandleuEECsedCAef59i8L_14waitgroup_test(%"std::thread::JoinHandle<()>"* %4), !dbg !1100
  br label %bb1, !dbg !1100

bb3:                                              ; preds = %start
  %5 = bitcast %"std::result::Result<std::thread::JoinHandle<()>, std::io::Error>"* %_1 to %"std::result::Result<std::thread::JoinHandle<()>, std::io::Error>::Err"*, !dbg !1100
  %6 = getelementptr inbounds %"std::result::Result<std::thread::JoinHandle<()>, std::io::Error>::Err", %"std::result::Result<std::thread::JoinHandle<()>, std::io::Error>::Err"* %5, i32 0, i32 1, !dbg !1100
; call core::ptr::drop_in_place::<std::io::error::Error>
  call void @_RINvNtCs3p84KrD9aKt_4core3ptr13drop_in_placeNtNtNtCs2bNvlddUlXM_3std2io5error5ErrorECsedCAef59i8L_14waitgroup_test(%"std::io::Error"* %6), !dbg !1100
  br label %bb1, !dbg !1100
}

; core::ptr::drop_in_place::<core::result::Result<(), alloc::boxed::Box<dyn core::any::Any + core::marker::Send>>>
; Function Attrs: nonlazybind uwtable
define internal void @_RINvNtCs3p84KrD9aKt_4core3ptr13drop_in_placeINtNtB4_6result6ResultuINtNtCs8RW06R9lH2S_5alloc5boxed3BoxDNtNtB4_3any3AnyNtNtB4_6marker4SendEL_EEECsedCAef59i8L_14waitgroup_test({ i8*, i8* }* %_1) unnamed_addr #0 !dbg !1101 {
start:
  %_1.dbg.spill = alloca { i8*, i8* }*, align 8
  %0 = alloca {}, align 1
  store { i8*, i8* }* %_1, { i8*, i8* }** %_1.dbg.spill, align 8
  call void @llvm.dbg.declare(metadata { i8*, i8* }** %_1.dbg.spill, metadata !1106, metadata !DIExpression()), !dbg !1107
  %1 = bitcast { i8*, i8* }* %_1 to {}**, !dbg !1107
  %2 = load {}*, {}** %1, align 8, !dbg !1107
  %3 = icmp eq {}* %2, null, !dbg !1107
  %_2 = select i1 %3, i64 0, i64 1, !dbg !1107
  %4 = icmp eq i64 %_2, 0, !dbg !1107
  br i1 %4, label %bb1, label %bb2, !dbg !1107

bb1:                                              ; preds = %bb2, %start
  ret void, !dbg !1107

bb2:                                              ; preds = %start
  %5 = bitcast { i8*, i8* }* %_1 to { {}*, [3 x i64]* }*, !dbg !1107
; call core::ptr::drop_in_place::<alloc::boxed::Box<dyn core::any::Any + core::marker::Send>>
  call void @_RINvNtCs3p84KrD9aKt_4core3ptr13drop_in_placeINtNtCs8RW06R9lH2S_5alloc5boxed3BoxDNtNtB4_3any3AnyNtNtB4_6marker4SendEL_EECs48Yq53b35jF_15crossbeam_utils({ {}*, [3 x i64]* }* %5), !dbg !1107
  br label %bb1, !dbg !1107
}

; core::ptr::drop_in_place::<std::thread::JoinHandle<()>>
; Function Attrs: nonlazybind uwtable
define internal void @_RINvNtCs3p84KrD9aKt_4core3ptr13drop_in_placeINtNtCs2bNvlddUlXM_3std6thread10JoinHandleuEECsedCAef59i8L_14waitgroup_test(%"std::thread::JoinHandle<()>"* %_1) unnamed_addr #0 !dbg !1108 {
start:
  %_1.dbg.spill = alloca %"std::thread::JoinHandle<()>"*, align 8
  %0 = alloca {}, align 1
  store %"std::thread::JoinHandle<()>"* %_1, %"std::thread::JoinHandle<()>"** %_1.dbg.spill, align 8
  call void @llvm.dbg.declare(metadata %"std::thread::JoinHandle<()>"** %_1.dbg.spill, metadata !1113, metadata !DIExpression()), !dbg !1115
  %1 = bitcast %"std::thread::JoinHandle<()>"* %_1 to %"std::thread::JoinInner<()>"*, !dbg !1115
; call core::ptr::drop_in_place::<std::thread::JoinInner<()>>
  call void @_RINvNtCs3p84KrD9aKt_4core3ptr13drop_in_placeINtNtCs2bNvlddUlXM_3std6thread9JoinInneruEECsedCAef59i8L_14waitgroup_test(%"std::thread::JoinInner<()>"* %1), !dbg !1115
  br label %bb1, !dbg !1115

bb1:                                              ; preds = %start
  ret void, !dbg !1115
}

; core::ptr::drop_in_place::<std::thread::Packet<()>>
; Function Attrs: nonlazybind uwtable
define internal void @_RINvNtCs3p84KrD9aKt_4core3ptr13drop_in_placeINtNtCs2bNvlddUlXM_3std6thread6PacketuEECsedCAef59i8L_14waitgroup_test(i64** %_1) unnamed_addr #0 !dbg !1116 {
start:
  %_1.dbg.spill = alloca i64**, align 8
  %0 = alloca {}, align 1
  store i64** %_1, i64*** %_1.dbg.spill, align 8
  call void @llvm.dbg.declare(metadata i64*** %_1.dbg.spill, metadata !1121, metadata !DIExpression()), !dbg !1124
; call core::ptr::drop_in_place::<alloc::sync::Arc<core::cell::UnsafeCell<core::option::Option<core::result::Result<(), alloc::boxed::Box<dyn core::any::Any + core::marker::Send>>>>>>
  call void @_RINvNtCs3p84KrD9aKt_4core3ptr13drop_in_placeINtNtCs8RW06R9lH2S_5alloc4sync3ArcINtNtB4_4cell10UnsafeCellINtNtB4_6option6OptionINtNtB4_6result6ResultuINtNtBL_5boxed3BoxDNtNtB4_3any3AnyNtNtB4_6marker4SendEL_EEEEEECsedCAef59i8L_14waitgroup_test(i64** %_1), !dbg !1124
  br label %bb1, !dbg !1124

bb1:                                              ; preds = %start
  ret void, !dbg !1124
}

; core::ptr::drop_in_place::<std::thread::JoinInner<()>>
; Function Attrs: nonlazybind uwtable
define internal void @_RINvNtCs3p84KrD9aKt_4core3ptr13drop_in_placeINtNtCs2bNvlddUlXM_3std6thread9JoinInneruEECsedCAef59i8L_14waitgroup_test(%"std::thread::JoinInner<()>"* %_1) unnamed_addr #0 personality i32 (i32, i32, i64, %"unwind::libunwind::_Unwind_Exception"*, %"unwind::libunwind::_Unwind_Context"*)* @rust_eh_personality !dbg !1125 {
start:
  %0 = alloca { i8*, i32 }, align 8
  %_1.dbg.spill = alloca %"std::thread::JoinInner<()>"*, align 8
  %1 = alloca {}, align 1
  store %"std::thread::JoinInner<()>"* %_1, %"std::thread::JoinInner<()>"** %_1.dbg.spill, align 8
  call void @llvm.dbg.declare(metadata %"std::thread::JoinInner<()>"** %_1.dbg.spill, metadata !1130, metadata !DIExpression()), !dbg !1133
  %2 = bitcast %"std::thread::JoinInner<()>"* %_1 to { i64, i64 }*, !dbg !1133
; invoke core::ptr::drop_in_place::<core::option::Option<std::sys::unix::thread::Thread>>
  invoke void @_RINvNtCs3p84KrD9aKt_4core3ptr13drop_in_placeINtNtB4_6option6OptionNtNtNtNtCs2bNvlddUlXM_3std3sys4unix6thread6ThreadEECsedCAef59i8L_14waitgroup_test({ i64, i64 }* %2)
          to label %bb6 unwind label %cleanup, !dbg !1133

bb1:                                              ; preds = %bb3
  %3 = bitcast { i8*, i32 }* %0 to i8**, !dbg !1133
  %4 = load i8*, i8** %3, align 8, !dbg !1133
  %5 = getelementptr inbounds { i8*, i32 }, { i8*, i32 }* %0, i32 0, i32 1, !dbg !1133
  %6 = load i32, i32* %5, align 8, !dbg !1133
  %7 = insertvalue { i8*, i32 } undef, i8* %4, 0, !dbg !1133
  %8 = insertvalue { i8*, i32 } %7, i32 %6, 1, !dbg !1133
  resume { i8*, i32 } %8, !dbg !1133

bb2:                                              ; preds = %bb5
  ret void, !dbg !1133

bb3:                                              ; preds = %cleanup1, %bb4
  %9 = getelementptr inbounds %"std::thread::JoinInner<()>", %"std::thread::JoinInner<()>"* %_1, i32 0, i32 5, !dbg !1133
; call core::ptr::drop_in_place::<std::thread::Packet<()>>
  call void @_RINvNtCs3p84KrD9aKt_4core3ptr13drop_in_placeINtNtCs2bNvlddUlXM_3std6thread6PacketuEECsedCAef59i8L_14waitgroup_test(i64** %9) #13, !dbg !1133
  br label %bb1, !dbg !1133

bb4:                                              ; preds = %cleanup
  %10 = getelementptr inbounds %"std::thread::JoinInner<()>", %"std::thread::JoinInner<()>"* %_1, i32 0, i32 3, !dbg !1133
; call core::ptr::drop_in_place::<std::thread::Thread>
  call void @_RINvNtCs3p84KrD9aKt_4core3ptr13drop_in_placeNtNtCs2bNvlddUlXM_3std6thread6ThreadECs48Yq53b35jF_15crossbeam_utils(i64** %10) #13, !dbg !1133
  br label %bb3, !dbg !1133

bb5:                                              ; preds = %bb6
  %11 = getelementptr inbounds %"std::thread::JoinInner<()>", %"std::thread::JoinInner<()>"* %_1, i32 0, i32 5, !dbg !1133
; call core::ptr::drop_in_place::<std::thread::Packet<()>>
  call void @_RINvNtCs3p84KrD9aKt_4core3ptr13drop_in_placeINtNtCs2bNvlddUlXM_3std6thread6PacketuEECsedCAef59i8L_14waitgroup_test(i64** %11), !dbg !1133
  br label %bb2, !dbg !1133

bb6:                                              ; preds = %start
  %12 = getelementptr inbounds %"std::thread::JoinInner<()>", %"std::thread::JoinInner<()>"* %_1, i32 0, i32 3, !dbg !1133
; invoke core::ptr::drop_in_place::<std::thread::Thread>
  invoke void @_RINvNtCs3p84KrD9aKt_4core3ptr13drop_in_placeNtNtCs2bNvlddUlXM_3std6thread6ThreadECs48Yq53b35jF_15crossbeam_utils(i64** %12)
          to label %bb5 unwind label %cleanup1, !dbg !1133

cleanup:                                          ; preds = %start
  %13 = landingpad { i8*, i32 }
          cleanup
  %14 = extractvalue { i8*, i32 } %13, 0
  %15 = extractvalue { i8*, i32 } %13, 1
  %16 = getelementptr inbounds { i8*, i32 }, { i8*, i32 }* %0, i32 0, i32 0
  store i8* %14, i8** %16, align 8
  %17 = getelementptr inbounds { i8*, i32 }, { i8*, i32 }* %0, i32 0, i32 1
  store i32 %15, i32* %17, align 8
  br label %bb4

cleanup1:                                         ; preds = %bb6
  %18 = landingpad { i8*, i32 }
          cleanup
  %19 = extractvalue { i8*, i32 } %18, 0
  %20 = extractvalue { i8*, i32 } %18, 1
  %21 = getelementptr inbounds { i8*, i32 }, { i8*, i32 }* %0, i32 0, i32 0
  store i8* %19, i8** %21, align 8
  %22 = getelementptr inbounds { i8*, i32 }, { i8*, i32 }* %0, i32 0, i32 1
  store i32 %20, i32* %22, align 8
  br label %bb3
}

; core::ptr::drop_in_place::<alloc::vec::Vec<u8>>
; Function Attrs: nonlazybind uwtable
define internal void @_RINvNtCs3p84KrD9aKt_4core3ptr13drop_in_placeINtNtCs8RW06R9lH2S_5alloc3vec3VechEECsedCAef59i8L_14waitgroup_test(%"std::vec::Vec<u8>"* %_1) unnamed_addr #0 personality i32 (i32, i32, i64, %"unwind::libunwind::_Unwind_Exception"*, %"unwind::libunwind::_Unwind_Context"*)* @rust_eh_personality !dbg !1134 {
start:
  %0 = alloca { i8*, i32 }, align 8
  %_1.dbg.spill = alloca %"std::vec::Vec<u8>"*, align 8
  %1 = alloca {}, align 1
  store %"std::vec::Vec<u8>"* %_1, %"std::vec::Vec<u8>"** %_1.dbg.spill, align 8
  call void @llvm.dbg.declare(metadata %"std::vec::Vec<u8>"** %_1.dbg.spill, metadata !1139, metadata !DIExpression()), !dbg !1140
; invoke <alloc::vec::Vec<u8> as core::ops::drop::Drop>::drop
  invoke void @_RNvXsm_NtCs8RW06R9lH2S_5alloc3vecINtB5_3VechENtNtNtCs3p84KrD9aKt_4core3ops4drop4Drop4dropCsedCAef59i8L_14waitgroup_test(%"std::vec::Vec<u8>"* align 8 dereferenceable(24) %_1)
          to label %bb4 unwind label %cleanup, !dbg !1140

bb1:                                              ; preds = %bb3
  %2 = bitcast { i8*, i32 }* %0 to i8**, !dbg !1140
  %3 = load i8*, i8** %2, align 8, !dbg !1140
  %4 = getelementptr inbounds { i8*, i32 }, { i8*, i32 }* %0, i32 0, i32 1, !dbg !1140
  %5 = load i32, i32* %4, align 8, !dbg !1140
  %6 = insertvalue { i8*, i32 } undef, i8* %3, 0, !dbg !1140
  %7 = insertvalue { i8*, i32 } %6, i32 %5, 1, !dbg !1140
  resume { i8*, i32 } %7, !dbg !1140

bb2:                                              ; preds = %bb4
  ret void, !dbg !1140

bb3:                                              ; preds = %cleanup
  %8 = bitcast %"std::vec::Vec<u8>"* %_1 to { i8*, i64 }*, !dbg !1140
; call core::ptr::drop_in_place::<alloc::raw_vec::RawVec<u8>>
  call void @_RINvNtCs3p84KrD9aKt_4core3ptr13drop_in_placeINtNtCs8RW06R9lH2S_5alloc7raw_vec6RawVechEECsedCAef59i8L_14waitgroup_test({ i8*, i64 }* %8) #13, !dbg !1140
  br label %bb1, !dbg !1140

bb4:                                              ; preds = %start
  %9 = bitcast %"std::vec::Vec<u8>"* %_1 to { i8*, i64 }*, !dbg !1140
; call core::ptr::drop_in_place::<alloc::raw_vec::RawVec<u8>>
  call void @_RINvNtCs3p84KrD9aKt_4core3ptr13drop_in_placeINtNtCs8RW06R9lH2S_5alloc7raw_vec6RawVechEECsedCAef59i8L_14waitgroup_test({ i8*, i64 }* %9), !dbg !1140
  br label %bb2, !dbg !1140

cleanup:                                          ; preds = %start
  %10 = landingpad { i8*, i32 }
          cleanup
  %11 = extractvalue { i8*, i32 } %10, 0
  %12 = extractvalue { i8*, i32 } %10, 1
  %13 = getelementptr inbounds { i8*, i32 }, { i8*, i32 }* %0, i32 0, i32 0
  store i8* %11, i8** %13, align 8
  %14 = getelementptr inbounds { i8*, i32 }, { i8*, i32 }* %0, i32 0, i32 1
  store i32 %12, i32* %14, align 8
  br label %bb3
}

; core::ptr::drop_in_place::<alloc::sync::Arc<core::cell::UnsafeCell<core::option::Option<core::result::Result<(), alloc::boxed::Box<dyn core::any::Any + core::marker::Send>>>>>>
; Function Attrs: nonlazybind uwtable
define internal void @_RINvNtCs3p84KrD9aKt_4core3ptr13drop_in_placeINtNtCs8RW06R9lH2S_5alloc4sync3ArcINtNtB4_4cell10UnsafeCellINtNtB4_6option6OptionINtNtB4_6result6ResultuINtNtBL_5boxed3BoxDNtNtB4_3any3AnyNtNtB4_6marker4SendEL_EEEEEECsedCAef59i8L_14waitgroup_test(i64** %_1) unnamed_addr #0 !dbg !1141 {
start:
  %_1.dbg.spill = alloca i64**, align 8
  %0 = alloca {}, align 1
  store i64** %_1, i64*** %_1.dbg.spill, align 8
  call void @llvm.dbg.declare(metadata i64*** %_1.dbg.spill, metadata !1146, metadata !DIExpression()), !dbg !1149
; call <alloc::sync::Arc<core::cell::UnsafeCell<core::option::Option<core::result::Result<(), alloc::boxed::Box<dyn core::any::Any + core::marker::Send>>>>> as core::ops::drop::Drop>::drop
  call void @_RNvXsp_NtCs8RW06R9lH2S_5alloc4syncINtB5_3ArcINtNtCs3p84KrD9aKt_4core4cell10UnsafeCellINtNtBL_6option6OptionINtNtBL_6result6ResultuINtNtB7_5boxed3BoxDNtNtBL_3any3AnyNtNtBL_6marker4SendEL_EEEEENtNtNtBL_3ops4drop4Drop4dropCsedCAef59i8L_14waitgroup_test(i64** align 8 dereferenceable(8) %_1), !dbg !1149
  br label %bb1, !dbg !1149

bb1:                                              ; preds = %start
  ret void, !dbg !1149
}

; core::ptr::drop_in_place::<alloc::sync::Arc<std::sync::mutex::Mutex<alloc::vec::Vec<u8>>>>
; Function Attrs: nonlazybind uwtable
define internal void @_RINvNtCs3p84KrD9aKt_4core3ptr13drop_in_placeINtNtCs8RW06R9lH2S_5alloc4sync3ArcINtNtNtCs2bNvlddUlXM_3std4sync5mutex5MutexINtNtBL_3vec3VechEEEECsedCAef59i8L_14waitgroup_test(i64** %_1) unnamed_addr #0 !dbg !1150 {
start:
  %_1.dbg.spill = alloca i64**, align 8
  %0 = alloca {}, align 1
  store i64** %_1, i64*** %_1.dbg.spill, align 8
  call void @llvm.dbg.declare(metadata i64*** %_1.dbg.spill, metadata !1155, metadata !DIExpression()), !dbg !1156
; call <alloc::sync::Arc<std::sync::mutex::Mutex<alloc::vec::Vec<u8>>> as core::ops::drop::Drop>::drop
  call void @_RNvXsp_NtCs8RW06R9lH2S_5alloc4syncINtB5_3ArcINtNtNtCs2bNvlddUlXM_3std4sync5mutex5MutexINtNtB7_3vec3VechEEENtNtNtCs3p84KrD9aKt_4core3ops4drop4Drop4dropCsedCAef59i8L_14waitgroup_test(i64** align 8 dereferenceable(8) %_1), !dbg !1156
  br label %bb1, !dbg !1156

bb1:                                              ; preds = %start
  ret void, !dbg !1156
}

; core::ptr::drop_in_place::<alloc::sync::Weak<core::cell::UnsafeCell<core::option::Option<core::result::Result<(), alloc::boxed::Box<dyn core::any::Any + core::marker::Send>>>>>>
; Function Attrs: nonlazybind uwtable
define internal void @_RINvNtCs3p84KrD9aKt_4core3ptr13drop_in_placeINtNtCs8RW06R9lH2S_5alloc4sync4WeakINtNtB4_4cell10UnsafeCellINtNtB4_6option6OptionINtNtB4_6result6ResultuINtNtBL_5boxed3BoxDNtNtB4_3any3AnyNtNtB4_6marker4SendEL_EEEEEECsedCAef59i8L_14waitgroup_test(i64** %_1) unnamed_addr #0 !dbg !1157 {
start:
  %_1.dbg.spill = alloca i64**, align 8
  %0 = alloca {}, align 1
  store i64** %_1, i64*** %_1.dbg.spill, align 8
  call void @llvm.dbg.declare(metadata i64*** %_1.dbg.spill, metadata !1162, metadata !DIExpression()), !dbg !1163
; call <alloc::sync::Weak<core::cell::UnsafeCell<core::option::Option<core::result::Result<(), alloc::boxed::Box<dyn core::any::Any + core::marker::Send>>>>> as core::ops::drop::Drop>::drop
  call void @_RNvXsw_NtCs8RW06R9lH2S_5alloc4syncINtB5_4WeakINtNtCs3p84KrD9aKt_4core4cell10UnsafeCellINtNtBM_6option6OptionINtNtBM_6result6ResultuINtNtB7_5boxed3BoxDNtNtBM_3any3AnyNtNtBM_6marker4SendEL_EEEEENtNtNtBM_3ops4drop4Drop4dropCsedCAef59i8L_14waitgroup_test(i64** align 8 dereferenceable(8) %_1), !dbg !1163
  br label %bb1, !dbg !1163

bb1:                                              ; preds = %start
  ret void, !dbg !1163
}

; core::ptr::drop_in_place::<alloc::sync::Weak<std::sync::mutex::Mutex<alloc::vec::Vec<u8>>>>
; Function Attrs: nonlazybind uwtable
define internal void @_RINvNtCs3p84KrD9aKt_4core3ptr13drop_in_placeINtNtCs8RW06R9lH2S_5alloc4sync4WeakINtNtNtCs2bNvlddUlXM_3std4sync5mutex5MutexINtNtBL_3vec3VechEEEECsedCAef59i8L_14waitgroup_test(i64** %_1) unnamed_addr #0 !dbg !1164 {
start:
  %_1.dbg.spill = alloca i64**, align 8
  %0 = alloca {}, align 1
  store i64** %_1, i64*** %_1.dbg.spill, align 8
  call void @llvm.dbg.declare(metadata i64*** %_1.dbg.spill, metadata !1169, metadata !DIExpression()), !dbg !1170
; call <alloc::sync::Weak<std::sync::mutex::Mutex<alloc::vec::Vec<u8>>> as core::ops::drop::Drop>::drop
  call void @_RNvXsw_NtCs8RW06R9lH2S_5alloc4syncINtB5_4WeakINtNtNtCs2bNvlddUlXM_3std4sync5mutex5MutexINtNtB7_3vec3VechEEENtNtNtCs3p84KrD9aKt_4core3ops4drop4Drop4dropCsedCAef59i8L_14waitgroup_test(i64** align 8 dereferenceable(8) %_1), !dbg !1170
  br label %bb1, !dbg !1170

bb1:                                              ; preds = %start
  ret void, !dbg !1170
}

; core::ptr::drop_in_place::<alloc::boxed::Box<dyn std::error::Error + core::marker::Send + core::marker::Sync>>
; Function Attrs: nonlazybind uwtable
define internal void @_RINvNtCs3p84KrD9aKt_4core3ptr13drop_in_placeINtNtCs8RW06R9lH2S_5alloc5boxed3BoxDNtNtCs2bNvlddUlXM_3std5error5ErrorNtNtB4_6marker4SendNtB1Q_4SyncEL_EECsedCAef59i8L_14waitgroup_test({ {}*, [3 x i64]* }* %_1) unnamed_addr #0 personality i32 (i32, i32, i64, %"unwind::libunwind::_Unwind_Exception"*, %"unwind::libunwind::_Unwind_Context"*)* @rust_eh_personality !dbg !1171 {
start:
  %0 = alloca { i8*, i32 }, align 8
  %_1.dbg.spill = alloca { {}*, [3 x i64]* }*, align 8
  %1 = alloca {}, align 1
  store { {}*, [3 x i64]* }* %_1, { {}*, [3 x i64]* }** %_1.dbg.spill, align 8
  call void @llvm.dbg.declare(metadata { {}*, [3 x i64]* }** %_1.dbg.spill, metadata !1176, metadata !DIExpression()), !dbg !1179
  %2 = getelementptr inbounds { {}*, [3 x i64]* }, { {}*, [3 x i64]* }* %_1, i32 0, i32 0, !dbg !1179
  %3 = load {}*, {}** %2, align 8, !dbg !1179, !nonnull !4
  %4 = getelementptr inbounds { {}*, [3 x i64]* }, { {}*, [3 x i64]* }* %_1, i32 0, i32 1, !dbg !1179
  %5 = load [3 x i64]*, [3 x i64]** %4, align 8, !dbg !1179, !nonnull !4
  %6 = bitcast [3 x i64]* %5 to void ({}*)**, !dbg !1179
  %7 = getelementptr inbounds void ({}*)*, void ({}*)** %6, i64 0, !dbg !1179
  %8 = load void ({}*)*, void ({}*)** %7, align 8, !dbg !1179, !invariant.load !4, !nonnull !4
  invoke void %8({}* %3)
          to label %bb3 unwind label %cleanup, !dbg !1179

bb1:                                              ; preds = %bb3
  ret void, !dbg !1179

bb2:                                              ; preds = %bb4
  %9 = bitcast { i8*, i32 }* %0 to i8**, !dbg !1179
  %10 = load i8*, i8** %9, align 8, !dbg !1179
  %11 = getelementptr inbounds { i8*, i32 }, { i8*, i32 }* %0, i32 0, i32 1, !dbg !1179
  %12 = load i32, i32* %11, align 8, !dbg !1179
  %13 = insertvalue { i8*, i32 } undef, i8* %10, 0, !dbg !1179
  %14 = insertvalue { i8*, i32 } %13, i32 %12, 1, !dbg !1179
  resume { i8*, i32 } %14, !dbg !1179

bb3:                                              ; preds = %start
  %15 = bitcast { {}*, [3 x i64]* }* %_1 to { i8*, i64* }*, !dbg !1179
  %16 = getelementptr inbounds { i8*, i64* }, { i8*, i64* }* %15, i32 0, i32 0, !dbg !1179
  %17 = load i8*, i8** %16, align 8, !dbg !1179, !nonnull !4
  %18 = getelementptr inbounds { i8*, i64* }, { i8*, i64* }* %15, i32 0, i32 1, !dbg !1179
  %19 = load i64*, i64** %18, align 8, !dbg !1179, !nonnull !4
; call alloc::alloc::box_free::<dyn std::error::Error + core::marker::Send + core::marker::Sync, alloc::alloc::Global>
  call void @_RINvNtCs8RW06R9lH2S_5alloc5alloc8box_freeDNtNtCs2bNvlddUlXM_3std5error5ErrorNtNtCs3p84KrD9aKt_4core6marker4SendNtB1e_4SyncEL_NtB2_6GlobalECsedCAef59i8L_14waitgroup_test(i8* nonnull %17, i64* noalias readonly align 8 dereferenceable(24) %19), !dbg !1179
  br label %bb1, !dbg !1179

bb4:                                              ; preds = %cleanup
  %20 = bitcast { {}*, [3 x i64]* }* %_1 to { i8*, i64* }*, !dbg !1179
  %21 = getelementptr inbounds { i8*, i64* }, { i8*, i64* }* %20, i32 0, i32 0, !dbg !1179
  %22 = load i8*, i8** %21, align 8, !dbg !1179, !nonnull !4
  %23 = getelementptr inbounds { i8*, i64* }, { i8*, i64* }* %20, i32 0, i32 1, !dbg !1179
  %24 = load i64*, i64** %23, align 8, !dbg !1179, !nonnull !4
; call alloc::alloc::box_free::<dyn std::error::Error + core::marker::Send + core::marker::Sync, alloc::alloc::Global>
  call void @_RINvNtCs8RW06R9lH2S_5alloc5alloc8box_freeDNtNtCs2bNvlddUlXM_3std5error5ErrorNtNtCs3p84KrD9aKt_4core6marker4SendNtB1e_4SyncEL_NtB2_6GlobalECsedCAef59i8L_14waitgroup_test(i8* nonnull %22, i64* noalias readonly align 8 dereferenceable(24) %24) #13, !dbg !1179
  br label %bb2, !dbg !1179

cleanup:                                          ; preds = %start
  %25 = landingpad { i8*, i32 }
          cleanup
  %26 = extractvalue { i8*, i32 } %25, 0
  %27 = extractvalue { i8*, i32 } %25, 1
  %28 = getelementptr inbounds { i8*, i32 }, { i8*, i32 }* %0, i32 0, i32 0
  store i8* %26, i8** %28, align 8
  %29 = getelementptr inbounds { i8*, i32 }, { i8*, i32 }* %0, i32 0, i32 1
  store i32 %27, i32* %29, align 8
  br label %bb4
}

; core::ptr::drop_in_place::<alloc::boxed::Box<std::io::error::Custom>>
; Function Attrs: nonlazybind uwtable
define internal void @_RINvNtCs3p84KrD9aKt_4core3ptr13drop_in_placeINtNtCs8RW06R9lH2S_5alloc5boxed3BoxNtNtNtCs2bNvlddUlXM_3std2io5error6CustomEECsedCAef59i8L_14waitgroup_test(%"std::io::error::Custom"** %_1) unnamed_addr #0 personality i32 (i32, i32, i64, %"unwind::libunwind::_Unwind_Exception"*, %"unwind::libunwind::_Unwind_Context"*)* @rust_eh_personality !dbg !1180 {
start:
  %0 = alloca { i8*, i32 }, align 8
  %_1.dbg.spill = alloca %"std::io::error::Custom"**, align 8
  %1 = alloca {}, align 1
  store %"std::io::error::Custom"** %_1, %"std::io::error::Custom"*** %_1.dbg.spill, align 8
  call void @llvm.dbg.declare(metadata %"std::io::error::Custom"*** %_1.dbg.spill, metadata !1185, metadata !DIExpression()), !dbg !1188
  %2 = load %"std::io::error::Custom"*, %"std::io::error::Custom"** %_1, align 8, !dbg !1188, !nonnull !4
; invoke core::ptr::drop_in_place::<std::io::error::Custom>
  invoke void @_RINvNtCs3p84KrD9aKt_4core3ptr13drop_in_placeNtNtNtCs2bNvlddUlXM_3std2io5error6CustomECsedCAef59i8L_14waitgroup_test(%"std::io::error::Custom"* %2)
          to label %bb3 unwind label %cleanup, !dbg !1188

bb1:                                              ; preds = %bb3
  ret void, !dbg !1188

bb2:                                              ; preds = %bb4
  %3 = bitcast { i8*, i32 }* %0 to i8**, !dbg !1188
  %4 = load i8*, i8** %3, align 8, !dbg !1188
  %5 = getelementptr inbounds { i8*, i32 }, { i8*, i32 }* %0, i32 0, i32 1, !dbg !1188
  %6 = load i32, i32* %5, align 8, !dbg !1188
  %7 = insertvalue { i8*, i32 } undef, i8* %4, 0, !dbg !1188
  %8 = insertvalue { i8*, i32 } %7, i32 %6, 1, !dbg !1188
  resume { i8*, i32 } %8, !dbg !1188

bb3:                                              ; preds = %start
  %9 = bitcast %"std::io::error::Custom"** %_1 to i64**, !dbg !1188
  %10 = load i64*, i64** %9, align 8, !dbg !1188, !nonnull !4
; call alloc::alloc::box_free::<std::io::error::Custom, alloc::alloc::Global>
  call void @_RINvNtCs8RW06R9lH2S_5alloc5alloc8box_freeNtNtNtCs2bNvlddUlXM_3std2io5error6CustomNtB2_6GlobalECsedCAef59i8L_14waitgroup_test(i64* nonnull %10), !dbg !1188
  br label %bb1, !dbg !1188

bb4:                                              ; preds = %cleanup
  %11 = bitcast %"std::io::error::Custom"** %_1 to i64**, !dbg !1188
  %12 = load i64*, i64** %11, align 8, !dbg !1188, !nonnull !4
; call alloc::alloc::box_free::<std::io::error::Custom, alloc::alloc::Global>
  call void @_RINvNtCs8RW06R9lH2S_5alloc5alloc8box_freeNtNtNtCs2bNvlddUlXM_3std2io5error6CustomNtB2_6GlobalECsedCAef59i8L_14waitgroup_test(i64* nonnull %12) #13, !dbg !1188
  br label %bb2, !dbg !1188

cleanup:                                          ; preds = %start
  %13 = landingpad { i8*, i32 }
          cleanup
  %14 = extractvalue { i8*, i32 } %13, 0
  %15 = extractvalue { i8*, i32 } %13, 1
  %16 = getelementptr inbounds { i8*, i32 }, { i8*, i32 }* %0, i32 0, i32 0
  store i8* %14, i8** %16, align 8
  %17 = getelementptr inbounds { i8*, i32 }, { i8*, i32 }* %0, i32 0, i32 1
  store i32 %15, i32* %17, align 8
  br label %bb4
}

; core::ptr::drop_in_place::<alloc::raw_vec::RawVec<u8>>
; Function Attrs: nonlazybind uwtable
define internal void @_RINvNtCs3p84KrD9aKt_4core3ptr13drop_in_placeINtNtCs8RW06R9lH2S_5alloc7raw_vec6RawVechEECsedCAef59i8L_14waitgroup_test({ i8*, i64 }* %_1) unnamed_addr #0 !dbg !1189 {
start:
  %_1.dbg.spill = alloca { i8*, i64 }*, align 8
  %0 = alloca {}, align 1
  store { i8*, i64 }* %_1, { i8*, i64 }** %_1.dbg.spill, align 8
  call void @llvm.dbg.declare(metadata { i8*, i64 }** %_1.dbg.spill, metadata !1194, metadata !DIExpression()), !dbg !1197
; call <alloc::raw_vec::RawVec<u8> as core::ops::drop::Drop>::drop
  call void @_RNvXs1_NtCs8RW06R9lH2S_5alloc7raw_vecINtB5_6RawVechENtNtNtCs3p84KrD9aKt_4core3ops4drop4Drop4dropCsedCAef59i8L_14waitgroup_test({ i8*, i64 }* align 8 dereferenceable(16) %_1), !dbg !1197
  br label %bb1, !dbg !1197

bb1:                                              ; preds = %start
  ret void, !dbg !1197
}

; core::ptr::drop_in_place::<std::sync::mutex::Mutex<alloc::vec::Vec<u8>>>
; Function Attrs: nonlazybind uwtable
define internal void @_RINvNtCs3p84KrD9aKt_4core3ptr13drop_in_placeINtNtNtCs2bNvlddUlXM_3std4sync5mutex5MutexINtNtCs8RW06R9lH2S_5alloc3vec3VechEEECsedCAef59i8L_14waitgroup_test(%"std::sync::Mutex<std::vec::Vec<u8>>"* %_1) unnamed_addr #0 personality i32 (i32, i32, i64, %"unwind::libunwind::_Unwind_Exception"*, %"unwind::libunwind::_Unwind_Context"*)* @rust_eh_personality !dbg !1198 {
start:
  %0 = alloca { i8*, i32 }, align 8
  %_1.dbg.spill = alloca %"std::sync::Mutex<std::vec::Vec<u8>>"*, align 8
  %1 = alloca {}, align 1
  store %"std::sync::Mutex<std::vec::Vec<u8>>"* %_1, %"std::sync::Mutex<std::vec::Vec<u8>>"** %_1.dbg.spill, align 8
  call void @llvm.dbg.declare(metadata %"std::sync::Mutex<std::vec::Vec<u8>>"** %_1.dbg.spill, metadata !1203, metadata !DIExpression()), !dbg !1204
  %2 = bitcast %"std::sync::Mutex<std::vec::Vec<u8>>"* %_1 to i64**, !dbg !1204
; invoke core::ptr::drop_in_place::<std::sys_common::mutex::MovableMutex>
  invoke void @_RINvNtCs3p84KrD9aKt_4core3ptr13drop_in_placeNtNtNtCs2bNvlddUlXM_3std10sys_common5mutex12MovableMutexECs48Yq53b35jF_15crossbeam_utils(i64** %2)
          to label %bb4 unwind label %cleanup, !dbg !1204

bb1:                                              ; preds = %bb3
  %3 = bitcast { i8*, i32 }* %0 to i8**, !dbg !1204
  %4 = load i8*, i8** %3, align 8, !dbg !1204
  %5 = getelementptr inbounds { i8*, i32 }, { i8*, i32 }* %0, i32 0, i32 1, !dbg !1204
  %6 = load i32, i32* %5, align 8, !dbg !1204
  %7 = insertvalue { i8*, i32 } undef, i8* %4, 0, !dbg !1204
  %8 = insertvalue { i8*, i32 } %7, i32 %6, 1, !dbg !1204
  resume { i8*, i32 } %8, !dbg !1204

bb2:                                              ; preds = %bb4
  ret void, !dbg !1204

bb3:                                              ; preds = %cleanup
  %9 = getelementptr inbounds %"std::sync::Mutex<std::vec::Vec<u8>>", %"std::sync::Mutex<std::vec::Vec<u8>>"* %_1, i32 0, i32 5, !dbg !1204
; call core::ptr::drop_in_place::<core::cell::UnsafeCell<alloc::vec::Vec<u8>>>
  call void @_RINvNtCs3p84KrD9aKt_4core3ptr13drop_in_placeINtNtB4_4cell10UnsafeCellINtNtCs8RW06R9lH2S_5alloc3vec3VechEEECsedCAef59i8L_14waitgroup_test(%"std::cell::UnsafeCell<std::vec::Vec<u8>>"* %9) #13, !dbg !1204
  br label %bb1, !dbg !1204

bb4:                                              ; preds = %start
  %10 = getelementptr inbounds %"std::sync::Mutex<std::vec::Vec<u8>>", %"std::sync::Mutex<std::vec::Vec<u8>>"* %_1, i32 0, i32 5, !dbg !1204
; call core::ptr::drop_in_place::<core::cell::UnsafeCell<alloc::vec::Vec<u8>>>
  call void @_RINvNtCs3p84KrD9aKt_4core3ptr13drop_in_placeINtNtB4_4cell10UnsafeCellINtNtCs8RW06R9lH2S_5alloc3vec3VechEEECsedCAef59i8L_14waitgroup_test(%"std::cell::UnsafeCell<std::vec::Vec<u8>>"* %10), !dbg !1204
  br label %bb2, !dbg !1204

cleanup:                                          ; preds = %start
  %11 = landingpad { i8*, i32 }
          cleanup
  %12 = extractvalue { i8*, i32 } %11, 0
  %13 = extractvalue { i8*, i32 } %11, 1
  %14 = getelementptr inbounds { i8*, i32 }, { i8*, i32 }* %0, i32 0, i32 0
  store i8* %12, i8** %14, align 8
  %15 = getelementptr inbounds { i8*, i32 }, { i8*, i32 }* %0, i32 0, i32 1
  store i32 %13, i32* %15, align 8
  br label %bb3
}

; core::ptr::drop_in_place::<<std::thread::Builder>::spawn_unchecked<waitgroup_test::main::{closure#0}, ()>::{closure#0}>
; Function Attrs: nonlazybind uwtable
define internal void @_RINvNtCs3p84KrD9aKt_4core3ptr13drop_in_placeNCINvMNtCs2bNvlddUlXM_3std6threadNtBM_7Builder15spawn_uncheckedNCNvCsedCAef59i8L_14waitgroup_test4main0uE0EB1L_(%"[closure@std::thread::Builder::spawn_unchecked<[closure@src/main.rs:18:21: 24:8], ()>::{closure#0}]"* %_1) unnamed_addr #0 personality i32 (i32, i32, i64, %"unwind::libunwind::_Unwind_Exception"*, %"unwind::libunwind::_Unwind_Context"*)* @rust_eh_personality !dbg !1205 {
start:
  %0 = alloca { i8*, i32 }, align 8
  %_1.dbg.spill = alloca %"[closure@std::thread::Builder::spawn_unchecked<[closure@src/main.rs:18:21: 24:8], ()>::{closure#0}]"*, align 8
  %1 = alloca {}, align 1
  store %"[closure@std::thread::Builder::spawn_unchecked<[closure@src/main.rs:18:21: 24:8], ()>::{closure#0}]"* %_1, %"[closure@std::thread::Builder::spawn_unchecked<[closure@src/main.rs:18:21: 24:8], ()>::{closure#0}]"** %_1.dbg.spill, align 8
  call void @llvm.dbg.declare(metadata %"[closure@std::thread::Builder::spawn_unchecked<[closure@src/main.rs:18:21: 24:8], ()>::{closure#0}]"** %_1.dbg.spill, metadata !1210, metadata !DIExpression()), !dbg !1211
  %2 = bitcast %"[closure@std::thread::Builder::spawn_unchecked<[closure@src/main.rs:18:21: 24:8], ()>::{closure#0}]"* %_1 to i64**, !dbg !1211
; invoke core::ptr::drop_in_place::<std::thread::Thread>
  invoke void @_RINvNtCs3p84KrD9aKt_4core3ptr13drop_in_placeNtNtCs2bNvlddUlXM_3std6thread6ThreadECs48Yq53b35jF_15crossbeam_utils(i64** %2)
          to label %bb8 unwind label %cleanup, !dbg !1211

bb1:                                              ; preds = %bb3
  %3 = bitcast { i8*, i32 }* %0 to i8**, !dbg !1211
  %4 = load i8*, i8** %3, align 8, !dbg !1211
  %5 = getelementptr inbounds { i8*, i32 }, { i8*, i32 }* %0, i32 0, i32 1, !dbg !1211
  %6 = load i32, i32* %5, align 8, !dbg !1211
  %7 = insertvalue { i8*, i32 } undef, i8* %4, 0, !dbg !1211
  %8 = insertvalue { i8*, i32 } %7, i32 %6, 1, !dbg !1211
  resume { i8*, i32 } %8, !dbg !1211

bb2:                                              ; preds = %bb6
  ret void, !dbg !1211

bb3:                                              ; preds = %cleanup2, %bb4
  %9 = getelementptr inbounds %"[closure@std::thread::Builder::spawn_unchecked<[closure@src/main.rs:18:21: 24:8], ()>::{closure#0}]", %"[closure@std::thread::Builder::spawn_unchecked<[closure@src/main.rs:18:21: 24:8], ()>::{closure#0}]"* %_1, i32 0, i32 7, !dbg !1211
; call core::ptr::drop_in_place::<alloc::sync::Arc<core::cell::UnsafeCell<core::option::Option<core::result::Result<(), alloc::boxed::Box<dyn core::any::Any + core::marker::Send>>>>>>
  call void @_RINvNtCs3p84KrD9aKt_4core3ptr13drop_in_placeINtNtCs8RW06R9lH2S_5alloc4sync3ArcINtNtB4_4cell10UnsafeCellINtNtB4_6option6OptionINtNtB4_6result6ResultuINtNtBL_5boxed3BoxDNtNtB4_3any3AnyNtNtB4_6marker4SendEL_EEEEEECsedCAef59i8L_14waitgroup_test(i64** %9) #13, !dbg !1211
  br label %bb1, !dbg !1211

bb4:                                              ; preds = %cleanup1, %bb5
  %10 = getelementptr inbounds %"[closure@std::thread::Builder::spawn_unchecked<[closure@src/main.rs:18:21: 24:8], ()>::{closure#0}]", %"[closure@std::thread::Builder::spawn_unchecked<[closure@src/main.rs:18:21: 24:8], ()>::{closure#0}]"* %_1, i32 0, i32 5, !dbg !1211
; call core::ptr::drop_in_place::<waitgroup_test::main::{closure#0}>
  call void @_RINvNtCs3p84KrD9aKt_4core3ptr13drop_in_placeNCNvCsedCAef59i8L_14waitgroup_test4main0EBK_(i64** %10) #13, !dbg !1211
  br label %bb3, !dbg !1211

bb5:                                              ; preds = %cleanup
  %11 = getelementptr inbounds %"[closure@std::thread::Builder::spawn_unchecked<[closure@src/main.rs:18:21: 24:8], ()>::{closure#0}]", %"[closure@std::thread::Builder::spawn_unchecked<[closure@src/main.rs:18:21: 24:8], ()>::{closure#0}]"* %_1, i32 0, i32 3, !dbg !1211
; call core::ptr::drop_in_place::<core::option::Option<alloc::sync::Arc<std::sync::mutex::Mutex<alloc::vec::Vec<u8>>>>>
  call void @_RINvNtCs3p84KrD9aKt_4core3ptr13drop_in_placeINtNtB4_6option6OptionINtNtCs8RW06R9lH2S_5alloc4sync3ArcINtNtNtCs2bNvlddUlXM_3std4sync5mutex5MutexINtNtB17_3vec3VechEEEEECsedCAef59i8L_14waitgroup_test(i64** %11) #13, !dbg !1211
  br label %bb4, !dbg !1211

bb6:                                              ; preds = %bb7
  %12 = getelementptr inbounds %"[closure@std::thread::Builder::spawn_unchecked<[closure@src/main.rs:18:21: 24:8], ()>::{closure#0}]", %"[closure@std::thread::Builder::spawn_unchecked<[closure@src/main.rs:18:21: 24:8], ()>::{closure#0}]"* %_1, i32 0, i32 7, !dbg !1211
; call core::ptr::drop_in_place::<alloc::sync::Arc<core::cell::UnsafeCell<core::option::Option<core::result::Result<(), alloc::boxed::Box<dyn core::any::Any + core::marker::Send>>>>>>
  call void @_RINvNtCs3p84KrD9aKt_4core3ptr13drop_in_placeINtNtCs8RW06R9lH2S_5alloc4sync3ArcINtNtB4_4cell10UnsafeCellINtNtB4_6option6OptionINtNtB4_6result6ResultuINtNtBL_5boxed3BoxDNtNtB4_3any3AnyNtNtB4_6marker4SendEL_EEEEEECsedCAef59i8L_14waitgroup_test(i64** %12), !dbg !1211
  br label %bb2, !dbg !1211

bb7:                                              ; preds = %bb8
  %13 = getelementptr inbounds %"[closure@std::thread::Builder::spawn_unchecked<[closure@src/main.rs:18:21: 24:8], ()>::{closure#0}]", %"[closure@std::thread::Builder::spawn_unchecked<[closure@src/main.rs:18:21: 24:8], ()>::{closure#0}]"* %_1, i32 0, i32 5, !dbg !1211
; invoke core::ptr::drop_in_place::<waitgroup_test::main::{closure#0}>
  invoke void @_RINvNtCs3p84KrD9aKt_4core3ptr13drop_in_placeNCNvCsedCAef59i8L_14waitgroup_test4main0EBK_(i64** %13)
          to label %bb6 unwind label %cleanup2, !dbg !1211

bb8:                                              ; preds = %start
  %14 = getelementptr inbounds %"[closure@std::thread::Builder::spawn_unchecked<[closure@src/main.rs:18:21: 24:8], ()>::{closure#0}]", %"[closure@std::thread::Builder::spawn_unchecked<[closure@src/main.rs:18:21: 24:8], ()>::{closure#0}]"* %_1, i32 0, i32 3, !dbg !1211
; invoke core::ptr::drop_in_place::<core::option::Option<alloc::sync::Arc<std::sync::mutex::Mutex<alloc::vec::Vec<u8>>>>>
  invoke void @_RINvNtCs3p84KrD9aKt_4core3ptr13drop_in_placeINtNtB4_6option6OptionINtNtCs8RW06R9lH2S_5alloc4sync3ArcINtNtNtCs2bNvlddUlXM_3std4sync5mutex5MutexINtNtB17_3vec3VechEEEEECsedCAef59i8L_14waitgroup_test(i64** %14)
          to label %bb7 unwind label %cleanup1, !dbg !1211

cleanup:                                          ; preds = %start
  %15 = landingpad { i8*, i32 }
          cleanup
  %16 = extractvalue { i8*, i32 } %15, 0
  %17 = extractvalue { i8*, i32 } %15, 1
  %18 = getelementptr inbounds { i8*, i32 }, { i8*, i32 }* %0, i32 0, i32 0
  store i8* %16, i8** %18, align 8
  %19 = getelementptr inbounds { i8*, i32 }, { i8*, i32 }* %0, i32 0, i32 1
  store i32 %17, i32* %19, align 8
  br label %bb5

cleanup1:                                         ; preds = %bb8
  %20 = landingpad { i8*, i32 }
          cleanup
  %21 = extractvalue { i8*, i32 } %20, 0
  %22 = extractvalue { i8*, i32 } %20, 1
  %23 = getelementptr inbounds { i8*, i32 }, { i8*, i32 }* %0, i32 0, i32 0
  store i8* %21, i8** %23, align 8
  %24 = getelementptr inbounds { i8*, i32 }, { i8*, i32 }* %0, i32 0, i32 1
  store i32 %22, i32* %24, align 8
  br label %bb4

cleanup2:                                         ; preds = %bb7
  %25 = landingpad { i8*, i32 }
          cleanup
  %26 = extractvalue { i8*, i32 } %25, 0
  %27 = extractvalue { i8*, i32 } %25, 1
  %28 = getelementptr inbounds { i8*, i32 }, { i8*, i32 }* %0, i32 0, i32 0
  store i8* %26, i8** %28, align 8
  %29 = getelementptr inbounds { i8*, i32 }, { i8*, i32 }* %0, i32 0, i32 1
  store i32 %27, i32* %29, align 8
  br label %bb3
}

; core::ptr::drop_in_place::<std::rt::lang_start<()>::{closure#0}>
; Function Attrs: inlinehint nonlazybind uwtable
define internal void @_RINvNtCs3p84KrD9aKt_4core3ptr13drop_in_placeNCINvNtCs2bNvlddUlXM_3std2rt10lang_startuE0ECsedCAef59i8L_14waitgroup_test(i64** %_1) unnamed_addr #1 !dbg !1212 {
start:
  %_1.dbg.spill = alloca i64**, align 8
  %0 = alloca {}, align 1
  store i64** %_1, i64*** %_1.dbg.spill, align 8
  call void @llvm.dbg.declare(metadata i64*** %_1.dbg.spill, metadata !1217, metadata !DIExpression()), !dbg !1220
  ret void, !dbg !1220
}

; core::ptr::drop_in_place::<waitgroup_test::main::{closure#0}>
; Function Attrs: nonlazybind uwtable
define internal void @_RINvNtCs3p84KrD9aKt_4core3ptr13drop_in_placeNCNvCsedCAef59i8L_14waitgroup_test4main0EBK_(i64** %_1) unnamed_addr #0 !dbg !1221 {
start:
  %_1.dbg.spill = alloca i64**, align 8
  %0 = alloca {}, align 1
  store i64** %_1, i64*** %_1.dbg.spill, align 8
  call void @llvm.dbg.declare(metadata i64*** %_1.dbg.spill, metadata !1226, metadata !DIExpression()), !dbg !1229
; call core::ptr::drop_in_place::<crossbeam_utils::sync::wait_group::WaitGroup>
  call void @_RINvNtCs3p84KrD9aKt_4core3ptr13drop_in_placeNtNtNtCs48Yq53b35jF_15crossbeam_utils4sync10wait_group9WaitGroupEBM_(i64** %_1), !dbg !1229
  br label %bb1, !dbg !1229

bb1:                                              ; preds = %start
  ret void, !dbg !1229
}

; core::ptr::drop_in_place::<alloc::string::String>
; Function Attrs: nonlazybind uwtable
define internal void @_RINvNtCs3p84KrD9aKt_4core3ptr13drop_in_placeNtNtCs8RW06R9lH2S_5alloc6string6StringECsedCAef59i8L_14waitgroup_test(%"std::string::String"* %_1) unnamed_addr #0 !dbg !1230 {
start:
  %_1.dbg.spill = alloca %"std::string::String"*, align 8
  %0 = alloca {}, align 1
  store %"std::string::String"* %_1, %"std::string::String"** %_1.dbg.spill, align 8
  call void @llvm.dbg.declare(metadata %"std::string::String"** %_1.dbg.spill, metadata !1235, metadata !DIExpression()), !dbg !1236
  %1 = bitcast %"std::string::String"* %_1 to %"std::vec::Vec<u8>"*, !dbg !1236
; call core::ptr::drop_in_place::<alloc::vec::Vec<u8>>
  call void @_RINvNtCs3p84KrD9aKt_4core3ptr13drop_in_placeINtNtCs8RW06R9lH2S_5alloc3vec3VechEECsedCAef59i8L_14waitgroup_test(%"std::vec::Vec<u8>"* %1), !dbg !1236
  br label %bb1, !dbg !1236

bb1:                                              ; preds = %start
  ret void, !dbg !1236
}

; core::ptr::drop_in_place::<std::io::error::Repr>
; Function Attrs: nonlazybind uwtable
define internal void @_RINvNtCs3p84KrD9aKt_4core3ptr13drop_in_placeNtNtNtCs2bNvlddUlXM_3std2io5error4ReprECsedCAef59i8L_14waitgroup_test(%"std::io::error::Repr"* %_1) unnamed_addr #0 !dbg !1237 {
start:
  %_1.dbg.spill = alloca %"std::io::error::Repr"*, align 8
  %0 = alloca {}, align 1
  store %"std::io::error::Repr"* %_1, %"std::io::error::Repr"** %_1.dbg.spill, align 8
  call void @llvm.dbg.declare(metadata %"std::io::error::Repr"** %_1.dbg.spill, metadata !1242, metadata !DIExpression()), !dbg !1245
  %1 = bitcast %"std::io::error::Repr"* %_1 to i8*, !dbg !1245
  %2 = load i8, i8* %1, align 8, !dbg !1245, !range !1246
  %_2 = zext i8 %2 to i64, !dbg !1245
  switch i64 %_2, label %bb2 [
    i64 0, label %bb1
    i64 1, label %bb1
  ], !dbg !1245

bb1:                                              ; preds = %bb2, %start, %start
  ret void, !dbg !1245

bb2:                                              ; preds = %start
  %3 = bitcast %"std::io::error::Repr"* %_1 to %"std::io::error::Repr::Custom"*, !dbg !1245
  %4 = getelementptr inbounds %"std::io::error::Repr::Custom", %"std::io::error::Repr::Custom"* %3, i32 0, i32 1, !dbg !1245
; call core::ptr::drop_in_place::<alloc::boxed::Box<std::io::error::Custom>>
  call void @_RINvNtCs3p84KrD9aKt_4core3ptr13drop_in_placeINtNtCs8RW06R9lH2S_5alloc5boxed3BoxNtNtNtCs2bNvlddUlXM_3std2io5error6CustomEECsedCAef59i8L_14waitgroup_test(%"std::io::error::Custom"** %4), !dbg !1245
  br label %bb1, !dbg !1245
}

; core::ptr::drop_in_place::<std::io::error::Error>
; Function Attrs: nonlazybind uwtable
define internal void @_RINvNtCs3p84KrD9aKt_4core3ptr13drop_in_placeNtNtNtCs2bNvlddUlXM_3std2io5error5ErrorECsedCAef59i8L_14waitgroup_test(%"std::io::Error"* %_1) unnamed_addr #0 !dbg !1247 {
start:
  %_1.dbg.spill = alloca %"std::io::Error"*, align 8
  %0 = alloca {}, align 1
  store %"std::io::Error"* %_1, %"std::io::Error"** %_1.dbg.spill, align 8
  call void @llvm.dbg.declare(metadata %"std::io::Error"** %_1.dbg.spill, metadata !1252, metadata !DIExpression()), !dbg !1255
  %1 = bitcast %"std::io::Error"* %_1 to %"std::io::error::Repr"*, !dbg !1255
; call core::ptr::drop_in_place::<std::io::error::Repr>
  call void @_RINvNtCs3p84KrD9aKt_4core3ptr13drop_in_placeNtNtNtCs2bNvlddUlXM_3std2io5error4ReprECsedCAef59i8L_14waitgroup_test(%"std::io::error::Repr"* %1), !dbg !1255
  br label %bb1, !dbg !1255

bb1:                                              ; preds = %start
  ret void, !dbg !1255
}

; core::ptr::drop_in_place::<std::io::error::Custom>
; Function Attrs: nonlazybind uwtable
define internal void @_RINvNtCs3p84KrD9aKt_4core3ptr13drop_in_placeNtNtNtCs2bNvlddUlXM_3std2io5error6CustomECsedCAef59i8L_14waitgroup_test(%"std::io::error::Custom"* %_1) unnamed_addr #0 !dbg !1256 {
start:
  %_1.dbg.spill = alloca %"std::io::error::Custom"*, align 8
  %0 = alloca {}, align 1
  store %"std::io::error::Custom"* %_1, %"std::io::error::Custom"** %_1.dbg.spill, align 8
  call void @llvm.dbg.declare(metadata %"std::io::error::Custom"** %_1.dbg.spill, metadata !1261, metadata !DIExpression()), !dbg !1262
  %1 = bitcast %"std::io::error::Custom"* %_1 to { {}*, [3 x i64]* }*, !dbg !1262
; call core::ptr::drop_in_place::<alloc::boxed::Box<dyn std::error::Error + core::marker::Send + core::marker::Sync>>
  call void @_RINvNtCs3p84KrD9aKt_4core3ptr13drop_in_placeINtNtCs8RW06R9lH2S_5alloc5boxed3BoxDNtNtCs2bNvlddUlXM_3std5error5ErrorNtNtB4_6marker4SendNtB1Q_4SyncEL_EECsedCAef59i8L_14waitgroup_test({ {}*, [3 x i64]* }* %1), !dbg !1262
  br label %bb1, !dbg !1262

bb1:                                              ; preds = %start
  ret void, !dbg !1262
}

; core::ptr::drop_in_place::<std::sys::unix::thread::Thread>
; Function Attrs: nonlazybind uwtable
define internal void @_RINvNtCs3p84KrD9aKt_4core3ptr13drop_in_placeNtNtNtNtCs2bNvlddUlXM_3std3sys4unix6thread6ThreadECsedCAef59i8L_14waitgroup_test(i64* %_1) unnamed_addr #0 !dbg !1263 {
start:
  %_1.dbg.spill = alloca i64*, align 8
  %0 = alloca {}, align 1
  store i64* %_1, i64** %_1.dbg.spill, align 8
  call void @llvm.dbg.declare(metadata i64** %_1.dbg.spill, metadata !1268, metadata !DIExpression()), !dbg !1269
; call <std::sys::unix::thread::Thread as core::ops::drop::Drop>::drop
  call void @"_ZN72_$LT$std..sys..unix..thread..Thread$u20$as$u20$core..ops..drop..Drop$GT$4drop17h5cc7e8cf02e8d2d3E"(i64* align 8 dereferenceable(8) %_1), !dbg !1269
  br label %bb1, !dbg !1269

bb1:                                              ; preds = %start
  ret void, !dbg !1269
}

; core::ptr::read::<std::panic::AssertUnwindSafe<<std::thread::Builder>::spawn_unchecked<waitgroup_test::main::{closure#0}, ()>::{closure#0}::{closure#0}>>
; Function Attrs: inlinehint nonlazybind uwtable
define internal nonnull i64* @_RINvNtCs3p84KrD9aKt_4core3ptr4readINtNtCs2bNvlddUlXM_3std5panic16AssertUnwindSafeNCNCINvMNtBB_6threadNtB1p_7Builder15spawn_uncheckedNCNvCsedCAef59i8L_14waitgroup_test4main0uE00EEB2a_(i64** %src) unnamed_addr #1 !dbg !1270 {
start:
  %self.dbg.spill.i1 = alloca i8**, align 8
  %slot.dbg.spill.i.i = alloca i64*, align 8
  %self.dbg.spill.i = alloca i8*, align 8
  %0 = alloca i8*, align 8
  %src.dbg.spill = alloca i64**, align 8
  %tmp = alloca i8*, align 8
  store i64** %src, i64*** %src.dbg.spill, align 8
  call void @llvm.dbg.declare(metadata i64*** %src.dbg.spill, metadata !1274, metadata !DIExpression()), !dbg !1282
  call void @llvm.dbg.declare(metadata i8** %tmp, metadata !1275, metadata !DIExpression()), !dbg !1283
  %1 = bitcast i8** %0 to {}*, !dbg !1284
  %2 = load i8*, i8** %0, align 8, !dbg !1290
  store i8* %2, i8** %tmp, align 8, !dbg !1291
  br label %bb1, !dbg !1291

bb1:                                              ; preds = %start
  store i8** %tmp, i8*** %self.dbg.spill.i1, align 8
  call void @llvm.dbg.declare(metadata i8*** %self.dbg.spill.i1, metadata !1292, metadata !DIExpression()), !dbg !1298
  %3 = bitcast i8** %tmp to i64**, !dbg !1300
  br label %bb2, !dbg !1301

bb2:                                              ; preds = %bb1
; call core::intrinsics::copy_nonoverlapping::<std::panic::AssertUnwindSafe<<std::thread::Builder>::spawn_unchecked<waitgroup_test::main::{closure#0}, ()>::{closure#0}::{closure#0}>>
  call void @_RINvNtCs3p84KrD9aKt_4core10intrinsics19copy_nonoverlappingINtNtCs2bNvlddUlXM_3std5panic16AssertUnwindSafeNCNCINvMNtBZ_6threadNtB1N_7Builder15spawn_uncheckedNCNvCsedCAef59i8L_14waitgroup_test4main0uE00EEB2y_(i64** %src, i64** %3, i64 1), !dbg !1302
  br label %bb3, !dbg !1302

bb3:                                              ; preds = %bb2
  %_7 = load i8*, i8** %tmp, align 8, !dbg !1303
  store i8* %_7, i8** %self.dbg.spill.i, align 8
  call void @llvm.dbg.declare(metadata i8** %self.dbg.spill.i, metadata !1304, metadata !DIExpression()), !dbg !1309
  %_3.i = bitcast i8* %_7 to i64*, !dbg !1311
  store i64* %_3.i, i64** %slot.dbg.spill.i.i, align 8
  call void @llvm.dbg.declare(metadata i64** %slot.dbg.spill.i.i, metadata !1312, metadata !DIExpression()), !dbg !1317
  br label %bb4, !dbg !1303

bb4:                                              ; preds = %bb3
  ret i64* %_3.i, !dbg !1319
}

; alloc::rc::is_dangling::<alloc::sync::ArcInner<core::cell::UnsafeCell<core::option::Option<core::result::Result<(), alloc::boxed::Box<dyn core::any::Any + core::marker::Send>>>>>>
; Function Attrs: nonlazybind uwtable
define internal zeroext i1 @_RINvNtCs8RW06R9lH2S_5alloc2rc11is_danglingINtNtB4_4sync8ArcInnerINtNtCs3p84KrD9aKt_4core4cell10UnsafeCellINtNtB15_6option6OptionINtNtB15_6result6ResultuINtNtB4_5boxed3BoxDNtNtB15_3any3AnyNtNtB15_6marker4SendEL_EEEEEECsedCAef59i8L_14waitgroup_test(i64* nonnull %ptr) unnamed_addr #0 !dbg !1320 {
start:
  %address.dbg.spill = alloca i64, align 8
  %ptr.dbg.spill = alloca i64*, align 8
  store i64* %ptr, i64** %ptr.dbg.spill, align 8
  call void @llvm.dbg.declare(metadata i64** %ptr.dbg.spill, metadata !1327, metadata !DIExpression()), !dbg !1330
; call <core::ptr::non_null::NonNull<alloc::sync::ArcInner<core::cell::UnsafeCell<core::option::Option<core::result::Result<(), alloc::boxed::Box<dyn core::any::Any + core::marker::Send>>>>>>>::as_ptr
  %_4 = call %"alloc::sync::ArcInner<std::cell::UnsafeCell<std::option::Option<std::result::Result<(), std::boxed::Box<dyn std::any::Any + std::marker::Send>>>>>"* @_RNvMs1_NtNtCs3p84KrD9aKt_4core3ptr8non_nullINtB5_7NonNullINtNtCs8RW06R9lH2S_5alloc4sync8ArcInnerINtNtB9_4cell10UnsafeCellINtNtB9_6option6OptionINtNtB9_6result6ResultuINtNtBY_5boxed3BoxDNtNtB9_3any3AnyNtNtB9_6marker4SendEL_EEEEEE6as_ptrCsedCAef59i8L_14waitgroup_test(i64* nonnull %ptr), !dbg !1331
  br label %bb1, !dbg !1331

bb1:                                              ; preds = %start
  %_3 = bitcast %"alloc::sync::ArcInner<std::cell::UnsafeCell<std::option::Option<std::result::Result<(), std::boxed::Box<dyn std::any::Any + std::marker::Send>>>>>"* %_4 to {}*, !dbg !1331
  %address = ptrtoint {}* %_3 to i64, !dbg !1331
  store i64 %address, i64* %address.dbg.spill, align 8, !dbg !1331
  call void @llvm.dbg.declare(metadata i64* %address.dbg.spill, metadata !1328, metadata !DIExpression()), !dbg !1332
  %0 = icmp eq i64 %address, -1, !dbg !1333
  ret i1 %0, !dbg !1334
}

; alloc::rc::is_dangling::<alloc::sync::ArcInner<std::sync::mutex::Mutex<alloc::vec::Vec<u8>>>>
; Function Attrs: nonlazybind uwtable
define internal zeroext i1 @_RINvNtCs8RW06R9lH2S_5alloc2rc11is_danglingINtNtB4_4sync8ArcInnerINtNtNtCs2bNvlddUlXM_3std4sync5mutex5MutexINtNtB4_3vec3VechEEEECsedCAef59i8L_14waitgroup_test(i64* nonnull %ptr) unnamed_addr #0 !dbg !1335 {
start:
  %address.dbg.spill = alloca i64, align 8
  %ptr.dbg.spill = alloca i64*, align 8
  store i64* %ptr, i64** %ptr.dbg.spill, align 8
  call void @llvm.dbg.declare(metadata i64** %ptr.dbg.spill, metadata !1339, metadata !DIExpression()), !dbg !1342
; call <core::ptr::non_null::NonNull<alloc::sync::ArcInner<std::sync::mutex::Mutex<alloc::vec::Vec<u8>>>>>::as_ptr
  %_4 = call %"alloc::sync::ArcInner<std::sync::Mutex<std::vec::Vec<u8>>>"* @_RNvMs1_NtNtCs3p84KrD9aKt_4core3ptr8non_nullINtB5_7NonNullINtNtCs8RW06R9lH2S_5alloc4sync8ArcInnerINtNtNtCs2bNvlddUlXM_3std4sync5mutex5MutexINtNtBY_3vec3VechEEEE6as_ptrCsedCAef59i8L_14waitgroup_test(i64* nonnull %ptr), !dbg !1343
  br label %bb1, !dbg !1343

bb1:                                              ; preds = %start
  %_3 = bitcast %"alloc::sync::ArcInner<std::sync::Mutex<std::vec::Vec<u8>>>"* %_4 to {}*, !dbg !1343
  %address = ptrtoint {}* %_3 to i64, !dbg !1343
  store i64 %address, i64* %address.dbg.spill, align 8, !dbg !1343
  call void @llvm.dbg.declare(metadata i64* %address.dbg.spill, metadata !1340, metadata !DIExpression()), !dbg !1344
  %0 = icmp eq i64 %address, -1, !dbg !1345
  ret i1 %0, !dbg !1346
}

; alloc::alloc::box_free::<dyn std::error::Error + core::marker::Send + core::marker::Sync, alloc::alloc::Global>
; Function Attrs: inlinehint nonlazybind uwtable
define internal void @_RINvNtCs8RW06R9lH2S_5alloc5alloc8box_freeDNtNtCs2bNvlddUlXM_3std5error5ErrorNtNtCs3p84KrD9aKt_4core6marker4SendNtB1e_4SyncEL_NtB2_6GlobalECsedCAef59i8L_14waitgroup_test(i8* nonnull %0, i64* noalias readonly align 8 dereferenceable(24) %1) unnamed_addr #1 personality i32 (i32, i32, i64, %"unwind::libunwind::_Unwind_Exception"*, %"unwind::libunwind::_Unwind_Context"*)* @rust_eh_personality !dbg !1347 {
start:
  %layout.dbg.spill = alloca { i64, i64 }, align 8
  %align.dbg.spill = alloca i64, align 8
  %2 = alloca i64, align 8
  %size.dbg.spill = alloca i64, align 8
  %3 = alloca i64, align 8
  %4 = alloca { i8*, i32 }, align 8
  %alloc = alloca %"std::alloc::Global", align 1
  %ptr = alloca { i8*, i64* }, align 8
  %5 = getelementptr inbounds { i8*, i64* }, { i8*, i64* }* %ptr, i32 0, i32 0
  store i8* %0, i8** %5, align 8
  %6 = getelementptr inbounds { i8*, i64* }, { i8*, i64* }* %ptr, i32 0, i32 1
  store i64* %1, i64** %6, align 8
  call void @llvm.dbg.declare(metadata { i8*, i64* }* %ptr, metadata !1352, metadata !DIExpression()), !dbg !1360
  call void @llvm.dbg.declare(metadata %"std::alloc::Global"* %alloc, metadata !1353, metadata !DIExpression()), !dbg !1361
; invoke <core::ptr::unique::Unique<dyn std::error::Error + core::marker::Send + core::marker::Sync>>::as_ref
  %7 = invoke { {}*, [3 x i64]* } @_RNvMs1_NtNtCs3p84KrD9aKt_4core3ptr6uniqueINtB5_6UniqueDNtNtCs2bNvlddUlXM_3std5error5ErrorNtNtB9_6marker4SendNtB1r_4SyncEL_E6as_refCsedCAef59i8L_14waitgroup_test({ i8*, i64* }* noalias readonly align 8 dereferenceable(16) %ptr)
          to label %bb1 unwind label %cleanup, !dbg !1362

bb1:                                              ; preds = %start
  %_5.0 = extractvalue { {}*, [3 x i64]* } %7, 0, !dbg !1362
  %_5.1 = extractvalue { {}*, [3 x i64]* } %7, 1, !dbg !1362
  %8 = bitcast [3 x i64]* %_5.1 to i64*, !dbg !1363
  %9 = getelementptr inbounds i64, i64* %8, i64 1, !dbg !1363
  %10 = load i64, i64* %9, align 8, !dbg !1363, !invariant.load !4
  %11 = bitcast [3 x i64]* %_5.1 to i64*, !dbg !1363
  %12 = getelementptr inbounds i64, i64* %11, i64 2, !dbg !1363
  %13 = load i64, i64* %12, align 8, !dbg !1363, !invariant.load !4
  store i64 %10, i64* %3, align 8, !dbg !1363
  %size = load i64, i64* %3, align 8, !dbg !1363
  store i64 %size, i64* %size.dbg.spill, align 8, !dbg !1363
  call void @llvm.dbg.declare(metadata i64* %size.dbg.spill, metadata !1354, metadata !DIExpression()), !dbg !1364
  br label %bb2, !dbg !1363

bb2:                                              ; preds = %bb1
; invoke <core::ptr::unique::Unique<dyn std::error::Error + core::marker::Send + core::marker::Sync>>::as_ref
  %14 = invoke { {}*, [3 x i64]* } @_RNvMs1_NtNtCs3p84KrD9aKt_4core3ptr6uniqueINtB5_6UniqueDNtNtCs2bNvlddUlXM_3std5error5ErrorNtNtB9_6marker4SendNtB1r_4SyncEL_E6as_refCsedCAef59i8L_14waitgroup_test({ i8*, i64* }* noalias readonly align 8 dereferenceable(16) %ptr)
          to label %bb3 unwind label %cleanup, !dbg !1365

bb3:                                              ; preds = %bb2
  %_9.0 = extractvalue { {}*, [3 x i64]* } %14, 0, !dbg !1365
  %_9.1 = extractvalue { {}*, [3 x i64]* } %14, 1, !dbg !1365
  %15 = bitcast [3 x i64]* %_9.1 to i64*, !dbg !1366
  %16 = getelementptr inbounds i64, i64* %15, i64 1, !dbg !1366
  %17 = load i64, i64* %16, align 8, !dbg !1366, !invariant.load !4
  %18 = bitcast [3 x i64]* %_9.1 to i64*, !dbg !1366
  %19 = getelementptr inbounds i64, i64* %18, i64 2, !dbg !1366
  %20 = load i64, i64* %19, align 8, !dbg !1366, !invariant.load !4
  store i64 %20, i64* %2, align 8, !dbg !1366
  %align = load i64, i64* %2, align 8, !dbg !1366
  store i64 %align, i64* %align.dbg.spill, align 8, !dbg !1366
  call void @llvm.dbg.declare(metadata i64* %align.dbg.spill, metadata !1356, metadata !DIExpression()), !dbg !1367
  br label %bb4, !dbg !1366

bb4:                                              ; preds = %bb3
; invoke <core::alloc::layout::Layout>::from_size_align_unchecked
  %21 = invoke { i64, i64 } @_RNvMNtNtCs3p84KrD9aKt_4core5alloc6layoutNtB2_6Layout25from_size_align_uncheckedCsedCAef59i8L_14waitgroup_test(i64 %size, i64 %align)
          to label %bb5 unwind label %cleanup, !dbg !1368

bb5:                                              ; preds = %bb4
  %layout.0 = extractvalue { i64, i64 } %21, 0, !dbg !1368
  %layout.1 = extractvalue { i64, i64 } %21, 1, !dbg !1368
  %22 = getelementptr inbounds { i64, i64 }, { i64, i64 }* %layout.dbg.spill, i32 0, i32 0, !dbg !1368
  store i64 %layout.0, i64* %22, align 8, !dbg !1368
  %23 = getelementptr inbounds { i64, i64 }, { i64, i64 }* %layout.dbg.spill, i32 0, i32 1, !dbg !1368
  store i64 %layout.1, i64* %23, align 8, !dbg !1368
  call void @llvm.dbg.declare(metadata { i64, i64 }* %layout.dbg.spill, metadata !1358, metadata !DIExpression()), !dbg !1369
  %24 = getelementptr inbounds { i8*, i64* }, { i8*, i64* }* %ptr, i32 0, i32 0, !dbg !1370
  %_17.0 = load i8*, i8** %24, align 8, !dbg !1370, !nonnull !4
  %25 = getelementptr inbounds { i8*, i64* }, { i8*, i64* }* %ptr, i32 0, i32 1, !dbg !1370
  %_17.1 = load i64*, i64** %25, align 8, !dbg !1370, !nonnull !4
; invoke <core::ptr::unique::Unique<dyn std::error::Error + core::marker::Send + core::marker::Sync>>::cast::<u8>
  %_16 = invoke nonnull i8* @_RINvMs1_NtNtCs3p84KrD9aKt_4core3ptr6uniqueINtB6_6UniqueDNtNtCs2bNvlddUlXM_3std5error5ErrorNtNtBa_6marker4SendNtB1s_4SyncEL_E4casthECsedCAef59i8L_14waitgroup_test(i8* nonnull %_17.0, i64* noalias readonly align 8 dereferenceable(24) %_17.1)
          to label %bb6 unwind label %cleanup, !dbg !1370

bb6:                                              ; preds = %bb5
; invoke <core::ptr::unique::Unique<u8> as core::convert::Into<core::ptr::non_null::NonNull<u8>>>::into
  %_15 = invoke nonnull i8* @_RNvXs1_NtCs3p84KrD9aKt_4core7convertINtNtNtB7_3ptr6unique6UniquehEINtB5_4IntoINtNtBD_8non_null7NonNullhEE4intoCs48Yq53b35jF_15crossbeam_utils(i8* nonnull %_16)
          to label %bb7 unwind label %cleanup, !dbg !1370

bb7:                                              ; preds = %bb6
; invoke <alloc::alloc::Global as core::alloc::Allocator>::deallocate
  invoke void @_RNvXs_NtCs8RW06R9lH2S_5alloc5allocNtB4_6GlobalNtNtCs3p84KrD9aKt_4core5alloc9Allocator10deallocateCsedCAef59i8L_14waitgroup_test(%"std::alloc::Global"* noalias nonnull readonly align 1 %alloc, i8* nonnull %_15, i64 %layout.0, i64 %layout.1)
          to label %bb8 unwind label %cleanup, !dbg !1371

bb8:                                              ; preds = %bb7
  br label %bb9, !dbg !1372

bb9:                                              ; preds = %bb8
  ret void, !dbg !1373

bb10:                                             ; preds = %cleanup
  br label %bb11, !dbg !1372

bb11:                                             ; preds = %bb10
  %26 = bitcast { i8*, i32 }* %4 to i8**, !dbg !1374
  %27 = load i8*, i8** %26, align 8, !dbg !1374
  %28 = getelementptr inbounds { i8*, i32 }, { i8*, i32 }* %4, i32 0, i32 1, !dbg !1374
  %29 = load i32, i32* %28, align 8, !dbg !1374
  %30 = insertvalue { i8*, i32 } undef, i8* %27, 0, !dbg !1374
  %31 = insertvalue { i8*, i32 } %30, i32 %29, 1, !dbg !1374
  resume { i8*, i32 } %31, !dbg !1374

cleanup:                                          ; preds = %bb7, %bb6, %bb5, %bb4, %bb2, %start
  %32 = landingpad { i8*, i32 }
          cleanup
  %33 = extractvalue { i8*, i32 } %32, 0
  %34 = extractvalue { i8*, i32 } %32, 1
  %35 = getelementptr inbounds { i8*, i32 }, { i8*, i32 }* %4, i32 0, i32 0
  store i8* %33, i8** %35, align 8
  %36 = getelementptr inbounds { i8*, i32 }, { i8*, i32 }* %4, i32 0, i32 1
  store i32 %34, i32* %36, align 8
  br label %bb10
}

; alloc::alloc::box_free::<alloc::sync::ArcInner<core::cell::UnsafeCell<core::option::Option<core::result::Result<(), alloc::boxed::Box<dyn core::any::Any + core::marker::Send>>>>>, alloc::alloc::Global>
; Function Attrs: inlinehint nonlazybind uwtable
define internal void @_RINvNtCs8RW06R9lH2S_5alloc5alloc8box_freeINtNtB4_4sync8ArcInnerINtNtCs3p84KrD9aKt_4core4cell10UnsafeCellINtNtB14_6option6OptionINtNtB14_6result6ResultuINtNtB4_5boxed3BoxDNtNtB14_3any3AnyNtNtB14_6marker4SendEL_EEEEENtB2_6GlobalECsedCAef59i8L_14waitgroup_test(i64* nonnull %0) unnamed_addr #1 personality i32 (i32, i32, i64, %"unwind::libunwind::_Unwind_Exception"*, %"unwind::libunwind::_Unwind_Context"*)* @rust_eh_personality !dbg !1375 {
start:
  %layout.dbg.spill = alloca { i64, i64 }, align 8
  %align.dbg.spill = alloca i64, align 8
  %1 = alloca i64, align 8
  %size.dbg.spill = alloca i64, align 8
  %2 = alloca i64, align 8
  %3 = alloca { i8*, i32 }, align 8
  %alloc = alloca %"std::alloc::Global", align 1
  %ptr = alloca i64*, align 8
  store i64* %0, i64** %ptr, align 8
  call void @llvm.dbg.declare(metadata i64** %ptr, metadata !1379, metadata !DIExpression()), !dbg !1388
  call void @llvm.dbg.declare(metadata %"std::alloc::Global"* %alloc, metadata !1380, metadata !DIExpression()), !dbg !1389
; invoke <core::ptr::unique::Unique<alloc::sync::ArcInner<core::cell::UnsafeCell<core::option::Option<core::result::Result<(), alloc::boxed::Box<dyn core::any::Any + core::marker::Send>>>>>>>::as_ref
  %_5 = invoke align 8 dereferenceable(40) %"alloc::sync::ArcInner<std::cell::UnsafeCell<std::option::Option<std::result::Result<(), std::boxed::Box<dyn std::any::Any + std::marker::Send>>>>>"* @_RNvMs1_NtNtCs3p84KrD9aKt_4core3ptr6uniqueINtB5_6UniqueINtNtCs8RW06R9lH2S_5alloc4sync8ArcInnerINtNtB9_4cell10UnsafeCellINtNtB9_6option6OptionINtNtB9_6result6ResultuINtNtBV_5boxed3BoxDNtNtB9_3any3AnyNtNtB9_6marker4SendEL_EEEEEE6as_refCsedCAef59i8L_14waitgroup_test(i64** noalias readonly align 8 dereferenceable(8) %ptr)
          to label %bb1 unwind label %cleanup, !dbg !1390

bb1:                                              ; preds = %start
  store i64 40, i64* %2, align 8, !dbg !1391
  %size = load i64, i64* %2, align 8, !dbg !1391
  store i64 %size, i64* %size.dbg.spill, align 8, !dbg !1391
  call void @llvm.dbg.declare(metadata i64* %size.dbg.spill, metadata !1381, metadata !DIExpression()), !dbg !1392
  br label %bb2, !dbg !1391

bb2:                                              ; preds = %bb1
; invoke <core::ptr::unique::Unique<alloc::sync::ArcInner<core::cell::UnsafeCell<core::option::Option<core::result::Result<(), alloc::boxed::Box<dyn core::any::Any + core::marker::Send>>>>>>>::as_ref
  %_9 = invoke align 8 dereferenceable(40) %"alloc::sync::ArcInner<std::cell::UnsafeCell<std::option::Option<std::result::Result<(), std::boxed::Box<dyn std::any::Any + std::marker::Send>>>>>"* @_RNvMs1_NtNtCs3p84KrD9aKt_4core3ptr6uniqueINtB5_6UniqueINtNtCs8RW06R9lH2S_5alloc4sync8ArcInnerINtNtB9_4cell10UnsafeCellINtNtB9_6option6OptionINtNtB9_6result6ResultuINtNtBV_5boxed3BoxDNtNtB9_3any3AnyNtNtB9_6marker4SendEL_EEEEEE6as_refCsedCAef59i8L_14waitgroup_test(i64** noalias readonly align 8 dereferenceable(8) %ptr)
          to label %bb3 unwind label %cleanup, !dbg !1393

bb3:                                              ; preds = %bb2
  store i64 8, i64* %1, align 8, !dbg !1394
  %align = load i64, i64* %1, align 8, !dbg !1394
  store i64 %align, i64* %align.dbg.spill, align 8, !dbg !1394
  call void @llvm.dbg.declare(metadata i64* %align.dbg.spill, metadata !1383, metadata !DIExpression()), !dbg !1395
  br label %bb4, !dbg !1394

bb4:                                              ; preds = %bb3
; invoke <core::alloc::layout::Layout>::from_size_align_unchecked
  %4 = invoke { i64, i64 } @_RNvMNtNtCs3p84KrD9aKt_4core5alloc6layoutNtB2_6Layout25from_size_align_uncheckedCsedCAef59i8L_14waitgroup_test(i64 %size, i64 %align)
          to label %bb5 unwind label %cleanup, !dbg !1396

bb5:                                              ; preds = %bb4
  %layout.0 = extractvalue { i64, i64 } %4, 0, !dbg !1396
  %layout.1 = extractvalue { i64, i64 } %4, 1, !dbg !1396
  %5 = getelementptr inbounds { i64, i64 }, { i64, i64 }* %layout.dbg.spill, i32 0, i32 0, !dbg !1396
  store i64 %layout.0, i64* %5, align 8, !dbg !1396
  %6 = getelementptr inbounds { i64, i64 }, { i64, i64 }* %layout.dbg.spill, i32 0, i32 1, !dbg !1396
  store i64 %layout.1, i64* %6, align 8, !dbg !1396
  call void @llvm.dbg.declare(metadata { i64, i64 }* %layout.dbg.spill, metadata !1385, metadata !DIExpression()), !dbg !1397
  %_17 = load i64*, i64** %ptr, align 8, !dbg !1398, !nonnull !4
; invoke <core::ptr::unique::Unique<alloc::sync::ArcInner<core::cell::UnsafeCell<core::option::Option<core::result::Result<(), alloc::boxed::Box<dyn core::any::Any + core::marker::Send>>>>>>>::cast::<u8>
  %_16 = invoke nonnull i8* @_RINvMs1_NtNtCs3p84KrD9aKt_4core3ptr6uniqueINtB6_6UniqueINtNtCs8RW06R9lH2S_5alloc4sync8ArcInnerINtNtBa_4cell10UnsafeCellINtNtBa_6option6OptionINtNtBa_6result6ResultuINtNtBW_5boxed3BoxDNtNtBa_3any3AnyNtNtBa_6marker4SendEL_EEEEEE4casthECsedCAef59i8L_14waitgroup_test(i64* nonnull %_17)
          to label %bb6 unwind label %cleanup, !dbg !1398

bb6:                                              ; preds = %bb5
; invoke <core::ptr::unique::Unique<u8> as core::convert::Into<core::ptr::non_null::NonNull<u8>>>::into
  %_15 = invoke nonnull i8* @_RNvXs1_NtCs3p84KrD9aKt_4core7convertINtNtNtB7_3ptr6unique6UniquehEINtB5_4IntoINtNtBD_8non_null7NonNullhEE4intoCs48Yq53b35jF_15crossbeam_utils(i8* nonnull %_16)
          to label %bb7 unwind label %cleanup, !dbg !1398

bb7:                                              ; preds = %bb6
; invoke <alloc::alloc::Global as core::alloc::Allocator>::deallocate
  invoke void @_RNvXs_NtCs8RW06R9lH2S_5alloc5allocNtB4_6GlobalNtNtCs3p84KrD9aKt_4core5alloc9Allocator10deallocateCsedCAef59i8L_14waitgroup_test(%"std::alloc::Global"* noalias nonnull readonly align 1 %alloc, i8* nonnull %_15, i64 %layout.0, i64 %layout.1)
          to label %bb8 unwind label %cleanup, !dbg !1399

bb8:                                              ; preds = %bb7
  br label %bb9, !dbg !1400

bb9:                                              ; preds = %bb8
  ret void, !dbg !1401

bb10:                                             ; preds = %cleanup
  br label %bb11, !dbg !1400

bb11:                                             ; preds = %bb10
  %7 = bitcast { i8*, i32 }* %3 to i8**, !dbg !1402
  %8 = load i8*, i8** %7, align 8, !dbg !1402
  %9 = getelementptr inbounds { i8*, i32 }, { i8*, i32 }* %3, i32 0, i32 1, !dbg !1402
  %10 = load i32, i32* %9, align 8, !dbg !1402
  %11 = insertvalue { i8*, i32 } undef, i8* %8, 0, !dbg !1402
  %12 = insertvalue { i8*, i32 } %11, i32 %10, 1, !dbg !1402
  resume { i8*, i32 } %12, !dbg !1402

cleanup:                                          ; preds = %bb7, %bb6, %bb5, %bb4, %bb2, %start
  %13 = landingpad { i8*, i32 }
          cleanup
  %14 = extractvalue { i8*, i32 } %13, 0
  %15 = extractvalue { i8*, i32 } %13, 1
  %16 = getelementptr inbounds { i8*, i32 }, { i8*, i32 }* %3, i32 0, i32 0
  store i8* %14, i8** %16, align 8
  %17 = getelementptr inbounds { i8*, i32 }, { i8*, i32 }* %3, i32 0, i32 1
  store i32 %15, i32* %17, align 8
  br label %bb10
}

; alloc::alloc::box_free::<std::io::error::Custom, alloc::alloc::Global>
; Function Attrs: inlinehint nonlazybind uwtable
define internal void @_RINvNtCs8RW06R9lH2S_5alloc5alloc8box_freeNtNtNtCs2bNvlddUlXM_3std2io5error6CustomNtB2_6GlobalECsedCAef59i8L_14waitgroup_test(i64* nonnull %0) unnamed_addr #1 personality i32 (i32, i32, i64, %"unwind::libunwind::_Unwind_Exception"*, %"unwind::libunwind::_Unwind_Context"*)* @rust_eh_personality !dbg !1403 {
start:
  %layout.dbg.spill = alloca { i64, i64 }, align 8
  %align.dbg.spill = alloca i64, align 8
  %1 = alloca i64, align 8
  %size.dbg.spill = alloca i64, align 8
  %2 = alloca i64, align 8
  %3 = alloca { i8*, i32 }, align 8
  %alloc = alloca %"std::alloc::Global", align 1
  %ptr = alloca i64*, align 8
  store i64* %0, i64** %ptr, align 8
  call void @llvm.dbg.declare(metadata i64** %ptr, metadata !1407, metadata !DIExpression()), !dbg !1416
  call void @llvm.dbg.declare(metadata %"std::alloc::Global"* %alloc, metadata !1408, metadata !DIExpression()), !dbg !1417
; invoke <core::ptr::unique::Unique<std::io::error::Custom>>::as_ref
  %_5 = invoke align 8 dereferenceable(24) %"std::io::error::Custom"* @_RNvMs1_NtNtCs3p84KrD9aKt_4core3ptr6uniqueINtB5_6UniqueNtNtNtCs2bNvlddUlXM_3std2io5error6CustomE6as_refCsedCAef59i8L_14waitgroup_test(i64** noalias readonly align 8 dereferenceable(8) %ptr)
          to label %bb1 unwind label %cleanup, !dbg !1418

bb1:                                              ; preds = %start
  store i64 24, i64* %2, align 8, !dbg !1419
  %size = load i64, i64* %2, align 8, !dbg !1419
  store i64 %size, i64* %size.dbg.spill, align 8, !dbg !1419
  call void @llvm.dbg.declare(metadata i64* %size.dbg.spill, metadata !1409, metadata !DIExpression()), !dbg !1420
  br label %bb2, !dbg !1419

bb2:                                              ; preds = %bb1
; invoke <core::ptr::unique::Unique<std::io::error::Custom>>::as_ref
  %_9 = invoke align 8 dereferenceable(24) %"std::io::error::Custom"* @_RNvMs1_NtNtCs3p84KrD9aKt_4core3ptr6uniqueINtB5_6UniqueNtNtNtCs2bNvlddUlXM_3std2io5error6CustomE6as_refCsedCAef59i8L_14waitgroup_test(i64** noalias readonly align 8 dereferenceable(8) %ptr)
          to label %bb3 unwind label %cleanup, !dbg !1421

bb3:                                              ; preds = %bb2
  store i64 8, i64* %1, align 8, !dbg !1422
  %align = load i64, i64* %1, align 8, !dbg !1422
  store i64 %align, i64* %align.dbg.spill, align 8, !dbg !1422
  call void @llvm.dbg.declare(metadata i64* %align.dbg.spill, metadata !1411, metadata !DIExpression()), !dbg !1423
  br label %bb4, !dbg !1422

bb4:                                              ; preds = %bb3
; invoke <core::alloc::layout::Layout>::from_size_align_unchecked
  %4 = invoke { i64, i64 } @_RNvMNtNtCs3p84KrD9aKt_4core5alloc6layoutNtB2_6Layout25from_size_align_uncheckedCsedCAef59i8L_14waitgroup_test(i64 %size, i64 %align)
          to label %bb5 unwind label %cleanup, !dbg !1424

bb5:                                              ; preds = %bb4
  %layout.0 = extractvalue { i64, i64 } %4, 0, !dbg !1424
  %layout.1 = extractvalue { i64, i64 } %4, 1, !dbg !1424
  %5 = getelementptr inbounds { i64, i64 }, { i64, i64 }* %layout.dbg.spill, i32 0, i32 0, !dbg !1424
  store i64 %layout.0, i64* %5, align 8, !dbg !1424
  %6 = getelementptr inbounds { i64, i64 }, { i64, i64 }* %layout.dbg.spill, i32 0, i32 1, !dbg !1424
  store i64 %layout.1, i64* %6, align 8, !dbg !1424
  call void @llvm.dbg.declare(metadata { i64, i64 }* %layout.dbg.spill, metadata !1413, metadata !DIExpression()), !dbg !1425
  %_17 = load i64*, i64** %ptr, align 8, !dbg !1426, !nonnull !4
; invoke <core::ptr::unique::Unique<std::io::error::Custom>>::cast::<u8>
  %_16 = invoke nonnull i8* @_RINvMs1_NtNtCs3p84KrD9aKt_4core3ptr6uniqueINtB6_6UniqueNtNtNtCs2bNvlddUlXM_3std2io5error6CustomE4casthECsedCAef59i8L_14waitgroup_test(i64* nonnull %_17)
          to label %bb6 unwind label %cleanup, !dbg !1426

bb6:                                              ; preds = %bb5
; invoke <core::ptr::unique::Unique<u8> as core::convert::Into<core::ptr::non_null::NonNull<u8>>>::into
  %_15 = invoke nonnull i8* @_RNvXs1_NtCs3p84KrD9aKt_4core7convertINtNtNtB7_3ptr6unique6UniquehEINtB5_4IntoINtNtBD_8non_null7NonNullhEE4intoCs48Yq53b35jF_15crossbeam_utils(i8* nonnull %_16)
          to label %bb7 unwind label %cleanup, !dbg !1426

bb7:                                              ; preds = %bb6
; invoke <alloc::alloc::Global as core::alloc::Allocator>::deallocate
  invoke void @_RNvXs_NtCs8RW06R9lH2S_5alloc5allocNtB4_6GlobalNtNtCs3p84KrD9aKt_4core5alloc9Allocator10deallocateCsedCAef59i8L_14waitgroup_test(%"std::alloc::Global"* noalias nonnull readonly align 1 %alloc, i8* nonnull %_15, i64 %layout.0, i64 %layout.1)
          to label %bb8 unwind label %cleanup, !dbg !1427

bb8:                                              ; preds = %bb7
  br label %bb9, !dbg !1428

bb9:                                              ; preds = %bb8
  ret void, !dbg !1429

bb10:                                             ; preds = %cleanup
  br label %bb11, !dbg !1428

bb11:                                             ; preds = %bb10
  %7 = bitcast { i8*, i32 }* %3 to i8**, !dbg !1430
  %8 = load i8*, i8** %7, align 8, !dbg !1430
  %9 = getelementptr inbounds { i8*, i32 }, { i8*, i32 }* %3, i32 0, i32 1, !dbg !1430
  %10 = load i32, i32* %9, align 8, !dbg !1430
  %11 = insertvalue { i8*, i32 } undef, i8* %8, 0, !dbg !1430
  %12 = insertvalue { i8*, i32 } %11, i32 %10, 1, !dbg !1430
  resume { i8*, i32 } %12, !dbg !1430

cleanup:                                          ; preds = %bb7, %bb6, %bb5, %bb4, %bb2, %start
  %13 = landingpad { i8*, i32 }
          cleanup
  %14 = extractvalue { i8*, i32 } %13, 0
  %15 = extractvalue { i8*, i32 } %13, 1
  %16 = getelementptr inbounds { i8*, i32 }, { i8*, i32 }* %3, i32 0, i32 0
  store i8* %14, i8** %16, align 8
  %17 = getelementptr inbounds { i8*, i32 }, { i8*, i32 }* %3, i32 0, i32 1
  store i32 %15, i32* %17, align 8
  br label %bb10
}

; std::sys_common::backtrace::__rust_begin_short_backtrace::<fn(), ()>
; Function Attrs: noinline nonlazybind uwtable
define internal void @_RINvNtNtCs2bNvlddUlXM_3std10sys_common9backtrace28___rust_begin_short_backtraceFEuuECsedCAef59i8L_14waitgroup_test(void ()* nonnull %f) unnamed_addr #2 personality i32 (i32, i32, i64, %"unwind::libunwind::_Unwind_Exception"*, %"unwind::libunwind::_Unwind_Context"*)* @rust_eh_personality !dbg !1431 {
start:
  %0 = alloca { i8*, i32 }, align 8
  %f.dbg.spill = alloca void ()*, align 8
  %result.dbg.spill = alloca {}, align 1
  %_5 = alloca {}, align 1
  %_3 = alloca {}, align 1
  call void @llvm.dbg.declare(metadata {}* %result.dbg.spill, metadata !1438, metadata !DIExpression()), !dbg !1442
  store void ()* %f, void ()** %f.dbg.spill, align 8
  call void @llvm.dbg.declare(metadata void ()** %f.dbg.spill, metadata !1437, metadata !DIExpression()), !dbg !1443
; call <fn() as core::ops::function::FnOnce<()>>::call_once
  call void @_RNvYFEuINtNtNtCs3p84KrD9aKt_4core3ops8function6FnOnceuE9call_onceCsedCAef59i8L_14waitgroup_test(void ()* nonnull %f), !dbg !1444
  br label %bb1, !dbg !1444

bb1:                                              ; preds = %start
; invoke core::hint::black_box::<()>
  invoke void @_RINvNtCs3p84KrD9aKt_4core4hint9black_boxuECs48Yq53b35jF_15crossbeam_utils()
          to label %bb2 unwind label %cleanup, !dbg !1445

bb2:                                              ; preds = %bb1
  ret void, !dbg !1446

bb3:                                              ; preds = %cleanup
  br label %bb4, !dbg !1447

bb4:                                              ; preds = %bb3
  %1 = bitcast { i8*, i32 }* %0 to i8**, !dbg !1448
  %2 = load i8*, i8** %1, align 8, !dbg !1448
  %3 = getelementptr inbounds { i8*, i32 }, { i8*, i32 }* %0, i32 0, i32 1, !dbg !1448
  %4 = load i32, i32* %3, align 8, !dbg !1448
  %5 = insertvalue { i8*, i32 } undef, i8* %2, 0, !dbg !1448
  %6 = insertvalue { i8*, i32 } %5, i32 %4, 1, !dbg !1448
  resume { i8*, i32 } %6, !dbg !1448

cleanup:                                          ; preds = %bb1
  %7 = landingpad { i8*, i32 }
          cleanup
  %8 = extractvalue { i8*, i32 } %7, 0
  %9 = extractvalue { i8*, i32 } %7, 1
  %10 = getelementptr inbounds { i8*, i32 }, { i8*, i32 }* %0, i32 0, i32 0
  store i8* %8, i8** %10, align 8
  %11 = getelementptr inbounds { i8*, i32 }, { i8*, i32 }* %0, i32 0, i32 1
  store i32 %9, i32* %11, align 8
  br label %bb3
}

; std::sys_common::backtrace::__rust_begin_short_backtrace::<waitgroup_test::main::{closure#0}, ()>
; Function Attrs: noinline nonlazybind uwtable
define internal void @_RINvNtNtCs2bNvlddUlXM_3std10sys_common9backtrace28___rust_begin_short_backtraceNCNvCsedCAef59i8L_14waitgroup_test4main0uEB1j_(i64* nonnull %f) unnamed_addr #2 personality i32 (i32, i32, i64, %"unwind::libunwind::_Unwind_Exception"*, %"unwind::libunwind::_Unwind_Context"*)* @rust_eh_personality !dbg !1449 {
start:
  %0 = alloca { i8*, i32 }, align 8
  %f.dbg.spill = alloca i64*, align 8
  %result.dbg.spill = alloca {}, align 1
  %_5 = alloca {}, align 1
  %_3 = alloca {}, align 1
  call void @llvm.dbg.declare(metadata {}* %result.dbg.spill, metadata !1454, metadata !DIExpression()), !dbg !1456
  store i64* %f, i64** %f.dbg.spill, align 8
  call void @llvm.dbg.declare(metadata i64** %f.dbg.spill, metadata !1453, metadata !DIExpression()), !dbg !1457
; call waitgroup_test::main::{closure#0}
  call void @_RNCNvCsedCAef59i8L_14waitgroup_test4main0B3_(i64* nonnull %f), !dbg !1458
  br label %bb1, !dbg !1458

bb1:                                              ; preds = %start
; invoke core::hint::black_box::<()>
  invoke void @_RINvNtCs3p84KrD9aKt_4core4hint9black_boxuECs48Yq53b35jF_15crossbeam_utils()
          to label %bb2 unwind label %cleanup, !dbg !1459

bb2:                                              ; preds = %bb1
  ret void, !dbg !1460

bb3:                                              ; preds = %cleanup
  br label %bb4, !dbg !1461

bb4:                                              ; preds = %bb3
  %1 = bitcast { i8*, i32 }* %0 to i8**, !dbg !1462
  %2 = load i8*, i8** %1, align 8, !dbg !1462
  %3 = getelementptr inbounds { i8*, i32 }, { i8*, i32 }* %0, i32 0, i32 1, !dbg !1462
  %4 = load i32, i32* %3, align 8, !dbg !1462
  %5 = insertvalue { i8*, i32 } undef, i8* %2, 0, !dbg !1462
  %6 = insertvalue { i8*, i32 } %5, i32 %4, 1, !dbg !1462
  resume { i8*, i32 } %6, !dbg !1462

cleanup:                                          ; preds = %bb1
  %7 = landingpad { i8*, i32 }
          cleanup
  %8 = extractvalue { i8*, i32 } %7, 0
  %9 = extractvalue { i8*, i32 } %7, 1
  %10 = getelementptr inbounds { i8*, i32 }, { i8*, i32 }* %0, i32 0, i32 0
  store i8* %8, i8** %10, align 8
  %11 = getelementptr inbounds { i8*, i32 }, { i8*, i32 }* %0, i32 0, i32 1
  store i32 %9, i32* %11, align 8
  br label %bb3
}

; std::panicking::try::do_call::<std::panic::AssertUnwindSafe<<std::thread::Builder>::spawn_unchecked<waitgroup_test::main::{closure#0}, ()>::{closure#0}::{closure#0}>, ()>
; Function Attrs: inlinehint nonlazybind uwtable
define internal void @_RINvNvNtCs2bNvlddUlXM_3std9panicking3try7do_callINtNtB6_5panic16AssertUnwindSafeNCNCINvMNtB6_6threadNtB1o_7Builder15spawn_uncheckedNCNvCsedCAef59i8L_14waitgroup_test4main0uE00EuEB29_(i8* %data) unnamed_addr #1 !dbg !1463 {
start:
  %0 = alloca %"std::mem::ManuallyDrop<()>", align 1
  %f.dbg.spill = alloca i64*, align 8
  %data.dbg.spill3 = alloca %"std::panicking::r#try::Data<std::panic::AssertUnwindSafe<[closure@std::thread::Builder::spawn_unchecked<[closure@src/main.rs:18:21: 24:8], ()>::{closure#0}::{closure#0}]>, ()>"*, align 8
  %data.dbg.spill2 = alloca %"std::panicking::r#try::Data<std::panic::AssertUnwindSafe<[closure@std::thread::Builder::spawn_unchecked<[closure@src/main.rs:18:21: 24:8], ()>::{closure#0}::{closure#0}]>, ()>"*, align 8
  %data.dbg.spill = alloca i8*, align 8
  %_11 = alloca {}, align 1
  store i8* %data, i8** %data.dbg.spill, align 8
  call void @llvm.dbg.declare(metadata i8** %data.dbg.spill, metadata !1467, metadata !DIExpression()), !dbg !1476
  %data1 = bitcast i8* %data to %"std::panicking::r#try::Data<std::panic::AssertUnwindSafe<[closure@std::thread::Builder::spawn_unchecked<[closure@src/main.rs:18:21: 24:8], ()>::{closure#0}::{closure#0}]>, ()>"*, !dbg !1477
  store %"std::panicking::r#try::Data<std::panic::AssertUnwindSafe<[closure@std::thread::Builder::spawn_unchecked<[closure@src/main.rs:18:21: 24:8], ()>::{closure#0}::{closure#0}]>, ()>"* %data1, %"std::panicking::r#try::Data<std::panic::AssertUnwindSafe<[closure@std::thread::Builder::spawn_unchecked<[closure@src/main.rs:18:21: 24:8], ()>::{closure#0}::{closure#0}]>, ()>"** %data.dbg.spill2, align 8, !dbg !1477
  call void @llvm.dbg.declare(metadata %"std::panicking::r#try::Data<std::panic::AssertUnwindSafe<[closure@std::thread::Builder::spawn_unchecked<[closure@src/main.rs:18:21: 24:8], ()>::{closure#0}::{closure#0}]>, ()>"** %data.dbg.spill2, metadata !1468, metadata !DIExpression()), !dbg !1478
  store %"std::panicking::r#try::Data<std::panic::AssertUnwindSafe<[closure@std::thread::Builder::spawn_unchecked<[closure@src/main.rs:18:21: 24:8], ()>::{closure#0}::{closure#0}]>, ()>"* %data1, %"std::panicking::r#try::Data<std::panic::AssertUnwindSafe<[closure@std::thread::Builder::spawn_unchecked<[closure@src/main.rs:18:21: 24:8], ()>::{closure#0}::{closure#0}]>, ()>"** %data.dbg.spill3, align 8, !dbg !1479
  call void @llvm.dbg.declare(metadata %"std::panicking::r#try::Data<std::panic::AssertUnwindSafe<[closure@std::thread::Builder::spawn_unchecked<[closure@src/main.rs:18:21: 24:8], ()>::{closure#0}::{closure#0}]>, ()>"** %data.dbg.spill3, metadata !1471, metadata !DIExpression()), !dbg !1480
  %_7 = bitcast %"std::panicking::r#try::Data<std::panic::AssertUnwindSafe<[closure@std::thread::Builder::spawn_unchecked<[closure@src/main.rs:18:21: 24:8], ()>::{closure#0}::{closure#0}]>, ()>"* %data1 to i64**, !dbg !1481
; call <core::mem::manually_drop::ManuallyDrop<std::panic::AssertUnwindSafe<<std::thread::Builder>::spawn_unchecked<waitgroup_test::main::{closure#0}, ()>::{closure#0}::{closure#0}>>>::take
  %f = call nonnull i64* @_RNvMNtNtCs3p84KrD9aKt_4core3mem13manually_dropINtB2_12ManuallyDropINtNtCs2bNvlddUlXM_3std5panic16AssertUnwindSafeNCNCINvMNtB17_6threadNtB1V_7Builder15spawn_uncheckedNCNvCsedCAef59i8L_14waitgroup_test4main0uE00EE4takeB2H_(i64** align 8 dereferenceable(8) %_7), !dbg !1482
  store i64* %f, i64** %f.dbg.spill, align 8, !dbg !1482
  call void @llvm.dbg.declare(metadata i64** %f.dbg.spill, metadata !1474, metadata !DIExpression()), !dbg !1483
  br label %bb1, !dbg !1482

bb1:                                              ; preds = %start
; call <std::panic::AssertUnwindSafe<<std::thread::Builder>::spawn_unchecked<waitgroup_test::main::{closure#0}, ()>::{closure#0}::{closure#0}> as core::ops::function::FnOnce<()>>::call_once
  call void @_RNvXss_NtCs2bNvlddUlXM_3std5panicINtB5_16AssertUnwindSafeNCNCINvMNtB7_6threadNtB11_7Builder15spawn_uncheckedNCNvCsedCAef59i8L_14waitgroup_test4main0uE00EINtNtNtCs3p84KrD9aKt_4core3ops8function6FnOnceuE9call_onceB1M_(i64* nonnull %f), !dbg !1484
  br label %bb2, !dbg !1484

bb2:                                              ; preds = %bb1
  call void @llvm.dbg.declare(metadata {}* undef, metadata !1485, metadata !DIExpression()), !dbg !1490
  %1 = bitcast %"std::mem::ManuallyDrop<()>"* %0 to {}*, !dbg !1492
  br label %bb3, !dbg !1493

bb3:                                              ; preds = %bb2
  %2 = bitcast %"std::panicking::r#try::Data<std::panic::AssertUnwindSafe<[closure@std::thread::Builder::spawn_unchecked<[closure@src/main.rs:18:21: 24:8], ()>::{closure#0}::{closure#0}]>, ()>"* %data1 to %"std::mem::ManuallyDrop<()>"*, !dbg !1494
  ret void, !dbg !1495
}

; std::panicking::try::do_catch::<std::panic::AssertUnwindSafe<<std::thread::Builder>::spawn_unchecked<waitgroup_test::main::{closure#0}, ()>::{closure#0}::{closure#0}>, ()>
; Function Attrs: inlinehint nonlazybind uwtable
define internal void @_RINvNvNtCs2bNvlddUlXM_3std9panicking3try8do_catchINtNtB6_5panic16AssertUnwindSafeNCNCINvMNtB6_6threadNtB1p_7Builder15spawn_uncheckedNCNvCsedCAef59i8L_14waitgroup_test4main0uE00EuEB2a_(i8* %data, i8* %payload) unnamed_addr #1 !dbg !1496 {
start:
  %value.dbg.spill.i = alloca { {}*, [3 x i64]* }, align 8
  %0 = alloca { i8*, i64* }, align 8
  %obj.dbg.spill = alloca { {}*, [3 x i64]* }, align 8
  %data.dbg.spill3 = alloca %"std::panicking::r#try::Data<std::panic::AssertUnwindSafe<[closure@std::thread::Builder::spawn_unchecked<[closure@src/main.rs:18:21: 24:8], ()>::{closure#0}::{closure#0}]>, ()>"*, align 8
  %data.dbg.spill2 = alloca %"std::panicking::r#try::Data<std::panic::AssertUnwindSafe<[closure@std::thread::Builder::spawn_unchecked<[closure@src/main.rs:18:21: 24:8], ()>::{closure#0}::{closure#0}]>, ()>"*, align 8
  %payload.dbg.spill = alloca i8*, align 8
  %data.dbg.spill = alloca i8*, align 8
  store i8* %data, i8** %data.dbg.spill, align 8
  call void @llvm.dbg.declare(metadata i8** %data.dbg.spill, metadata !1500, metadata !DIExpression()), !dbg !1508
  store i8* %payload, i8** %payload.dbg.spill, align 8
  call void @llvm.dbg.declare(metadata i8** %payload.dbg.spill, metadata !1501, metadata !DIExpression()), !dbg !1509
  %data1 = bitcast i8* %data to %"std::panicking::r#try::Data<std::panic::AssertUnwindSafe<[closure@std::thread::Builder::spawn_unchecked<[closure@src/main.rs:18:21: 24:8], ()>::{closure#0}::{closure#0}]>, ()>"*, !dbg !1510
  store %"std::panicking::r#try::Data<std::panic::AssertUnwindSafe<[closure@std::thread::Builder::spawn_unchecked<[closure@src/main.rs:18:21: 24:8], ()>::{closure#0}::{closure#0}]>, ()>"* %data1, %"std::panicking::r#try::Data<std::panic::AssertUnwindSafe<[closure@std::thread::Builder::spawn_unchecked<[closure@src/main.rs:18:21: 24:8], ()>::{closure#0}::{closure#0}]>, ()>"** %data.dbg.spill2, align 8, !dbg !1510
  call void @llvm.dbg.declare(metadata %"std::panicking::r#try::Data<std::panic::AssertUnwindSafe<[closure@std::thread::Builder::spawn_unchecked<[closure@src/main.rs:18:21: 24:8], ()>::{closure#0}::{closure#0}]>, ()>"** %data.dbg.spill2, metadata !1502, metadata !DIExpression()), !dbg !1511
  store %"std::panicking::r#try::Data<std::panic::AssertUnwindSafe<[closure@std::thread::Builder::spawn_unchecked<[closure@src/main.rs:18:21: 24:8], ()>::{closure#0}::{closure#0}]>, ()>"* %data1, %"std::panicking::r#try::Data<std::panic::AssertUnwindSafe<[closure@std::thread::Builder::spawn_unchecked<[closure@src/main.rs:18:21: 24:8], ()>::{closure#0}::{closure#0}]>, ()>"** %data.dbg.spill3, align 8, !dbg !1512
  call void @llvm.dbg.declare(metadata %"std::panicking::r#try::Data<std::panic::AssertUnwindSafe<[closure@std::thread::Builder::spawn_unchecked<[closure@src/main.rs:18:21: 24:8], ()>::{closure#0}::{closure#0}]>, ()>"** %data.dbg.spill3, metadata !1504, metadata !DIExpression()), !dbg !1513
; call std::panicking::try::cleanup
  %1 = call { {}*, [3 x i64]* } @_ZN3std9panicking3try7cleanup17he31b2c2b0a87b8b3E(i8* %payload), !dbg !1514
  %obj.0 = extractvalue { {}*, [3 x i64]* } %1, 0, !dbg !1514
  %obj.1 = extractvalue { {}*, [3 x i64]* } %1, 1, !dbg !1514
  %2 = getelementptr inbounds { {}*, [3 x i64]* }, { {}*, [3 x i64]* }* %obj.dbg.spill, i32 0, i32 0, !dbg !1514
  store {}* %obj.0, {}** %2, align 8, !dbg !1514
  %3 = getelementptr inbounds { {}*, [3 x i64]* }, { {}*, [3 x i64]* }* %obj.dbg.spill, i32 0, i32 1, !dbg !1514
  store [3 x i64]* %obj.1, [3 x i64]** %3, align 8, !dbg !1514
  call void @llvm.dbg.declare(metadata { {}*, [3 x i64]* }* %obj.dbg.spill, metadata !1506, metadata !DIExpression()), !dbg !1515
  br label %bb1, !dbg !1514

bb1:                                              ; preds = %start
  %4 = getelementptr inbounds { {}*, [3 x i64]* }, { {}*, [3 x i64]* }* %value.dbg.spill.i, i32 0, i32 0
  store {}* %obj.0, {}** %4, align 8, !noalias !1516
  %5 = getelementptr inbounds { {}*, [3 x i64]* }, { {}*, [3 x i64]* }* %value.dbg.spill.i, i32 0, i32 1
  store [3 x i64]* %obj.1, [3 x i64]** %5, align 8, !noalias !1516
  call void @llvm.dbg.declare(metadata { {}*, [3 x i64]* }* %value.dbg.spill.i, metadata !1520, metadata !DIExpression()), !dbg !1525
  %6 = bitcast { i8*, i64* }* %0 to { {}*, [3 x i64]* }*, !dbg !1527
  %7 = getelementptr inbounds { {}*, [3 x i64]* }, { {}*, [3 x i64]* }* %6, i32 0, i32 0, !dbg !1527
  store {}* %obj.0, {}** %7, align 8, !dbg !1527, !noalias !1516
  %8 = getelementptr inbounds { {}*, [3 x i64]* }, { {}*, [3 x i64]* }* %6, i32 0, i32 1, !dbg !1527
  store [3 x i64]* %obj.1, [3 x i64]** %8, align 8, !dbg !1527, !noalias !1516
  %9 = getelementptr inbounds { i8*, i64* }, { i8*, i64* }* %0, i32 0, i32 0, !dbg !1528
  %10 = load i8*, i8** %9, align 8, !dbg !1528, !noalias !1516, !nonnull !4
  %11 = getelementptr inbounds { i8*, i64* }, { i8*, i64* }* %0, i32 0, i32 1, !dbg !1528
  %12 = load i64*, i64** %11, align 8, !dbg !1528, !noalias !1516, !nonnull !4
  %13 = insertvalue { i8*, i64* } undef, i8* %10, 0, !dbg !1528
  %14 = insertvalue { i8*, i64* } %13, i64* %12, 1, !dbg !1528
  %_8.0 = extractvalue { i8*, i64* } %14, 0, !dbg !1529
  %_8.1 = extractvalue { i8*, i64* } %14, 1, !dbg !1529
  br label %bb2, !dbg !1529

bb2:                                              ; preds = %bb1
  %15 = bitcast %"std::panicking::r#try::Data<std::panic::AssertUnwindSafe<[closure@std::thread::Builder::spawn_unchecked<[closure@src/main.rs:18:21: 24:8], ()>::{closure#0}::{closure#0}]>, ()>"* %data1 to { i8*, i64* }*, !dbg !1530
  %16 = getelementptr inbounds { i8*, i64* }, { i8*, i64* }* %15, i32 0, i32 0, !dbg !1530
  store i8* %_8.0, i8** %16, align 8, !dbg !1530
  %17 = getelementptr inbounds { i8*, i64* }, { i8*, i64* }* %15, i32 0, i32 1, !dbg !1530
  store i64* %_8.1, i64** %17, align 8, !dbg !1530
  ret void, !dbg !1531
}

; <std::thread::Builder>::spawn_unchecked::<waitgroup_test::main::{closure#0}, ()>::{closure#0}
; Function Attrs: inlinehint nonlazybind uwtable
define internal void @_RNCINvMNtCs2bNvlddUlXM_3std6threadNtB5_7Builder15spawn_uncheckedNCNvCsedCAef59i8L_14waitgroup_test4main0uE0B14_(%"[closure@std::thread::Builder::spawn_unchecked<[closure@src/main.rs:18:21: 24:8], ()>::{closure#0}]"* noalias nocapture dereferenceable(32) %_1) unnamed_addr #1 personality i32 (i32, i32, i64, %"unwind::libunwind::_Unwind_Exception"*, %"unwind::libunwind::_Unwind_Context"*)* @rust_eh_personality !dbg !1532 {
start:
  %try_result.dbg.spill = alloca { i8*, i8* }, align 8
  %name.dbg.spill = alloca { %"std::ffi::CStr"*, i64 }, align 8
  %0 = alloca { i8*, i32 }, align 8
  %_24 = alloca i8, align 1
  %_23 = alloca i8, align 1
  %_22 = alloca i8, align 1
  %_16 = alloca %"std::option::Option<std::result::Result<(), std::boxed::Box<dyn std::any::Any + std::marker::Send>>>", align 8
  %_15 = alloca i64*, align 8
  %_14 = alloca i64*, align 8
  %_11 = alloca %"std::option::Option<std::ops::Range<usize>>", align 8
  %_8 = alloca i64*, align 8
  %_2 = alloca { i8*, i64 }, align 8
  call void @llvm.dbg.declare(metadata %"[closure@std::thread::Builder::spawn_unchecked<[closure@src/main.rs:18:21: 24:8], ()>::{closure#0}]"* %_1, metadata !1536, metadata !DIExpression()), !dbg !1550
  call void @llvm.dbg.declare(metadata %"[closure@std::thread::Builder::spawn_unchecked<[closure@src/main.rs:18:21: 24:8], ()>::{closure#0}]"* %_1, metadata !1537, metadata !DIExpression(DW_OP_plus_uconst, 8)), !dbg !1551
  call void @llvm.dbg.declare(metadata %"[closure@std::thread::Builder::spawn_unchecked<[closure@src/main.rs:18:21: 24:8], ()>::{closure#0}]"* %_1, metadata !1538, metadata !DIExpression(DW_OP_plus_uconst, 16)), !dbg !1552
  call void @llvm.dbg.declare(metadata %"[closure@std::thread::Builder::spawn_unchecked<[closure@src/main.rs:18:21: 24:8], ()>::{closure#0}]"* %_1, metadata !1539, metadata !DIExpression(DW_OP_plus_uconst, 24)), !dbg !1553
  store i8 0, i8* %_24, align 1, !dbg !1554
  store i8 0, i8* %_23, align 1, !dbg !1554
  store i8 0, i8* %_22, align 1, !dbg !1554
  store i8 1, i8* %_22, align 1, !dbg !1554
  store i8 1, i8* %_23, align 1, !dbg !1554
  store i8 1, i8* %_24, align 1, !dbg !1554
  %_3 = bitcast %"[closure@std::thread::Builder::spawn_unchecked<[closure@src/main.rs:18:21: 24:8], ()>::{closure#0}]"* %_1 to i64**, !dbg !1555
; invoke std::thread::Thread::cname
  %1 = invoke { i8*, i64 } @_ZN3std6thread6Thread5cname17h71e32bb63d4a8fc6E(i64** noalias readonly align 8 dereferenceable(8) %_3)
          to label %bb1 unwind label %cleanup, !dbg !1555

bb1:                                              ; preds = %start
  store { i8*, i64 } %1, { i8*, i64 }* %_2, align 8, !dbg !1555
  %2 = bitcast { i8*, i64 }* %_2 to {}**, !dbg !1556
  %3 = load {}*, {}** %2, align 8, !dbg !1556
  %4 = icmp eq {}* %3, null, !dbg !1556
  %_4 = select i1 %4, i64 0, i64 1, !dbg !1556
  %5 = icmp eq i64 %_4, 1, !dbg !1556
  br i1 %5, label %bb3, label %bb2, !dbg !1556

bb2:                                              ; preds = %bb1
  br label %bb5, !dbg !1554

bb3:                                              ; preds = %bb1
  %6 = bitcast { i8*, i64 }* %_2 to { %"std::ffi::CStr"*, i64 }*, !dbg !1557
  %7 = getelementptr inbounds { %"std::ffi::CStr"*, i64 }, { %"std::ffi::CStr"*, i64 }* %6, i32 0, i32 0, !dbg !1557
  %name.0 = load %"std::ffi::CStr"*, %"std::ffi::CStr"** %7, align 8, !dbg !1557, !nonnull !4
  %8 = getelementptr inbounds { %"std::ffi::CStr"*, i64 }, { %"std::ffi::CStr"*, i64 }* %6, i32 0, i32 1, !dbg !1557
  %name.1 = load i64, i64* %8, align 8, !dbg !1557
  %9 = getelementptr inbounds { %"std::ffi::CStr"*, i64 }, { %"std::ffi::CStr"*, i64 }* %name.dbg.spill, i32 0, i32 0, !dbg !1557
  store %"std::ffi::CStr"* %name.0, %"std::ffi::CStr"** %9, align 8, !dbg !1557
  %10 = getelementptr inbounds { %"std::ffi::CStr"*, i64 }, { %"std::ffi::CStr"*, i64 }* %name.dbg.spill, i32 0, i32 1, !dbg !1557
  store i64 %name.1, i64* %10, align 8, !dbg !1557
  call void @llvm.dbg.declare(metadata { %"std::ffi::CStr"*, i64 }* %name.dbg.spill, metadata !1540, metadata !DIExpression()), !dbg !1558
; invoke std::sys::unix::thread::Thread::set_name
  invoke void @_ZN3std3sys4unix6thread6Thread8set_name17h8beffb71a885d265E(%"std::ffi::CStr"* noalias nonnull readonly align 1 %name.0, i64 %name.1)
          to label %bb4 unwind label %cleanup, !dbg !1559

bb4:                                              ; preds = %bb3
  br label %bb5, !dbg !1554

bb5:                                              ; preds = %bb4, %bb2
  store i8 0, i8* %_24, align 1, !dbg !1560
  %11 = getelementptr inbounds %"[closure@std::thread::Builder::spawn_unchecked<[closure@src/main.rs:18:21: 24:8], ()>::{closure#0}]", %"[closure@std::thread::Builder::spawn_unchecked<[closure@src/main.rs:18:21: 24:8], ()>::{closure#0}]"* %_1, i32 0, i32 3, !dbg !1560
  %_9 = load i64*, i64** %11, align 8, !dbg !1560
; invoke std::io::stdio::set_output_capture
  %12 = invoke i64* @_ZN3std2io5stdio18set_output_capture17he178fcaf92baad96E(i64* %_9)
          to label %bb6 unwind label %cleanup, !dbg !1561

bb6:                                              ; preds = %bb5
  store i64* %12, i64** %_8, align 8, !dbg !1561
; invoke core::ptr::drop_in_place::<core::option::Option<alloc::sync::Arc<std::sync::mutex::Mutex<alloc::vec::Vec<u8>>>>>
  invoke void @_RINvNtCs3p84KrD9aKt_4core3ptr13drop_in_placeINtNtB4_6option6OptionINtNtCs8RW06R9lH2S_5alloc4sync3ArcINtNtNtCs2bNvlddUlXM_3std4sync5mutex5MutexINtNtB17_3vec3VechEEEEECsedCAef59i8L_14waitgroup_test(i64** %_8)
          to label %bb7 unwind label %cleanup, !dbg !1562

bb7:                                              ; preds = %bb6
; invoke std::sys::unix::thread::guard::current
  invoke void @_ZN3std3sys4unix6thread5guard7current17h0adb27251896792cE(%"std::option::Option<std::ops::Range<usize>>"* noalias nocapture sret dereferenceable(24) %_11)
          to label %bb8 unwind label %cleanup, !dbg !1563

bb8:                                              ; preds = %bb7
  store i8 0, i8* %_23, align 1, !dbg !1564
  %13 = bitcast %"[closure@std::thread::Builder::spawn_unchecked<[closure@src/main.rs:18:21: 24:8], ()>::{closure#0}]"* %_1 to i64**, !dbg !1564
  %_12 = load i64*, i64** %13, align 8, !dbg !1564, !nonnull !4
; invoke std::sys_common::thread_info::set
  invoke void @_ZN3std10sys_common11thread_info3set17hf4621192e94d4c56E(%"std::option::Option<std::ops::Range<usize>>"* noalias nocapture dereferenceable(24) %_11, i64* nonnull %_12)
          to label %bb9 unwind label %cleanup, !dbg !1565

bb9:                                              ; preds = %bb8
  store i8 0, i8* %_22, align 1, !dbg !1566
  %14 = getelementptr inbounds %"[closure@std::thread::Builder::spawn_unchecked<[closure@src/main.rs:18:21: 24:8], ()>::{closure#0}]", %"[closure@std::thread::Builder::spawn_unchecked<[closure@src/main.rs:18:21: 24:8], ()>::{closure#0}]"* %_1, i32 0, i32 5, !dbg !1566
  %15 = load i64*, i64** %14, align 8, !dbg !1566, !nonnull !4
  store i64* %15, i64** %_15, align 8, !dbg !1566
  %16 = load i64*, i64** %_15, align 8, !dbg !1567, !nonnull !4
  store i64* %16, i64** %_14, align 8, !dbg !1567
  %17 = load i64*, i64** %_14, align 8, !dbg !1568, !nonnull !4
; invoke std::panic::catch_unwind::<std::panic::AssertUnwindSafe<<std::thread::Builder>::spawn_unchecked<waitgroup_test::main::{closure#0}, ()>::{closure#0}::{closure#0}>, ()>
  %18 = invoke { i8*, i8* } @_RINvNtCs2bNvlddUlXM_3std5panic12catch_unwindINtB2_16AssertUnwindSafeNCNCINvMNtB4_6threadNtB1c_7Builder15spawn_uncheckedNCNvCsedCAef59i8L_14waitgroup_test4main0uE00EuEB1X_(i64* nonnull %17)
          to label %bb10 unwind label %cleanup, !dbg !1568

bb10:                                             ; preds = %bb9
  %try_result.0 = extractvalue { i8*, i8* } %18, 0, !dbg !1568
  %try_result.1 = extractvalue { i8*, i8* } %18, 1, !dbg !1568
  %19 = getelementptr inbounds { i8*, i8* }, { i8*, i8* }* %try_result.dbg.spill, i32 0, i32 0, !dbg !1568
  store i8* %try_result.0, i8** %19, align 8, !dbg !1568
  %20 = getelementptr inbounds { i8*, i8* }, { i8*, i8* }* %try_result.dbg.spill, i32 0, i32 1, !dbg !1568
  store i8* %try_result.1, i8** %20, align 8, !dbg !1568
  call void @llvm.dbg.declare(metadata { i8*, i8* }* %try_result.dbg.spill, metadata !1548, metadata !DIExpression()), !dbg !1569
  %21 = bitcast %"std::option::Option<std::result::Result<(), std::boxed::Box<dyn std::any::Any + std::marker::Send>>>"* %_16 to %"std::option::Option<std::result::Result<(), std::boxed::Box<dyn std::any::Any + std::marker::Send>>>::Some"*, !dbg !1570
  %22 = getelementptr inbounds %"std::option::Option<std::result::Result<(), std::boxed::Box<dyn std::any::Any + std::marker::Send>>>::Some", %"std::option::Option<std::result::Result<(), std::boxed::Box<dyn std::any::Any + std::marker::Send>>>::Some"* %21, i32 0, i32 1, !dbg !1570
  %23 = getelementptr inbounds { i8*, i8* }, { i8*, i8* }* %22, i32 0, i32 0, !dbg !1570
  store i8* %try_result.0, i8** %23, align 8, !dbg !1570
  %24 = getelementptr inbounds { i8*, i8* }, { i8*, i8* }* %22, i32 0, i32 1, !dbg !1570
  store i8* %try_result.1, i8** %24, align 8, !dbg !1570
  %25 = bitcast %"std::option::Option<std::result::Result<(), std::boxed::Box<dyn std::any::Any + std::marker::Send>>>"* %_16 to i64*, !dbg !1570
  store i64 1, i64* %25, align 8, !dbg !1570
  %_21 = getelementptr inbounds %"[closure@std::thread::Builder::spawn_unchecked<[closure@src/main.rs:18:21: 24:8], ()>::{closure#0}]", %"[closure@std::thread::Builder::spawn_unchecked<[closure@src/main.rs:18:21: 24:8], ()>::{closure#0}]"* %_1, i32 0, i32 7, !dbg !1571
; invoke <alloc::sync::Arc<core::cell::UnsafeCell<core::option::Option<core::result::Result<(), alloc::boxed::Box<dyn core::any::Any + core::marker::Send>>>>> as core::ops::deref::Deref>::deref
  %_20 = invoke align 8 dereferenceable(24) %"std::cell::UnsafeCell<std::option::Option<std::result::Result<(), std::boxed::Box<dyn std::any::Any + std::marker::Send>>>>"* @_RNvXsl_NtCs8RW06R9lH2S_5alloc4syncINtB5_3ArcINtNtCs3p84KrD9aKt_4core4cell10UnsafeCellINtNtBL_6option6OptionINtNtBL_6result6ResultuINtNtB7_5boxed3BoxDNtNtBL_3any3AnyNtNtBL_6marker4SendEL_EEEEENtNtNtBL_3ops5deref5Deref5derefCsedCAef59i8L_14waitgroup_test(i64** noalias readonly align 8 dereferenceable(8) %_21)
          to label %bb11 unwind label %cleanup1, !dbg !1571

bb11:                                             ; preds = %bb10
; invoke <core::cell::UnsafeCell<core::option::Option<core::result::Result<(), alloc::boxed::Box<dyn core::any::Any + core::marker::Send>>>>>::get
  %_18 = invoke %"std::option::Option<std::result::Result<(), std::boxed::Box<dyn std::any::Any + std::marker::Send>>>"* @_RNvMsK_NtCs3p84KrD9aKt_4core4cellINtB5_10UnsafeCellINtNtB7_6option6OptionINtNtB7_6result6ResultuINtNtCs8RW06R9lH2S_5alloc5boxed3BoxDNtNtB7_3any3AnyNtNtB7_6marker4SendEL_EEEE3getCsedCAef59i8L_14waitgroup_test(%"std::cell::UnsafeCell<std::option::Option<std::result::Result<(), std::boxed::Box<dyn std::any::Any + std::marker::Send>>>>"* align 8 dereferenceable(24) %_20)
          to label %bb12 unwind label %cleanup1, !dbg !1571

bb12:                                             ; preds = %bb11
; invoke core::ptr::drop_in_place::<core::option::Option<core::result::Result<(), alloc::boxed::Box<dyn core::any::Any + core::marker::Send>>>>
  invoke void @_RINvNtCs3p84KrD9aKt_4core3ptr13drop_in_placeINtNtB4_6option6OptionINtNtB4_6result6ResultuINtNtCs8RW06R9lH2S_5alloc5boxed3BoxDNtNtB4_3any3AnyNtNtB4_6marker4SendEL_EEEECsedCAef59i8L_14waitgroup_test(%"std::option::Option<std::result::Result<(), std::boxed::Box<dyn std::any::Any + std::marker::Send>>>"* %_18)
          to label %bb16 unwind label %cleanup2, !dbg !1572

bb13:                                             ; preds = %cleanup1
; call core::ptr::drop_in_place::<core::option::Option<core::result::Result<(), alloc::boxed::Box<dyn core::any::Any + core::marker::Send>>>>
  call void @_RINvNtCs3p84KrD9aKt_4core3ptr13drop_in_placeINtNtB4_6option6OptionINtNtB4_6result6ResultuINtNtCs8RW06R9lH2S_5alloc5boxed3BoxDNtNtB4_3any3AnyNtNtB4_6marker4SendEL_EEEECsedCAef59i8L_14waitgroup_test(%"std::option::Option<std::result::Result<(), std::boxed::Box<dyn std::any::Any + std::marker::Send>>>"* %_16) #13, !dbg !1573
  br label %bb24, !dbg !1573

bb14:                                             ; preds = %bb18
  %26 = bitcast { i8*, i32 }* %0 to i8**, !dbg !1574
  %27 = load i8*, i8** %26, align 8, !dbg !1574
  %28 = getelementptr inbounds { i8*, i32 }, { i8*, i32 }* %0, i32 0, i32 1, !dbg !1574
  %29 = load i32, i32* %28, align 8, !dbg !1574
  %30 = insertvalue { i8*, i32 } undef, i8* %27, 0, !dbg !1574
  %31 = insertvalue { i8*, i32 } %30, i32 %29, 1, !dbg !1574
  resume { i8*, i32 } %31, !dbg !1574

bb15:                                             ; preds = %cleanup2
  %32 = bitcast %"std::option::Option<std::result::Result<(), std::boxed::Box<dyn std::any::Any + std::marker::Send>>>"* %_18 to i8*, !dbg !1572
  %33 = bitcast %"std::option::Option<std::result::Result<(), std::boxed::Box<dyn std::any::Any + std::marker::Send>>>"* %_16 to i8*, !dbg !1572
  call void @llvm.memcpy.p0i8.p0i8.i64(i8* align 8 %32, i8* align 8 %33, i64 24, i1 false), !dbg !1572
  br label %bb24, !dbg !1572

bb16:                                             ; preds = %bb12
  %34 = bitcast %"std::option::Option<std::result::Result<(), std::boxed::Box<dyn std::any::Any + std::marker::Send>>>"* %_18 to i8*, !dbg !1572
  %35 = bitcast %"std::option::Option<std::result::Result<(), std::boxed::Box<dyn std::any::Any + std::marker::Send>>>"* %_16 to i8*, !dbg !1572
  call void @llvm.memcpy.p0i8.p0i8.i64(i8* align 8 %34, i8* align 8 %35, i64 24, i1 false), !dbg !1572
  %36 = getelementptr inbounds %"[closure@std::thread::Builder::spawn_unchecked<[closure@src/main.rs:18:21: 24:8], ()>::{closure#0}]", %"[closure@std::thread::Builder::spawn_unchecked<[closure@src/main.rs:18:21: 24:8], ()>::{closure#0}]"* %_1, i32 0, i32 7, !dbg !1575
; call core::ptr::drop_in_place::<alloc::sync::Arc<core::cell::UnsafeCell<core::option::Option<core::result::Result<(), alloc::boxed::Box<dyn core::any::Any + core::marker::Send>>>>>>
  call void @_RINvNtCs3p84KrD9aKt_4core3ptr13drop_in_placeINtNtCs8RW06R9lH2S_5alloc4sync3ArcINtNtB4_4cell10UnsafeCellINtNtB4_6option6OptionINtNtB4_6result6ResultuINtNtBL_5boxed3BoxDNtNtB4_3any3AnyNtNtB4_6marker4SendEL_EEEEEECsedCAef59i8L_14waitgroup_test(i64** %36), !dbg !1575
  br label %bb17, !dbg !1575

bb17:                                             ; preds = %bb16
  ret void, !dbg !1576

bb18:                                             ; preds = %bb20, %bb19
  %37 = getelementptr inbounds %"[closure@std::thread::Builder::spawn_unchecked<[closure@src/main.rs:18:21: 24:8], ()>::{closure#0}]", %"[closure@std::thread::Builder::spawn_unchecked<[closure@src/main.rs:18:21: 24:8], ()>::{closure#0}]"* %_1, i32 0, i32 7, !dbg !1575
; call core::ptr::drop_in_place::<alloc::sync::Arc<core::cell::UnsafeCell<core::option::Option<core::result::Result<(), alloc::boxed::Box<dyn core::any::Any + core::marker::Send>>>>>>
  call void @_RINvNtCs3p84KrD9aKt_4core3ptr13drop_in_placeINtNtCs8RW06R9lH2S_5alloc4sync3ArcINtNtB4_4cell10UnsafeCellINtNtB4_6option6OptionINtNtB4_6result6ResultuINtNtBL_5boxed3BoxDNtNtB4_3any3AnyNtNtB4_6marker4SendEL_EEEEEECsedCAef59i8L_14waitgroup_test(i64** %37) #13, !dbg !1575
  br label %bb14, !dbg !1575

bb19:                                             ; preds = %bb22, %bb21
  %38 = load i8, i8* %_22, align 1, !dbg !1575, !range !625
  %39 = trunc i8 %38 to i1, !dbg !1575
  br i1 %39, label %bb20, label %bb18, !dbg !1575

bb20:                                             ; preds = %bb19
  %40 = getelementptr inbounds %"[closure@std::thread::Builder::spawn_unchecked<[closure@src/main.rs:18:21: 24:8], ()>::{closure#0}]", %"[closure@std::thread::Builder::spawn_unchecked<[closure@src/main.rs:18:21: 24:8], ()>::{closure#0}]"* %_1, i32 0, i32 5, !dbg !1575
; call core::ptr::drop_in_place::<waitgroup_test::main::{closure#0}>
  call void @_RINvNtCs3p84KrD9aKt_4core3ptr13drop_in_placeNCNvCsedCAef59i8L_14waitgroup_test4main0EBK_(i64** %40) #13, !dbg !1575
  br label %bb18, !dbg !1575

bb21:                                             ; preds = %bb23, %bb24
  %41 = load i8, i8* %_24, align 1, !dbg !1575, !range !625
  %42 = trunc i8 %41 to i1, !dbg !1575
  br i1 %42, label %bb22, label %bb19, !dbg !1575

bb22:                                             ; preds = %bb21
  %43 = getelementptr inbounds %"[closure@std::thread::Builder::spawn_unchecked<[closure@src/main.rs:18:21: 24:8], ()>::{closure#0}]", %"[closure@std::thread::Builder::spawn_unchecked<[closure@src/main.rs:18:21: 24:8], ()>::{closure#0}]"* %_1, i32 0, i32 3, !dbg !1575
; call core::ptr::drop_in_place::<core::option::Option<alloc::sync::Arc<std::sync::mutex::Mutex<alloc::vec::Vec<u8>>>>>
  call void @_RINvNtCs3p84KrD9aKt_4core3ptr13drop_in_placeINtNtB4_6option6OptionINtNtCs8RW06R9lH2S_5alloc4sync3ArcINtNtNtCs2bNvlddUlXM_3std4sync5mutex5MutexINtNtB17_3vec3VechEEEEECsedCAef59i8L_14waitgroup_test(i64** %43) #13, !dbg !1575
  br label %bb19, !dbg !1575

bb23:                                             ; preds = %bb24
  %44 = bitcast %"[closure@std::thread::Builder::spawn_unchecked<[closure@src/main.rs:18:21: 24:8], ()>::{closure#0}]"* %_1 to i64**, !dbg !1575
; call core::ptr::drop_in_place::<std::thread::Thread>
  call void @_RINvNtCs3p84KrD9aKt_4core3ptr13drop_in_placeNtNtCs2bNvlddUlXM_3std6thread6ThreadECs48Yq53b35jF_15crossbeam_utils(i64** %44) #13, !dbg !1575
  br label %bb21, !dbg !1575

bb24:                                             ; preds = %bb15, %bb13, %cleanup
  %45 = load i8, i8* %_23, align 1, !dbg !1575, !range !625
  %46 = trunc i8 %45 to i1, !dbg !1575
  br i1 %46, label %bb23, label %bb21, !dbg !1575

cleanup:                                          ; preds = %bb9, %bb8, %bb7, %bb6, %bb5, %bb3, %start
  %47 = landingpad { i8*, i32 }
          cleanup
  %48 = extractvalue { i8*, i32 } %47, 0
  %49 = extractvalue { i8*, i32 } %47, 1
  %50 = getelementptr inbounds { i8*, i32 }, { i8*, i32 }* %0, i32 0, i32 0
  store i8* %48, i8** %50, align 8
  %51 = getelementptr inbounds { i8*, i32 }, { i8*, i32 }* %0, i32 0, i32 1
  store i32 %49, i32* %51, align 8
  br label %bb24

cleanup1:                                         ; preds = %bb11, %bb10
  %52 = landingpad { i8*, i32 }
          cleanup
  %53 = extractvalue { i8*, i32 } %52, 0
  %54 = extractvalue { i8*, i32 } %52, 1
  %55 = getelementptr inbounds { i8*, i32 }, { i8*, i32 }* %0, i32 0, i32 0
  store i8* %53, i8** %55, align 8
  %56 = getelementptr inbounds { i8*, i32 }, { i8*, i32 }* %0, i32 0, i32 1
  store i32 %54, i32* %56, align 8
  br label %bb13

cleanup2:                                         ; preds = %bb12
  %57 = landingpad { i8*, i32 }
          cleanup
  %58 = extractvalue { i8*, i32 } %57, 0
  %59 = extractvalue { i8*, i32 } %57, 1
  %60 = getelementptr inbounds { i8*, i32 }, { i8*, i32 }* %0, i32 0, i32 0
  store i8* %58, i8** %60, align 8
  %61 = getelementptr inbounds { i8*, i32 }, { i8*, i32 }* %0, i32 0, i32 1
  store i32 %59, i32* %61, align 8
  br label %bb15
}

; std::rt::lang_start::<()>::{closure#0}
; Function Attrs: inlinehint nonlazybind uwtable
define internal i32 @_RNCINvNtCs2bNvlddUlXM_3std2rt10lang_startuE0CsedCAef59i8L_14waitgroup_test(i64** noalias readonly align 8 dereferenceable(8) %_1) unnamed_addr #1 !dbg !1577 {
start:
  %_1.dbg.spill = alloca i64**, align 8
  store i64** %_1, i64*** %_1.dbg.spill, align 8
  call void @llvm.dbg.declare(metadata i64*** %_1.dbg.spill, metadata !1582, metadata !DIExpression(DW_OP_deref)), !dbg !1583
  %0 = bitcast i64** %_1 to void ()**, !dbg !1584
  %_3 = load void ()*, void ()** %0, align 8, !dbg !1584, !nonnull !4
; call std::sys_common::backtrace::__rust_begin_short_backtrace::<fn(), ()>
  call void @_RINvNtNtCs2bNvlddUlXM_3std10sys_common9backtrace28___rust_begin_short_backtraceFEuuECsedCAef59i8L_14waitgroup_test(void ()* nonnull %_3), !dbg !1585
  br label %bb1, !dbg !1585

bb1:                                              ; preds = %start
; call <() as std::process::Termination>::report
  %1 = call i32 @_RNvXsC_NtCs2bNvlddUlXM_3std7processuNtB5_11Termination6reportCsedCAef59i8L_14waitgroup_test(), !dbg !1585
  br label %bb2, !dbg !1585

bb2:                                              ; preds = %bb1
  ret i32 %1, !dbg !1586
}

; <std::thread::Builder>::spawn_unchecked::<waitgroup_test::main::{closure#0}, ()>::{closure#0}::{closure#0}
; Function Attrs: inlinehint nonlazybind uwtable
define internal void @_RNCNCINvMNtCs2bNvlddUlXM_3std6threadNtB7_7Builder15spawn_uncheckedNCNvCsedCAef59i8L_14waitgroup_test4main0uE00B16_(i64* nonnull %_1) unnamed_addr #1 !dbg !1587 {
start:
  %_1.dbg.spill = alloca i64*, align 8
  store i64* %_1, i64** %_1.dbg.spill, align 8
  call void @llvm.dbg.declare(metadata i64** %_1.dbg.spill, metadata !1591, metadata !DIExpression()), !dbg !1592
; call std::sys_common::backtrace::__rust_begin_short_backtrace::<waitgroup_test::main::{closure#0}, ()>
  call void @_RINvNtNtCs2bNvlddUlXM_3std10sys_common9backtrace28___rust_begin_short_backtraceNCNvCsedCAef59i8L_14waitgroup_test4main0uEB1j_(i64* nonnull %_1), !dbg !1593
  br label %bb1, !dbg !1593

bb1:                                              ; preds = %start
  ret void, !dbg !1594
}

; <<std::thread::Builder>::spawn_unchecked<waitgroup_test::main::{closure#0}, ()>::{closure#0} as core::ops::function::FnOnce<()>>::call_once::{shim:vtable#0}
; Function Attrs: inlinehint nonlazybind uwtable
define internal void @_RNSNvYNCINvMNtCs2bNvlddUlXM_3std6threadNtBa_7Builder15spawn_uncheckedNCNvCsedCAef59i8L_14waitgroup_test4main0uE0INtNtNtCs3p84KrD9aKt_4core3ops8function6FnOnceuE9call_once6vtableB19_(%"[closure@std::thread::Builder::spawn_unchecked<[closure@src/main.rs:18:21: 24:8], ()>::{closure#0}]"* %_1) unnamed_addr #1 !dbg !1595 {
start:
  %_1.dbg.spill = alloca %"[closure@std::thread::Builder::spawn_unchecked<[closure@src/main.rs:18:21: 24:8], ()>::{closure#0}]"*, align 8
  %_2 = alloca {}, align 1
  store %"[closure@std::thread::Builder::spawn_unchecked<[closure@src/main.rs:18:21: 24:8], ()>::{closure#0}]"* %_1, %"[closure@std::thread::Builder::spawn_unchecked<[closure@src/main.rs:18:21: 24:8], ()>::{closure#0}]"** %_1.dbg.spill, align 8
  call void @llvm.dbg.declare(metadata %"[closure@std::thread::Builder::spawn_unchecked<[closure@src/main.rs:18:21: 24:8], ()>::{closure#0}]"** %_1.dbg.spill, metadata !1601, metadata !DIExpression()), !dbg !1606
  call void @llvm.dbg.declare(metadata {}* %_2, metadata !1602, metadata !DIExpression()), !dbg !1606
; call <std::thread::Builder>::spawn_unchecked::<waitgroup_test::main::{closure#0}, ()>::{closure#0}
  call void @_RNCINvMNtCs2bNvlddUlXM_3std6threadNtB5_7Builder15spawn_uncheckedNCNvCsedCAef59i8L_14waitgroup_test4main0uE0B14_(%"[closure@std::thread::Builder::spawn_unchecked<[closure@src/main.rs:18:21: 24:8], ()>::{closure#0}]"* noalias nocapture dereferenceable(32) %_1), !dbg !1606
  br label %bb1, !dbg !1606

bb1:                                              ; preds = %start
  ret void, !dbg !1606
}

; <std::rt::lang_start<()>::{closure#0} as core::ops::function::FnOnce<()>>::call_once::{shim:vtable#0}
; Function Attrs: inlinehint nonlazybind uwtable
define internal i32 @_RNSNvYNCINvNtCs2bNvlddUlXM_3std2rt10lang_startuE0INtNtNtCs3p84KrD9aKt_4core3ops8function6FnOnceuE9call_once6vtableCsedCAef59i8L_14waitgroup_test(i64** %_1) unnamed_addr #1 !dbg !1607 {
start:
  %_1.dbg.spill = alloca i64**, align 8
  %_2 = alloca {}, align 1
  store i64** %_1, i64*** %_1.dbg.spill, align 8
  call void @llvm.dbg.declare(metadata i64*** %_1.dbg.spill, metadata !1611, metadata !DIExpression()), !dbg !1615
  call void @llvm.dbg.declare(metadata {}* %_2, metadata !1612, metadata !DIExpression()), !dbg !1615
  %0 = load i64*, i64** %_1, align 8, !dbg !1615, !nonnull !4
; call <std::rt::lang_start<()>::{closure#0} as core::ops::function::FnOnce<()>>::call_once
  %1 = call i32 @_RNvYNCINvNtCs2bNvlddUlXM_3std2rt10lang_startuE0INtNtNtCs3p84KrD9aKt_4core3ops8function6FnOnceuE9call_onceCsedCAef59i8L_14waitgroup_test(i64* nonnull %0), !dbg !1615
  br label %bb1, !dbg !1615

bb1:                                              ; preds = %start
  ret i32 %1, !dbg !1615
}

; <alloc::alloc::Global>::alloc_impl
; Function Attrs: inlinehint nonlazybind uwtable
define internal { i8*, i64 } @_RNvMNtCs8RW06R9lH2S_5alloc5allocNtB2_6Global10alloc_implCsedCAef59i8L_14waitgroup_test(%"std::alloc::Global"* noalias nonnull readonly align 1 %self, i64 %0, i64 %1, i1 zeroext %zeroed) unnamed_addr #1 !dbg !1616 {
start:
  %ptr.dbg.spill = alloca i8*, align 8
  %val.dbg.spill = alloca i8*, align 8
  %size.dbg.spill = alloca i64, align 8
  %err.dbg.spill = alloca %"std::alloc::AllocError", align 1
  %zeroed.dbg.spill = alloca i8, align 1
  %self.dbg.spill = alloca %"std::alloc::Global"*, align 8
  %_19 = alloca %"std::alloc::AllocError", align 1
  %_15 = alloca i8*, align 8
  %raw_ptr = alloca i8*, align 8
  %2 = alloca { i8*, i64 }, align 8
  %layout = alloca { i64, i64 }, align 8
  %3 = getelementptr inbounds { i64, i64 }, { i64, i64 }* %layout, i32 0, i32 0
  store i64 %0, i64* %3, align 8
  %4 = getelementptr inbounds { i64, i64 }, { i64, i64 }* %layout, i32 0, i32 1
  store i64 %1, i64* %4, align 8
  store %"std::alloc::Global"* %self, %"std::alloc::Global"** %self.dbg.spill, align 8
  call void @llvm.dbg.declare(metadata %"std::alloc::Global"** %self.dbg.spill, metadata !1645, metadata !DIExpression()), !dbg !1658
  call void @llvm.dbg.declare(metadata { i64, i64 }* %layout, metadata !1646, metadata !DIExpression()), !dbg !1659
  %5 = zext i1 %zeroed to i8
  store i8 %5, i8* %zeroed.dbg.spill, align 1
  call void @llvm.dbg.declare(metadata i8* %zeroed.dbg.spill, metadata !1647, metadata !DIExpression()), !dbg !1660
  call void @llvm.dbg.declare(metadata i8** %raw_ptr, metadata !1650, metadata !DIExpression()), !dbg !1661
  call void @llvm.dbg.declare(metadata %"std::alloc::AllocError"* %err.dbg.spill, metadata !1654, metadata !DIExpression()), !dbg !1662
; call <core::alloc::layout::Layout>::size
  %_4 = call i64 @_RNvMNtNtCs3p84KrD9aKt_4core5alloc6layoutNtB2_6Layout4sizeCsedCAef59i8L_14waitgroup_test({ i64, i64 }* noalias readonly align 8 dereferenceable(16) %layout), !dbg !1663
  br label %bb1, !dbg !1663

bb1:                                              ; preds = %start
  %6 = icmp eq i64 %_4, 0, !dbg !1664
  br i1 %6, label %bb3, label %bb2, !dbg !1664

bb2:                                              ; preds = %bb1
  store i64 %_4, i64* %size.dbg.spill, align 8, !dbg !1665
  call void @llvm.dbg.declare(metadata i64* %size.dbg.spill, metadata !1648, metadata !DIExpression()), !dbg !1666
  br i1 %zeroed, label %bb6, label %bb7, !dbg !1667

bb3:                                              ; preds = %bb1
; call <core::alloc::layout::Layout>::dangling
  %_7 = call nonnull i8* @_RNvMNtNtCs3p84KrD9aKt_4core5alloc6layoutNtB2_6Layout8danglingCsedCAef59i8L_14waitgroup_test({ i64, i64 }* noalias readonly align 8 dereferenceable(16) %layout), !dbg !1668
  br label %bb4, !dbg !1668

bb4:                                              ; preds = %bb3
; call <core::ptr::non_null::NonNull<[u8]>>::slice_from_raw_parts
  %7 = call { i8*, i64 } @_RNvMs2_NtNtCs3p84KrD9aKt_4core3ptr8non_nullINtB5_7NonNullShE20slice_from_raw_partsCs48Yq53b35jF_15crossbeam_utils(i8* nonnull %_7, i64 0), !dbg !1669
  %_6.0 = extractvalue { i8*, i64 } %7, 0, !dbg !1669
  %_6.1 = extractvalue { i8*, i64 } %7, 1, !dbg !1669
  br label %bb5, !dbg !1669

bb5:                                              ; preds = %bb4
  %8 = getelementptr inbounds { i8*, i64 }, { i8*, i64 }* %2, i32 0, i32 0, !dbg !1670
  store i8* %_6.0, i8** %8, align 8, !dbg !1670
  %9 = getelementptr inbounds { i8*, i64 }, { i8*, i64 }* %2, i32 0, i32 1, !dbg !1670
  store i64 %_6.1, i64* %9, align 8, !dbg !1670
  br label %bb20, !dbg !1671

bb6:                                              ; preds = %bb2
  %10 = getelementptr inbounds { i64, i64 }, { i64, i64 }* %layout, i32 0, i32 0, !dbg !1672
  %_12.0 = load i64, i64* %10, align 8, !dbg !1672
  %11 = getelementptr inbounds { i64, i64 }, { i64, i64 }* %layout, i32 0, i32 1, !dbg !1672
  %_12.1 = load i64, i64* %11, align 8, !dbg !1672, !range !1673
; call alloc::alloc::alloc_zeroed
  %12 = call i8* @_RNvNtCs8RW06R9lH2S_5alloc5alloc12alloc_zeroedCsedCAef59i8L_14waitgroup_test(i64 %_12.0, i64 %_12.1), !dbg !1674
  store i8* %12, i8** %raw_ptr, align 8, !dbg !1674
  br label %bb8, !dbg !1674

bb7:                                              ; preds = %bb2
  %13 = getelementptr inbounds { i64, i64 }, { i64, i64 }* %layout, i32 0, i32 0, !dbg !1675
  %_13.0 = load i64, i64* %13, align 8, !dbg !1675
  %14 = getelementptr inbounds { i64, i64 }, { i64, i64 }* %layout, i32 0, i32 1, !dbg !1675
  %_13.1 = load i64, i64* %14, align 8, !dbg !1675, !range !1673
; call alloc::alloc::alloc
  %15 = call i8* @_RNvNtCs8RW06R9lH2S_5alloc5alloc5allocCsedCAef59i8L_14waitgroup_test(i64 %_13.0, i64 %_13.1), !dbg !1676
  store i8* %15, i8** %raw_ptr, align 8, !dbg !1676
  br label %bb9, !dbg !1676

bb8:                                              ; preds = %bb6
  br label %bb10, !dbg !1667

bb9:                                              ; preds = %bb7
  br label %bb10, !dbg !1667

bb10:                                             ; preds = %bb9, %bb8
  %_18 = load i8*, i8** %raw_ptr, align 8, !dbg !1677
; call <core::ptr::non_null::NonNull<u8>>::new
  %_17 = call i8* @_RNvMs1_NtNtCs3p84KrD9aKt_4core3ptr8non_nullINtB5_7NonNullhE3newCs48Yq53b35jF_15crossbeam_utils(i8* %_18), !dbg !1678
  br label %bb11, !dbg !1678

bb11:                                             ; preds = %bb10
; call <core::option::Option<core::ptr::non_null::NonNull<u8>>>::ok_or::<core::alloc::AllocError>
  %_16 = call i8* @_RINvMNtCs3p84KrD9aKt_4core6optionINtB3_6OptionINtNtNtB5_3ptr8non_null7NonNullhEE5ok_orNtNtB5_5alloc10AllocErrorECs48Yq53b35jF_15crossbeam_utils(i8* %_17), !dbg !1678
  br label %bb12, !dbg !1678

bb12:                                             ; preds = %bb11
; call <core::result::Result<core::ptr::non_null::NonNull<u8>, core::alloc::AllocError> as core::ops::try::Try>::into_result
  %16 = call i8* @_RNvXsw_NtCs3p84KrD9aKt_4core6resultINtB5_6ResultINtNtNtB7_3ptr8non_null7NonNullhENtNtB7_5alloc10AllocErrorENtNtNtB7_3ops3try3Try11into_resultCs48Yq53b35jF_15crossbeam_utils(i8* %_16), !dbg !1678
  store i8* %16, i8** %_15, align 8, !dbg !1678
  br label %bb13, !dbg !1678

bb13:                                             ; preds = %bb12
  %17 = bitcast i8** %_15 to {}**, !dbg !1679
  %18 = load {}*, {}** %17, align 8, !dbg !1679
  %19 = icmp eq {}* %18, null, !dbg !1679
  %_20 = select i1 %19, i64 1, i64 0, !dbg !1679
  switch i64 %_20, label %bb15 [
    i64 0, label %bb14
    i64 1, label %bb16
  ], !dbg !1679

bb14:                                             ; preds = %bb13
  %val = load i8*, i8** %_15, align 8, !dbg !1678, !nonnull !4
  store i8* %val, i8** %val.dbg.spill, align 8, !dbg !1678
  call void @llvm.dbg.declare(metadata i8** %val.dbg.spill, metadata !1656, metadata !DIExpression()), !dbg !1680
  store i8* %val, i8** %ptr.dbg.spill, align 8, !dbg !1680
  call void @llvm.dbg.declare(metadata i8** %ptr.dbg.spill, metadata !1652, metadata !DIExpression()), !dbg !1681
; call <core::ptr::non_null::NonNull<[u8]>>::slice_from_raw_parts
  %20 = call { i8*, i64 } @_RNvMs2_NtNtCs3p84KrD9aKt_4core3ptr8non_nullINtB5_7NonNullShE20slice_from_raw_partsCs48Yq53b35jF_15crossbeam_utils(i8* nonnull %val, i64 %_4), !dbg !1682
  %_25.0 = extractvalue { i8*, i64 } %20, 0, !dbg !1682
  %_25.1 = extractvalue { i8*, i64 } %20, 1, !dbg !1682
  br label %bb19, !dbg !1682

bb15:                                             ; preds = %bb13
  unreachable, !dbg !1678

bb16:                                             ; preds = %bb13
; call <core::alloc::AllocError as core::convert::From<core::alloc::AllocError>>::from
  call void @_RNvXs2_NtCs3p84KrD9aKt_4core7convertNtNtB7_5alloc10AllocErrorINtB5_4FromBy_E4fromCs48Yq53b35jF_15crossbeam_utils(), !dbg !1662
  br label %bb17, !dbg !1662

bb17:                                             ; preds = %bb16
; call <core::result::Result<core::ptr::non_null::NonNull<[u8]>, core::alloc::AllocError> as core::ops::try::Try>::from_error
  %21 = call { i8*, i64 } @_RNvXsw_NtCs3p84KrD9aKt_4core6resultINtB5_6ResultINtNtNtB7_3ptr8non_null7NonNullShENtNtB7_5alloc10AllocErrorENtNtNtB7_3ops3try3Try10from_errorCs48Yq53b35jF_15crossbeam_utils(), !dbg !1683
  store { i8*, i64 } %21, { i8*, i64 }* %2, align 8, !dbg !1683
  br label %bb18, !dbg !1683

bb18:                                             ; preds = %bb17
  br label %bb21, !dbg !1684

bb19:                                             ; preds = %bb14
  %22 = getelementptr inbounds { i8*, i64 }, { i8*, i64 }* %2, i32 0, i32 0, !dbg !1685
  store i8* %_25.0, i8** %22, align 8, !dbg !1685
  %23 = getelementptr inbounds { i8*, i64 }, { i8*, i64 }* %2, i32 0, i32 1, !dbg !1685
  store i64 %_25.1, i64* %23, align 8, !dbg !1685
  br label %bb20, !dbg !1671

bb20:                                             ; preds = %bb5, %bb19
  br label %bb21, !dbg !1684

bb21:                                             ; preds = %bb20, %bb18
  %24 = getelementptr inbounds { i8*, i64 }, { i8*, i64 }* %2, i32 0, i32 0, !dbg !1684
  %25 = load i8*, i8** %24, align 8, !dbg !1684
  %26 = getelementptr inbounds { i8*, i64 }, { i8*, i64 }* %2, i32 0, i32 1, !dbg !1684
  %27 = load i64, i64* %26, align 8, !dbg !1684
  %28 = insertvalue { i8*, i64 } undef, i8* %25, 0, !dbg !1684
  %29 = insertvalue { i8*, i64 } %28, i64 %27, 1, !dbg !1684
  ret { i8*, i64 } %29, !dbg !1684
}

; <core::mem::manually_drop::ManuallyDrop<std::panic::AssertUnwindSafe<<std::thread::Builder>::spawn_unchecked<waitgroup_test::main::{closure#0}, ()>::{closure#0}::{closure#0}>>>::take
; Function Attrs: inlinehint nonlazybind uwtable
define internal nonnull i64* @_RNvMNtNtCs3p84KrD9aKt_4core3mem13manually_dropINtB2_12ManuallyDropINtNtCs2bNvlddUlXM_3std5panic16AssertUnwindSafeNCNCINvMNtB17_6threadNtB1V_7Builder15spawn_uncheckedNCNvCsedCAef59i8L_14waitgroup_test4main0uE00EE4takeB2H_(i64** align 8 dereferenceable(8) %slot) unnamed_addr #1 !dbg !1686 {
start:
  %slot.dbg.spill = alloca i64**, align 8
  store i64** %slot, i64*** %slot.dbg.spill, align 8
  call void @llvm.dbg.declare(metadata i64*** %slot.dbg.spill, metadata !1691, metadata !DIExpression()), !dbg !1692
; call core::ptr::read::<std::panic::AssertUnwindSafe<<std::thread::Builder>::spawn_unchecked<waitgroup_test::main::{closure#0}, ()>::{closure#0}::{closure#0}>>
  %0 = call nonnull i64* @_RINvNtCs3p84KrD9aKt_4core3ptr4readINtNtCs2bNvlddUlXM_3std5panic16AssertUnwindSafeNCNCINvMNtBB_6threadNtB1p_7Builder15spawn_uncheckedNCNvCsedCAef59i8L_14waitgroup_test4main0uE00EEB2a_(i64** %slot), !dbg !1693
  br label %bb1, !dbg !1693

bb1:                                              ; preds = %start
  ret i64* %0, !dbg !1694
}

; <core::alloc::layout::Layout>::from_size_align_unchecked
; Function Attrs: inlinehint nonlazybind uwtable
define internal { i64, i64 } @_RNvMNtNtCs3p84KrD9aKt_4core5alloc6layoutNtB2_6Layout25from_size_align_uncheckedCsedCAef59i8L_14waitgroup_test(i64 %size, i64 %align) unnamed_addr #1 !dbg !1695 {
start:
  %align.dbg.spill = alloca i64, align 8
  %size.dbg.spill = alloca i64, align 8
  %0 = alloca { i64, i64 }, align 8
  store i64 %size, i64* %size.dbg.spill, align 8
  call void @llvm.dbg.declare(metadata i64* %size.dbg.spill, metadata !1699, metadata !DIExpression()), !dbg !1701
  store i64 %align, i64* %align.dbg.spill, align 8
  call void @llvm.dbg.declare(metadata i64* %align.dbg.spill, metadata !1700, metadata !DIExpression()), !dbg !1702
; call <core::num::nonzero::NonZeroUsize>::new_unchecked
  %_4 = call i64 @_RNvMsx_NtNtCs3p84KrD9aKt_4core3num7nonzeroNtB5_12NonZeroUsize13new_uncheckedCsedCAef59i8L_14waitgroup_test(i64 %align), !dbg !1703, !range !1673
  br label %bb1, !dbg !1703

bb1:                                              ; preds = %start
  %1 = bitcast { i64, i64 }* %0 to i64*, !dbg !1704
  store i64 %size, i64* %1, align 8, !dbg !1704
  %2 = getelementptr inbounds { i64, i64 }, { i64, i64 }* %0, i32 0, i32 1, !dbg !1704
  store i64 %_4, i64* %2, align 8, !dbg !1704
  %3 = getelementptr inbounds { i64, i64 }, { i64, i64 }* %0, i32 0, i32 0, !dbg !1705
  %4 = load i64, i64* %3, align 8, !dbg !1705
  %5 = getelementptr inbounds { i64, i64 }, { i64, i64 }* %0, i32 0, i32 1, !dbg !1705
  %6 = load i64, i64* %5, align 8, !dbg !1705, !range !1673
  %7 = insertvalue { i64, i64 } undef, i64 %4, 0, !dbg !1705
  %8 = insertvalue { i64, i64 } %7, i64 %6, 1, !dbg !1705
  ret { i64, i64 } %8, !dbg !1705
}

; <core::alloc::layout::Layout>::size
; Function Attrs: inlinehint nonlazybind uwtable
define internal i64 @_RNvMNtNtCs3p84KrD9aKt_4core5alloc6layoutNtB2_6Layout4sizeCsedCAef59i8L_14waitgroup_test({ i64, i64 }* noalias readonly align 8 dereferenceable(16) %self) unnamed_addr #1 !dbg !1706 {
start:
  %self.dbg.spill = alloca { i64, i64 }*, align 8
  store { i64, i64 }* %self, { i64, i64 }** %self.dbg.spill, align 8
  call void @llvm.dbg.declare(metadata { i64, i64 }** %self.dbg.spill, metadata !1711, metadata !DIExpression()), !dbg !1712
  %0 = bitcast { i64, i64 }* %self to i64*, !dbg !1713
  %1 = load i64, i64* %0, align 8, !dbg !1713
  ret i64 %1, !dbg !1714
}

; <core::alloc::layout::Layout>::align
; Function Attrs: inlinehint nonlazybind uwtable
define internal i64 @_RNvMNtNtCs3p84KrD9aKt_4core5alloc6layoutNtB2_6Layout5alignCsedCAef59i8L_14waitgroup_test({ i64, i64 }* noalias readonly align 8 dereferenceable(16) %self) unnamed_addr #1 !dbg !1715 {
start:
  %self.dbg.spill = alloca { i64, i64 }*, align 8
  store { i64, i64 }* %self, { i64, i64 }** %self.dbg.spill, align 8
  call void @llvm.dbg.declare(metadata { i64, i64 }** %self.dbg.spill, metadata !1717, metadata !DIExpression()), !dbg !1718
  %0 = getelementptr inbounds { i64, i64 }, { i64, i64 }* %self, i32 0, i32 1, !dbg !1719
  %_2 = load i64, i64* %0, align 8, !dbg !1719, !range !1673
; call <core::num::nonzero::NonZeroUsize>::get
  %1 = call i64 @_RNvMsx_NtNtCs3p84KrD9aKt_4core3num7nonzeroNtB5_12NonZeroUsize3getCsedCAef59i8L_14waitgroup_test(i64 %_2), !dbg !1719
  br label %bb1, !dbg !1719

bb1:                                              ; preds = %start
  ret i64 %1, !dbg !1720
}

; <core::alloc::layout::Layout>::dangling
; Function Attrs: inlinehint nonlazybind uwtable
define internal nonnull i8* @_RNvMNtNtCs3p84KrD9aKt_4core5alloc6layoutNtB2_6Layout8danglingCsedCAef59i8L_14waitgroup_test({ i64, i64 }* noalias readonly align 8 dereferenceable(16) %self) unnamed_addr #1 !dbg !1721 {
start:
  %self.dbg.spill = alloca { i64, i64 }*, align 8
  store { i64, i64 }* %self, { i64, i64 }** %self.dbg.spill, align 8
  call void @llvm.dbg.declare(metadata { i64, i64 }** %self.dbg.spill, metadata !1725, metadata !DIExpression()), !dbg !1726
; call <core::alloc::layout::Layout>::align
  %_3 = call i64 @_RNvMNtNtCs3p84KrD9aKt_4core5alloc6layoutNtB2_6Layout5alignCsedCAef59i8L_14waitgroup_test({ i64, i64 }* noalias readonly align 8 dereferenceable(16) %self), !dbg !1727
  br label %bb1, !dbg !1727

bb1:                                              ; preds = %start
  %_2 = inttoptr i64 %_3 to i8*, !dbg !1727
; call <core::ptr::non_null::NonNull<u8>>::new_unchecked
  %0 = call nonnull i8* @_RNvMs1_NtNtCs3p84KrD9aKt_4core3ptr8non_nullINtB5_7NonNullhE13new_uncheckedCs48Yq53b35jF_15crossbeam_utils(i8* %_2), !dbg !1728
  br label %bb2, !dbg !1728

bb2:                                              ; preds = %bb1
  ret i8* %0, !dbg !1729
}

; <core::fmt::Arguments>::new_v1
; Function Attrs: inlinehint nonlazybind uwtable
define internal void @_RNvMs0_NtCs3p84KrD9aKt_4core3fmtNtB5_9Arguments6new_v1CsedCAef59i8L_14waitgroup_test(%"std::fmt::Arguments"* noalias nocapture sret dereferenceable(48) %0, [0 x { [0 x i8]*, i64 }]* noalias nonnull readonly align 8 %pieces.0, i64 %pieces.1, [0 x { i8*, i64* }]* noalias nonnull readonly align 8 %args.0, i64 %args.1) unnamed_addr #1 !dbg !1730 {
start:
  %args.dbg.spill = alloca { [0 x { i8*, i64* }]*, i64 }, align 8
  %pieces.dbg.spill = alloca { [0 x { [0 x i8]*, i64 }]*, i64 }, align 8
  %_4 = alloca { i64*, i64 }, align 8
  %1 = getelementptr inbounds { [0 x { [0 x i8]*, i64 }]*, i64 }, { [0 x { [0 x i8]*, i64 }]*, i64 }* %pieces.dbg.spill, i32 0, i32 0
  store [0 x { [0 x i8]*, i64 }]* %pieces.0, [0 x { [0 x i8]*, i64 }]** %1, align 8
  %2 = getelementptr inbounds { [0 x { [0 x i8]*, i64 }]*, i64 }, { [0 x { [0 x i8]*, i64 }]*, i64 }* %pieces.dbg.spill, i32 0, i32 1
  store i64 %pieces.1, i64* %2, align 8
  call void @llvm.dbg.declare(metadata { [0 x { [0 x i8]*, i64 }]*, i64 }* %pieces.dbg.spill, metadata !1796, metadata !DIExpression()), !dbg !1798
  %3 = getelementptr inbounds { [0 x { i8*, i64* }]*, i64 }, { [0 x { i8*, i64* }]*, i64 }* %args.dbg.spill, i32 0, i32 0
  store [0 x { i8*, i64* }]* %args.0, [0 x { i8*, i64* }]** %3, align 8
  %4 = getelementptr inbounds { [0 x { i8*, i64* }]*, i64 }, { [0 x { i8*, i64* }]*, i64 }* %args.dbg.spill, i32 0, i32 1
  store i64 %args.1, i64* %4, align 8
  call void @llvm.dbg.declare(metadata { [0 x { i8*, i64* }]*, i64 }* %args.dbg.spill, metadata !1797, metadata !DIExpression()), !dbg !1799
  %5 = bitcast { i64*, i64 }* %_4 to {}**, !dbg !1800
  store {}* null, {}** %5, align 8, !dbg !1800
  %6 = bitcast %"std::fmt::Arguments"* %0 to { [0 x { [0 x i8]*, i64 }]*, i64 }*, !dbg !1801
  %7 = getelementptr inbounds { [0 x { [0 x i8]*, i64 }]*, i64 }, { [0 x { [0 x i8]*, i64 }]*, i64 }* %6, i32 0, i32 0, !dbg !1801
  store [0 x { [0 x i8]*, i64 }]* %pieces.0, [0 x { [0 x i8]*, i64 }]** %7, align 8, !dbg !1801
  %8 = getelementptr inbounds { [0 x { [0 x i8]*, i64 }]*, i64 }, { [0 x { [0 x i8]*, i64 }]*, i64 }* %6, i32 0, i32 1, !dbg !1801
  store i64 %pieces.1, i64* %8, align 8, !dbg !1801
  %9 = getelementptr inbounds %"std::fmt::Arguments", %"std::fmt::Arguments"* %0, i32 0, i32 3, !dbg !1801
  %10 = getelementptr inbounds { i64*, i64 }, { i64*, i64 }* %_4, i32 0, i32 0, !dbg !1801
  %11 = load i64*, i64** %10, align 8, !dbg !1801
  %12 = getelementptr inbounds { i64*, i64 }, { i64*, i64 }* %_4, i32 0, i32 1, !dbg !1801
  %13 = load i64, i64* %12, align 8, !dbg !1801
  %14 = getelementptr inbounds { i64*, i64 }, { i64*, i64 }* %9, i32 0, i32 0, !dbg !1801
  store i64* %11, i64** %14, align 8, !dbg !1801
  %15 = getelementptr inbounds { i64*, i64 }, { i64*, i64 }* %9, i32 0, i32 1, !dbg !1801
  store i64 %13, i64* %15, align 8, !dbg !1801
  %16 = getelementptr inbounds %"std::fmt::Arguments", %"std::fmt::Arguments"* %0, i32 0, i32 5, !dbg !1801
  %17 = getelementptr inbounds { [0 x { i8*, i64* }]*, i64 }, { [0 x { i8*, i64* }]*, i64 }* %16, i32 0, i32 0, !dbg !1801
  store [0 x { i8*, i64* }]* %args.0, [0 x { i8*, i64* }]** %17, align 8, !dbg !1801
  %18 = getelementptr inbounds { [0 x { i8*, i64* }]*, i64 }, { [0 x { i8*, i64* }]*, i64 }* %16, i32 0, i32 1, !dbg !1801
  store i64 %args.1, i64* %18, align 8, !dbg !1801
  ret void, !dbg !1802
}

; <core::sync::atomic::AtomicUsize>::new
; Function Attrs: inlinehint nonlazybind uwtable
define internal i64 @_RNvMs15_NtNtCs3p84KrD9aKt_4core4sync6atomicNtB6_11AtomicUsize3newCsedCAef59i8L_14waitgroup_test(i64 %v) unnamed_addr #1 !dbg !1803 {
start:
  %v.dbg.spill = alloca i64, align 8
  %0 = alloca %"std::sync::atomic::AtomicUsize", align 8
  store i64 %v, i64* %v.dbg.spill, align 8
  call void @llvm.dbg.declare(metadata i64* %v.dbg.spill, metadata !1808, metadata !DIExpression()), !dbg !1809
; call <core::cell::UnsafeCell<usize>>::new
  %_2 = call i64 @_RNvMsJ_NtCs3p84KrD9aKt_4core4cellINtB5_10UnsafeCelljE3newCs48Yq53b35jF_15crossbeam_utils(i64 %v), !dbg !1810
  br label %bb1, !dbg !1810

bb1:                                              ; preds = %start
  %1 = bitcast %"std::sync::atomic::AtomicUsize"* %0 to i64*, !dbg !1811
  store i64 %_2, i64* %1, align 8, !dbg !1811
  %2 = bitcast %"std::sync::atomic::AtomicUsize"* %0 to i64*, !dbg !1812
  %3 = load i64, i64* %2, align 8, !dbg !1812
  ret i64 %3, !dbg !1812
}

; <core::sync::atomic::AtomicUsize>::fetch_add
; Function Attrs: inlinehint nonlazybind uwtable
define internal i64 @_RNvMs15_NtNtCs3p84KrD9aKt_4core4sync6atomicNtB6_11AtomicUsize9fetch_addCsedCAef59i8L_14waitgroup_test(%"std::sync::atomic::AtomicUsize"* align 8 dereferenceable(8) %self, i64 %val, i8 %order) unnamed_addr #1 !dbg !1813 {
start:
  %order.dbg.spill = alloca i8, align 1
  %val.dbg.spill = alloca i64, align 8
  %self.dbg.spill = alloca %"std::sync::atomic::AtomicUsize"*, align 8
  store %"std::sync::atomic::AtomicUsize"* %self, %"std::sync::atomic::AtomicUsize"** %self.dbg.spill, align 8
  call void @llvm.dbg.declare(metadata %"std::sync::atomic::AtomicUsize"** %self.dbg.spill, metadata !1818, metadata !DIExpression()), !dbg !1821
  store i64 %val, i64* %val.dbg.spill, align 8
  call void @llvm.dbg.declare(metadata i64* %val.dbg.spill, metadata !1819, metadata !DIExpression()), !dbg !1822
  store i8 %order, i8* %order.dbg.spill, align 1
  call void @llvm.dbg.declare(metadata i8* %order.dbg.spill, metadata !1820, metadata !DIExpression()), !dbg !1823
  %_5 = bitcast %"std::sync::atomic::AtomicUsize"* %self to i64*, !dbg !1824
; call <core::cell::UnsafeCell<usize>>::get
  %_4 = call i64* @_RNvMsK_NtCs3p84KrD9aKt_4core4cellINtB5_10UnsafeCelljE3getCs48Yq53b35jF_15crossbeam_utils(i64* align 8 dereferenceable(8) %_5), !dbg !1824
  br label %bb1, !dbg !1824

bb1:                                              ; preds = %start
; call core::sync::atomic::atomic_add::<usize>
  %0 = call i64 @_RINvNtNtCs3p84KrD9aKt_4core4sync6atomic10atomic_addjECs48Yq53b35jF_15crossbeam_utils(i64* %_4, i64 %val, i8 %order), !dbg !1825
  br label %bb2, !dbg !1825

bb2:                                              ; preds = %bb1
  ret i64 %0, !dbg !1826
}

; <core::sync::atomic::AtomicUsize>::fetch_sub
; Function Attrs: inlinehint nonlazybind uwtable
define internal i64 @_RNvMs15_NtNtCs3p84KrD9aKt_4core4sync6atomicNtB6_11AtomicUsize9fetch_subCsedCAef59i8L_14waitgroup_test(%"std::sync::atomic::AtomicUsize"* align 8 dereferenceable(8) %self, i64 %val, i8 %order) unnamed_addr #1 !dbg !1827 {
start:
  %order.dbg.spill = alloca i8, align 1
  %val.dbg.spill = alloca i64, align 8
  %self.dbg.spill = alloca %"std::sync::atomic::AtomicUsize"*, align 8
  store %"std::sync::atomic::AtomicUsize"* %self, %"std::sync::atomic::AtomicUsize"** %self.dbg.spill, align 8
  call void @llvm.dbg.declare(metadata %"std::sync::atomic::AtomicUsize"** %self.dbg.spill, metadata !1829, metadata !DIExpression()), !dbg !1832
  store i64 %val, i64* %val.dbg.spill, align 8
  call void @llvm.dbg.declare(metadata i64* %val.dbg.spill, metadata !1830, metadata !DIExpression()), !dbg !1833
  store i8 %order, i8* %order.dbg.spill, align 1
  call void @llvm.dbg.declare(metadata i8* %order.dbg.spill, metadata !1831, metadata !DIExpression()), !dbg !1834
  %_5 = bitcast %"std::sync::atomic::AtomicUsize"* %self to i64*, !dbg !1835
; call <core::cell::UnsafeCell<usize>>::get
  %_4 = call i64* @_RNvMsK_NtCs3p84KrD9aKt_4core4cellINtB5_10UnsafeCelljE3getCs48Yq53b35jF_15crossbeam_utils(i64* align 8 dereferenceable(8) %_5), !dbg !1835
  br label %bb1, !dbg !1835

bb1:                                              ; preds = %start
; call core::sync::atomic::atomic_sub::<usize>
  %0 = call i64 @_RINvNtNtCs3p84KrD9aKt_4core4sync6atomic10atomic_subjECs48Yq53b35jF_15crossbeam_utils(i64* %_4, i64 %val, i8 %order), !dbg !1836
  br label %bb2, !dbg !1836

bb2:                                              ; preds = %bb1
  ret i64 %0, !dbg !1837
}

; <core::ptr::unique::Unique<dyn std::error::Error + core::marker::Send + core::marker::Sync>>::as_ptr
; Function Attrs: inlinehint nonlazybind uwtable
define internal { {}*, [3 x i64]* } @_RNvMs1_NtNtCs3p84KrD9aKt_4core3ptr6uniqueINtB5_6UniqueDNtNtCs2bNvlddUlXM_3std5error5ErrorNtNtB9_6marker4SendNtB1r_4SyncEL_E6as_ptrCsedCAef59i8L_14waitgroup_test(i8* nonnull %self.0, i64* noalias readonly align 8 dereferenceable(24) %self.1) unnamed_addr #1 !dbg !1838 {
start:
  %self.dbg.spill = alloca { i8*, i64* }, align 8
  %0 = getelementptr inbounds { i8*, i64* }, { i8*, i64* }* %self.dbg.spill, i32 0, i32 0
  store i8* %self.0, i8** %0, align 8
  %1 = getelementptr inbounds { i8*, i64* }, { i8*, i64* }* %self.dbg.spill, i32 0, i32 1
  store i64* %self.1, i64** %1, align 8
  call void @llvm.dbg.declare(metadata { i8*, i64* }* %self.dbg.spill, metadata !1842, metadata !DIExpression()), !dbg !1843
  %_2.0 = bitcast i8* %self.0 to {}*, !dbg !1844
  %_2.1 = bitcast i64* %self.1 to [3 x i64]*, !dbg !1844
  %2 = insertvalue { {}*, [3 x i64]* } undef, {}* %_2.0, 0, !dbg !1845
  %3 = insertvalue { {}*, [3 x i64]* } %2, [3 x i64]* %_2.1, 1, !dbg !1845
  ret { {}*, [3 x i64]* } %3, !dbg !1845
}

; <core::ptr::unique::Unique<dyn std::error::Error + core::marker::Send + core::marker::Sync>>::as_ref
; Function Attrs: inlinehint nonlazybind uwtable
define internal { {}*, [3 x i64]* } @_RNvMs1_NtNtCs3p84KrD9aKt_4core3ptr6uniqueINtB5_6UniqueDNtNtCs2bNvlddUlXM_3std5error5ErrorNtNtB9_6marker4SendNtB1r_4SyncEL_E6as_refCsedCAef59i8L_14waitgroup_test({ i8*, i64* }* noalias readonly align 8 dereferenceable(16) %self) unnamed_addr #1 !dbg !1846 {
start:
  %self.dbg.spill = alloca { i8*, i64* }*, align 8
  store { i8*, i64* }* %self, { i8*, i64* }** %self.dbg.spill, align 8
  call void @llvm.dbg.declare(metadata { i8*, i64* }** %self.dbg.spill, metadata !1855, metadata !DIExpression()), !dbg !1856
  %0 = getelementptr inbounds { i8*, i64* }, { i8*, i64* }* %self, i32 0, i32 0, !dbg !1857
  %_3.0 = load i8*, i8** %0, align 8, !dbg !1857, !nonnull !4
  %1 = getelementptr inbounds { i8*, i64* }, { i8*, i64* }* %self, i32 0, i32 1, !dbg !1857
  %_3.1 = load i64*, i64** %1, align 8, !dbg !1857, !nonnull !4
; call <core::ptr::unique::Unique<dyn std::error::Error + core::marker::Send + core::marker::Sync>>::as_ptr
  %2 = call { {}*, [3 x i64]* } @_RNvMs1_NtNtCs3p84KrD9aKt_4core3ptr6uniqueINtB5_6UniqueDNtNtCs2bNvlddUlXM_3std5error5ErrorNtNtB9_6marker4SendNtB1r_4SyncEL_E6as_ptrCsedCAef59i8L_14waitgroup_test(i8* nonnull %_3.0, i64* noalias readonly align 8 dereferenceable(24) %_3.1), !dbg !1857
  %_2.0 = extractvalue { {}*, [3 x i64]* } %2, 0, !dbg !1857
  %_2.1 = extractvalue { {}*, [3 x i64]* } %2, 1, !dbg !1857
  br label %bb1, !dbg !1857

bb1:                                              ; preds = %start
  %3 = insertvalue { {}*, [3 x i64]* } undef, {}* %_2.0, 0, !dbg !1858
  %4 = insertvalue { {}*, [3 x i64]* } %3, [3 x i64]* %_2.1, 1, !dbg !1858
  ret { {}*, [3 x i64]* } %4, !dbg !1858
}

; <core::ptr::unique::Unique<alloc::sync::ArcInner<core::cell::UnsafeCell<core::option::Option<core::result::Result<(), alloc::boxed::Box<dyn core::any::Any + core::marker::Send>>>>>>>::as_ptr
; Function Attrs: inlinehint nonlazybind uwtable
define internal %"alloc::sync::ArcInner<std::cell::UnsafeCell<std::option::Option<std::result::Result<(), std::boxed::Box<dyn std::any::Any + std::marker::Send>>>>>"* @_RNvMs1_NtNtCs3p84KrD9aKt_4core3ptr6uniqueINtB5_6UniqueINtNtCs8RW06R9lH2S_5alloc4sync8ArcInnerINtNtB9_4cell10UnsafeCellINtNtB9_6option6OptionINtNtB9_6result6ResultuINtNtBV_5boxed3BoxDNtNtB9_3any3AnyNtNtB9_6marker4SendEL_EEEEEE6as_ptrCsedCAef59i8L_14waitgroup_test(i64* nonnull %self) unnamed_addr #1 !dbg !1859 {
start:
  %self.dbg.spill = alloca i64*, align 8
  store i64* %self, i64** %self.dbg.spill, align 8
  call void @llvm.dbg.declare(metadata i64** %self.dbg.spill, metadata !1864, metadata !DIExpression()), !dbg !1865
  %_2 = bitcast i64* %self to %"alloc::sync::ArcInner<std::cell::UnsafeCell<std::option::Option<std::result::Result<(), std::boxed::Box<dyn std::any::Any + std::marker::Send>>>>>"*, !dbg !1866
  ret %"alloc::sync::ArcInner<std::cell::UnsafeCell<std::option::Option<std::result::Result<(), std::boxed::Box<dyn std::any::Any + std::marker::Send>>>>>"* %_2, !dbg !1867
}

; <core::ptr::unique::Unique<alloc::sync::ArcInner<core::cell::UnsafeCell<core::option::Option<core::result::Result<(), alloc::boxed::Box<dyn core::any::Any + core::marker::Send>>>>>>>::as_ref
; Function Attrs: inlinehint nonlazybind uwtable
define internal align 8 dereferenceable(40) %"alloc::sync::ArcInner<std::cell::UnsafeCell<std::option::Option<std::result::Result<(), std::boxed::Box<dyn std::any::Any + std::marker::Send>>>>>"* @_RNvMs1_NtNtCs3p84KrD9aKt_4core3ptr6uniqueINtB5_6UniqueINtNtCs8RW06R9lH2S_5alloc4sync8ArcInnerINtNtB9_4cell10UnsafeCellINtNtB9_6option6OptionINtNtB9_6result6ResultuINtNtBV_5boxed3BoxDNtNtB9_3any3AnyNtNtB9_6marker4SendEL_EEEEEE6as_refCsedCAef59i8L_14waitgroup_test(i64** noalias readonly align 8 dereferenceable(8) %self) unnamed_addr #1 !dbg !1868 {
start:
  %self.dbg.spill = alloca i64**, align 8
  store i64** %self, i64*** %self.dbg.spill, align 8
  call void @llvm.dbg.declare(metadata i64*** %self.dbg.spill, metadata !1874, metadata !DIExpression()), !dbg !1875
  %_3 = load i64*, i64** %self, align 8, !dbg !1876, !nonnull !4
; call <core::ptr::unique::Unique<alloc::sync::ArcInner<core::cell::UnsafeCell<core::option::Option<core::result::Result<(), alloc::boxed::Box<dyn core::any::Any + core::marker::Send>>>>>>>::as_ptr
  %_2 = call %"alloc::sync::ArcInner<std::cell::UnsafeCell<std::option::Option<std::result::Result<(), std::boxed::Box<dyn std::any::Any + std::marker::Send>>>>>"* @_RNvMs1_NtNtCs3p84KrD9aKt_4core3ptr6uniqueINtB5_6UniqueINtNtCs8RW06R9lH2S_5alloc4sync8ArcInnerINtNtB9_4cell10UnsafeCellINtNtB9_6option6OptionINtNtB9_6result6ResultuINtNtBV_5boxed3BoxDNtNtB9_3any3AnyNtNtB9_6marker4SendEL_EEEEEE6as_ptrCsedCAef59i8L_14waitgroup_test(i64* nonnull %_3), !dbg !1876
  br label %bb1, !dbg !1876

bb1:                                              ; preds = %start
  ret %"alloc::sync::ArcInner<std::cell::UnsafeCell<std::option::Option<std::result::Result<(), std::boxed::Box<dyn std::any::Any + std::marker::Send>>>>>"* %_2, !dbg !1877
}

; <core::ptr::unique::Unique<std::io::error::Custom>>::as_ptr
; Function Attrs: inlinehint nonlazybind uwtable
define internal %"std::io::error::Custom"* @_RNvMs1_NtNtCs3p84KrD9aKt_4core3ptr6uniqueINtB5_6UniqueNtNtNtCs2bNvlddUlXM_3std2io5error6CustomE6as_ptrCsedCAef59i8L_14waitgroup_test(i64* nonnull %self) unnamed_addr #1 !dbg !1878 {
start:
  %self.dbg.spill = alloca i64*, align 8
  store i64* %self, i64** %self.dbg.spill, align 8
  call void @llvm.dbg.declare(metadata i64** %self.dbg.spill, metadata !1882, metadata !DIExpression()), !dbg !1883
  %_2 = bitcast i64* %self to %"std::io::error::Custom"*, !dbg !1884
  ret %"std::io::error::Custom"* %_2, !dbg !1885
}

; <core::ptr::unique::Unique<std::io::error::Custom>>::as_ref
; Function Attrs: inlinehint nonlazybind uwtable
