; ModuleID = '4t05ckc08th858ty'
source_filename = "4t05ckc08th858ty"
target datalayout = "e-m:e-p270:32:32-p271:32:32-p272:64:64-i64:64-f80:128-n8:16:32:64-S128"
target triple = "x86_64-unknown-linux-gnu"

%"[closure@std::thread::Builder::spawn_unchecked<[closure@src/main.rs:25:20: 44:7], ()>::{closure#0}]" = type { [0 x i64], i64*, [0 x i64], i64*, [0 x i64], %"[closure@src/main.rs:25:20: 44:7]", [0 x i64], i64*, [0 x i64] }
%"[closure@src/main.rs:25:20: 44:7]" = type { [0 x i64], i64*, [0 x i64], { i64, i8* }, [0 x i64] }
%"std::io::Error" = type { [0 x i64], %"std::io::error::Repr", [0 x i64] }
%"std::io::error::Repr" = type { [0 x i8], i8, [15 x i8] }
%"std::fmt::Formatter" = type { [0 x i64], { i64, i64 }, [0 x i64], { i64, i64 }, [0 x i64], { {}*, [3 x i64]* }, [0 x i32], i32, [0 x i32], i32, [0 x i8], i8, [7 x i8] }
%"std::sync::mpsc::RecvError" = type {}
%"std::sync::atomic::AtomicUsize" = type { [0 x i64], i64, [0 x i64] }
%"std::result::Result<std::thread::JoinHandle<()>, std::io::Error>" = type { [0 x i64], i64, [4 x i64] }
%"std::thread::Builder" = type { [0 x i64], %"std::option::Option<std::string::String>", [0 x i64], { i64, i64 }, [0 x i64] }
%"std::option::Option<std::string::String>" = type { [0 x i64], {}*, [2 x i64] }
%"std::result::Result<std::sys::unix::thread::Thread, std::io::Error>" = type { [0 x i64], i64, [2 x i64] }
%"std::thread::JoinInner<()>" = type { [0 x i64], { i64, i64 }, [0 x i64], i64*, [0 x i64], i64*, [0 x i64] }
%"std::thread::JoinHandle<()>" = type { [0 x i64], %"std::thread::JoinInner<()>", [0 x i64] }
%"std::option::Option<std::result::Result<(), std::boxed::Box<dyn std::any::Any + std::marker::Send>>>" = type { [0 x i64], i64, [2 x i64] }
%"std::cell::UnsafeCell<std::option::Option<std::result::Result<(), std::boxed::Box<dyn std::any::Any + std::marker::Send>>>>" = type { [0 x i64], %"std::option::Option<std::result::Result<(), std::boxed::Box<dyn std::any::Any + std::marker::Send>>>", [0 x i64] }
%"std::result::Result<std::sys::unix::thread::Thread, std::io::Error>::Ok" = type { [1 x i64], i64, [0 x i64] }
%"std::option::Option<std::sys::unix::thread::Thread>::Some" = type { [1 x i64], i64, [0 x i64] }
%"std::result::Result<std::thread::JoinHandle<()>, std::io::Error>::Ok" = type { [1 x i64], %"std::thread::JoinHandle<()>", [0 x i64] }
%"std::result::Result<std::sys::unix::thread::Thread, std::io::Error>::Err" = type { [1 x i64], %"std::io::Error", [0 x i64] }
%"std::alloc::AllocError" = type {}
%"std::result::Result<std::ptr::NonNull<u8>, std::alloc::AllocError>::Err" = type { [0 x i8], %"std::alloc::AllocError", [0 x i8] }
%"std::option::Option<usize>::Some" = type { [1 x i64], i64, [0 x i64] }
%"std::result::Result<bool, std::sync::mpsc::stream::Failure<usize>>" = type { [0 x i8], i8, [23 x i8] }
%"std::result::Result<bool, std::sync::mpsc::Receiver<usize>>" = type { [0 x i8], i8, [23 x i8] }
%"std::result::Result<bool, std::sync::mpsc::Receiver<usize>>::Err" = type { [1 x i64], { i64, i8* }, [0 x i64] }
%"std::result::Result<bool, std::sync::mpsc::Receiver<usize>>::Ok" = type { [1 x i8], i8, [0 x i8] }
%"std::result::Result<bool, std::sync::mpsc::stream::Failure<usize>>::Ok" = type { [1 x i8], i8, [0 x i8] }
%"std::result::Result<bool, std::sync::mpsc::stream::Failure<usize>>::Err" = type { [1 x i64], { i64, i8* }, [0 x i64] }
%"std::result::Result<bool, std::sync::mpsc::oneshot::Failure<usize>>" = type { [0 x i8], i8, [23 x i8] }
%"std::result::Result<bool, std::sync::mpsc::oneshot::Failure<usize>>::Ok" = type { [1 x i8], i8, [0 x i8] }
%"std::result::Result<bool, std::sync::mpsc::oneshot::Failure<usize>>::Err" = type { [1 x i64], { i64, i8* }, [0 x i64] }
%"[closure@std::sync::mpsc::Receiver<usize>::recv::{closure#0}]" = type {}
%"std::result::Result<usize, std::sync::mpsc::sync::Failure>" = type { [0 x i8], i8, [15 x i8] }
%"std::result::Result<usize, std::sync::mpsc::sync::Failure>::Err" = type { [1 x i8], i8, [0 x i8] }
%"std::result::Result<usize, std::sync::mpsc::sync::Failure>::Ok" = type { [1 x i64], i64, [0 x i64] }
%"std::result::Result<usize, std::sync::mpsc::RecvError>::Ok" = type { [1 x i64], i64, [0 x i64] }
%"std::result::Result<usize, std::sync::mpsc::RecvError>::Err" = type { [8 x i8], %"std::sync::mpsc::RecvError", [0 x i8] }
%"[closure@std::sync::mpsc::oneshot::Packet<usize>::abort_selection::{closure#0}]" = type {}
%"std::result::Result<usize, usize>::Err" = type { [1 x i64], i64, [0 x i64] }
%"std::result::Result<usize, usize>::Ok" = type { [1 x i64], i64, [0 x i64] }
%"std::result::Result<(), usize>::Err" = type { [1 x i64], i64, [0 x i64] }
%"std::result::Result<(), std::sync::mpsc::SendError<usize>>::Ok" = type { [8 x i8], {}, [0 x i8] }
%"std::result::Result<(), std::sync::mpsc::SendError<usize>>::Err" = type { [1 x i64], i64, [0 x i64] }
%"alloc::sync::ArcInner<std::cell::UnsafeCell<std::option::Option<std::result::Result<(), std::boxed::Box<dyn std::any::Any + std::marker::Send>>>>>" = type { [0 x i64], %"std::sync::atomic::AtomicUsize", [0 x i64], %"std::sync::atomic::AtomicUsize", [0 x i64], %"std::cell::UnsafeCell<std::option::Option<std::result::Result<(), std::boxed::Box<dyn std::any::Any + std::marker::Send>>>>", [0 x i64] }
%"alloc::sync::ArcInner<std::sync::Mutex<std::vec::Vec<u8>>>" = type { [0 x i64], %"std::sync::atomic::AtomicUsize", [0 x i64], %"std::sync::atomic::AtomicUsize", [0 x i64], %"std::sync::Mutex<std::vec::Vec<u8>>", [0 x i64] }
%"std::sync::Mutex<std::vec::Vec<u8>>" = type { [0 x i64], i64*, [0 x i8], %"std::sys_common::poison::Flag", [7 x i8], %"std::cell::UnsafeCell<std::vec::Vec<u8>>", [0 x i64] }
%"std::sys_common::poison::Flag" = type { [0 x i8], %"std::sync::atomic::AtomicBool", [0 x i8] }
%"std::sync::atomic::AtomicBool" = type { [0 x i8], i8, [0 x i8] }
%"std::cell::UnsafeCell<std::vec::Vec<u8>>" = type { [0 x i64], %"std::vec::Vec<u8>", [0 x i64] }
%"std::vec::Vec<u8>" = type { [0 x i64], { i8*, i64 }, [0 x i64], i64, [0 x i64] }
%"alloc::sync::ArcInner<std::sync::Mutex<usize>>" = type { [0 x i64], %"std::sync::atomic::AtomicUsize", [0 x i64], %"std::sync::atomic::AtomicUsize", [0 x i64], %"std::sync::Mutex<usize>", [0 x i64] }
%"std::sync::Mutex<usize>" = type { [0 x i64], i64*, [0 x i8], %"std::sys_common::poison::Flag", [7 x i8], i64, [0 x i64] }
%"alloc::sync::ArcInner<std::sync::mpsc::sync::Packet<usize>>" = type { [0 x i64], %"std::sync::atomic::AtomicUsize", [0 x i64], %"std::sync::atomic::AtomicUsize", [0 x i64], %"std::sync::mpsc::sync::Packet<usize>", [0 x i64] }
%"std::sync::mpsc::sync::Packet<usize>" = type { [0 x i64], %"std::sync::atomic::AtomicUsize", [0 x i64], %"std::sync::Mutex<std::sync::mpsc::sync::State<usize>>", [0 x i64] }
%"std::sync::Mutex<std::sync::mpsc::sync::State<usize>>" = type { [0 x i64], i64*, [0 x i8], %"std::sys_common::poison::Flag", [7 x i8], %"std::cell::UnsafeCell<std::sync::mpsc::sync::State<usize>>", [0 x i64] }
%"std::cell::UnsafeCell<std::sync::mpsc::sync::State<usize>>" = type { [0 x i64], %"std::sync::mpsc::sync::State<usize>", [0 x i64] }
%"std::sync::mpsc::sync::State<usize>" = type { [0 x i64], { i64*, i64* }, [0 x i64], { i64, i8* }, [0 x i64], %"std::sync::mpsc::sync::Buffer<usize>", [0 x i64], i64, [0 x i64], i8*, [0 x i8], i8, [7 x i8] }
%"std::sync::mpsc::sync::Buffer<usize>" = type { [0 x i64], %"std::vec::Vec<std::option::Option<usize>>", [0 x i64], i64, [0 x i64], i64, [0 x i64] }
%"std::vec::Vec<std::option::Option<usize>>" = type { [0 x i64], { i64*, i64 }, [0 x i64], i64, [0 x i64] }
%"alloc::sync::ArcInner<std::sync::mpsc::shared::Packet<usize>>" = type { [0 x i64], %"std::sync::atomic::AtomicUsize", [0 x i64], %"std::sync::atomic::AtomicUsize", [0 x i64], %"std::sync::mpsc::shared::Packet<usize>", [0 x i64] }
%"std::sync::mpsc::shared::Packet<usize>" = type { [0 x i64], %"std::sync::mpsc::mpsc_queue::Queue<usize>", [0 x i64], %"std::sync::atomic::AtomicIsize", [0 x i64], i64, [0 x i64], %"std::sync::atomic::AtomicUsize", [0 x i64], %"std::sync::atomic::AtomicUsize", [0 x i64], %"std::sync::atomic::AtomicIsize", [0 x i64], %"std::sync::Mutex<()>", [0 x i8], %"std::sync::atomic::AtomicBool", [7 x i8] }
%"std::sync::mpsc::mpsc_queue::Queue<usize>" = type { [0 x i64], %"std::sync::atomic::AtomicPtr<std::sync::mpsc::mpsc_queue::Node<usize>>", [0 x i64], i64*, [0 x i64] }
%"std::sync::atomic::AtomicPtr<std::sync::mpsc::mpsc_queue::Node<usize>>" = type { [0 x i64], i64*, [0 x i64] }
%"std::sync::atomic::AtomicIsize" = type { [0 x i64], i64, [0 x i64] }
%"std::sync::Mutex<()>" = type { [0 x i64], i64*, [0 x i8], %"std::sys_common::poison::Flag", [0 x i8], %"std::cell::UnsafeCell<()>", [7 x i8] }
%"std::cell::UnsafeCell<()>" = type { [0 x i8], {}, [0 x i8] }
%"alloc::sync::ArcInner<std::sync::mpsc::stream::Packet<usize>>" = type { [0 x i64], %"std::sync::atomic::AtomicUsize", [0 x i64], %"std::sync::atomic::AtomicUsize", [6 x i64], %"std::sync::mpsc::stream::Packet<usize>", [0 x i64] }
%"std::sync::mpsc::stream::Packet<usize>" = type { [0 x i64], %"std::sync::mpsc::spsc_queue::Queue<std::sync::mpsc::stream::Message<usize>, std::sync::mpsc::stream::ProducerAddition, std::sync::mpsc::stream::ConsumerAddition>", [0 x i64] }
%"std::sync::mpsc::spsc_queue::Queue<std::sync::mpsc::stream::Message<usize>, std::sync::mpsc::stream::ProducerAddition, std::sync::mpsc::stream::ConsumerAddition>" = type { [0 x i64], %"std::sync::mpsc::cache_aligned::CacheAligned<std::sync::mpsc::spsc_queue::Consumer<std::sync::mpsc::stream::Message<usize>, std::sync::mpsc::stream::ConsumerAddition>>", [0 x i64], %"std::sync::mpsc::cache_aligned::CacheAligned<std::sync::mpsc::spsc_queue::Producer<std::sync::mpsc::stream::Message<usize>, std::sync::mpsc::stream::ProducerAddition>>", [0 x i64] }
%"std::sync::mpsc::cache_aligned::CacheAligned<std::sync::mpsc::spsc_queue::Consumer<std::sync::mpsc::stream::Message<usize>, std::sync::mpsc::stream::ConsumerAddition>>" = type { [0 x i64], %"std::sync::mpsc::cache_aligned::Aligner", [0 x i64], %"std::sync::mpsc::spsc_queue::Consumer<std::sync::mpsc::stream::Message<usize>, std::sync::mpsc::stream::ConsumerAddition>", [3 x i64] }
%"std::sync::mpsc::cache_aligned::Aligner" = type {}
%"std::sync::mpsc::spsc_queue::Consumer<std::sync::mpsc::stream::Message<usize>, std::sync::mpsc::stream::ConsumerAddition>" = type { [0 x i64], i64*, [0 x i64], %"std::sync::atomic::AtomicPtr<std::sync::mpsc::spsc_queue::Node<std::sync::mpsc::stream::Message<usize>>>", [0 x i64], i64, [0 x i64], %"std::sync::atomic::AtomicUsize", [0 x i64], i64, [0 x i64] }
%"std::sync::atomic::AtomicPtr<std::sync::mpsc::spsc_queue::Node<std::sync::mpsc::stream::Message<usize>>>" = type { [0 x i64], i64*, [0 x i64] }
%"std::sync::mpsc::cache_aligned::CacheAligned<std::sync::mpsc::spsc_queue::Producer<std::sync::mpsc::stream::Message<usize>, std::sync::mpsc::stream::ProducerAddition>>" = type { [0 x i64], %"std::sync::mpsc::cache_aligned::Aligner", [0 x i64], %"std::sync::mpsc::spsc_queue::Producer<std::sync::mpsc::stream::Message<usize>, std::sync::mpsc::stream::ProducerAddition>", [2 x i64] }
%"std::sync::mpsc::spsc_queue::Producer<std::sync::mpsc::stream::Message<usize>, std::sync::mpsc::stream::ProducerAddition>" = type { [0 x i64], i64*, [0 x i64], i64*, [0 x i64], i64*, [0 x i64], %"std::sync::mpsc::stream::ProducerAddition", [0 x i64] }
%"std::sync::mpsc::stream::ProducerAddition" = type { [0 x i64], %"std::sync::atomic::AtomicIsize", [0 x i64], %"std::sync::atomic::AtomicUsize", [0 x i8], %"std::sync::atomic::AtomicBool", [7 x i8] }
%"alloc::sync::ArcInner<std::sync::mpsc::oneshot::Packet<usize>>" = type { [0 x i64], %"std::sync::atomic::AtomicUsize", [0 x i64], %"std::sync::atomic::AtomicUsize", [0 x i64], %"std::sync::mpsc::oneshot::Packet<usize>", [0 x i64] }
%"std::sync::mpsc::oneshot::Packet<usize>" = type { [0 x i64], %"std::sync::atomic::AtomicUsize", [0 x i64], { i64, i64 }, [0 x i64], { i64, i8* }, [0 x i64] }
%"alloc::sync::ArcInner<std::thread::Inner>" = type { [0 x i64], %"std::sync::atomic::AtomicUsize", [0 x i64], %"std::sync::atomic::AtomicUsize", [0 x i64], %"std::thread::Inner", [0 x i64] }
%"std::thread::Inner" = type { [0 x i64], { i8*, i64 }, [0 x i64], i64, [0 x i32], %"std::sys_common::thread_parker::futex::Parker", [1 x i32] }
%"std::sys_common::thread_parker::futex::Parker" = type { [0 x i32], %"std::sync::atomic::AtomicI32", [0 x i32] }
%"std::sync::atomic::AtomicI32" = type { [0 x i32], i32, [0 x i32] }
%"alloc::sync::ArcInner<std::sync::mpsc::blocking::Inner>" = type { [0 x i64], %"std::sync::atomic::AtomicUsize", [0 x i64], %"std::sync::atomic::AtomicUsize", [0 x i64], %"std::sync::mpsc::blocking::Inner", [0 x i64] }
%"std::sync::mpsc::blocking::Inner" = type { [0 x i64], i64*, [0 x i8], %"std::sync::atomic::AtomicBool", [7 x i8] }
%"std::sync::mpsc::mpsc_queue::Node<usize>" = type { [0 x i64], %"std::sync::atomic::AtomicPtr<std::sync::mpsc::mpsc_queue::Node<usize>>", [0 x i64], { i64, i64 }, [0 x i64] }
%"std::sync::mpsc::spsc_queue::Node<std::sync::mpsc::stream::Message<usize>>" = type { [0 x i64], %"std::option::Option<std::sync::mpsc::stream::Message<usize>>", [0 x i64], %"std::sync::atomic::AtomicPtr<std::sync::mpsc::spsc_queue::Node<std::sync::mpsc::stream::Message<usize>>>", [0 x i8], i8, [7 x i8] }
%"std::option::Option<std::sync::mpsc::stream::Message<usize>>" = type { [0 x i64], i64, [2 x i64] }
%"std::io::error::Custom" = type { [0 x i64], { {}*, [3 x i64]* }, [0 x i8], i8, [7 x i8] }
%"std::sys::unix::mutex::Mutex" = type { [0 x i64], %"std::cell::UnsafeCell<libc::unix::linux_like::linux::pthread_mutex_t>", [0 x i64] }
%"std::cell::UnsafeCell<libc::unix::linux_like::linux::pthread_mutex_t>" = type { [0 x i64], %"libc::unix::linux_like::linux::pthread_mutex_t", [0 x i64] }
%"libc::unix::linux_like::linux::pthread_mutex_t" = type { [0 x i8], [40 x i8], [0 x i8] }
%"core::fmt::Opaque" = type {}
%"std::panic::AssertUnwindSafe<[closure@std::thread::Builder::spawn_unchecked<[closure@src/main.rs:25:20: 44:7], ()>::{closure#0}::{closure#0}]>" = type { [0 x i64], %"[closure@std::thread::Builder::spawn_unchecked<[closure@src/main.rs:25:20: 44:7], ()>::{closure#0}::{closure#0}]", [0 x i64] }
%"[closure@std::thread::Builder::spawn_unchecked<[closure@src/main.rs:25:20: 44:7], ()>::{closure#0}::{closure#0}]" = type { [0 x i64], %"[closure@src/main.rs:25:20: 44:7]", [0 x i64] }
%"std::panic::Location" = type { [0 x i64], { [0 x i8]*, i64 }, [0 x i32], i32, [0 x i32], i32, [0 x i32] }
%"[closure@std::rt::begin_panic<&str>::{closure#0}]" = type { [0 x i64], { [0 x i8]*, i64 }, [0 x i64], %"std::panic::Location"*, [0 x i64] }
%"std::mem::ManuallyDrop<std::panic::AssertUnwindSafe<[closure@std::thread::Builder::spawn_unchecked<[closure@src/main.rs:25:20: 44:7], ()>::{closure#0}::{closure#0}]>>" = type { [0 x i64], %"std::panic::AssertUnwindSafe<[closure@std::thread::Builder::spawn_unchecked<[closure@src/main.rs:25:20: 44:7], ()>::{closure#0}::{closure#0}]>", [0 x i64] }
%"std::panicking::r#try::Data<std::panic::AssertUnwindSafe<[closure@std::thread::Builder::spawn_unchecked<[closure@src/main.rs:25:20: 44:7], ()>::{closure#0}::{closure#0}]>, ()>" = type { [3 x i64] }
%"std::mem::ManuallyDrop<()>" = type { [0 x i8], {}, [0 x i8] }
%"std::result::Result<(), std::boxed::Box<dyn std::any::Any + std::marker::Send>>::Ok" = type { [0 x i8], {}, [0 x i8] }
%"std::alloc::Global" = type {}
%"std::option::Option<std::result::Result<(), std::boxed::Box<dyn std::any::Any + std::marker::Send>>>::Some" = type { [1 x i64], { i8*, i8* }, [0 x i64] }
%"std::option::Option<std::sync::mpsc::stream::Message<usize>>::Some" = type { [0 x i64], %"std::sync::mpsc::stream::Message<usize>", [0 x i64] }
%"std::sync::mpsc::stream::Message<usize>" = type { [0 x i64], i64, [2 x i64] }
%"std::option::Option<std::string::String>::Some" = type { [0 x i64], %"std::string::String", [0 x i64] }
%"std::string::String" = type { [0 x i64], %"std::vec::Vec<u8>", [0 x i64] }
%"std::result::Result<std::thread::JoinHandle<()>, std::io::Error>::Err" = type { [1 x i64], %"std::io::Error", [0 x i64] }
%"std::result::Result<usize, std::sync::mpsc::stream::Failure<usize>>" = type { [0 x i64], i64, [2 x i64] }
%"std::result::Result<usize, std::sync::mpsc::stream::Failure<usize>>::Err" = type { [1 x i64], { i64, i8* }, [0 x i64] }
%"std::sync::mpsc::Flavor<usize>::Oneshot" = type { [1 x i64], i64*, [0 x i64] }
%"std::sync::mpsc::Flavor<usize>::Stream" = type { [1 x i64], i64*, [0 x i64] }
%"std::sync::mpsc::Flavor<usize>::Shared" = type { [1 x i64], i64*, [0 x i64] }
%"std::sync::mpsc::Flavor<usize>::Sync" = type { [1 x i64], i64*, [0 x i64] }
%"std::sync::mpsc::stream::Message<usize>::GoUp" = type { [1 x i64], { i64, i8* }, [0 x i64] }
%"std::io::error::Repr::Custom" = type { [1 x i64], %"std::io::error::Custom"*, [0 x i64] }
%"std::sync::mpsc::sync::Blocker::BlockedSender" = type { [1 x i64], i64*, [0 x i64] }
%"std::sync::mpsc::sync::Blocker::BlockedReceiver" = type { [1 x i64], i64*, [0 x i64] }
%"std::sync::mpsc::stream::UpgradeResult::UpWoke" = type { [1 x i64], i64*, [0 x i64] }
%"std::sync::mpsc::oneshot::UpgradeResult::UpWoke" = type { [1 x i64], i64*, [0 x i64] }
%"std::ptr::Repr<std::option::Option<usize>>" = type { [2 x i64] }
%"std::ptr::Repr<u8>" = type { [2 x i64] }
%"std::mem::MaybeUninit<std::option::Option<std::sync::mpsc::stream::Message<usize>>>" = type { [3 x i64] }
%"std::mem::ManuallyDrop<std::option::Option<std::sync::mpsc::stream::Message<usize>>>" = type { [0 x i64], %"std::option::Option<std::sync::mpsc::stream::Message<usize>>", [0 x i64] }
%"std::mem::MaybeUninit<std::panic::AssertUnwindSafe<[closure@std::thread::Builder::spawn_unchecked<[closure@src/main.rs:25:20: 44:7], ()>::{closure#0}::{closure#0}]>>" = type { [3 x i64] }
%"std::mem::MaybeUninit<std::vec::Vec<std::option::Option<usize>>>" = type { [3 x i64] }
%"std::mem::ManuallyDrop<std::vec::Vec<std::option::Option<usize>>>" = type { [0 x i64], %"std::vec::Vec<std::option::Option<usize>>", [0 x i64] }
%"std::mem::MaybeUninit<std::alloc::Global>" = type { [0 x i8] }
%"std::mem::ManuallyDrop<std::alloc::Global>" = type { [0 x i8], %"std::alloc::Global", [0 x i8] }
%"std::result::Result<std::sync::MutexGuard<std::sync::mpsc::sync::State<usize>>, std::sync::PoisonError<std::sync::MutexGuard<std::sync::mpsc::sync::State<usize>>>>" = type { [0 x i64], i64, [2 x i64] }
%"std::result::Result<std::sys_common::poison::Guard, std::sync::PoisonError<std::sys_common::poison::Guard>>::Err" = type { [1 x i8], i8, [0 x i8] }
%"std::result::Result<std::sys_common::poison::Guard, std::sync::PoisonError<std::sys_common::poison::Guard>>::Ok" = type { [1 x i8], i8, [0 x i8] }
%"std::result::Result<std::sync::MutexGuard<std::sync::mpsc::sync::State<usize>>, std::sync::PoisonError<std::sync::MutexGuard<std::sync::mpsc::sync::State<usize>>>>::Ok" = type { [1 x i64], { i64*, i8 }, [0 x i64] }
%"std::result::Result<std::sync::MutexGuard<std::sync::mpsc::sync::State<usize>>, std::sync::PoisonError<std::sync::MutexGuard<std::sync::mpsc::sync::State<usize>>>>::Err" = type { [1 x i64], { i64*, i8 }, [0 x i64] }
%"std::result::Result<std::sync::MutexGuard<usize>, std::sync::PoisonError<std::sync::MutexGuard<usize>>>" = type { [0 x i64], i64, [2 x i64] }
%"std::result::Result<std::sync::MutexGuard<usize>, std::sync::PoisonError<std::sync::MutexGuard<usize>>>::Ok" = type { [1 x i64], { i64*, i8 }, [0 x i64] }
%"std::result::Result<std::sync::MutexGuard<usize>, std::sync::PoisonError<std::sync::MutexGuard<usize>>>::Err" = type { [1 x i64], { i64*, i8 }, [0 x i64] }
%"std::result::Result<std::sync::MutexGuard<()>, std::sync::PoisonError<std::sync::MutexGuard<()>>>" = type { [0 x i64], i64, [2 x i64] }
%"std::result::Result<std::sync::MutexGuard<()>, std::sync::PoisonError<std::sync::MutexGuard<()>>>::Ok" = type { [1 x i64], { i64*, i8 }, [0 x i64] }
%"std::result::Result<std::sync::MutexGuard<()>, std::sync::PoisonError<std::sync::MutexGuard<()>>>::Err" = type { [1 x i64], { i64*, i8 }, [0 x i64] }
%"std::result::Result<isize, isize>::Ok" = type { [1 x i64], i64, [0 x i64] }
%"std::result::Result<isize, isize>::Err" = type { [1 x i64], i64, [0 x i64] }
%"std::ffi::CStr" = type { [0 x i8], [0 x i8] }
%"std::option::Option<std::ops::Range<usize>>" = type { [0 x i64], i64, [2 x i64] }
%"std::option::Option<std::time::Instant>" = type { [0 x i64], i64, [2 x i64] }
%"std::option::Option<()>::Some" = type { [1 x i8], {}, [0 x i8] }
%"std::fmt::Arguments" = type { [0 x i64], { [0 x { [0 x i8]*, i64 }]*, i64 }, [0 x i64], { i64*, i64 }, [0 x i64], { [0 x { i8*, i64* }]*, i64 }, [0 x i64] }
%"std::result::Result<usize, std::sync::mpsc::shared::Failure>" = type { [0 x i8], i8, [15 x i8] }
%"std::result::Result<usize, std::sync::mpsc::shared::Failure>::Err" = type { [1 x i8], i8, [0 x i8] }
%"std::option::Option<std::time::Instant>::Some" = type { [1 x i64], { i64, i64 }, [0 x i64] }
%"std::result::Result<(), usize>::Ok" = type { [8 x i8], {}, [0 x i8] }
%"std::sync::mpsc::mpsc_queue::PopResult<usize>::Data" = type { [1 x i64], i64, [0 x i64] }
%"std::result::Result<usize, std::sync::mpsc::shared::Failure>::Ok" = type { [1 x i64], i64, [0 x i64] }
%"std::sync::mpsc::stream::Message<usize>::Data" = type { [1 x i64], i64, [0 x i64] }
%"std::result::Result<usize, std::sync::mpsc::stream::Failure<usize>>::Ok" = type { [1 x i64], i64, [0 x i64] }
%"std::result::Result<(), std::sync::mpsc::blocking::SignalToken>::Ok" = type { [0 x i8], {}, [0 x i8] }
%"std::result::Result<usize, std::sync::mpsc::oneshot::Failure<usize>>" = type { [0 x i64], i64, [2 x i64] }
%"std::result::Result<usize, std::sync::mpsc::oneshot::Failure<usize>>::Err" = type { [1 x i64], { i64, i8* }, [0 x i64] }
%"std::result::Result<usize, std::sync::mpsc::oneshot::Failure<usize>>::Ok" = type { [1 x i64], i64, [0 x i64] }
%"std::marker::PhantomData<std::sync::mpsc::mpsc_queue::Node<usize>>" = type {}
%"std::marker::PhantomData<std::sync::mpsc::spsc_queue::Node<std::sync::mpsc::stream::Message<usize>>>" = type {}
%"std::marker::PhantomData<u8>" = type {}
%"std::marker::PhantomData<alloc::sync::ArcInner<std::cell::UnsafeCell<std::option::Option<std::result::Result<(), std::boxed::Box<dyn std::any::Any + std::marker::Send>>>>>>" = type {}
%"std::marker::PhantomData<alloc::sync::ArcInner<std::sync::Mutex<std::vec::Vec<u8>>>>" = type {}
%"std::marker::PhantomData<alloc::sync::ArcInner<std::sync::Mutex<usize>>>" = type {}
%"std::marker::PhantomData<alloc::sync::ArcInner<std::sync::mpsc::shared::Packet<usize>>>" = type {}
%"std::marker::PhantomData<alloc::sync::ArcInner<std::sync::mpsc::stream::Packet<usize>>>" = type {}
%"std::marker::PhantomData<alloc::sync::ArcInner<std::sync::mpsc::oneshot::Packet<usize>>>" = type {}
%"std::marker::PhantomData<alloc::sync::ArcInner<std::thread::Inner>>" = type {}
%"std::option::Option<(std::ptr::NonNull<u8>, std::alloc::Layout)>" = type { [0 x i64], {}*, [2 x i64] }
%"std::option::Option<(std::ptr::NonNull<u8>, std::alloc::Layout)>::Some" = type { [0 x i64], { [0 x i64], i8*, [0 x i64], { i64, i64 }, [0 x i64] }, [0 x i64] }
%"std::mem::MaybeUninit<std::ptr::swap_nonoverlapping_bytes::UnalignedBlock>" = type { [4 x i64] }
%"std::ptr::swap_nonoverlapping_bytes::UnalignedBlock" = type { [0 x i64], i64, [0 x i64], i64, [0 x i64], i64, [0 x i64], i64, [0 x i64] }
%"std::marker::PhantomData<dyn std::any::Any + std::marker::Send>" = type {}
%"std::result::Result<std::ptr::NonNull<[u8]>, std::alloc::AllocError>::Err" = type { [0 x i8], %"std::alloc::AllocError", [0 x i8] }
%"unwind::libunwind::_Unwind_Exception" = type { [0 x i64], i64, [0 x i64], void (i32, %"unwind::libunwind::_Unwind_Exception"*)*, [0 x i64], [6 x i64], [0 x i64] }
%"unwind::libunwind::_Unwind_Context" = type { [0 x i8] }

@vtable.0 = private unnamed_addr constant { void (%"[closure@std::thread::Builder::spawn_unchecked<[closure@src/main.rs:25:20: 44:7], ()>::{closure#0}]"*)*, i64, i64, void (%"[closure@std::thread::Builder::spawn_unchecked<[closure@src/main.rs:25:20: 44:7], ()>::{closure#0}]"*)* } { void (%"[closure@std::thread::Builder::spawn_unchecked<[closure@src/main.rs:25:20: 44:7], ()>::{closure#0}]"*)* @_RINvNtCs3p84KrD9aKt_4core3ptr13drop_in_placeNCINvMNtCs2bNvlddUlXM_3std6threadNtBM_7Builder15spawn_uncheckedNCNvCseoN0Z986GuA_10mutex_test4main0uE0EB1L_, i64 48, i64 8, void (%"[closure@std::thread::Builder::spawn_unchecked<[closure@src/main.rs:25:20: 44:7], ()>::{closure#0}]"*)* @_RNSNvYNCINvMNtCs2bNvlddUlXM_3std6threadNtBa_7Builder15spawn_uncheckedNCNvCseoN0Z986GuA_10mutex_test4main0uE0INtNtNtCs3p84KrD9aKt_4core3ops8function6FnOnceuE9call_once6vtableB19_ }, align 8, !dbg !0
@vtable.1 = private unnamed_addr constant { void (i64**)*, i64, i64, i32 (i64**)*, i32 (i64**)*, i32 (i64**)* } { void (i64**)* @_RINvNtCs3p84KrD9aKt_4core3ptr13drop_in_placeNCINvNtCs2bNvlddUlXM_3std2rt10lang_startuE0ECseoN0Z986GuA_10mutex_test, i64 8, i64 8, i32 (i64**)* @_RNCINvNtCs2bNvlddUlXM_3std2rt10lang_startuE0CseoN0Z986GuA_10mutex_test, i32 (i64**)* @_RNCINvNtCs2bNvlddUlXM_3std2rt10lang_startuE0CseoN0Z986GuA_10mutex_test, i32 (i64**)* @_RNSNvYNCINvNtCs2bNvlddUlXM_3std2rt10lang_startuE0INtNtNtCs3p84KrD9aKt_4core3ops8function6FnOnceuE9call_once6vtableCseoN0Z986GuA_10mutex_test }, align 8, !dbg !717
@alloc136 = private unnamed_addr constant <{ [22 x i8] }> <{ [22 x i8] c"failed to spawn thread" }>, align 1
@alloc137 = private unnamed_addr constant <{ [77 x i8] }> <{ [77 x i8] c"/rustc/e38fb306b7f5e65cca34df2dab1f0db15e1defb4/library/std/src/thread/mod.rs" }>, align 1
@alloc138 = private unnamed_addr constant <{ i8*, [16 x i8] }> <{ i8* getelementptr inbounds (<{ [77 x i8] }>, <{ [77 x i8] }>* @alloc137, i32 0, i32 0, i32 0), [16 x i8] c"M\00\00\00\00\00\00\00l\02\00\00\1D\00\00\00" }>, align 8
@alloc151 = private unnamed_addr constant <{ [49 x i8] }> <{ [49 x i8] c"there is no such thing as an acquire/release load" }>, align 1
@alloc347 = private unnamed_addr constant <{ [79 x i8] }> <{ [79 x i8] c"/rustc/e38fb306b7f5e65cca34df2dab1f0db15e1defb4/library/core/src/sync/atomic.rs" }>, align 1
@alloc141 = private unnamed_addr constant <{ i8*, [16 x i8] }> <{ i8* getelementptr inbounds (<{ [79 x i8] }>, <{ [79 x i8] }>* @alloc347, i32 0, i32 0, i32 0), [16 x i8] c"O\00\00\00\00\00\00\004\09\00\00\17\00\00\00" }>, align 8
@alloc152 = private unnamed_addr constant <{ [40 x i8] }> <{ [40 x i8] c"there is no such thing as a release load" }>, align 1
@alloc144 = private unnamed_addr constant <{ i8*, [16 x i8] }> <{ i8* getelementptr inbounds (<{ [79 x i8] }>, <{ [79 x i8] }>* @alloc347, i32 0, i32 0, i32 0), [16 x i8] c"O\00\00\00\00\00\00\003\09\00\00\18\00\00\00" }>, align 8
@alloc165 = private unnamed_addr constant <{ [50 x i8] }> <{ [50 x i8] c"there is no such thing as an acquire/release store" }>, align 1
@alloc155 = private unnamed_addr constant <{ i8*, [16 x i8] }> <{ i8* getelementptr inbounds (<{ [79 x i8] }>, <{ [79 x i8] }>* @alloc347, i32 0, i32 0, i32 0), [16 x i8] c"O\00\00\00\00\00\00\00&\09\00\00\17\00\00\00" }>, align 8
@alloc166 = private unnamed_addr constant <{ [42 x i8] }> <{ [42 x i8] c"there is no such thing as an acquire store" }>, align 1
@alloc158 = private unnamed_addr constant <{ i8*, [16 x i8] }> <{ i8* getelementptr inbounds (<{ [79 x i8] }>, <{ [79 x i8] }>* @alloc347, i32 0, i32 0, i32 0), [16 x i8] c"O\00\00\00\00\00\00\00%\09\00\00\18\00\00\00" }>, align 8
@alloc176 = private unnamed_addr constant <{ [60 x i8] }> <{ [60 x i8] c"a failure ordering can't be stronger than a success ordering" }>, align 1
@alloc169 = private unnamed_addr constant <{ i8*, [16 x i8] }> <{ i8* getelementptr inbounds (<{ [79 x i8] }>, <{ [79 x i8] }>* @alloc347, i32 0, i32 0, i32 0), [16 x i8] c"O\00\00\00\00\00\00\00\7F\09\00\00\12\00\00\00" }>, align 8
@alloc177 = private unnamed_addr constant <{ [61 x i8] }> <{ [61 x i8] c"there is no such thing as an acquire/release failure ordering" }>, align 1
@alloc172 = private unnamed_addr constant <{ i8*, [16 x i8] }> <{ i8* getelementptr inbounds (<{ [79 x i8] }>, <{ [79 x i8] }>* @alloc347, i32 0, i32 0, i32 0), [16 x i8] c"O\00\00\00\00\00\00\00}\09\00\00\1C\00\00\00" }>, align 8
@alloc178 = private unnamed_addr constant <{ [52 x i8] }> <{ [52 x i8] c"there is no such thing as a release failure ordering" }>, align 1
@alloc175 = private unnamed_addr constant <{ i8*, [16 x i8] }> <{ i8* getelementptr inbounds (<{ [79 x i8] }>, <{ [79 x i8] }>* @alloc347, i32 0, i32 0, i32 0), [16 x i8] c"O\00\00\00\00\00\00\00~\09\00\00\1D\00\00\00" }>, align 8
@alloc362 = private unnamed_addr constant <{ [40 x i8] }> <{ [40 x i8] c"internal error: entered unreachable code" }>, align 1
@alloc357 = private unnamed_addr constant <{ [81 x i8] }> <{ [81 x i8] c"/rustc/e38fb306b7f5e65cca34df2dab1f0db15e1defb4/library/std/src/sync/mpsc/sync.rs" }>, align 1
@alloc181 = private unnamed_addr constant <{ i8*, [16 x i8] }> <{ i8* getelementptr inbounds (<{ [81 x i8] }>, <{ [81 x i8] }>* @alloc357, i32 0, i32 0, i32 0), [16 x i8] c"Q\00\00\00\00\00\00\00\82\00\00\00\0E\00\00\00" }>, align 8
@alloc183 = private unnamed_addr constant <{ i8*, [16 x i8] }> <{ i8* getelementptr inbounds (<{ [81 x i8] }>, <{ [81 x i8] }>* @alloc357, i32 0, i32 0, i32 0), [16 x i8] c"Q\00\00\00\00\00\00\00\86\00\00\00%\00\00\00" }>, align 8
@alloc186 = private unnamed_addr constant <{ i8*, [16 x i8] }> <{ i8* getelementptr inbounds (<{ [81 x i8] }>, <{ [81 x i8] }>* @alloc357, i32 0, i32 0, i32 0), [16 x i8] c"Q\00\00\00\00\00\00\00q\00\00\00\0E\00\00\00" }>, align 8
@alloc188 = private unnamed_addr constant <{ i8*, [16 x i8] }> <{ i8* getelementptr inbounds (<{ [81 x i8] }>, <{ [81 x i8] }>* @alloc357, i32 0, i32 0, i32 0), [16 x i8] c"Q\00\00\00\00\00\00\00u\00\00\00\11\00\00\00" }>, align 8
@vtable.2 = private unnamed_addr constant { void ({ i8*, i64 }*)*, i64, i64, { {}*, [3 x i64]* } ({ i8*, i64 }*)*, { {}*, [3 x i64]* } ({ i8*, i64 }*)* } { void ({ i8*, i64 }*)* @_RINvNtCs3p84KrD9aKt_4core3ptr13drop_in_placeINtNvNtCs2bNvlddUlXM_3std9panicking11begin_panic12PanicPayloadReEECseoN0Z986GuA_10mutex_test, i64 16, i64 8, { {}*, [3 x i64]* } ({ i8*, i64 }*)* @_RNvXs_NvNtCs2bNvlddUlXM_3std9panicking11begin_panicINtB4_12PanicPayloadReENtNtCs3p84KrD9aKt_4core5panic7BoxMeUp8take_boxCseoN0Z986GuA_10mutex_test, { {}*, [3 x i64]* } ({ i8*, i64 }*)* @_RNvXs_NvNtCs2bNvlddUlXM_3std9panicking11begin_panicINtB4_12PanicPayloadReENtNtCs3p84KrD9aKt_4core5panic7BoxMeUp3getCseoN0Z986GuA_10mutex_test }, align 8, !dbg !728
@alloc191 = private unnamed_addr constant <{ [43 x i8] }> <{ [43 x i8] c"called `Option::unwrap()` on a `None` value" }>, align 1
@0 = private unnamed_addr constant <{ [16 x i8] }> <{ [16 x i8] c"\08\00\00\00\00\00\00\00\00\00\00\00\00\00\00\00" }>, align 8
@alloc230 = private unnamed_addr constant <{ [26 x i8] }> <{ [26 x i8] c"assertion failed: ptr != 0" }>, align 1
@alloc372 = private unnamed_addr constant <{ [83 x i8] }> <{ [83 x i8] c"/rustc/e38fb306b7f5e65cca34df2dab1f0db15e1defb4/library/std/src/sync/mpsc/shared.rs" }>, align 1
@alloc194 = private unnamed_addr constant <{ i8*, [16 x i8] }> <{ i8* getelementptr inbounds (<{ [83 x i8] }>, <{ [83 x i8] }>* @alloc372, i32 0, i32 0, i32 0), [16 x i8] c"S\00\00\00\00\00\00\00\9F\01\00\00\09\00\00\00" }>, align 8
@alloc196 = private unnamed_addr constant <{ i8*, [16 x i8] }> <{ i8* getelementptr inbounds (<{ [83 x i8] }>, <{ [83 x i8] }>* @alloc372, i32 0, i32 0, i32 0), [16 x i8] c"S\00\00\00\00\00\00\00U\00\00\00!\00\00\00" }>, align 8
@alloc198 = private unnamed_addr constant <{ i8*, [16 x i8] }> <{ i8* getelementptr inbounds (<{ [83 x i8] }>, <{ [83 x i8] }>* @alloc372, i32 0, i32 0, i32 0), [16 x i8] c"S\00\00\00\00\00\00\00\BE\01\00\002\00\00\00" }>, align 8
@alloc39 = private unnamed_addr constant <{ [8 x i8] }> zeroinitializer, align 8
@alloc30 = private unnamed_addr constant <{ [45 x i8] }> <{ [45 x i8] c"assertion failed: `(left == right)`\0A  left: `" }>, align 1
@alloc31 = private unnamed_addr constant <{ [12 x i8] }> <{ [12 x i8] c"`,\0A right: `" }>, align 1
@alloc32 = private unnamed_addr constant <{ [1 x i8] }> <{ [1 x i8] c"`" }>, align 1
@alloc29 = private unnamed_addr constant <{ i8*, [8 x i8], i8*, [8 x i8], i8*, [8 x i8] }> <{ i8* getelementptr inbounds (<{ [45 x i8] }>, <{ [45 x i8] }>* @alloc30, i32 0, i32 0, i32 0), [8 x i8] c"-\00\00\00\00\00\00\00", i8* getelementptr inbounds (<{ [12 x i8] }>, <{ [12 x i8] }>* @alloc31, i32 0, i32 0, i32 0), [8 x i8] c"\0C\00\00\00\00\00\00\00", i8* getelementptr inbounds (<{ [1 x i8] }>, <{ [1 x i8] }>* @alloc32, i32 0, i32 0, i32 0), [8 x i8] c"\01\00\00\00\00\00\00\00" }>, align 8
@alloc200 = private unnamed_addr constant <{ i8*, [16 x i8] }> <{ i8* getelementptr inbounds (<{ [83 x i8] }>, <{ [83 x i8] }>* @alloc372, i32 0, i32 0, i32 0), [16 x i8] c"S\00\00\00\00\00\00\00\CD\01\00\00\0D\00\00\00" }>, align 8
@alloc239 = private unnamed_addr constant <{ [26 x i8] }> <{ [26 x i8] c"assertion failed: cur >= 0" }>, align 1
@alloc203 = private unnamed_addr constant <{ i8*, [16 x i8] }> <{ i8* getelementptr inbounds (<{ [83 x i8] }>, <{ [83 x i8] }>* @alloc372, i32 0, i32 0, i32 0), [16 x i8] c"S\00\00\00\00\00\00\00\D1\01\00\00\0D\00\00\00" }>, align 8
@alloc204 = private unnamed_addr constant <{ [41 x i8] }> <{ [41 x i8] c"assertion failed: *old == 0 || *old == -1" }>, align 1
@alloc206 = private unnamed_addr constant <{ i8*, [16 x i8] }> <{ i8* getelementptr inbounds (<{ [83 x i8] }>, <{ [83 x i8] }>* @alloc372, i32 0, i32 0, i32 0), [16 x i8] c"S\00\00\00\00\00\00\00\DE\01\00\00\11\00\00\00" }>, align 8
@alloc208 = private unnamed_addr constant <{ i8*, [16 x i8] }> <{ i8* getelementptr inbounds (<{ [83 x i8] }>, <{ [83 x i8] }>* @alloc372, i32 0, i32 0, i32 0), [16 x i8] c"S\00\00\00\00\00\00\00_\00\00\00\0D\00\00\00" }>, align 8
@alloc210 = private unnamed_addr constant <{ i8*, [16 x i8] }> <{ i8* getelementptr inbounds (<{ [83 x i8] }>, <{ [83 x i8] }>* @alloc372, i32 0, i32 0, i32 0), [16 x i8] c"S\00\00\00\00\00\00\00`\00\00\00\0D\00\00\00" }>, align 8
@alloc94 = private unnamed_addr constant <{ [1 x i8] }> zeroinitializer, align 1
@alloc211 = private unnamed_addr constant <{ [21 x i8] }> <{ [21 x i8] c"inconsistent => empty" }>, align 1
@alloc213 = private unnamed_addr constant <{ i8*, [16 x i8] }> <{ i8* getelementptr inbounds (<{ [83 x i8] }>, <{ [83 x i8] }>* @alloc372, i32 0, i32 0, i32 0), [16 x i8] c"S\00\00\00\00\00\00\000\01\00\00(\00\00\00" }>, align 8
@alloc214 = private unnamed_addr constant <{ [41 x i8] }> <{ [41 x i8] c"assertion failed: *self.steals.get() >= 0" }>, align 1
@alloc216 = private unnamed_addr constant <{ i8*, [16 x i8] }> <{ i8* getelementptr inbounds (<{ [83 x i8] }>, <{ [83 x i8] }>* @alloc372, i32 0, i32 0, i32 0), [16 x i8] c"S\00\00\00\00\00\00\00F\01\00\00\15\00\00\00" }>, align 8
@alloc219 = private unnamed_addr constant <{ i8*, [16 x i8] }> <{ i8* getelementptr inbounds (<{ [83 x i8] }>, <{ [83 x i8] }>* @alloc372, i32 0, i32 0, i32 0), [16 x i8] c"S\00\00\00\00\00\00\00V\01\00\003\00\00\00" }>, align 8
@alloc221 = private unnamed_addr constant <{ i8*, [16 x i8] }> <{ i8* getelementptr inbounds (<{ [83 x i8] }>, <{ [83 x i8] }>* @alloc372, i32 0, i32 0, i32 0), [16 x i8] c"S\00\00\00\00\00\00\00\FB\00\00\00\0D\00\00\00" }>, align 8
@alloc261 = private unnamed_addr constant <{ [24 x i8] }> <{ [24 x i8] c"assertion failed: n >= 0" }>, align 1
@alloc224 = private unnamed_addr constant <{ i8*, [16 x i8] }> <{ i8* getelementptr inbounds (<{ [83 x i8] }>, <{ [83 x i8] }>* @alloc372, i32 0, i32 0, i32 0), [16 x i8] c"S\00\00\00\00\00\00\00\08\01\00\00\15\00\00\00" }>, align 8
@alloc68 = private unnamed_addr constant <{ [28 x i8] }> <{ [28 x i8] c"bad number of channels left " }>, align 1
@alloc67 = private unnamed_addr constant <{ i8*, [8 x i8] }> <{ i8* getelementptr inbounds (<{ [28 x i8] }>, <{ [28 x i8] }>* @alloc68, i32 0, i32 0, i32 0), [8 x i8] c"\1C\00\00\00\00\00\00\00" }>, align 8
@alloc226 = private unnamed_addr constant <{ i8*, [16 x i8] }> <{ i8* getelementptr inbounds (<{ [83 x i8] }>, <{ [83 x i8] }>* @alloc372, i32 0, i32 0, i32 0), [16 x i8] c"S\00\00\00\00\00\00\00p\01\00\00\12\00\00\00" }>, align 8
@alloc229 = private unnamed_addr constant <{ i8*, [16 x i8] }> <{ i8* getelementptr inbounds (<{ [83 x i8] }>, <{ [83 x i8] }>* @alloc372, i32 0, i32 0, i32 0), [16 x i8] c"S\00\00\00\00\00\00\00y\01\00\00\11\00\00\00" }>, align 8
@alloc376 = private unnamed_addr constant <{ [83 x i8] }> <{ [83 x i8] c"/rustc/e38fb306b7f5e65cca34df2dab1f0db15e1defb4/library/std/src/sync/mpsc/stream.rs" }>, align 1
@alloc232 = private unnamed_addr constant <{ i8*, [16 x i8] }> <{ i8* getelementptr inbounds (<{ [83 x i8] }>, <{ [83 x i8] }>* @alloc376, i32 0, i32 0, i32 0), [16 x i8] c"S\00\00\00\00\00\00\00\97\00\00\00\09\00\00\00" }>, align 8
@alloc234 = private unnamed_addr constant <{ i8*, [16 x i8] }> <{ i8* getelementptr inbounds (<{ [83 x i8] }>, <{ [83 x i8] }>* @alloc376, i32 0, i32 0, i32 0), [16 x i8] c"S\00\00\00\00\00\00\00z\01\00\00\0D\00\00\00" }>, align 8
@alloc236 = private unnamed_addr constant <{ i8*, [16 x i8] }> <{ i8* getelementptr inbounds (<{ [83 x i8] }>, <{ [83 x i8] }>* @alloc376, i32 0, i32 0, i32 0), [16 x i8] c"S\00\00\00\00\00\00\00{\01\00\00\0D\00\00\00" }>, align 8
@alloc238 = private unnamed_addr constant <{ i8*, [16 x i8] }> <{ i8* getelementptr inbounds (<{ [83 x i8] }>, <{ [83 x i8] }>* @alloc376, i32 0, i32 0, i32 0), [16 x i8] c"S\00\00\00\00\00\00\00\88\01\00\00\0D\00\00\00" }>, align 8
@alloc241 = private unnamed_addr constant <{ i8*, [16 x i8] }> <{ i8* getelementptr inbounds (<{ [83 x i8] }>, <{ [83 x i8] }>* @alloc376, i32 0, i32 0, i32 0), [16 x i8] c"S\00\00\00\00\00\00\00\8C\01\00\00\0D\00\00\00" }>, align 8
@alloc243 = private unnamed_addr constant <{ i8*, [16 x i8] }> <{ i8* getelementptr inbounds (<{ [83 x i8] }>, <{ [83 x i8] }>* @alloc376, i32 0, i32 0, i32 0), [16 x i8] c"S\00\00\00\00\00\00\00\A4\01\00\00\11\00\00\00" }>, align 8
@alloc246 = private unnamed_addr constant <{ i8*, [16 x i8] }> <{ i8* getelementptr inbounds (<{ [83 x i8] }>, <{ [83 x i8] }>* @alloc376, i32 0, i32 0, i32 0), [16 x i8] c"S\00\00\00\00\00\00\00\B5\01\00\00\1A\00\00\00" }>, align 8
@alloc249 = private unnamed_addr constant <{ i8*, [16 x i8] }> <{ i8* getelementptr inbounds (<{ [83 x i8] }>, <{ [83 x i8] }>* @alloc376, i32 0, i32 0, i32 0), [16 x i8] c"S\00\00\00\00\00\00\00\8D\00\00\00\11\00\00\00" }>, align 8
@alloc250 = private unnamed_addr constant <{ [34 x i8] }> <{ [34 x i8] c"assertion failed: second.is_none()" }>, align 1
@alloc252 = private unnamed_addr constant <{ i8*, [16 x i8] }> <{ i8* getelementptr inbounds (<{ [83 x i8] }>, <{ [83 x i8] }>* @alloc376, i32 0, i32 0, i32 0), [16 x i8] c"S\00\00\00\00\00\00\00\82\00\00\00\11\00\00\00" }>, align 8
@alloc253 = private unnamed_addr constant <{ [67 x i8] }> <{ [67 x i8] c"assertion failed: *self.queue.consumer_addition().steals.get() >= 0" }>, align 1
@alloc255 = private unnamed_addr constant <{ i8*, [16 x i8] }> <{ i8* getelementptr inbounds (<{ [83 x i8] }>, <{ [83 x i8] }>* @alloc376, i32 0, i32 0, i32 0), [16 x i8] c"S\00\00\00\00\00\00\00\F5\00\00\00\15\00\00\00" }>, align 8
@alloc257 = private unnamed_addr constant <{ i8*, [16 x i8] }> <{ i8* getelementptr inbounds (<{ [83 x i8] }>, <{ [83 x i8] }>* @alloc376, i32 0, i32 0, i32 0), [16 x i8] c"S\00\00\00\00\00\00\00\9F\00\00\00\09\00\00\00" }>, align 8
@alloc260 = private unnamed_addr constant <{ i8*, [16 x i8] }> <{ i8* getelementptr inbounds (<{ [83 x i8] }>, <{ [83 x i8] }>* @alloc376, i32 0, i32 0, i32 0), [16 x i8] c"S\00\00\00\00\00\00\00\AC\00\00\00\11\00\00\00" }>, align 8
@alloc263 = private unnamed_addr constant <{ i8*, [16 x i8] }> <{ i8* getelementptr inbounds (<{ [83 x i8] }>, <{ [83 x i8] }>* @alloc376, i32 0, i32 0, i32 0), [16 x i8] c"S\00\00\00\00\00\00\00 \01\00\00\11\00\00\00" }>, align 8
@alloc378 = private unnamed_addr constant <{ [84 x i8] }> <{ [84 x i8] c"/rustc/e38fb306b7f5e65cca34df2dab1f0db15e1defb4/library/std/src/sync/mpsc/oneshot.rs" }>, align 1
@alloc266 = private unnamed_addr constant <{ i8*, [16 x i8] }> <{ i8* getelementptr inbounds (<{ [84 x i8] }>, <{ [84 x i8] }>* @alloc378, i32 0, i32 0, i32 0), [16 x i8] c"T\00\00\00\00\00\00\00\19\01\00\00\16\00\00\00" }>, align 8
@alloc267 = private unnamed_addr constant <{ [44 x i8] }> <{ [44 x i8] c"sending on a oneshot that's already sent on " }>, align 1
@alloc269 = private unnamed_addr constant <{ i8*, [16 x i8] }> <{ i8* getelementptr inbounds (<{ [84 x i8] }>, <{ [84 x i8] }>* @alloc378, i32 0, i32 0, i32 0), [16 x i8] c"T\00\00\00\00\00\00\00W\00\00\00\16\00\00\00" }>, align 8
@alloc270 = private unnamed_addr constant <{ [46 x i8] }> <{ [46 x i8] c"assertion failed: (*self.data.get()).is_none()" }>, align 1
@alloc272 = private unnamed_addr constant <{ i8*, [16 x i8] }> <{ i8* getelementptr inbounds (<{ [84 x i8] }>, <{ [84 x i8] }>* @alloc378, i32 0, i32 0, i32 0), [16 x i8] c"T\00\00\00\00\00\00\00Y\00\00\00\0D\00\00\00" }>, align 8
@alloc275 = private unnamed_addr constant <{ i8*, [16 x i8] }> <{ i8* getelementptr inbounds (<{ [84 x i8] }>, <{ [84 x i8] }>* @alloc378, i32 0, i32 0, i32 0), [16 x i8] c"T\00\00\00\00\00\00\00j\00\00\00\19\00\00\00" }>, align 8
@alloc277 = private unnamed_addr constant <{ i8*, [16 x i8] }> <{ i8* getelementptr inbounds (<{ [84 x i8] }>, <{ [84 x i8] }>* @alloc378, i32 0, i32 0, i32 0), [16 x i8] c"T\00\00\00\00\00\00\00f\00\00\008\00\00\00" }>, align 8
@alloc278 = private unnamed_addr constant <{ [15 x i8] }> <{ [15 x i8] c"upgrading again" }>, align 1
@alloc280 = private unnamed_addr constant <{ i8*, [16 x i8] }> <{ i8* getelementptr inbounds (<{ [84 x i8] }>, <{ [84 x i8] }>* @alloc378, i32 0, i32 0, i32 0), [16 x i8] c"T\00\00\00\00\00\00\00\CB\00\00\00\16\00\00\00" }>, align 8
@alloc283 = private unnamed_addr constant <{ i8*, [16 x i8] }> <{ i8* getelementptr inbounds (<{ [84 x i8] }>, <{ [84 x i8] }>* @alloc378, i32 0, i32 0, i32 0), [16 x i8] c"T\00\00\00\00\00\00\00\BE\00\00\00\16\00\00\00" }>, align 8
@alloc286 = private unnamed_addr constant <{ i8*, [16 x i8] }> <{ i8* getelementptr inbounds (<{ [84 x i8] }>, <{ [84 x i8] }>* @alloc378, i32 0, i32 0, i32 0), [16 x i8] c"T\00\00\00\00\00\00\00\AC\00\00\00!\00\00\00" }>, align 8
@alloc289 = private unnamed_addr constant <{ i8*, [16 x i8] }> <{ i8* getelementptr inbounds (<{ [84 x i8] }>, <{ [84 x i8] }>* @alloc378, i32 0, i32 0, i32 0), [16 x i8] c"T\00\00\00\00\00\00\00\FC\00\00\00\12\00\00\00" }>, align 8
@alloc291 = private unnamed_addr constant <{ i8*, [16 x i8] }> <{ i8* getelementptr inbounds (<{ [84 x i8] }>, <{ [84 x i8] }>* @alloc378, i32 0, i32 0, i32 0), [16 x i8] c"T\00\00\00\00\00\00\00\F8\00\00\000\00\00\00" }>, align 8
@alloc292 = private unnamed_addr constant <{ [41 x i8] }> <{ [41 x i8] c"assertion failed: (*tail).value.is_none()" }>, align 1
@alloc298 = private unnamed_addr constant <{ [87 x i8] }> <{ [87 x i8] c"/rustc/e38fb306b7f5e65cca34df2dab1f0db15e1defb4/library/std/src/sync/mpsc/mpsc_queue.rs" }>, align 1
@alloc294 = private unnamed_addr constant <{ i8*, [16 x i8] }> <{ i8* getelementptr inbounds (<{ [87 x i8] }>, <{ [87 x i8] }>* @alloc298, i32 0, i32 0, i32 0), [16 x i8] c"W\00\00\00\00\00\00\00^\00\00\00\11\00\00\00" }>, align 8
@alloc300 = private unnamed_addr constant <{ [41 x i8] }> <{ [41 x i8] c"assertion failed: (*next).value.is_some()" }>, align 1
@alloc297 = private unnamed_addr constant <{ i8*, [16 x i8] }> <{ i8* getelementptr inbounds (<{ [87 x i8] }>, <{ [87 x i8] }>* @alloc298, i32 0, i32 0, i32 0), [16 x i8] c"W\00\00\00\00\00\00\00_\00\00\00\11\00\00\00" }>, align 8
@alloc299 = private unnamed_addr constant <{ i8*, [16 x i8] }> <{ i8* getelementptr inbounds (<{ [87 x i8] }>, <{ [87 x i8] }>* @alloc298, i32 0, i32 0, i32 0), [16 x i8] c"W\00\00\00\00\00\00\00`\00\00\000\00\00\00" }>, align 8
@alloc304 = private unnamed_addr constant <{ [87 x i8] }> <{ [87 x i8] c"/rustc/e38fb306b7f5e65cca34df2dab1f0db15e1defb4/library/std/src/sync/mpsc/spsc_queue.rs" }>, align 1
@alloc302 = private unnamed_addr constant <{ i8*, [16 x i8] }> <{ i8* getelementptr inbounds (<{ [87 x i8] }>, <{ [87 x i8] }>* @alloc304, i32 0, i32 0, i32 0), [16 x i8] c"W\00\00\00\00\00\00\00\AB\00\00\00\0D\00\00\00" }>, align 8
@alloc303 = private unnamed_addr constant <{ [38 x i8] }> <{ [38 x i8] c"assertion failed: (*n).value.is_none()" }>, align 1
@alloc305 = private unnamed_addr constant <{ i8*, [16 x i8] }> <{ i8* getelementptr inbounds (<{ [87 x i8] }>, <{ [87 x i8] }>* @alloc304, i32 0, i32 0, i32 0), [16 x i8] c"W\00\00\00\00\00\00\00\82\00\00\00\0D\00\00\00" }>, align 8
@alloc308 = private unnamed_addr constant <{ i8*, [16 x i8] }> <{ i8* getelementptr inbounds (<{ [81 x i8] }>, <{ [81 x i8] }>* @alloc357, i32 0, i32 0, i32 0), [16 x i8] c"Q\00\00\00\00\00\00\00N\01\00\00(\00\00\00" }>, align 8
@alloc310 = private unnamed_addr constant <{ i8*, [16 x i8] }> <{ i8* getelementptr inbounds (<{ [81 x i8] }>, <{ [81 x i8] }>* @alloc357, i32 0, i32 0, i32 0), [16 x i8] c"Q\00\00\00\00\00\00\00\0E\01\00\00*\00\00\00" }>, align 8
@alloc311 = private unnamed_addr constant <{ [88 x i8] }> <{ [88 x i8] c"assertion failed: guard.buf.size() > 0 || (deadline.is_some() && !woke_up_after_waiting)" }>, align 1
@alloc313 = private unnamed_addr constant <{ i8*, [16 x i8] }> <{ i8* getelementptr inbounds (<{ [81 x i8] }>, <{ [81 x i8] }>* @alloc357, i32 0, i32 0, i32 0), [16 x i8] c"Q\00\00\00\00\00\00\00$\01\00\00\09\00\00\00" }>, align 8
@alloc315 = private unnamed_addr constant <{ i8*, [16 x i8] }> <{ i8* getelementptr inbounds (<{ [81 x i8] }>, <{ [81 x i8] }>* @alloc357, i32 0, i32 0, i32 0), [16 x i8] c"Q\00\00\00\00\00\00\00\82\01\00\00*\00\00\00" }>, align 8
@alloc318 = private unnamed_addr constant <{ i8*, [16 x i8] }> <{ i8* getelementptr inbounds (<{ [81 x i8] }>, <{ [81 x i8] }>* @alloc357, i32 0, i32 0, i32 0), [16 x i8] c"Q\00\00\00\00\00\00\00\98\01\00\00$\00\00\00" }>, align 8
@alloc320 = private unnamed_addr constant <{ i8*, [16 x i8] }> <{ i8* getelementptr inbounds (<{ [81 x i8] }>, <{ [81 x i8] }>* @alloc357, i32 0, i32 0, i32 0), [16 x i8] c"Q\00\00\00\00\00\00\00\95\01\00\00(\00\00\00" }>, align 8
@vtable.3 = private unnamed_addr constant { void (%"std::io::Error"*)*, i64, i64, i1 (%"std::io::Error"*, %"std::fmt::Formatter"*)* } { void (%"std::io::Error"*)* @_RINvNtCs3p84KrD9aKt_4core3ptr13drop_in_placeNtNtNtCs2bNvlddUlXM_3std2io5error5ErrorECseoN0Z986GuA_10mutex_test, i64 16, i64 8, i1 (%"std::io::Error"*, %"std::fmt::Formatter"*)* @"_ZN58_$LT$std..io..error..Error$u20$as$u20$core..fmt..Debug$GT$3fmt17h9846d30f97792c23E" }, align 8, !dbg !754
@alloc325 = private unnamed_addr constant <{ [43 x i8] }> <{ [43 x i8] c"called `Result::unwrap()` on an `Err` value" }>, align 1
@vtable.4 = private unnamed_addr constant { void ({ i64*, i8 }*)*, i64, i64, i1 ({ i64*, i8 }*, %"std::fmt::Formatter"*)* } { void ({ i64*, i8 }*)* @_RINvNtCs3p84KrD9aKt_4core3ptr13drop_in_placeINtNtNtCs2bNvlddUlXM_3std10sys_common6poison11PoisonErrorINtNtNtBN_4sync5mutex10MutexGuardINtNtNtB1G_4mpsc4sync5StatejEEEECseoN0Z986GuA_10mutex_test, i64 16, i64 8, i1 ({ i64*, i8 }*, %"std::fmt::Formatter"*)* @_RNvXs_NtNtCs2bNvlddUlXM_3std10sys_common6poisonINtB4_11PoisonErrorINtNtNtB8_4sync5mutex10MutexGuardINtNtNtB17_4mpsc4sync5StatejEEENtNtCs3p84KrD9aKt_4core3fmt5Debug3fmtCseoN0Z986GuA_10mutex_test }, align 8, !dbg !815
@vtable.5 = private unnamed_addr constant { void ({ i64*, i8 }*)*, i64, i64, i1 ({ i64*, i8 }*, %"std::fmt::Formatter"*)* } { void ({ i64*, i8 }*)* @_RINvNtCs3p84KrD9aKt_4core3ptr13drop_in_placeINtNtNtCs2bNvlddUlXM_3std10sys_common6poison11PoisonErrorINtNtNtBN_4sync5mutex10MutexGuardjEEECseoN0Z986GuA_10mutex_test, i64 16, i64 8, i1 ({ i64*, i8 }*, %"std::fmt::Formatter"*)* @_RNvXs_NtNtCs2bNvlddUlXM_3std10sys_common6poisonINtB4_11PoisonErrorINtNtNtB8_4sync5mutex10MutexGuardjEENtNtCs3p84KrD9aKt_4core3fmt5Debug3fmtCseoN0Z986GuA_10mutex_test }, align 8, !dbg !831
@vtable.6 = private unnamed_addr constant { void ({ i64*, i8 }*)*, i64, i64, i1 ({ i64*, i8 }*, %"std::fmt::Formatter"*)* } { void ({ i64*, i8 }*)* @_RINvNtCs3p84KrD9aKt_4core3ptr13drop_in_placeINtNtNtCs2bNvlddUlXM_3std10sys_common6poison11PoisonErrorINtNtNtBN_4sync5mutex10MutexGuarduEEECseoN0Z986GuA_10mutex_test, i64 16, i64 8, i1 ({ i64*, i8 }*, %"std::fmt::Formatter"*)* @_RNvXs_NtNtCs2bNvlddUlXM_3std10sys_common6poisonINtB4_11PoisonErrorINtNtNtB8_4sync5mutex10MutexGuarduEENtNtCs3p84KrD9aKt_4core3fmt5Debug3fmtCseoN0Z986GuA_10mutex_test }, align 8, !dbg !844
@vtable.7 = private unnamed_addr constant { void (%"std::sync::mpsc::RecvError"*)*, i64, i64, i1 (%"std::sync::mpsc::RecvError"*, %"std::fmt::Formatter"*)* } { void (%"std::sync::mpsc::RecvError"*)* @_RINvNtCs3p84KrD9aKt_4core3ptr13drop_in_placeNtNtNtCs2bNvlddUlXM_3std4sync4mpsc9RecvErrorECseoN0Z986GuA_10mutex_test, i64 0, i64 1, i1 (%"std::sync::mpsc::RecvError"*, %"std::fmt::Formatter"*)* @"_ZN63_$LT$std..sync..mpsc..RecvError$u20$as$u20$core..fmt..Debug$GT$3fmt17hca69b1e782813d76E" }, align 8, !dbg !857
@vtable.8 = private unnamed_addr constant { void (i64*)*, i64, i64, i1 (i64*, %"std::fmt::Formatter"*)* } { void (i64*)* @_RINvNtCs3p84KrD9aKt_4core3ptr13drop_in_placeINtNtNtCs2bNvlddUlXM_3std4sync4mpsc9SendErrorjEECseoN0Z986GuA_10mutex_test, i64 8, i64 8, i1 (i64*, %"std::fmt::Formatter"*)* @_RNvXsl_NtNtCs2bNvlddUlXM_3std4sync4mpscINtB5_9SendErrorjENtNtCs3p84KrD9aKt_4core3fmt5Debug3fmtCseoN0Z986GuA_10mutex_test }, align 8, !dbg !861
@alloc327 = private unnamed_addr constant <{ i8*, [16 x i8] }> <{ i8* getelementptr inbounds (<{ [81 x i8] }>, <{ [81 x i8] }>* @alloc357, i32 0, i32 0, i32 0), [16 x i8] c"Q\00\00\00\00\00\00\00\BD\01\00\00\16\00\00\00" }>, align 8
@str.9 = internal constant [57 x i8] c"attempt to calculate the remainder with a divisor of zero"
@alloc329 = private unnamed_addr constant <{ i8*, [16 x i8] }> <{ i8* getelementptr inbounds (<{ [81 x i8] }>, <{ [81 x i8] }>* @alloc357, i32 0, i32 0, i32 0), [16 x i8] c"Q\00\00\00\00\00\00\00\BE\01\00\00\1B\00\00\00" }>, align 8
@alloc331 = private unnamed_addr constant <{ i8*, [16 x i8] }> <{ i8* getelementptr inbounds (<{ [81 x i8] }>, <{ [81 x i8] }>* @alloc357, i32 0, i32 0, i32 0), [16 x i8] c"Q\00\00\00\00\00\00\00\BF\01\00\00\17\00\00\00" }>, align 8
@alloc363 = private unnamed_addr constant <{ [80 x i8] }> <{ [80 x i8] c"/rustc/e38fb306b7f5e65cca34df2dab1f0db15e1defb4/library/std/src/sync/mpsc/mod.rs" }>, align 1
@alloc334 = private unnamed_addr constant <{ i8*, [16 x i8] }> <{ i8* getelementptr inbounds (<{ [80 x i8] }>, <{ [80 x i8] }>* @alloc363, i32 0, i32 0, i32 0), [16 x i8] c"P\00\00\00\00\00\00\00\1B\03\00\00!\00\00\00" }>, align 8
@alloc336 = private unnamed_addr constant <{ i8*, [16 x i8] }> <{ i8* getelementptr inbounds (<{ [80 x i8] }>, <{ [80 x i8] }>* @alloc363, i32 0, i32 0, i32 0), [16 x i8] c"P\00\00\00\00\00\00\00\12\03\00\00,\00\00\00" }>, align 8
@alloc339 = private unnamed_addr constant <{ i8*, [16 x i8] }> <{ i8* getelementptr inbounds (<{ [80 x i8] }>, <{ [80 x i8] }>* @alloc363, i32 0, i32 0, i32 0), [16 x i8] c"P\00\00\00\00\00\00\00n\04\00\00+\00\00\00" }>, align 8
@alloc342 = private unnamed_addr constant <{ i8*, [16 x i8] }> <{ i8* getelementptr inbounds (<{ [80 x i8] }>, <{ [80 x i8] }>* @alloc363, i32 0, i32 0, i32 0), [16 x i8] c"P\00\00\00\00\00\00\00i\04\00\00+\00\00\00" }>, align 8
@alloc345 = private unnamed_addr constant <{ i8*, [16 x i8] }> <{ i8* getelementptr inbounds (<{ [80 x i8] }>, <{ [80 x i8] }>* @alloc363, i32 0, i32 0, i32 0), [16 x i8] c"P\00\00\00\00\00\00\00c\04\00\00,\00\00\00" }>, align 8
@alloc133 = private unnamed_addr constant <{ [0 x i8] }> zeroinitializer, align 8
@_ZN3std9panicking11panic_count18GLOBAL_PANIC_COUNT17he153705974b5d722E = external global %"std::sync::atomic::AtomicUsize"
@alloc346 = private unnamed_addr constant <{ [41 x i8] }> <{ [41 x i8] c"there is no such thing as a relaxed fence" }>, align 1
@alloc348 = private unnamed_addr constant <{ i8*, [16 x i8] }> <{ i8* getelementptr inbounds (<{ [79 x i8] }>, <{ [79 x i8] }>* @alloc347, i32 0, i32 0, i32 0), [16 x i8] c"O\00\00\00\00\00\00\00n\0A\00\00\18\00\00\00" }>, align 8
@alloc350 = private unnamed_addr constant <{ i8*, [16 x i8] }> <{ i8* getelementptr inbounds (<{ [81 x i8] }>, <{ [81 x i8] }>* @alloc357, i32 0, i32 0, i32 0), [16 x i8] c"Q\00\00\00\00\00\00\00\A7\01\00\00\09\00\00\00" }>, align 8
@alloc352 = private unnamed_addr constant <{ i8*, [16 x i8] }> <{ i8* getelementptr inbounds (<{ [81 x i8] }>, <{ [81 x i8] }>* @alloc357, i32 0, i32 0, i32 0), [16 x i8] c"Q\00\00\00\00\00\00\00\A8\01\00\00*\00\00\00" }>, align 8
@alloc353 = private unnamed_addr constant <{ [49 x i8] }> <{ [49 x i8] c"assertion failed: guard.queue.dequeue().is_none()" }>, align 1
@alloc355 = private unnamed_addr constant <{ i8*, [16 x i8] }> <{ i8* getelementptr inbounds (<{ [81 x i8] }>, <{ [81 x i8] }>* @alloc357, i32 0, i32 0, i32 0), [16 x i8] c"Q\00\00\00\00\00\00\00\A9\01\00\00\09\00\00\00" }>, align 8
@alloc356 = private unnamed_addr constant <{ [42 x i8] }> <{ [42 x i8] c"assertion failed: guard.canceled.is_none()" }>, align 1
@alloc358 = private unnamed_addr constant <{ i8*, [16 x i8] }> <{ i8* getelementptr inbounds (<{ [81 x i8] }>, <{ [81 x i8] }>* @alloc357, i32 0, i32 0, i32 0), [16 x i8] c"Q\00\00\00\00\00\00\00\AA\01\00\00\09\00\00\00" }>, align 8
@alloc361 = private unnamed_addr constant <{ i8*, [16 x i8] }> <{ i8* getelementptr inbounds (<{ [80 x i8] }>, <{ [80 x i8] }>* @alloc363, i32 0, i32 0, i32 0), [16 x i8] c"P\00\00\00\00\00\00\00H\03\00\00!\00\00\00" }>, align 8
@alloc364 = private unnamed_addr constant <{ i8*, [16 x i8] }> <{ i8* getelementptr inbounds (<{ [80 x i8] }>, <{ [80 x i8] }>* @alloc363, i32 0, i32 0, i32 0), [16 x i8] c"P\00\00\00\00\00\00\00Z\03\00\00!\00\00\00" }>, align 8
@alloc367 = private unnamed_addr constant <{ [25 x i8] }> <{ [25 x i8] c"PoisonError { inner: .. }" }>, align 1
@alloc34 = private unnamed_addr constant <{ [8 x i8] }> <{ [8 x i8] c"\00\00\00\00\00\00\00\80" }>, align 8
@alloc369 = private unnamed_addr constant <{ i8*, [16 x i8] }> <{ i8* getelementptr inbounds (<{ [83 x i8] }>, <{ [83 x i8] }>* @alloc372, i32 0, i32 0, i32 0), [16 x i8] c"S\00\00\00\00\00\00\00\EC\01\00\00\09\00\00\00" }>, align 8
@alloc371 = private unnamed_addr constant <{ i8*, [16 x i8] }> <{ i8* getelementptr inbounds (<{ [83 x i8] }>, <{ [83 x i8] }>* @alloc372, i32 0, i32 0, i32 0), [16 x i8] c"S\00\00\00\00\00\00\00\ED\01\00\00\09\00\00\00" }>, align 8
@alloc373 = private unnamed_addr constant <{ i8*, [16 x i8] }> <{ i8* getelementptr inbounds (<{ [83 x i8] }>, <{ [83 x i8] }>* @alloc372, i32 0, i32 0, i32 0), [16 x i8] c"S\00\00\00\00\00\00\00\EE\01\00\00\09\00\00\00" }>, align 8
@alloc375 = private unnamed_addr constant <{ i8*, [16 x i8] }> <{ i8* getelementptr inbounds (<{ [83 x i8] }>, <{ [83 x i8] }>* @alloc376, i32 0, i32 0, i32 0), [16 x i8] c"S\00\00\00\00\00\00\00\C5\01\00\00\09\00\00\00" }>, align 8
@alloc377 = private unnamed_addr constant <{ i8*, [16 x i8] }> <{ i8* getelementptr inbounds (<{ [83 x i8] }>, <{ [83 x i8] }>* @alloc376, i32 0, i32 0, i32 0), [16 x i8] c"S\00\00\00\00\00\00\00\C6\01\00\00\09\00\00\00" }>, align 8
@alloc28 = private unnamed_addr constant <{ [8 x i8] }> <{ [8 x i8] c"\02\00\00\00\00\00\00\00" }>, align 8
@alloc379 = private unnamed_addr constant <{ i8*, [16 x i8] }> <{ i8* getelementptr inbounds (<{ [84 x i8] }>, <{ [84 x i8] }>* @alloc378, i32 0, i32 0, i32 0), [16 x i8] c"T\00\00\00\00\00\00\009\01\00\00\09\00\00\00" }>, align 8
@vtable.a = private unnamed_addr constant { void ({ [0 x i8]*, i64 }*)*, i64, i64, i64 ({ [0 x i8]*, i64 }*)* } { void ({ [0 x i8]*, i64 }*)* @_RINvNtCs3p84KrD9aKt_4core3ptr13drop_in_placeReECseoN0Z986GuA_10mutex_test, i64 16, i64 8, i64 ({ [0 x i8]*, i64 }*)* @_RNvXNtCs3p84KrD9aKt_4core3anyReNtB2_3Any7type_idCseoN0Z986GuA_10mutex_test }, align 8, !dbg !867
@alloc380 = private unnamed_addr constant <{ [13 x i8] }> <{ [13 x i8] c"SendError(..)" }>, align 1
@alloc2 = private unnamed_addr constant <{ [59 x i8] }> <{ [59 x i8] c"Back in parent thread, this was received over the channel: " }>, align 1
@alloc128 = private unnamed_addr constant <{ [1 x i8] }> <{ [1 x i8] c"\0A" }>, align 1
@alloc3 = private unnamed_addr constant <{ i8*, [8 x i8], i8*, [8 x i8] }> <{ i8* getelementptr inbounds (<{ [59 x i8] }>, <{ [59 x i8] }>* @alloc2, i32 0, i32 0, i32 0), [8 x i8] c";\00\00\00\00\00\00\00", i8* getelementptr inbounds (<{ [1 x i8] }>, <{ [1 x i8] }>* @alloc128, i32 0, i32 0, i32 0), [8 x i8] c"\01\00\00\00\00\00\00\00" }>, align 8
@alloc389 = private unnamed_addr constant <{ [11 x i8] }> <{ [11 x i8] c"src/main.rs" }>, align 1
@alloc382 = private unnamed_addr constant <{ i8*, [16 x i8] }> <{ i8* getelementptr inbounds (<{ [11 x i8] }>, <{ [11 x i8] }>* @alloc389, i32 0, i32 0, i32 0), [16 x i8] c"\0B\00\00\00\00\00\00\000\00\00\00[\00\00\00" }>, align 8
@alloc16 = private unnamed_addr constant <{ [45 x i8] }> <{ [45 x i8] c"This is what data is on parent thread's end: " }>, align 1
@alloc17 = private unnamed_addr constant <{ i8*, [8 x i8], i8*, [8 x i8] }> <{ i8* getelementptr inbounds (<{ [45 x i8] }>, <{ [45 x i8] }>* @alloc16, i32 0, i32 0, i32 0), [8 x i8] c"-\00\00\00\00\00\00\00", i8* getelementptr inbounds (<{ [1 x i8] }>, <{ [1 x i8] }>* @alloc128, i32 0, i32 0, i32 0), [8 x i8] c"\01\00\00\00\00\00\00\00" }>, align 8
@alloc384 = private unnamed_addr constant <{ i8*, [16 x i8] }> <{ i8* getelementptr inbounds (<{ [11 x i8] }>, <{ [11 x i8] }>* @alloc389, i32 0, i32 0, i32 0), [16 x i8] c"\0B\00\00\00\00\00\00\001\00\00\00P\00\00\00" }>, align 8
@alloc386 = private unnamed_addr constant <{ i8*, [16 x i8] }> <{ i8* getelementptr inbounds (<{ [11 x i8] }>, <{ [11 x i8] }>* @alloc389, i32 0, i32 0, i32 0), [16 x i8] c"\0B\00\00\00\00\00\00\00\1C\00\00\00$\00\00\00" }>, align 8
@alloc122 = private unnamed_addr constant <{ [55 x i8] }> <{ [55 x i8] c"Spawned thread here, this is data before incrementing: " }>, align 1
@alloc123 = private unnamed_addr constant <{ i8*, [8 x i8], i8*, [8 x i8] }> <{ i8* getelementptr inbounds (<{ [55 x i8] }>, <{ [55 x i8] }>* @alloc122, i32 0, i32 0, i32 0), [8 x i8] c"7\00\00\00\00\00\00\00", i8* getelementptr inbounds (<{ [1 x i8] }>, <{ [1 x i8] }>* @alloc128, i32 0, i32 0, i32 0), [8 x i8] c"\01\00\00\00\00\00\00\00" }>, align 8
@alloc388 = private unnamed_addr constant <{ i8*, [16 x i8] }> <{ i8* getelementptr inbounds (<{ [11 x i8] }>, <{ [11 x i8] }>* @alloc389, i32 0, i32 0, i32 0), [16 x i8] c"\0B\00\00\00\00\00\00\00 \00\00\00\09\00\00\00" }>, align 8
@str.b = internal constant [28 x i8] c"attempt to add with overflow"
@alloc126 = private unnamed_addr constant <{ [20 x i8] }> <{ [20 x i8] c"After incrementing: " }>, align 1
@alloc127 = private unnamed_addr constant <{ i8*, [8 x i8], i8*, [8 x i8] }> <{ i8* getelementptr inbounds (<{ [20 x i8] }>, <{ [20 x i8] }>* @alloc126, i32 0, i32 0, i32 0), [8 x i8] c"\14\00\00\00\00\00\00\00", i8* getelementptr inbounds (<{ [1 x i8] }>, <{ [1 x i8] }>* @alloc128, i32 0, i32 0, i32 0), [8 x i8] c"\01\00\00\00\00\00\00\00" }>, align 8
@alloc130 = private unnamed_addr constant <{ [35 x i8] }> <{ [35 x i8] c"Sending data back to over channel!\0A" }>, align 1
@alloc131 = private unnamed_addr constant <{ i8*, [8 x i8] }> <{ i8* getelementptr inbounds (<{ [35 x i8] }>, <{ [35 x i8] }>* @alloc130, i32 0, i32 0, i32 0), [8 x i8] c"#\00\00\00\00\00\00\00" }>, align 8
@alloc390 = private unnamed_addr constant <{ i8*, [16 x i8] }> <{ i8* getelementptr inbounds (<{ [11 x i8] }>, <{ [11 x i8] }>* @alloc389, i32 0, i32 0, i32 0), [16 x i8] c"\0B\00\00\00\00\00\00\00'\00\00\00\1C\00\00\00" }>, align 8
@__rustc_debug_gdb_scripts_section__ = linkonce_odr unnamed_addr constant [34 x i8] c"\01gdb_load_rust_pretty_printers.py\00", section ".debug_gdb_scripts", align 1

; <std::thread::Builder>::spawn_unchecked::<mutex_test::main::{closure#0}, ()>
; Function Attrs: nonlazybind uwtable
define internal void @_RINvMNtCs2bNvlddUlXM_3std6threadNtB3_7Builder15spawn_uncheckedNCNvCseoN0Z986GuA_10mutex_test4main0uEB12_(%"std::result::Result<std::thread::JoinHandle<()>, std::io::Error>"* noalias nocapture sret dereferenceable(40) %0, %"std::thread::Builder"* noalias nocapture dereferenceable(40) %self, %"[closure@src/main.rs:25:20: 44:7]"* noalias nocapture dereferenceable(24) %f) unnamed_addr #0 personality i32 (i32, i32, i64, %"unwind::libunwind::_Unwind_Exception"*, %"unwind::libunwind::_Unwind_Context"*)* @rust_eh_personality !dbg !918 {
start:
  %val.dbg.spill = alloca i64, align 8
  %1 = alloca i128, align 8
  %2 = alloca { {}*, [3 x i64]* }, align 8
  %stack_size.dbg.spill1 = alloca i64, align 8
  %3 = alloca { i8*, i32 }, align 8
  %stack_size.dbg.spill = alloca { i64, i64 }, align 8
  %_46 = alloca i8, align 1
  %_45 = alloca i8, align 1
  %_44 = alloca i8, align 1
  %_43 = alloca i8, align 1
  %_42 = alloca i8, align 1
  %_40 = alloca i64*, align 8
  %_37 = alloca %"std::io::Error", align 8
  %_36 = alloca %"std::io::Error", align 8
  %err = alloca %"std::io::Error", align 8
  %_33 = alloca %"[closure@std::thread::Builder::spawn_unchecked<[closure@src/main.rs:25:20: 44:7], ()>::{closure#0}]", align 8
  %_27 = alloca %"std::result::Result<std::sys::unix::thread::Thread, std::io::Error>", align 8
  %_26 = alloca %"std::result::Result<std::sys::unix::thread::Thread, std::io::Error>", align 8
  %_24 = alloca { i64, i64 }, align 8
  %_23 = alloca %"std::thread::JoinInner<()>", align 8
  %_22 = alloca %"std::thread::JoinHandle<()>", align 8
  %main = alloca %"[closure@std::thread::Builder::spawn_unchecked<[closure@src/main.rs:25:20: 44:7], ()>::{closure#0}]", align 8
  %_18 = alloca i64*, align 8
  %_17 = alloca i64*, align 8
  %output_capture = alloca i64*, align 8
  %their_packet = alloca i64*, align 8
  %_13 = alloca %"std::option::Option<std::result::Result<(), std::boxed::Box<dyn std::any::Any + std::marker::Send>>>", align 8
  %_12 = alloca %"std::cell::UnsafeCell<std::option::Option<std::result::Result<(), std::boxed::Box<dyn std::any::Any + std::marker::Send>>>>", align 8
  %my_packet = alloca i64*, align 8
  %their_thread = alloca i64*, align 8
  %_8 = alloca %"std::option::Option<std::string::String>", align 8
  %my_thread = alloca i64*, align 8
  %name = alloca %"std::option::Option<std::string::String>", align 8
  call void @llvm.dbg.declare(metadata %"std::thread::Builder"* %self, metadata !985, metadata !DIExpression()), !dbg !1010
  call void @llvm.dbg.declare(metadata %"[closure@src/main.rs:25:20: 44:7]"* %f, metadata !986, metadata !DIExpression()), !dbg !1011
  call void @llvm.dbg.declare(metadata %"std::option::Option<std::string::String>"* %name, metadata !987, metadata !DIExpression()), !dbg !1012
  call void @llvm.dbg.declare(metadata i64** %my_thread, metadata !992, metadata !DIExpression()), !dbg !1013
  call void @llvm.dbg.declare(metadata i64** %their_thread, metadata !994, metadata !DIExpression()), !dbg !1014
  call void @llvm.dbg.declare(metadata i64** %my_packet, metadata !996, metadata !DIExpression()), !dbg !1015
  call void @llvm.dbg.declare(metadata i64** %their_packet, metadata !998, metadata !DIExpression()), !dbg !1016
  call void @llvm.dbg.declare(metadata i64** %output_capture, metadata !1000, metadata !DIExpression()), !dbg !1017
  call void @llvm.dbg.declare(metadata %"[closure@std::thread::Builder::spawn_unchecked<[closure@src/main.rs:25:20: 44:7], ()>::{closure#0}]"* %main, metadata !1002, metadata !DIExpression()), !dbg !1018
  call void @llvm.dbg.declare(metadata %"std::io::Error"* %err, metadata !1004, metadata !DIExpression()), !dbg !1019
  store i8 0, i8* %_42, align 1, !dbg !1020
  store i8 0, i8* %_46, align 1, !dbg !1020
  store i8 0, i8* %_44, align 1, !dbg !1020
  store i8 0, i8* %_43, align 1, !dbg !1020
  store i8 0, i8* %_45, align 1, !dbg !1020
  store i8 1, i8* %_46, align 1, !dbg !1020
  store i8 1, i8* %_45, align 1, !dbg !1020
  %4 = bitcast %"std::thread::Builder"* %self to %"std::option::Option<std::string::String>"*, !dbg !1020
  %5 = bitcast %"std::option::Option<std::string::String>"* %name to i8*, !dbg !1020
  %6 = bitcast %"std::option::Option<std::string::String>"* %4 to i8*, !dbg !1020
  call void @llvm.memcpy.p0i8.p0i8.i64(i8* align 8 %5, i8* align 8 %6, i64 24, i1 false), !dbg !1020
  %7 = getelementptr inbounds %"std::thread::Builder", %"std::thread::Builder"* %self, i32 0, i32 3, !dbg !1021
  %8 = getelementptr inbounds { i64, i64 }, { i64, i64 }* %7, i32 0, i32 0, !dbg !1021
  %stack_size.0 = load i64, i64* %8, align 8, !dbg !1021, !range !1022
  %9 = getelementptr inbounds { i64, i64 }, { i64, i64 }* %7, i32 0, i32 1, !dbg !1021
  %stack_size.1 = load i64, i64* %9, align 8, !dbg !1021
  %10 = getelementptr inbounds { i64, i64 }, { i64, i64 }* %stack_size.dbg.spill, i32 0, i32 0, !dbg !1021
  store i64 %stack_size.0, i64* %10, align 8, !dbg !1021
  %11 = getelementptr inbounds { i64, i64 }, { i64, i64 }* %stack_size.dbg.spill, i32 0, i32 1, !dbg !1021
  store i64 %stack_size.1, i64* %11, align 8, !dbg !1021
  call void @llvm.dbg.declare(metadata { i64, i64 }* %stack_size.dbg.spill, metadata !989, metadata !DIExpression()), !dbg !1023
; invoke <core::option::Option<usize>>::unwrap_or_else::<std::sys_common::thread::min_stack>
  %stack_size = invoke i64 @_RINvMNtCs3p84KrD9aKt_4core6optionINtB3_6OptionjE14unwrap_or_elseNvNtNtCs2bNvlddUlXM_3std10sys_common6thread9min_stackECseoN0Z986GuA_10mutex_test(i64 %stack_size.0, i64 %stack_size.1)
          to label %bb1 unwind label %cleanup, !dbg !1024

bb1:                                              ; preds = %start
  store i64 %stack_size, i64* %stack_size.dbg.spill1, align 8, !dbg !1024
  call void @llvm.dbg.declare(metadata i64* %stack_size.dbg.spill1, metadata !990, metadata !DIExpression()), !dbg !1025
  store i8 0, i8* %_45, align 1, !dbg !1026
  %12 = bitcast %"std::option::Option<std::string::String>"* %_8 to i8*, !dbg !1026
  %13 = bitcast %"std::option::Option<std::string::String>"* %name to i8*, !dbg !1026
  call void @llvm.memcpy.p0i8.p0i8.i64(i8* align 8 %12, i8* align 8 %13, i64 24, i1 false), !dbg !1026
; invoke std::thread::Thread::new
  %14 = invoke nonnull i64* @_ZN3std6thread6Thread3new17hb6f98794e2c3d412E(%"std::option::Option<std::string::String>"* noalias nocapture dereferenceable(24) %_8)
          to label %bb2 unwind label %cleanup, !dbg !1027

bb2:                                              ; preds = %bb1
  store i64* %14, i64** %my_thread, align 8, !dbg !1027
; invoke <std::thread::Thread as core::clone::Clone>::clone
  %15 = invoke nonnull i64* @_RNvXsk_NtCs2bNvlddUlXM_3std6threadNtB5_6ThreadNtNtCs3p84KrD9aKt_4core5clone5Clone5cloneCseoN0Z986GuA_10mutex_test(i64** noalias readonly align 8 dereferenceable(8) %my_thread)
          to label %bb3 unwind label %cleanup2, !dbg !1028

bb3:                                              ; preds = %bb2
  store i64* %15, i64** %their_thread, align 8, !dbg !1028
  store i8 1, i8* %_44, align 1, !dbg !1029
  %16 = bitcast %"std::option::Option<std::result::Result<(), std::boxed::Box<dyn std::any::Any + std::marker::Send>>>"* %_13 to i64*, !dbg !1030
  store i64 0, i64* %16, align 8, !dbg !1030
; invoke <core::cell::UnsafeCell<core::option::Option<core::result::Result<(), alloc::boxed::Box<dyn core::any::Any + core::marker::Send>>>>>::new
  invoke void @_RNvMsJ_NtCs3p84KrD9aKt_4core4cellINtB5_10UnsafeCellINtNtB7_6option6OptionINtNtB7_6result6ResultuINtNtCs8RW06R9lH2S_5alloc5boxed3BoxDNtNtB7_3any3AnyNtNtB7_6marker4SendEL_EEEE3newCseoN0Z986GuA_10mutex_test(%"std::cell::UnsafeCell<std::option::Option<std::result::Result<(), std::boxed::Box<dyn std::any::Any + std::marker::Send>>>>"* noalias nocapture sret dereferenceable(24) %_12, %"std::option::Option<std::result::Result<(), std::boxed::Box<dyn std::any::Any + std::marker::Send>>>"* noalias nocapture dereferenceable(24) %_13)
          to label %bb4 unwind label %cleanup3, !dbg !1031

bb4:                                              ; preds = %bb3
; invoke <alloc::sync::Arc<core::cell::UnsafeCell<core::option::Option<core::result::Result<(), alloc::boxed::Box<dyn core::any::Any + core::marker::Send>>>>>>::new
  %17 = invoke nonnull i64* @_RNvMsa_NtCs8RW06R9lH2S_5alloc4syncINtB5_3ArcINtNtCs3p84KrD9aKt_4core4cell10UnsafeCellINtNtBL_6option6OptionINtNtBL_6result6ResultuINtNtB7_5boxed3BoxDNtNtBL_3any3AnyNtNtBL_6marker4SendEL_EEEEE3newCseoN0Z986GuA_10mutex_test(%"std::cell::UnsafeCell<std::option::Option<std::result::Result<(), std::boxed::Box<dyn std::any::Any + std::marker::Send>>>>"* noalias nocapture dereferenceable(24) %_12)
          to label %bb5 unwind label %cleanup3, !dbg !1032

bb5:                                              ; preds = %bb4
  store i64* %17, i64** %my_packet, align 8, !dbg !1032
; invoke <alloc::sync::Arc<core::cell::UnsafeCell<core::option::Option<core::result::Result<(), alloc::boxed::Box<dyn core::any::Any + core::marker::Send>>>>> as core::clone::Clone>::clone
  %18 = invoke nonnull i64* @_RNvXsk_NtCs8RW06R9lH2S_5alloc4syncINtB5_3ArcINtNtCs3p84KrD9aKt_4core4cell10UnsafeCellINtNtBL_6option6OptionINtNtBL_6result6ResultuINtNtB7_5boxed3BoxDNtNtBL_3any3AnyNtNtBL_6marker4SendEL_EEEEENtNtBL_5clone5Clone5cloneCseoN0Z986GuA_10mutex_test(i64** noalias readonly align 8 dereferenceable(8) %my_packet)
          to label %bb6 unwind label %cleanup4, !dbg !1033

bb6:                                              ; preds = %bb5
  store i64* %18, i64** %their_packet, align 8, !dbg !1033
  store i8 1, i8* %_43, align 1, !dbg !1034
  %19 = bitcast i64** %_17 to {}**, !dbg !1035
  store {}* null, {}** %19, align 8, !dbg !1035
  %20 = load i64*, i64** %_17, align 8, !dbg !1036
; invoke std::io::stdio::set_output_capture
  %21 = invoke i64* @_ZN3std2io5stdio18set_output_capture17he178fcaf92baad96E(i64* %20)
          to label %bb7 unwind label %cleanup5, !dbg !1036

bb7:                                              ; preds = %bb6
  store i64* %21, i64** %output_capture, align 8, !dbg !1036
  store i8 1, i8* %_42, align 1, !dbg !1037
; invoke <core::option::Option<alloc::sync::Arc<std::sync::mutex::Mutex<alloc::vec::Vec<u8>>>> as core::clone::Clone>::clone
  %_19 = invoke i64* @_RNvXs8_NtCs3p84KrD9aKt_4core6optionINtB5_6OptionINtNtCs8RW06R9lH2S_5alloc4sync3ArcINtNtNtCs2bNvlddUlXM_3std4sync5mutex5MutexINtNtBP_3vec3VechEEEENtNtB7_5clone5Clone5cloneCseoN0Z986GuA_10mutex_test(i64** noalias readonly align 8 dereferenceable(8) %output_capture)
          to label %bb8 unwind label %cleanup6, !dbg !1038

bb8:                                              ; preds = %bb7
; invoke std::io::stdio::set_output_capture
  %22 = invoke i64* @_ZN3std2io5stdio18set_output_capture17he178fcaf92baad96E(i64* %_19)
          to label %bb9 unwind label %cleanup6, !dbg !1039

bb9:                                              ; preds = %bb8
  store i64* %22, i64** %_18, align 8, !dbg !1039
; invoke core::ptr::drop_in_place::<core::option::Option<alloc::sync::Arc<std::sync::mutex::Mutex<alloc::vec::Vec<u8>>>>>
  invoke void @_RINvNtCs3p84KrD9aKt_4core3ptr13drop_in_placeINtNtB4_6option6OptionINtNtCs8RW06R9lH2S_5alloc4sync3ArcINtNtNtCs2bNvlddUlXM_3std4sync5mutex5MutexINtNtB17_3vec3VechEEEEECseoN0Z986GuA_10mutex_test(i64** %_18)
          to label %bb10 unwind label %cleanup6, !dbg !1040

bb10:                                             ; preds = %bb9
  store i8 0, i8* %_44, align 1, !dbg !1041
  store i8 0, i8* %_42, align 1, !dbg !1041
  store i8 0, i8* %_46, align 1, !dbg !1041
  store i8 0, i8* %_43, align 1, !dbg !1041
  %23 = bitcast %"[closure@std::thread::Builder::spawn_unchecked<[closure@src/main.rs:25:20: 44:7], ()>::{closure#0}]"* %main to i64**, !dbg !1041
  %24 = load i64*, i64** %their_thread, align 8, !dbg !1041, !nonnull !4
  store i64* %24, i64** %23, align 8, !dbg !1041
  %25 = getelementptr inbounds %"[closure@std::thread::Builder::spawn_unchecked<[closure@src/main.rs:25:20: 44:7], ()>::{closure#0}]", %"[closure@std::thread::Builder::spawn_unchecked<[closure@src/main.rs:25:20: 44:7], ()>::{closure#0}]"* %main, i32 0, i32 3, !dbg !1041
  %26 = load i64*, i64** %output_capture, align 8, !dbg !1041
  store i64* %26, i64** %25, align 8, !dbg !1041
  %27 = getelementptr inbounds %"[closure@std::thread::Builder::spawn_unchecked<[closure@src/main.rs:25:20: 44:7], ()>::{closure#0}]", %"[closure@std::thread::Builder::spawn_unchecked<[closure@src/main.rs:25:20: 44:7], ()>::{closure#0}]"* %main, i32 0, i32 5, !dbg !1041
  %28 = bitcast %"[closure@src/main.rs:25:20: 44:7]"* %27 to i8*, !dbg !1041
  %29 = bitcast %"[closure@src/main.rs:25:20: 44:7]"* %f to i8*, !dbg !1041
  call void @llvm.memcpy.p0i8.p0i8.i64(i8* align 8 %28, i8* align 8 %29, i64 24, i1 false), !dbg !1041
  %30 = getelementptr inbounds %"[closure@std::thread::Builder::spawn_unchecked<[closure@src/main.rs:25:20: 44:7], ()>::{closure#0}]", %"[closure@std::thread::Builder::spawn_unchecked<[closure@src/main.rs:25:20: 44:7], ()>::{closure#0}]"* %main, i32 0, i32 7, !dbg !1041
  %31 = load i64*, i64** %their_packet, align 8, !dbg !1041, !nonnull !4
  store i64* %31, i64** %30, align 8, !dbg !1041
  %32 = bitcast %"[closure@std::thread::Builder::spawn_unchecked<[closure@src/main.rs:25:20: 44:7], ()>::{closure#0}]"* %_33 to i8*, !dbg !1042
  %33 = bitcast %"[closure@std::thread::Builder::spawn_unchecked<[closure@src/main.rs:25:20: 44:7], ()>::{closure#0}]"* %main to i8*, !dbg !1042
  call void @llvm.memcpy.p0i8.p0i8.i64(i8* align 8 %32, i8* align 8 %33, i64 48, i1 false), !dbg !1042
  call void @llvm.dbg.declare(metadata %"[closure@std::thread::Builder::spawn_unchecked<[closure@src/main.rs:25:20: 44:7], ()>::{closure#0}]"* %_33, metadata !1043, metadata !DIExpression()), !dbg !1054
; invoke alloc::alloc::exchange_malloc
  %34 = invoke i8* @_RNvNtCs8RW06R9lH2S_5alloc5alloc15exchange_mallocCseoN0Z986GuA_10mutex_test(i64 48, i64 8)
          to label %_RNvMNtCs8RW06R9lH2S_5alloc5boxedINtB2_3BoxNCINvMNtCs2bNvlddUlXM_3std6threadNtBK_7Builder15spawn_uncheckedNCNvCseoN0Z986GuA_10mutex_test4main0uE0E3newB1J_.exit unwind label %cleanup6, !dbg !1056

_RNvMNtCs8RW06R9lH2S_5alloc5boxedINtB2_3BoxNCINvMNtCs2bNvlddUlXM_3std6threadNtBK_7Builder15spawn_uncheckedNCNvCseoN0Z986GuA_10mutex_test4main0uE0E3newB1J_.exit: ; preds = %bb10
  %35 = bitcast i8* %34 to %"[closure@std::thread::Builder::spawn_unchecked<[closure@src/main.rs:25:20: 44:7], ()>::{closure#0}]"*, !dbg !1056
  %36 = bitcast %"[closure@std::thread::Builder::spawn_unchecked<[closure@src/main.rs:25:20: 44:7], ()>::{closure#0}]"* %_33 to i8*, !dbg !1057
  call void @llvm.memcpy.p0i8.p0i8.i64(i8* align 8 %34, i8* align 8 %36, i64 48, i1 false), !dbg !1057
  br label %bb11, !dbg !1058

bb11:                                             ; preds = %_RNvMNtCs8RW06R9lH2S_5alloc5boxedINtB2_3BoxNCINvMNtCs2bNvlddUlXM_3std6threadNtBK_7Builder15spawn_uncheckedNCNvCseoN0Z986GuA_10mutex_test4main0uE0E3newB1J_.exit
  %37 = bitcast %"[closure@std::thread::Builder::spawn_unchecked<[closure@src/main.rs:25:20: 44:7], ()>::{closure#0}]"* %35 to {}*, !dbg !1059
  %38 = bitcast {}* %37 to i8*, !dbg !1059
  %_31.0 = bitcast i8* %38 to {}*, !dbg !1059
  %39 = getelementptr inbounds { {}*, [3 x i64]* }, { {}*, [3 x i64]* }* %2, i32 0, i32 0, !dbg !1060
  store {}* %_31.0, {}** %39, align 8, !dbg !1060
  %40 = getelementptr inbounds { {}*, [3 x i64]* }, { {}*, [3 x i64]* }* %2, i32 0, i32 1, !dbg !1060
  store [3 x i64]* bitcast ({ void (%"[closure@std::thread::Builder::spawn_unchecked<[closure@src/main.rs:25:20: 44:7], ()>::{closure#0}]"*)*, i64, i64, void (%"[closure@std::thread::Builder::spawn_unchecked<[closure@src/main.rs:25:20: 44:7], ()>::{closure#0}]"*)* }* @vtable.0 to [3 x i64]*), [3 x i64]** %40, align 8, !dbg !1060
  %41 = getelementptr inbounds { {}*, [3 x i64]* }, { {}*, [3 x i64]* }* %2, i32 0, i32 0, !dbg !1060
  %_30.0 = load {}*, {}** %41, align 8, !dbg !1060, !nonnull !4
  %42 = getelementptr inbounds { {}*, [3 x i64]* }, { {}*, [3 x i64]* }* %2, i32 0, i32 1, !dbg !1060
  %_30.1 = load [3 x i64]*, [3 x i64]** %42, align 8, !dbg !1060, !nonnull !4
  br label %bb12, !dbg !1060

bb12:                                             ; preds = %bb11
; invoke std::sys::unix::thread::Thread::new
  invoke void @_ZN3std3sys4unix6thread6Thread3new17h3bc268f2aed68233E(%"std::result::Result<std::sys::unix::thread::Thread, std::io::Error>"* noalias nocapture sret dereferenceable(24) %_27, i64 %stack_size, {}* noalias nonnull align 1 %_30.0, [3 x i64]* noalias readonly align 8 dereferenceable(24) %_30.1)
          to label %bb13 unwind label %cleanup6, !dbg !1061

bb13:                                             ; preds = %bb12
; invoke <core::result::Result<std::sys::unix::thread::Thread, std::io::error::Error> as core::ops::try::Try>::into_result
  invoke void @_RNvXsw_NtCs3p84KrD9aKt_4core6resultINtB5_6ResultNtNtNtNtCs2bNvlddUlXM_3std3sys4unix6thread6ThreadNtNtNtBS_2io5error5ErrorENtNtNtB7_3ops3try3Try11into_resultCseoN0Z986GuA_10mutex_test(%"std::result::Result<std::sys::unix::thread::Thread, std::io::Error>"* noalias nocapture sret dereferenceable(24) %_26, %"std::result::Result<std::sys::unix::thread::Thread, std::io::Error>"* noalias nocapture dereferenceable(24) %_27)
          to label %bb14 unwind label %cleanup6, !dbg !1061

bb14:                                             ; preds = %bb13
  %43 = bitcast %"std::result::Result<std::sys::unix::thread::Thread, std::io::Error>"* %_26 to i64*, !dbg !1062
  %_34 = load i64, i64* %43, align 8, !dbg !1062, !range !1022
  switch i64 %_34, label %bb16 [
    i64 0, label %bb15
    i64 1, label %bb17
  ], !dbg !1062

bb15:                                             ; preds = %bb14
  %44 = bitcast %"std::result::Result<std::sys::unix::thread::Thread, std::io::Error>"* %_26 to %"std::result::Result<std::sys::unix::thread::Thread, std::io::Error>::Ok"*, !dbg !1061
  %45 = getelementptr inbounds %"std::result::Result<std::sys::unix::thread::Thread, std::io::Error>::Ok", %"std::result::Result<std::sys::unix::thread::Thread, std::io::Error>::Ok"* %44, i32 0, i32 1, !dbg !1061
  %val = load i64, i64* %45, align 8, !dbg !1061
  store i64 %val, i64* %val.dbg.spill, align 8, !dbg !1061
  call void @llvm.dbg.declare(metadata i64* %val.dbg.spill, metadata !1006, metadata !DIExpression()), !dbg !1063
  %46 = bitcast { i64, i64 }* %_24 to %"std::option::Option<std::sys::unix::thread::Thread>::Some"*, !dbg !1064
  %47 = getelementptr inbounds %"std::option::Option<std::sys::unix::thread::Thread>::Some", %"std::option::Option<std::sys::unix::thread::Thread>::Some"* %46, i32 0, i32 1, !dbg !1064
  store i64 %val, i64* %47, align 8, !dbg !1064
  %48 = bitcast { i64, i64 }* %_24 to i64*, !dbg !1064
  store i64 1, i64* %48, align 8, !dbg !1064
  %_39 = load i64*, i64** %my_thread, align 8, !dbg !1065, !nonnull !4
  %_41 = load i64*, i64** %my_packet, align 8, !dbg !1066, !nonnull !4
  store i64* %_41, i64** %_40, align 8, !dbg !1067
  %49 = bitcast %"std::thread::JoinInner<()>"* %_23 to { i64, i64 }*, !dbg !1068
  %50 = getelementptr inbounds { i64, i64 }, { i64, i64 }* %_24, i32 0, i32 0, !dbg !1068
  %51 = load i64, i64* %50, align 8, !dbg !1068, !range !1022
  %52 = getelementptr inbounds { i64, i64 }, { i64, i64 }* %_24, i32 0, i32 1, !dbg !1068
  %53 = load i64, i64* %52, align 8, !dbg !1068
  %54 = getelementptr inbounds { i64, i64 }, { i64, i64 }* %49, i32 0, i32 0, !dbg !1068
  store i64 %51, i64* %54, align 8, !dbg !1068
  %55 = getelementptr inbounds { i64, i64 }, { i64, i64 }* %49, i32 0, i32 1, !dbg !1068
  store i64 %53, i64* %55, align 8, !dbg !1068
  %56 = getelementptr inbounds %"std::thread::JoinInner<()>", %"std::thread::JoinInner<()>"* %_23, i32 0, i32 3, !dbg !1068
  store i64* %_39, i64** %56, align 8, !dbg !1068
  %57 = getelementptr inbounds %"std::thread::JoinInner<()>", %"std::thread::JoinInner<()>"* %_23, i32 0, i32 5, !dbg !1068
  %58 = load i64*, i64** %_40, align 8, !dbg !1068, !nonnull !4
  store i64* %58, i64** %57, align 8, !dbg !1068
  %59 = bitcast %"std::thread::JoinHandle<()>"* %_22 to %"std::thread::JoinInner<()>"*, !dbg !1069
  %60 = bitcast %"std::thread::JoinInner<()>"* %59 to i8*, !dbg !1069
  %61 = bitcast %"std::thread::JoinInner<()>"* %_23 to i8*, !dbg !1069
  call void @llvm.memcpy.p0i8.p0i8.i64(i8* align 8 %60, i8* align 8 %61, i64 32, i1 false), !dbg !1069
  %62 = bitcast %"std::result::Result<std::thread::JoinHandle<()>, std::io::Error>"* %0 to %"std::result::Result<std::thread::JoinHandle<()>, std::io::Error>::Ok"*, !dbg !1070
  %63 = getelementptr inbounds %"std::result::Result<std::thread::JoinHandle<()>, std::io::Error>::Ok", %"std::result::Result<std::thread::JoinHandle<()>, std::io::Error>::Ok"* %62, i32 0, i32 1, !dbg !1070
  %64 = bitcast %"std::thread::JoinHandle<()>"* %63 to i8*, !dbg !1070
  %65 = bitcast %"std::thread::JoinHandle<()>"* %_22 to i8*, !dbg !1070
  call void @llvm.memcpy.p0i8.p0i8.i64(i8* align 8 %64, i8* align 8 %65, i64 32, i1 false), !dbg !1070
  %66 = bitcast %"std::result::Result<std::thread::JoinHandle<()>, std::io::Error>"* %0 to i64*, !dbg !1070
  store i64 0, i64* %66, align 8, !dbg !1070
  store i8 0, i8* %_42, align 1, !dbg !1071
  store i8 0, i8* %_43, align 1, !dbg !1072
  store i8 0, i8* %_44, align 1, !dbg !1073
  store i8 0, i8* %_45, align 1, !dbg !1074
  br label %bb22, !dbg !1074

bb16:                                             ; preds = %bb14
  unreachable, !dbg !1061

bb17:                                             ; preds = %bb14
  %67 = bitcast %"std::result::Result<std::sys::unix::thread::Thread, std::io::Error>"* %_26 to %"std::result::Result<std::sys::unix::thread::Thread, std::io::Error>::Err"*, !dbg !1062
  %68 = getelementptr inbounds %"std::result::Result<std::sys::unix::thread::Thread, std::io::Error>::Err", %"std::result::Result<std::sys::unix::thread::Thread, std::io::Error>::Err"* %67, i32 0, i32 1, !dbg !1062
  %69 = bitcast %"std::io::Error"* %err to i8*, !dbg !1062
  %70 = bitcast %"std::io::Error"* %68 to i8*, !dbg !1062
  call void @llvm.memcpy.p0i8.p0i8.i64(i8* align 8 %69, i8* align 8 %70, i64 16, i1 false), !dbg !1062
  %71 = bitcast %"std::io::Error"* %_37 to i8*, !dbg !1019
  %72 = bitcast %"std::io::Error"* %err to i8*, !dbg !1019
  call void @llvm.memcpy.p0i8.p0i8.i64(i8* align 8 %71, i8* align 8 %72, i64 16, i1 false), !dbg !1019
  %73 = bitcast %"std::io::Error"* %_37 to i128*, !dbg !1019
  %74 = load i128, i128* %73, align 8, !dbg !1019
; invoke <std::io::error::Error as core::convert::From<std::io::error::Error>>::from
  %75 = invoke i128 @_RNvXs2_NtCs3p84KrD9aKt_4core7convertNtNtNtCs2bNvlddUlXM_3std2io5error5ErrorINtB5_4FromBy_E4fromCseoN0Z986GuA_10mutex_test(i128 %74)
          to label %bb18 unwind label %cleanup7, !dbg !1019

bb18:                                             ; preds = %bb17
  store i128 %75, i128* %1, align 8, !dbg !1019
  %76 = bitcast %"std::io::Error"* %_36 to i8*, !dbg !1019
  %77 = bitcast i128* %1 to i8*, !dbg !1019
  call void @llvm.memcpy.p0i8.p0i8.i64(i8* align 8 %76, i8* align 8 %77, i64 16, i1 false), !dbg !1019
  %78 = bitcast %"std::io::Error"* %_36 to i128*, !dbg !1075
  %79 = load i128, i128* %78, align 8, !dbg !1075
; invoke <core::result::Result<std::thread::JoinHandle<()>, std::io::error::Error> as core::ops::try::Try>::from_error
  invoke void @_RNvXsw_NtCs3p84KrD9aKt_4core6resultINtB5_6ResultINtNtCs2bNvlddUlXM_3std6thread10JoinHandleuENtNtNtBP_2io5error5ErrorENtNtNtB7_3ops3try3Try10from_errorCseoN0Z986GuA_10mutex_test(%"std::result::Result<std::thread::JoinHandle<()>, std::io::Error>"* noalias nocapture sret dereferenceable(40) %0, i128 %79)
          to label %bb19 unwind label %cleanup7, !dbg !1075

bb19:                                             ; preds = %bb18
  store i8 0, i8* %_42, align 1, !dbg !1071
  store i8 0, i8* %_43, align 1, !dbg !1072
; invoke core::ptr::drop_in_place::<alloc::sync::Arc<core::cell::UnsafeCell<core::option::Option<core::result::Result<(), alloc::boxed::Box<dyn core::any::Any + core::marker::Send>>>>>>
  invoke void @_RINvNtCs3p84KrD9aKt_4core3ptr13drop_in_placeINtNtCs8RW06R9lH2S_5alloc4sync3ArcINtNtB4_4cell10UnsafeCellINtNtB4_6option6OptionINtNtB4_6result6ResultuINtNtBL_5boxed3BoxDNtNtB4_3any3AnyNtNtB4_6marker4SendEL_EEEEEECseoN0Z986GuA_10mutex_test(i64** %my_packet)
          to label %bb20 unwind label %cleanup8, !dbg !1076

bb20:                                             ; preds = %bb19
  store i8 0, i8* %_44, align 1, !dbg !1073
; invoke core::ptr::drop_in_place::<std::thread::Thread>
  invoke void @_RINvNtCs3p84KrD9aKt_4core3ptr13drop_in_placeNtNtCs2bNvlddUlXM_3std6thread6ThreadECseoN0Z986GuA_10mutex_test(i64** %my_thread)
          to label %bb21 unwind label %cleanup9, !dbg !1077

bb21:                                             ; preds = %bb20
  store i8 0, i8* %_45, align 1, !dbg !1074
  br label %bb22, !dbg !1074

bb22:                                             ; preds = %bb15, %bb21
  ret void, !dbg !1078

bb23:                                             ; preds = %cleanup8
; call core::ptr::drop_in_place::<std::thread::Thread>
  call void @_RINvNtCs3p84KrD9aKt_4core3ptr13drop_in_placeNtNtCs2bNvlddUlXM_3std6thread6ThreadECseoN0Z986GuA_10mutex_test(i64** %my_thread) #18, !dbg !1077
  br label %bb24, !dbg !1077

bb24:                                             ; preds = %cleanup9, %bb23
; call core::ptr::drop_in_place::<core::result::Result<std::thread::JoinHandle<()>, std::io::error::Error>>
  call void @_RINvNtCs3p84KrD9aKt_4core3ptr13drop_in_placeINtNtB4_6result6ResultINtNtCs2bNvlddUlXM_3std6thread10JoinHandleuENtNtNtB17_2io5error5ErrorEECseoN0Z986GuA_10mutex_test(%"std::result::Result<std::thread::JoinHandle<()>, std::io::Error>"* %0) #18, !dbg !1074
  br label %bb30, !dbg !1074

bb25:                                             ; preds = %cleanup7
; call core::ptr::drop_in_place::<alloc::sync::Arc<core::cell::UnsafeCell<core::option::Option<core::result::Result<(), alloc::boxed::Box<dyn core::any::Any + core::marker::Send>>>>>>
  call void @_RINvNtCs3p84KrD9aKt_4core3ptr13drop_in_placeINtNtCs8RW06R9lH2S_5alloc4sync3ArcINtNtB4_4cell10UnsafeCellINtNtB4_6option6OptionINtNtB4_6result6ResultuINtNtBL_5boxed3BoxDNtNtB4_3any3AnyNtNtB4_6marker4SendEL_EEEEEECseoN0Z986GuA_10mutex_test(i64** %my_packet) #18, !dbg !1076
  br label %bb26, !dbg !1076

bb26:                                             ; preds = %bb25
; call core::ptr::drop_in_place::<std::thread::Thread>
  call void @_RINvNtCs3p84KrD9aKt_4core3ptr13drop_in_placeNtNtCs2bNvlddUlXM_3std6thread6ThreadECseoN0Z986GuA_10mutex_test(i64** %my_thread) #18, !dbg !1077
  br label %bb31, !dbg !1077

bb27:                                             ; preds = %bb34, %bb35, %cleanup4
; call core::ptr::drop_in_place::<alloc::sync::Arc<core::cell::UnsafeCell<core::option::Option<core::result::Result<(), alloc::boxed::Box<dyn core::any::Any + core::marker::Send>>>>>>
  call void @_RINvNtCs3p84KrD9aKt_4core3ptr13drop_in_placeINtNtCs8RW06R9lH2S_5alloc4sync3ArcINtNtB4_4cell10UnsafeCellINtNtB4_6option6OptionINtNtB4_6result6ResultuINtNtBL_5boxed3BoxDNtNtB4_3any3AnyNtNtB4_6marker4SendEL_EEEEEECseoN0Z986GuA_10mutex_test(i64** %my_packet) #18, !dbg !1076
  br label %bb37, !dbg !1076

bb28:                                             ; preds = %bb36, %bb37, %cleanup2
; call core::ptr::drop_in_place::<std::thread::Thread>
  call void @_RINvNtCs3p84KrD9aKt_4core3ptr13drop_in_placeNtNtCs2bNvlddUlXM_3std6thread6ThreadECseoN0Z986GuA_10mutex_test(i64** %my_thread) #18, !dbg !1077
  br label %bb39, !dbg !1077

bb29:                                             ; preds = %bb31, %bb38, %bb39
  %80 = load i8, i8* %_46, align 1, !dbg !1074, !range !1079
  %81 = trunc i8 %80 to i1, !dbg !1074
  br i1 %81, label %bb40, label %bb30, !dbg !1074

bb30:                                             ; preds = %bb24, %bb40, %bb29
  %82 = bitcast { i8*, i32 }* %3 to i8**, !dbg !1080
  %83 = load i8*, i8** %82, align 8, !dbg !1080
  %84 = getelementptr inbounds { i8*, i32 }, { i8*, i32 }* %3, i32 0, i32 1, !dbg !1080
  %85 = load i32, i32* %84, align 8, !dbg !1080
  %86 = insertvalue { i8*, i32 } undef, i8* %83, 0, !dbg !1080
  %87 = insertvalue { i8*, i32 } %86, i32 %85, 1, !dbg !1080
  resume { i8*, i32 } %87, !dbg !1080

bb31:                                             ; preds = %bb26
  br label %bb29, !dbg !1074

bb32:                                             ; preds = %bb33
; call core::ptr::drop_in_place::<core::option::Option<alloc::sync::Arc<std::sync::mutex::Mutex<alloc::vec::Vec<u8>>>>>
  call void @_RINvNtCs3p84KrD9aKt_4core3ptr13drop_in_placeINtNtB4_6option6OptionINtNtCs8RW06R9lH2S_5alloc4sync3ArcINtNtNtCs2bNvlddUlXM_3std4sync5mutex5MutexINtNtB17_3vec3VechEEEEECseoN0Z986GuA_10mutex_test(i64** %output_capture) #18, !dbg !1071
  br label %bb35, !dbg !1071

bb33:                                             ; preds = %cleanup6
  %88 = load i8, i8* %_42, align 1, !dbg !1071, !range !1079
  %89 = trunc i8 %88 to i1, !dbg !1071
  br i1 %89, label %bb32, label %bb35, !dbg !1071

bb34:                                             ; preds = %bb35
; call core::ptr::drop_in_place::<alloc::sync::Arc<core::cell::UnsafeCell<core::option::Option<core::result::Result<(), alloc::boxed::Box<dyn core::any::Any + core::marker::Send>>>>>>
  call void @_RINvNtCs3p84KrD9aKt_4core3ptr13drop_in_placeINtNtCs8RW06R9lH2S_5alloc4sync3ArcINtNtB4_4cell10UnsafeCellINtNtB4_6option6OptionINtNtB4_6result6ResultuINtNtBL_5boxed3BoxDNtNtB4_3any3AnyNtNtB4_6marker4SendEL_EEEEEECseoN0Z986GuA_10mutex_test(i64** %their_packet) #18, !dbg !1072
  br label %bb27, !dbg !1072

bb35:                                             ; preds = %bb32, %bb33, %cleanup5
  %90 = load i8, i8* %_43, align 1, !dbg !1072, !range !1079
  %91 = trunc i8 %90 to i1, !dbg !1072
  br i1 %91, label %bb34, label %bb27, !dbg !1072

bb36:                                             ; preds = %bb37
; call core::ptr::drop_in_place::<std::thread::Thread>
  call void @_RINvNtCs3p84KrD9aKt_4core3ptr13drop_in_placeNtNtCs2bNvlddUlXM_3std6thread6ThreadECseoN0Z986GuA_10mutex_test(i64** %their_thread) #18, !dbg !1073
  br label %bb28, !dbg !1073

bb37:                                             ; preds = %bb27, %cleanup3
  %92 = load i8, i8* %_44, align 1, !dbg !1073, !range !1079
  %93 = trunc i8 %92 to i1, !dbg !1073
  br i1 %93, label %bb36, label %bb28, !dbg !1073

bb38:                                             ; preds = %bb39
; call core::ptr::drop_in_place::<core::option::Option<alloc::string::String>>
  call void @_RINvNtCs3p84KrD9aKt_4core3ptr13drop_in_placeINtNtB4_6option6OptionNtNtCs8RW06R9lH2S_5alloc6string6StringEECseoN0Z986GuA_10mutex_test(%"std::option::Option<std::string::String>"* %name) #18, !dbg !1074
  br label %bb29, !dbg !1074

bb39:                                             ; preds = %bb28, %cleanup
  %94 = load i8, i8* %_45, align 1, !dbg !1074, !range !1079
  %95 = trunc i8 %94 to i1, !dbg !1074
  br i1 %95, label %bb38, label %bb29, !dbg !1074

bb40:                                             ; preds = %bb29
; call core::ptr::drop_in_place::<mutex_test::main::{closure#0}>
  call void @_RINvNtCs3p84KrD9aKt_4core3ptr13drop_in_placeNCNvCseoN0Z986GuA_10mutex_test4main0EBK_(%"[closure@src/main.rs:25:20: 44:7]"* %f) #18, !dbg !1074
  br label %bb30, !dbg !1074

cleanup:                                          ; preds = %bb1, %start
  %96 = landingpad { i8*, i32 }
          cleanup
  %97 = extractvalue { i8*, i32 } %96, 0
  %98 = extractvalue { i8*, i32 } %96, 1
  %99 = getelementptr inbounds { i8*, i32 }, { i8*, i32 }* %3, i32 0, i32 0
  store i8* %97, i8** %99, align 8
  %100 = getelementptr inbounds { i8*, i32 }, { i8*, i32 }* %3, i32 0, i32 1
  store i32 %98, i32* %100, align 8
  br label %bb39

cleanup2:                                         ; preds = %bb2
  %101 = landingpad { i8*, i32 }
          cleanup
  %102 = extractvalue { i8*, i32 } %101, 0
  %103 = extractvalue { i8*, i32 } %101, 1
  %104 = getelementptr inbounds { i8*, i32 }, { i8*, i32 }* %3, i32 0, i32 0
  store i8* %102, i8** %104, align 8
  %105 = getelementptr inbounds { i8*, i32 }, { i8*, i32 }* %3, i32 0, i32 1
  store i32 %103, i32* %105, align 8
  br label %bb28

cleanup3:                                         ; preds = %bb4, %bb3
  %106 = landingpad { i8*, i32 }
          cleanup
  %107 = extractvalue { i8*, i32 } %106, 0
  %108 = extractvalue { i8*, i32 } %106, 1
  %109 = getelementptr inbounds { i8*, i32 }, { i8*, i32 }* %3, i32 0, i32 0
  store i8* %107, i8** %109, align 8
  %110 = getelementptr inbounds { i8*, i32 }, { i8*, i32 }* %3, i32 0, i32 1
  store i32 %108, i32* %110, align 8
  br label %bb37

cleanup4:                                         ; preds = %bb5
  %111 = landingpad { i8*, i32 }
          cleanup
  %112 = extractvalue { i8*, i32 } %111, 0
  %113 = extractvalue { i8*, i32 } %111, 1
  %114 = getelementptr inbounds { i8*, i32 }, { i8*, i32 }* %3, i32 0, i32 0
  store i8* %112, i8** %114, align 8
  %115 = getelementptr inbounds { i8*, i32 }, { i8*, i32 }* %3, i32 0, i32 1
  store i32 %113, i32* %115, align 8
  br label %bb27

cleanup5:                                         ; preds = %bb6
  %116 = landingpad { i8*, i32 }
          cleanup
  %117 = extractvalue { i8*, i32 } %116, 0
  %118 = extractvalue { i8*, i32 } %116, 1
  %119 = getelementptr inbounds { i8*, i32 }, { i8*, i32 }* %3, i32 0, i32 0
  store i8* %117, i8** %119, align 8
  %120 = getelementptr inbounds { i8*, i32 }, { i8*, i32 }* %3, i32 0, i32 1
  store i32 %118, i32* %120, align 8
  br label %bb35

cleanup6:                                         ; preds = %bb10, %bb13, %bb12, %bb9, %bb8, %bb7
  %121 = landingpad { i8*, i32 }
          cleanup
  %122 = extractvalue { i8*, i32 } %121, 0
  %123 = extractvalue { i8*, i32 } %121, 1
  %124 = getelementptr inbounds { i8*, i32 }, { i8*, i32 }* %3, i32 0, i32 0
  store i8* %122, i8** %124, align 8
  %125 = getelementptr inbounds { i8*, i32 }, { i8*, i32 }* %3, i32 0, i32 1
  store i32 %123, i32* %125, align 8
  br label %bb33

cleanup7:                                         ; preds = %bb18, %bb17
  %126 = landingpad { i8*, i32 }
          cleanup
  %127 = extractvalue { i8*, i32 } %126, 0
  %128 = extractvalue { i8*, i32 } %126, 1
  %129 = getelementptr inbounds { i8*, i32 }, { i8*, i32 }* %3, i32 0, i32 0
  store i8* %127, i8** %129, align 8
  %130 = getelementptr inbounds { i8*, i32 }, { i8*, i32 }* %3, i32 0, i32 1
  store i32 %128, i32* %130, align 8
  br label %bb25

cleanup8:                                         ; preds = %bb19
  %131 = landingpad { i8*, i32 }
          cleanup
  %132 = extractvalue { i8*, i32 } %131, 0
  %133 = extractvalue { i8*, i32 } %131, 1
  %134 = getelementptr inbounds { i8*, i32 }, { i8*, i32 }* %3, i32 0, i32 0
  store i8* %132, i8** %134, align 8
  %135 = getelementptr inbounds { i8*, i32 }, { i8*, i32 }* %3, i32 0, i32 1
  store i32 %133, i32* %135, align 8
  br label %bb23

cleanup9:                                         ; preds = %bb20
  %136 = landingpad { i8*, i32 }
          cleanup
  %137 = extractvalue { i8*, i32 } %136, 0
  %138 = extractvalue { i8*, i32 } %136, 1
  %139 = getelementptr inbounds { i8*, i32 }, { i8*, i32 }* %3, i32 0, i32 0
  store i8* %137, i8** %139, align 8
  %140 = getelementptr inbounds { i8*, i32 }, { i8*, i32 }* %3, i32 0, i32 1
  store i32 %138, i32* %140, align 8
  br label %bb24
}

; <std::thread::Builder>::spawn::<mutex_test::main::{closure#0}, ()>
; Function Attrs: nonlazybind uwtable
define internal void @_RINvMNtCs2bNvlddUlXM_3std6threadNtB3_7Builder5spawnNCNvCseoN0Z986GuA_10mutex_test4main0uEBR_(%"std::result::Result<std::thread::JoinHandle<()>, std::io::Error>"* noalias nocapture sret dereferenceable(40) %0, %"std::thread::Builder"* noalias nocapture dereferenceable(40) %self, %"[closure@src/main.rs:25:20: 44:7]"* noalias nocapture dereferenceable(24) %f) unnamed_addr #0 !dbg !1081 {
start:
  %_4 = alloca %"[closure@src/main.rs:25:20: 44:7]", align 8
  %_3 = alloca %"std::thread::Builder", align 8
  call void @llvm.dbg.declare(metadata %"std::thread::Builder"* %self, metadata !1083, metadata !DIExpression()), !dbg !1085
  call void @llvm.dbg.declare(metadata %"[closure@src/main.rs:25:20: 44:7]"* %f, metadata !1084, metadata !DIExpression()), !dbg !1086
  %1 = bitcast %"std::thread::Builder"* %_3 to i8*, !dbg !1087
  %2 = bitcast %"std::thread::Builder"* %self to i8*, !dbg !1087
  call void @llvm.memcpy.p0i8.p0i8.i64(i8* align 8 %1, i8* align 8 %2, i64 40, i1 false), !dbg !1087
  %3 = bitcast %"[closure@src/main.rs:25:20: 44:7]"* %_4 to i8*, !dbg !1088
  %4 = bitcast %"[closure@src/main.rs:25:20: 44:7]"* %f to i8*, !dbg !1088
  call void @llvm.memcpy.p0i8.p0i8.i64(i8* align 8 %3, i8* align 8 %4, i64 24, i1 false), !dbg !1088
; call <std::thread::Builder>::spawn_unchecked::<mutex_test::main::{closure#0}, ()>
  call void @_RINvMNtCs2bNvlddUlXM_3std6threadNtB3_7Builder15spawn_uncheckedNCNvCseoN0Z986GuA_10mutex_test4main0uEB12_(%"std::result::Result<std::thread::JoinHandle<()>, std::io::Error>"* noalias nocapture sret dereferenceable(40) %0, %"std::thread::Builder"* noalias nocapture dereferenceable(40) %_3, %"[closure@src/main.rs:25:20: 44:7]"* noalias nocapture dereferenceable(24) %_4), !dbg !1087
  br label %bb1, !dbg !1087

bb1:                                              ; preds = %start
  ret void, !dbg !1089
}

; <[u8]>::get_unchecked_mut::<usize>
; Function Attrs: inlinehint nonlazybind uwtable
define internal align 1 dereferenceable(1) i8* @_RINvMNtCs3p84KrD9aKt_4core5sliceSh17get_unchecked_mutjECseoN0Z986GuA_10mutex_test([0 x i8]* nonnull align 1 %self.0, i64 %self.1, i64 %index) unnamed_addr #1 !dbg !1090 {
start:
  %index.dbg.spill = alloca i64, align 8
  %self.dbg.spill = alloca { [0 x i8]*, i64 }, align 8
  %0 = getelementptr inbounds { [0 x i8]*, i64 }, { [0 x i8]*, i64 }* %self.dbg.spill, i32 0, i32 0
  store [0 x i8]* %self.0, [0 x i8]** %0, align 8
  %1 = getelementptr inbounds { [0 x i8]*, i64 }, { [0 x i8]*, i64 }* %self.dbg.spill, i32 0, i32 1
  store i64 %self.1, i64* %1, align 8
  call void @llvm.dbg.declare(metadata { [0 x i8]*, i64 }* %self.dbg.spill, metadata !1102, metadata !DIExpression()), !dbg !1106
  store i64 %index, i64* %index.dbg.spill, align 8
  call void @llvm.dbg.declare(metadata i64* %index.dbg.spill, metadata !1103, metadata !DIExpression()), !dbg !1107
; call <usize as core::slice::index::SliceIndex<[u8]>>::get_unchecked_mut
  %_6 = call i8* @_RNvXs0_NtNtCs3p84KrD9aKt_4core5slice5indexjINtB5_10SliceIndexShE17get_unchecked_mutCseoN0Z986GuA_10mutex_test(i64 %index, [0 x i8]* %self.0, i64 %self.1), !dbg !1108
  br label %bb1, !dbg !1108

bb1:                                              ; preds = %start
  ret i8* %_6, !dbg !1109
}

; <core::option::Option<core::ptr::non_null::NonNull<u8>>>::ok_or::<core::alloc::AllocError>
; Function Attrs: inlinehint nonlazybind uwtable
define internal i8* @_RINvMNtCs3p84KrD9aKt_4core6optionINtB3_6OptionINtNtNtB5_3ptr8non_null7NonNullhEE5ok_orNtNtB5_5alloc10AllocErrorECseoN0Z986GuA_10mutex_test(i8* %0) unnamed_addr #1 personality i32 (i32, i32, i64, %"unwind::libunwind::_Unwind_Exception"*, %"unwind::libunwind::_Unwind_Context"*)* @rust_eh_personality !dbg !1110 {
start:
  %1 = alloca { i8*, i32 }, align 8
  %v.dbg.spill = alloca i8*, align 8
  %err.dbg.spill = alloca %"std::alloc::AllocError", align 1
  %_7 = alloca i8, align 1
  %2 = alloca i8*, align 8
  %self = alloca i8*, align 8
  store i8* %0, i8** %self, align 8
  call void @llvm.dbg.declare(metadata i8** %self, metadata !1146, metadata !DIExpression()), !dbg !1150
  call void @llvm.dbg.declare(metadata %"std::alloc::AllocError"* %err.dbg.spill, metadata !1147, metadata !DIExpression()), !dbg !1151
  store i8 0, i8* %_7, align 1, !dbg !1152
  store i8 1, i8* %_7, align 1, !dbg !1152
  %3 = bitcast i8** %self to {}**, !dbg !1152
  %4 = load {}*, {}** %3, align 8, !dbg !1152
  %5 = icmp eq {}* %4, null, !dbg !1152
  %_3 = select i1 %5, i64 0, i64 1, !dbg !1152
  switch i64 %_3, label %bb2 [
    i64 0, label %bb1
    i64 1, label %bb3
  ], !dbg !1152

bb1:                                              ; preds = %start
  store i8 0, i8* %_7, align 1, !dbg !1153
  %6 = bitcast i8** %2 to %"std::result::Result<std::ptr::NonNull<u8>, std::alloc::AllocError>::Err"*, !dbg !1154
  %7 = bitcast %"std::result::Result<std::ptr::NonNull<u8>, std::alloc::AllocError>::Err"* %6 to %"std::alloc::AllocError"*, !dbg !1154
  %8 = bitcast i8** %2 to {}**, !dbg !1154
  store {}* null, {}** %8, align 8, !dbg !1154
  br label %bb8, !dbg !1155

bb2:                                              ; preds = %start
  unreachable, !dbg !1156

bb3:                                              ; preds = %start
  %v = load i8*, i8** %self, align 8, !dbg !1157, !nonnull !4
  store i8* %v, i8** %v.dbg.spill, align 8, !dbg !1157
  call void @llvm.dbg.declare(metadata i8** %v.dbg.spill, metadata !1148, metadata !DIExpression()), !dbg !1158
  store i8* %v, i8** %2, align 8, !dbg !1159
  br label %bb8, !dbg !1160

bb4:                                              ; preds = %bb7, %bb8
  %9 = load i8*, i8** %2, align 8, !dbg !1161
  ret i8* %9, !dbg !1161

bb5:                                              ; No predecessors!
  br label %bb6, !dbg !1160

bb6:                                              ; preds = %bb5
  %10 = bitcast { i8*, i32 }* %1 to i8**, !dbg !1162
  %11 = load i8*, i8** %10, align 8, !dbg !1162
  %12 = getelementptr inbounds { i8*, i32 }, { i8*, i32 }* %1, i32 0, i32 1, !dbg !1162
  %13 = load i32, i32* %12, align 8, !dbg !1162
  %14 = insertvalue { i8*, i32 } undef, i8* %11, 0, !dbg !1162
  %15 = insertvalue { i8*, i32 } %14, i32 %13, 1, !dbg !1162
  resume { i8*, i32 } %15, !dbg !1162

bb7:                                              ; preds = %bb8
  br label %bb4, !dbg !1160

bb8:                                              ; preds = %bb1, %bb3
  %16 = load i8, i8* %_7, align 1, !dbg !1160, !range !1079
  %17 = trunc i8 %16 to i1, !dbg !1160
  br i1 %17, label %bb7, label %bb4, !dbg !1160
}

; <core::option::Option<usize>>::unwrap_or_else::<std::sys_common::thread::min_stack>
; Function Attrs: inlinehint nonlazybind uwtable
define internal i64 @_RINvMNtCs3p84KrD9aKt_4core6optionINtB3_6OptionjE14unwrap_or_elseNvNtNtCs2bNvlddUlXM_3std10sys_common6thread9min_stackECseoN0Z986GuA_10mutex_test(i64 %0, i64 %1) unnamed_addr #1 personality i32 (i32, i32, i64, %"unwind::libunwind::_Unwind_Exception"*, %"unwind::libunwind::_Unwind_Context"*)* @rust_eh_personality !dbg !1163 {
start:
  %2 = alloca { i8*, i32 }, align 8
  %x.dbg.spill = alloca i64, align 8
  %f.dbg.spill = alloca {}, align 1
  %_7 = alloca i8, align 1
  %_6 = alloca {}, align 1
  %3 = alloca i64, align 8
  %self = alloca { i64, i64 }, align 8
  %4 = getelementptr inbounds { i64, i64 }, { i64, i64 }* %self, i32 0, i32 0
  store i64 %0, i64* %4, align 8
  %5 = getelementptr inbounds { i64, i64 }, { i64, i64 }* %self, i32 0, i32 1
  store i64 %1, i64* %5, align 8
  call void @llvm.dbg.declare(metadata { i64, i64 }* %self, metadata !1170, metadata !DIExpression()), !dbg !1176
  call void @llvm.dbg.declare(metadata {}* %f.dbg.spill, metadata !1171, metadata !DIExpression()), !dbg !1177
  store i8 0, i8* %_7, align 1, !dbg !1178
  store i8 1, i8* %_7, align 1, !dbg !1178
  %6 = bitcast { i64, i64 }* %self to i64*, !dbg !1178
  %_3 = load i64, i64* %6, align 8, !dbg !1178, !range !1022
  switch i64 %_3, label %bb2 [
    i64 0, label %bb1
    i64 1, label %bb3
  ], !dbg !1178

bb1:                                              ; preds = %start
  store i8 0, i8* %_7, align 1, !dbg !1179
; call <std::sys_common::thread::min_stack as core::ops::function::FnOnce<()>>::call_once
  %7 = call i64 @_RNvYNvNtNtCs2bNvlddUlXM_3std10sys_common6thread9min_stackINtNtNtCs3p84KrD9aKt_4core3ops8function6FnOnceuE9call_onceCseoN0Z986GuA_10mutex_test(), !dbg !1179
  store i64 %7, i64* %3, align 8, !dbg !1179
  br label %bb4, !dbg !1179

bb2:                                              ; preds = %start
  unreachable, !dbg !1180

bb3:                                              ; preds = %start
  %8 = bitcast { i64, i64 }* %self to %"std::option::Option<usize>::Some"*, !dbg !1181
  %9 = getelementptr inbounds %"std::option::Option<usize>::Some", %"std::option::Option<usize>::Some"* %8, i32 0, i32 1, !dbg !1181
  %x = load i64, i64* %9, align 8, !dbg !1181
  store i64 %x, i64* %x.dbg.spill, align 8, !dbg !1181
  call void @llvm.dbg.declare(metadata i64* %x.dbg.spill, metadata !1172, metadata !DIExpression()), !dbg !1182
  store i64 %x, i64* %3, align 8, !dbg !1183
  br label %bb9, !dbg !1184

bb4:                                              ; preds = %bb1
  br label %bb9, !dbg !1184

bb5:                                              ; preds = %bb8, %bb9
  %10 = load i64, i64* %3, align 8, !dbg !1185
  ret i64 %10, !dbg !1185

bb6:                                              ; No predecessors!
  br label %bb7, !dbg !1186

bb7:                                              ; preds = %bb6
  %11 = bitcast { i8*, i32 }* %2 to i8**, !dbg !1187
  %12 = load i8*, i8** %11, align 8, !dbg !1187
  %13 = getelementptr inbounds { i8*, i32 }, { i8*, i32 }* %2, i32 0, i32 1, !dbg !1187
  %14 = load i32, i32* %13, align 8, !dbg !1187
  %15 = insertvalue { i8*, i32 } undef, i8* %12, 0, !dbg !1187
  %16 = insertvalue { i8*, i32 } %15, i32 %14, 1, !dbg !1187
  resume { i8*, i32 } %16, !dbg !1187

bb8:                                              ; preds = %bb9
  br label %bb5, !dbg !1186

bb9:                                              ; preds = %bb4, %bb3
  %17 = load i8, i8* %_7, align 1, !dbg !1186, !range !1079
  %18 = trunc i8 %17 to i1, !dbg !1186
  br i1 %18, label %bb8, label %bb5, !dbg !1186
}

; <core::result::Result<bool, std::sync::mpsc::Receiver<usize>>>::map_err::<std::sync::mpsc::stream::Failure<usize>, std::sync::mpsc::stream::Failure<usize>::Upgraded>
; Function Attrs: inlinehint nonlazybind uwtable
define internal void @_RINvMNtCs3p84KrD9aKt_4core6resultINtB3_6ResultbINtNtNtCs2bNvlddUlXM_3std4sync4mpsc8ReceiverjEE7map_errINtNtBM_6stream7FailurejENcNtB1C_8Upgraded0ECseoN0Z986GuA_10mutex_test(%"std::result::Result<bool, std::sync::mpsc::stream::Failure<usize>>"* noalias nocapture sret dereferenceable(24) %0, %"std::result::Result<bool, std::sync::mpsc::Receiver<usize>>"* noalias nocapture dereferenceable(24) %self) unnamed_addr #1 personality i32 (i32, i32, i64, %"unwind::libunwind::_Unwind_Exception"*, %"unwind::libunwind::_Unwind_Context"*)* @rust_eh_personality !dbg !1188 {
start:
  %1 = alloca { i8*, i32 }, align 8
  %t.dbg.spill = alloca i8, align 1
  %e.dbg.spill = alloca { i64, i8* }, align 8
  %op.dbg.spill = alloca {}, align 1
  %_11 = alloca i8, align 1
  %_9 = alloca { i64, i8* }, align 8
  call void @llvm.dbg.declare(metadata %"std::result::Result<bool, std::sync::mpsc::Receiver<usize>>"* %self, metadata !1238, metadata !DIExpression()), !dbg !1247
  call void @llvm.dbg.declare(metadata {}* %op.dbg.spill, metadata !1239, metadata !DIExpression()), !dbg !1248
  store i8 0, i8* %_11, align 1, !dbg !1249
  store i8 1, i8* %_11, align 1, !dbg !1249
  %2 = bitcast %"std::result::Result<bool, std::sync::mpsc::Receiver<usize>>"* %self to i8*, !dbg !1249
  %3 = load i8, i8* %2, align 8, !dbg !1249, !range !1079
  %4 = trunc i8 %3 to i1, !dbg !1249
  %_3 = zext i1 %4 to i64, !dbg !1249
  switch i64 %_3, label %bb2 [
    i64 0, label %bb3
    i64 1, label %bb1
  ], !dbg !1249

bb1:                                              ; preds = %start
  %5 = bitcast %"std::result::Result<bool, std::sync::mpsc::Receiver<usize>>"* %self to %"std::result::Result<bool, std::sync::mpsc::Receiver<usize>>::Err"*, !dbg !1250
  %6 = getelementptr inbounds %"std::result::Result<bool, std::sync::mpsc::Receiver<usize>>::Err", %"std::result::Result<bool, std::sync::mpsc::Receiver<usize>>::Err"* %5, i32 0, i32 1, !dbg !1250
  %7 = getelementptr inbounds { i64, i8* }, { i64, i8* }* %6, i32 0, i32 0, !dbg !1250
  %e.0 = load i64, i64* %7, align 8, !dbg !1250, !range !1251
  %8 = getelementptr inbounds { i64, i8* }, { i64, i8* }* %6, i32 0, i32 1, !dbg !1250
  %e.1 = load i8*, i8** %8, align 8, !dbg !1250
  %9 = getelementptr inbounds { i64, i8* }, { i64, i8* }* %e.dbg.spill, i32 0, i32 0, !dbg !1250
  store i64 %e.0, i64* %9, align 8, !dbg !1250
  %10 = getelementptr inbounds { i64, i8* }, { i64, i8* }* %e.dbg.spill, i32 0, i32 1, !dbg !1250
  store i8* %e.1, i8** %10, align 8, !dbg !1250
  call void @llvm.dbg.declare(metadata { i64, i8* }* %e.dbg.spill, metadata !1242, metadata !DIExpression()), !dbg !1252
  store i8 0, i8* %_11, align 1, !dbg !1253
  %11 = getelementptr inbounds { i64, i8* }, { i64, i8* }* %_9, i32 0, i32 0, !dbg !1253
  store i64 %e.0, i64* %11, align 8, !dbg !1253
  %12 = getelementptr inbounds { i64, i8* }, { i64, i8* }* %_9, i32 0, i32 1, !dbg !1253
  store i8* %e.1, i8** %12, align 8, !dbg !1253
  %13 = getelementptr inbounds { i64, i8* }, { i64, i8* }* %_9, i32 0, i32 0, !dbg !1253
  %14 = load i64, i64* %13, align 8, !dbg !1253, !range !1251
  %15 = getelementptr inbounds { i64, i8* }, { i64, i8* }* %_9, i32 0, i32 1, !dbg !1253
  %16 = load i8*, i8** %15, align 8, !dbg !1253
; call <std::sync::mpsc::stream::Failure<usize>::Upgraded as core::ops::function::FnOnce<(std::sync::mpsc::Receiver<usize>,)>>::call_once
  %17 = call { i64, i8* } @_RNvYNcNtINtNtNtNtCs2bNvlddUlXM_3std4sync4mpsc6stream7FailurejE8Upgraded0INtNtNtCs3p84KrD9aKt_4core3ops8function6FnOnceTINtBb_8ReceiverjEEE9call_onceCseoN0Z986GuA_10mutex_test(i64 %14, i8* %16), !dbg !1253
  %_7.0 = extractvalue { i64, i8* } %17, 0, !dbg !1253
  %_7.1 = extractvalue { i64, i8* } %17, 1, !dbg !1253
  br label %bb4, !dbg !1253

bb2:                                              ; preds = %start
  unreachable, !dbg !1254

bb3:                                              ; preds = %start
  %18 = bitcast %"std::result::Result<bool, std::sync::mpsc::Receiver<usize>>"* %self to %"std::result::Result<bool, std::sync::mpsc::Receiver<usize>>::Ok"*, !dbg !1255
  %19 = getelementptr inbounds %"std::result::Result<bool, std::sync::mpsc::Receiver<usize>>::Ok", %"std::result::Result<bool, std::sync::mpsc::Receiver<usize>>::Ok"* %18, i32 0, i32 1, !dbg !1255
  %20 = load i8, i8* %19, align 1, !dbg !1255, !range !1079
  %t = trunc i8 %20 to i1, !dbg !1255
  %21 = zext i1 %t to i8, !dbg !1255
  store i8 %21, i8* %t.dbg.spill, align 1, !dbg !1255
  call void @llvm.dbg.declare(metadata i8* %t.dbg.spill, metadata !1240, metadata !DIExpression()), !dbg !1256
  %22 = bitcast %"std::result::Result<bool, std::sync::mpsc::stream::Failure<usize>>"* %0 to %"std::result::Result<bool, std::sync::mpsc::stream::Failure<usize>>::Ok"*, !dbg !1257
  %23 = getelementptr inbounds %"std::result::Result<bool, std::sync::mpsc::stream::Failure<usize>>::Ok", %"std::result::Result<bool, std::sync::mpsc::stream::Failure<usize>>::Ok"* %22, i32 0, i32 1, !dbg !1257
  %24 = zext i1 %t to i8, !dbg !1257
  store i8 %24, i8* %23, align 1, !dbg !1257
  %25 = bitcast %"std::result::Result<bool, std::sync::mpsc::stream::Failure<usize>>"* %0 to i8*, !dbg !1257
  store i8 0, i8* %25, align 8, !dbg !1257
  br label %bb5, !dbg !1258

bb4:                                              ; preds = %bb1
  %26 = bitcast %"std::result::Result<bool, std::sync::mpsc::stream::Failure<usize>>"* %0 to %"std::result::Result<bool, std::sync::mpsc::stream::Failure<usize>>::Err"*, !dbg !1259
  %27 = getelementptr inbounds %"std::result::Result<bool, std::sync::mpsc::stream::Failure<usize>>::Err", %"std::result::Result<bool, std::sync::mpsc::stream::Failure<usize>>::Err"* %26, i32 0, i32 1, !dbg !1259
  %28 = getelementptr inbounds { i64, i8* }, { i64, i8* }* %27, i32 0, i32 0, !dbg !1259
  store i64 %_7.0, i64* %28, align 8, !dbg !1259
  %29 = getelementptr inbounds { i64, i8* }, { i64, i8* }* %27, i32 0, i32 1, !dbg !1259
  store i8* %_7.1, i8** %29, align 8, !dbg !1259
  %30 = bitcast %"std::result::Result<bool, std::sync::mpsc::stream::Failure<usize>>"* %0 to i8*, !dbg !1259
  store i8 1, i8* %30, align 8, !dbg !1259
  br label %bb5, !dbg !1258

bb5:                                              ; preds = %bb3, %bb4
  %31 = load i8, i8* %_11, align 1, !dbg !1260, !range !1079
  %32 = trunc i8 %31 to i1, !dbg !1260
  br i1 %32, label %bb9, label %bb6, !dbg !1260

bb6:                                              ; preds = %bb9, %bb5
  ret void, !dbg !1261

bb7:                                              ; No predecessors!
; call core::ptr::drop_in_place::<core::result::Result<bool, std::sync::mpsc::stream::Failure<usize>>>
  call void @_RINvNtCs3p84KrD9aKt_4core3ptr13drop_in_placeINtNtB4_6result6ResultbINtNtNtNtCs2bNvlddUlXM_3std4sync4mpsc6stream7FailurejEEECseoN0Z986GuA_10mutex_test(%"std::result::Result<bool, std::sync::mpsc::stream::Failure<usize>>"* %0) #18, !dbg !1260
  br label %bb8, !dbg !1260

bb8:                                              ; preds = %bb7
  %33 = bitcast { i8*, i32 }* %1 to i8**, !dbg !1262
  %34 = load i8*, i8** %33, align 8, !dbg !1262
  %35 = getelementptr inbounds { i8*, i32 }, { i8*, i32 }* %1, i32 0, i32 1, !dbg !1262
  %36 = load i32, i32* %35, align 8, !dbg !1262
  %37 = insertvalue { i8*, i32 } undef, i8* %34, 0, !dbg !1262
  %38 = insertvalue { i8*, i32 } %37, i32 %36, 1, !dbg !1262
  resume { i8*, i32 } %38, !dbg !1262

bb9:                                              ; preds = %bb5
  br label %bb6, !dbg !1260
}

; <core::result::Result<bool, std::sync::mpsc::Receiver<usize>>>::map_err::<std::sync::mpsc::oneshot::Failure<usize>, std::sync::mpsc::oneshot::Failure<usize>::Upgraded>
; Function Attrs: inlinehint nonlazybind uwtable
define internal void @_RINvMNtCs3p84KrD9aKt_4core6resultINtB3_6ResultbINtNtNtCs2bNvlddUlXM_3std4sync4mpsc8ReceiverjEE7map_errINtNtBM_7oneshot7FailurejENcNtB1C_8Upgraded0ECseoN0Z986GuA_10mutex_test(%"std::result::Result<bool, std::sync::mpsc::oneshot::Failure<usize>>"* noalias nocapture sret dereferenceable(24) %0, %"std::result::Result<bool, std::sync::mpsc::Receiver<usize>>"* noalias nocapture dereferenceable(24) %self) unnamed_addr #1 personality i32 (i32, i32, i64, %"unwind::libunwind::_Unwind_Exception"*, %"unwind::libunwind::_Unwind_Context"*)* @rust_eh_personality !dbg !1263 {
start:
  %1 = alloca { i8*, i32 }, align 8
  %t.dbg.spill = alloca i8, align 1
  %e.dbg.spill = alloca { i64, i8* }, align 8
  %op.dbg.spill = alloca {}, align 1
  %_11 = alloca i8, align 1
  %_9 = alloca { i64, i8* }, align 8
  call void @llvm.dbg.declare(metadata %"std::result::Result<bool, std::sync::mpsc::Receiver<usize>>"* %self, metadata !1296, metadata !DIExpression()), !dbg !1305
  call void @llvm.dbg.declare(metadata {}* %op.dbg.spill, metadata !1297, metadata !DIExpression()), !dbg !1306
  store i8 0, i8* %_11, align 1, !dbg !1307
  store i8 1, i8* %_11, align 1, !dbg !1307
  %2 = bitcast %"std::result::Result<bool, std::sync::mpsc::Receiver<usize>>"* %self to i8*, !dbg !1307
  %3 = load i8, i8* %2, align 8, !dbg !1307, !range !1079
  %4 = trunc i8 %3 to i1, !dbg !1307
  %_3 = zext i1 %4 to i64, !dbg !1307
  switch i64 %_3, label %bb2 [
    i64 0, label %bb3
    i64 1, label %bb1
  ], !dbg !1307

bb1:                                              ; preds = %start
  %5 = bitcast %"std::result::Result<bool, std::sync::mpsc::Receiver<usize>>"* %self to %"std::result::Result<bool, std::sync::mpsc::Receiver<usize>>::Err"*, !dbg !1308
  %6 = getelementptr inbounds %"std::result::Result<bool, std::sync::mpsc::Receiver<usize>>::Err", %"std::result::Result<bool, std::sync::mpsc::Receiver<usize>>::Err"* %5, i32 0, i32 1, !dbg !1308
  %7 = getelementptr inbounds { i64, i8* }, { i64, i8* }* %6, i32 0, i32 0, !dbg !1308
  %e.0 = load i64, i64* %7, align 8, !dbg !1308, !range !1251
  %8 = getelementptr inbounds { i64, i8* }, { i64, i8* }* %6, i32 0, i32 1, !dbg !1308
  %e.1 = load i8*, i8** %8, align 8, !dbg !1308
  %9 = getelementptr inbounds { i64, i8* }, { i64, i8* }* %e.dbg.spill, i32 0, i32 0, !dbg !1308
  store i64 %e.0, i64* %9, align 8, !dbg !1308
  %10 = getelementptr inbounds { i64, i8* }, { i64, i8* }* %e.dbg.spill, i32 0, i32 1, !dbg !1308
  store i8* %e.1, i8** %10, align 8, !dbg !1308
  call void @llvm.dbg.declare(metadata { i64, i8* }* %e.dbg.spill, metadata !1300, metadata !DIExpression()), !dbg !1309
  store i8 0, i8* %_11, align 1, !dbg !1310
  %11 = getelementptr inbounds { i64, i8* }, { i64, i8* }* %_9, i32 0, i32 0, !dbg !1310
  store i64 %e.0, i64* %11, align 8, !dbg !1310
  %12 = getelementptr inbounds { i64, i8* }, { i64, i8* }* %_9, i32 0, i32 1, !dbg !1310
  store i8* %e.1, i8** %12, align 8, !dbg !1310
  %13 = getelementptr inbounds { i64, i8* }, { i64, i8* }* %_9, i32 0, i32 0, !dbg !1310
  %14 = load i64, i64* %13, align 8, !dbg !1310, !range !1251
  %15 = getelementptr inbounds { i64, i8* }, { i64, i8* }* %_9, i32 0, i32 1, !dbg !1310
  %16 = load i8*, i8** %15, align 8, !dbg !1310
; call <std::sync::mpsc::oneshot::Failure<usize>::Upgraded as core::ops::function::FnOnce<(std::sync::mpsc::Receiver<usize>,)>>::call_once
  %17 = call { i64, i8* } @_RNvYNcNtINtNtNtNtCs2bNvlddUlXM_3std4sync4mpsc7oneshot7FailurejE8Upgraded0INtNtNtCs3p84KrD9aKt_4core3ops8function6FnOnceTINtBb_8ReceiverjEEE9call_onceCseoN0Z986GuA_10mutex_test(i64 %14, i8* %16), !dbg !1310
  %_7.0 = extractvalue { i64, i8* } %17, 0, !dbg !1310
  %_7.1 = extractvalue { i64, i8* } %17, 1, !dbg !1310
  br label %bb4, !dbg !1310

bb2:                                              ; preds = %start
  unreachable, !dbg !1311

bb3:                                              ; preds = %start
  %18 = bitcast %"std::result::Result<bool, std::sync::mpsc::Receiver<usize>>"* %self to %"std::result::Result<bool, std::sync::mpsc::Receiver<usize>>::Ok"*, !dbg !1312
  %19 = getelementptr inbounds %"std::result::Result<bool, std::sync::mpsc::Receiver<usize>>::Ok", %"std::result::Result<bool, std::sync::mpsc::Receiver<usize>>::Ok"* %18, i32 0, i32 1, !dbg !1312
  %20 = load i8, i8* %19, align 1, !dbg !1312, !range !1079
  %t = trunc i8 %20 to i1, !dbg !1312
  %21 = zext i1 %t to i8, !dbg !1312
  store i8 %21, i8* %t.dbg.spill, align 1, !dbg !1312
  call void @llvm.dbg.declare(metadata i8* %t.dbg.spill, metadata !1298, metadata !DIExpression()), !dbg !1313
  %22 = bitcast %"std::result::Result<bool, std::sync::mpsc::oneshot::Failure<usize>>"* %0 to %"std::result::Result<bool, std::sync::mpsc::oneshot::Failure<usize>>::Ok"*, !dbg !1314
  %23 = getelementptr inbounds %"std::result::Result<bool, std::sync::mpsc::oneshot::Failure<usize>>::Ok", %"std::result::Result<bool, std::sync::mpsc::oneshot::Failure<usize>>::Ok"* %22, i32 0, i32 1, !dbg !1314
  %24 = zext i1 %t to i8, !dbg !1314
  store i8 %24, i8* %23, align 1, !dbg !1314
  %25 = bitcast %"std::result::Result<bool, std::sync::mpsc::oneshot::Failure<usize>>"* %0 to i8*, !dbg !1314
  store i8 0, i8* %25, align 8, !dbg !1314
  br label %bb5, !dbg !1315

bb4:                                              ; preds = %bb1
  %26 = bitcast %"std::result::Result<bool, std::sync::mpsc::oneshot::Failure<usize>>"* %0 to %"std::result::Result<bool, std::sync::mpsc::oneshot::Failure<usize>>::Err"*, !dbg !1316
  %27 = getelementptr inbounds %"std::result::Result<bool, std::sync::mpsc::oneshot::Failure<usize>>::Err", %"std::result::Result<bool, std::sync::mpsc::oneshot::Failure<usize>>::Err"* %26, i32 0, i32 1, !dbg !1316
  %28 = getelementptr inbounds { i64, i8* }, { i64, i8* }* %27, i32 0, i32 0, !dbg !1316
  store i64 %_7.0, i64* %28, align 8, !dbg !1316
  %29 = getelementptr inbounds { i64, i8* }, { i64, i8* }* %27, i32 0, i32 1, !dbg !1316
  store i8* %_7.1, i8** %29, align 8, !dbg !1316
  %30 = bitcast %"std::result::Result<bool, std::sync::mpsc::oneshot::Failure<usize>>"* %0 to i8*, !dbg !1316
  store i8 1, i8* %30, align 8, !dbg !1316
  br label %bb5, !dbg !1315

bb5:                                              ; preds = %bb3, %bb4
  %31 = load i8, i8* %_11, align 1, !dbg !1317, !range !1079
  %32 = trunc i8 %31 to i1, !dbg !1317
  br i1 %32, label %bb9, label %bb6, !dbg !1317

bb6:                                              ; preds = %bb9, %bb5
  ret void, !dbg !1318

bb7:                                              ; No predecessors!
; call core::ptr::drop_in_place::<core::result::Result<bool, std::sync::mpsc::oneshot::Failure<usize>>>
  call void @_RINvNtCs3p84KrD9aKt_4core3ptr13drop_in_placeINtNtB4_6result6ResultbINtNtNtNtCs2bNvlddUlXM_3std4sync4mpsc7oneshot7FailurejEEECseoN0Z986GuA_10mutex_test(%"std::result::Result<bool, std::sync::mpsc::oneshot::Failure<usize>>"* %0) #18, !dbg !1317
  br label %bb8, !dbg !1317

bb8:                                              ; preds = %bb7
  %33 = bitcast { i8*, i32 }* %1 to i8**, !dbg !1319
  %34 = load i8*, i8** %33, align 8, !dbg !1319
  %35 = getelementptr inbounds { i8*, i32 }, { i8*, i32 }* %1, i32 0, i32 1, !dbg !1319
  %36 = load i32, i32* %35, align 8, !dbg !1319
  %37 = insertvalue { i8*, i32 } undef, i8* %34, 0, !dbg !1319
  %38 = insertvalue { i8*, i32 } %37, i32 %36, 1, !dbg !1319
  resume { i8*, i32 } %38, !dbg !1319

bb9:                                              ; preds = %bb5
  br label %bb6, !dbg !1317
}

; <core::result::Result<usize, std::sync::mpsc::sync::Failure>>::map_err::<std::sync::mpsc::RecvError, <std::sync::mpsc::Receiver<usize>>::recv::{closure#0}>
; Function Attrs: inlinehint nonlazybind uwtable
define internal { i64, i64 } @_RINvMNtCs3p84KrD9aKt_4core6resultINtB3_6ResultjNtNtNtNtCs2bNvlddUlXM_3std4sync4mpsc4sync7FailureE7map_errNtBN_9RecvErrorNCNvMsd_BN_INtBN_8ReceiverjE4recv0ECseoN0Z986GuA_10mutex_test(i128 %0) unnamed_addr #1 personality i32 (i32, i32, i64, %"unwind::libunwind::_Unwind_Exception"*, %"unwind::libunwind::_Unwind_Context"*)* @rust_eh_personality !dbg !1320 {
start:
  %1 = alloca { i8*, i32 }, align 8
  %t.dbg.spill = alloca i64, align 8
  %e.dbg.spill = alloca i8, align 1
  %op.dbg.spill = alloca %"[closure@std::sync::mpsc::Receiver<usize>::recv::{closure#0}]", align 1
  %_11 = alloca i8, align 1
  %_9 = alloca i8, align 1
  %2 = alloca { i64, i64 }, align 8
  %3 = alloca i128, align 8
  %self = alloca %"std::result::Result<usize, std::sync::mpsc::sync::Failure>", align 8
  store i128 %0, i128* %3, align 8
  %4 = bitcast %"std::result::Result<usize, std::sync::mpsc::sync::Failure>"* %self to i8*
  %5 = bitcast i128* %3 to i8*
  call void @llvm.memcpy.p0i8.p0i8.i64(i8* align 8 %4, i8* align 8 %5, i64 16, i1 false)
  call void @llvm.dbg.declare(metadata %"std::result::Result<usize, std::sync::mpsc::sync::Failure>"* %self, metadata !1355, metadata !DIExpression()), !dbg !1364
  call void @llvm.dbg.declare(metadata %"[closure@std::sync::mpsc::Receiver<usize>::recv::{closure#0}]"* %op.dbg.spill, metadata !1356, metadata !DIExpression()), !dbg !1365
  store i8 0, i8* %_11, align 1, !dbg !1366
  store i8 1, i8* %_11, align 1, !dbg !1366
  %6 = bitcast %"std::result::Result<usize, std::sync::mpsc::sync::Failure>"* %self to i8*, !dbg !1366
  %7 = load i8, i8* %6, align 8, !dbg !1366, !range !1079
  %8 = trunc i8 %7 to i1, !dbg !1366
  %_3 = zext i1 %8 to i64, !dbg !1366
  switch i64 %_3, label %bb2 [
    i64 0, label %bb3
    i64 1, label %bb1
  ], !dbg !1366

bb1:                                              ; preds = %start
  %9 = bitcast %"std::result::Result<usize, std::sync::mpsc::sync::Failure>"* %self to %"std::result::Result<usize, std::sync::mpsc::sync::Failure>::Err"*, !dbg !1367
  %10 = getelementptr inbounds %"std::result::Result<usize, std::sync::mpsc::sync::Failure>::Err", %"std::result::Result<usize, std::sync::mpsc::sync::Failure>::Err"* %9, i32 0, i32 1, !dbg !1367
  %11 = load i8, i8* %10, align 1, !dbg !1367, !range !1079
  %e = trunc i8 %11 to i1, !dbg !1367
  %12 = zext i1 %e to i8, !dbg !1367
  store i8 %12, i8* %e.dbg.spill, align 1, !dbg !1367
  call void @llvm.dbg.declare(metadata i8* %e.dbg.spill, metadata !1359, metadata !DIExpression()), !dbg !1368
  store i8 0, i8* %_11, align 1, !dbg !1369
  %13 = zext i1 %e to i8, !dbg !1369
  store i8 %13, i8* %_9, align 1, !dbg !1369
  %14 = load i8, i8* %_9, align 1, !dbg !1369, !range !1079
  %15 = trunc i8 %14 to i1, !dbg !1369
; call <std::sync::mpsc::Receiver<usize>>::recv::{closure#0}
  call void @_RNCNvMsd_NtNtCs2bNvlddUlXM_3std4sync4mpscINtB7_8ReceiverjE4recv0CseoN0Z986GuA_10mutex_test(i1 zeroext %15), !dbg !1369
  br label %bb4, !dbg !1369

bb2:                                              ; preds = %start
  unreachable, !dbg !1370

bb3:                                              ; preds = %start
  %16 = bitcast %"std::result::Result<usize, std::sync::mpsc::sync::Failure>"* %self to %"std::result::Result<usize, std::sync::mpsc::sync::Failure>::Ok"*, !dbg !1371
  %17 = getelementptr inbounds %"std::result::Result<usize, std::sync::mpsc::sync::Failure>::Ok", %"std::result::Result<usize, std::sync::mpsc::sync::Failure>::Ok"* %16, i32 0, i32 1, !dbg !1371
  %t = load i64, i64* %17, align 8, !dbg !1371
  store i64 %t, i64* %t.dbg.spill, align 8, !dbg !1371
  call void @llvm.dbg.declare(metadata i64* %t.dbg.spill, metadata !1357, metadata !DIExpression()), !dbg !1372
  %18 = bitcast { i64, i64 }* %2 to %"std::result::Result<usize, std::sync::mpsc::RecvError>::Ok"*, !dbg !1373
  %19 = getelementptr inbounds %"std::result::Result<usize, std::sync::mpsc::RecvError>::Ok", %"std::result::Result<usize, std::sync::mpsc::RecvError>::Ok"* %18, i32 0, i32 1, !dbg !1373
  store i64 %t, i64* %19, align 8, !dbg !1373
  %20 = bitcast { i64, i64 }* %2 to i64*, !dbg !1373
  store i64 0, i64* %20, align 8, !dbg !1373
  br label %bb5, !dbg !1374

bb4:                                              ; preds = %bb1
  %21 = bitcast { i64, i64 }* %2 to %"std::result::Result<usize, std::sync::mpsc::RecvError>::Err"*, !dbg !1375
  %22 = getelementptr inbounds %"std::result::Result<usize, std::sync::mpsc::RecvError>::Err", %"std::result::Result<usize, std::sync::mpsc::RecvError>::Err"* %21, i32 0, i32 1, !dbg !1375
  %23 = bitcast { i64, i64 }* %2 to i64*, !dbg !1375
  store i64 1, i64* %23, align 8, !dbg !1375
  br label %bb5, !dbg !1374

bb5:                                              ; preds = %bb3, %bb4
  %24 = load i8, i8* %_11, align 1, !dbg !1376, !range !1079
  %25 = trunc i8 %24 to i1, !dbg !1376
  br i1 %25, label %bb9, label %bb6, !dbg !1376

bb6:                                              ; preds = %bb9, %bb5
  %26 = getelementptr inbounds { i64, i64 }, { i64, i64 }* %2, i32 0, i32 0, !dbg !1377
  %27 = load i64, i64* %26, align 8, !dbg !1377, !range !1022
  %28 = getelementptr inbounds { i64, i64 }, { i64, i64 }* %2, i32 0, i32 1, !dbg !1377
  %29 = load i64, i64* %28, align 8, !dbg !1377
  %30 = insertvalue { i64, i64 } undef, i64 %27, 0, !dbg !1377
  %31 = insertvalue { i64, i64 } %30, i64 %29, 1, !dbg !1377
  ret { i64, i64 } %31, !dbg !1377

bb7:                                              ; No predecessors!
  br label %bb8, !dbg !1376

bb8:                                              ; preds = %bb7
  %32 = bitcast { i8*, i32 }* %1 to i8**, !dbg !1378
  %33 = load i8*, i8** %32, align 8, !dbg !1378
  %34 = getelementptr inbounds { i8*, i32 }, { i8*, i32 }* %1, i32 0, i32 1, !dbg !1378
  %35 = load i32, i32* %34, align 8, !dbg !1378
  %36 = insertvalue { i8*, i32 } undef, i8* %33, 0, !dbg !1378
  %37 = insertvalue { i8*, i32 } %36, i32 %35, 1, !dbg !1378
  resume { i8*, i32 } %37, !dbg !1378

bb9:                                              ; preds = %bb5
  br label %bb6, !dbg !1376
}

; <core::result::Result<usize, usize>>::unwrap_or_else::<<std::sync::mpsc::oneshot::Packet<usize>>::abort_selection::{closure#0}>
; Function Attrs: inlinehint nonlazybind uwtable
define internal i64 @_RINvMNtCs3p84KrD9aKt_4core6resultINtB3_6ResultjjE14unwrap_or_elseNCNvMNtNtNtCs2bNvlddUlXM_3std4sync4mpsc7oneshotINtB16_6PacketjE15abort_selection0ECseoN0Z986GuA_10mutex_test(i64 %0, i64 %1) unnamed_addr #1 personality i32 (i32, i32, i64, %"unwind::libunwind::_Unwind_Exception"*, %"unwind::libunwind::_Unwind_Context"*)* @rust_eh_personality !dbg !1379 {
start:
  %2 = alloca { i8*, i32 }, align 8
  %t.dbg.spill = alloca i64, align 8
  %e.dbg.spill = alloca i64, align 8
  %op.dbg.spill = alloca %"[closure@std::sync::mpsc::oneshot::Packet<usize>::abort_selection::{closure#0}]", align 1
  %_9 = alloca i8, align 1
  %_7 = alloca i64, align 8
  %3 = alloca i64, align 8
  %self = alloca { i64, i64 }, align 8
  %4 = getelementptr inbounds { i64, i64 }, { i64, i64 }* %self, i32 0, i32 0
  store i64 %0, i64* %4, align 8
  %5 = getelementptr inbounds { i64, i64 }, { i64, i64 }* %self, i32 0, i32 1
  store i64 %1, i64* %5, align 8
  call void @llvm.dbg.declare(metadata { i64, i64 }* %self, metadata !1400, metadata !DIExpression()), !dbg !1408
  call void @llvm.dbg.declare(metadata %"[closure@std::sync::mpsc::oneshot::Packet<usize>::abort_selection::{closure#0}]"* %op.dbg.spill, metadata !1401, metadata !DIExpression()), !dbg !1409
  store i8 0, i8* %_9, align 1, !dbg !1410
  store i8 1, i8* %_9, align 1, !dbg !1410
  %6 = bitcast { i64, i64 }* %self to i64*, !dbg !1410
  %_3 = load i64, i64* %6, align 8, !dbg !1410, !range !1022
  switch i64 %_3, label %bb2 [
    i64 0, label %bb3
    i64 1, label %bb1
  ], !dbg !1410

bb1:                                              ; preds = %start
  %7 = bitcast { i64, i64 }* %self to %"std::result::Result<usize, usize>::Err"*, !dbg !1411
  %8 = getelementptr inbounds %"std::result::Result<usize, usize>::Err", %"std::result::Result<usize, usize>::Err"* %7, i32 0, i32 1, !dbg !1411
  %e = load i64, i64* %8, align 8, !dbg !1411
  store i64 %e, i64* %e.dbg.spill, align 8, !dbg !1411
  call void @llvm.dbg.declare(metadata i64* %e.dbg.spill, metadata !1404, metadata !DIExpression()), !dbg !1412
  store i8 0, i8* %_9, align 1, !dbg !1413
  store i64 %e, i64* %_7, align 8, !dbg !1413
  %9 = load i64, i64* %_7, align 8, !dbg !1413
; call <std::sync::mpsc::oneshot::Packet<usize>>::abort_selection::{closure#0}
  %10 = call i64 @_RNCNvMNtNtNtCs2bNvlddUlXM_3std4sync4mpsc7oneshotINtB4_6PacketjE15abort_selection0CseoN0Z986GuA_10mutex_test(i64 %9), !dbg !1413
  store i64 %10, i64* %3, align 8, !dbg !1413
  br label %bb4, !dbg !1413

bb2:                                              ; preds = %start
  unreachable, !dbg !1414

bb3:                                              ; preds = %start
  %11 = bitcast { i64, i64 }* %self to %"std::result::Result<usize, usize>::Ok"*, !dbg !1415
  %12 = getelementptr inbounds %"std::result::Result<usize, usize>::Ok", %"std::result::Result<usize, usize>::Ok"* %11, i32 0, i32 1, !dbg !1415
  %t = load i64, i64* %12, align 8, !dbg !1415
  store i64 %t, i64* %t.dbg.spill, align 8, !dbg !1415
  call void @llvm.dbg.declare(metadata i64* %t.dbg.spill, metadata !1402, metadata !DIExpression()), !dbg !1416
  store i64 %t, i64* %3, align 8, !dbg !1417
  br label %bb5, !dbg !1418

bb4:                                              ; preds = %bb1
  br label %bb5, !dbg !1418

bb5:                                              ; preds = %bb3, %bb4
  %13 = load i8, i8* %_9, align 1, !dbg !1419, !range !1079
  %14 = trunc i8 %13 to i1, !dbg !1419
  br i1 %14, label %bb9, label %bb6, !dbg !1419

bb6:                                              ; preds = %bb9, %bb5
  %15 = load i64, i64* %3, align 8, !dbg !1420
  ret i64 %15, !dbg !1420

bb7:                                              ; No predecessors!
  br label %bb8, !dbg !1419

bb8:                                              ; preds = %bb7
  %16 = bitcast { i8*, i32 }* %2 to i8**, !dbg !1421
  %17 = load i8*, i8** %16, align 8, !dbg !1421
  %18 = getelementptr inbounds { i8*, i32 }, { i8*, i32 }* %2, i32 0, i32 1, !dbg !1421
  %19 = load i32, i32* %18, align 8, !dbg !1421
  %20 = insertvalue { i8*, i32 } undef, i8* %17, 0, !dbg !1421
  %21 = insertvalue { i8*, i32 } %20, i32 %19, 1, !dbg !1421
  resume { i8*, i32 } %21, !dbg !1421

bb9:                                              ; preds = %bb5
  br label %bb6, !dbg !1419
}

; <core::result::Result<(), usize>>::map_err::<std::sync::mpsc::SendError<usize>, std::sync::mpsc::SendError<usize>>
; Function Attrs: inlinehint nonlazybind uwtable
define internal { i64, i64 } @_RINvMNtCs3p84KrD9aKt_4core6resultINtB3_6ResultujE7map_errINtNtNtCs2bNvlddUlXM_3std4sync4mpsc9SendErrorjENcBT_0ECseoN0Z986GuA_10mutex_test(i64 %0, i64 %1) unnamed_addr #1 personality i32 (i32, i32, i64, %"unwind::libunwind::_Unwind_Exception"*, %"unwind::libunwind::_Unwind_Context"*)* @rust_eh_personality !dbg !1422 {
start:
  %2 = alloca { i8*, i32 }, align 8
  %e.dbg.spill = alloca i64, align 8
  %t.dbg.spill = alloca {}, align 1
  %op.dbg.spill = alloca {}, align 1
  %_11 = alloca i8, align 1
  %_9 = alloca i64, align 8
  %3 = alloca { i64, i64 }, align 8
  %self = alloca { i64, i64 }, align 8
  %4 = getelementptr inbounds { i64, i64 }, { i64, i64 }* %self, i32 0, i32 0
  store i64 %0, i64* %4, align 8
  %5 = getelementptr inbounds { i64, i64 }, { i64, i64 }* %self, i32 0, i32 1
  store i64 %1, i64* %5, align 8
  call void @llvm.dbg.declare(metadata { i64, i64 }* %self, metadata !1456, metadata !DIExpression()), !dbg !1465
  call void @llvm.dbg.declare(metadata {}* %op.dbg.spill, metadata !1457, metadata !DIExpression()), !dbg !1466
  call void @llvm.dbg.declare(metadata {}* %t.dbg.spill, metadata !1458, metadata !DIExpression()), !dbg !1467
  store i8 0, i8* %_11, align 1, !dbg !1468
  store i8 1, i8* %_11, align 1, !dbg !1468
  %6 = bitcast { i64, i64 }* %self to i64*, !dbg !1468
  %_3 = load i64, i64* %6, align 8, !dbg !1468, !range !1022
  switch i64 %_3, label %bb2 [
    i64 0, label %bb3
    i64 1, label %bb1
  ], !dbg !1468

bb1:                                              ; preds = %start
  %7 = bitcast { i64, i64 }* %self to %"std::result::Result<(), usize>::Err"*, !dbg !1469
  %8 = getelementptr inbounds %"std::result::Result<(), usize>::Err", %"std::result::Result<(), usize>::Err"* %7, i32 0, i32 1, !dbg !1469
  %e = load i64, i64* %8, align 8, !dbg !1469
  store i64 %e, i64* %e.dbg.spill, align 8, !dbg !1469
  call void @llvm.dbg.declare(metadata i64* %e.dbg.spill, metadata !1460, metadata !DIExpression()), !dbg !1470
  store i8 0, i8* %_11, align 1, !dbg !1471
  store i64 %e, i64* %_9, align 8, !dbg !1471
  %9 = load i64, i64* %_9, align 8, !dbg !1471
; call <std::sync::mpsc::SendError<usize> as core::ops::function::FnOnce<(usize,)>>::call_once
  %_7 = call i64 @_RNvYNcINtNtNtCs2bNvlddUlXM_3std4sync4mpsc9SendErrorjE0INtNtNtCs3p84KrD9aKt_4core3ops8function6FnOnceTjEE9call_onceCseoN0Z986GuA_10mutex_test(i64 %9), !dbg !1471
  br label %bb4, !dbg !1471

bb2:                                              ; preds = %start
  unreachable, !dbg !1472

bb3:                                              ; preds = %start
  %10 = bitcast { i64, i64 }* %3 to %"std::result::Result<(), std::sync::mpsc::SendError<usize>>::Ok"*, !dbg !1473
  %11 = getelementptr inbounds %"std::result::Result<(), std::sync::mpsc::SendError<usize>>::Ok", %"std::result::Result<(), std::sync::mpsc::SendError<usize>>::Ok"* %10, i32 0, i32 1, !dbg !1473
  %12 = bitcast { i64, i64 }* %3 to i64*, !dbg !1473
  store i64 0, i64* %12, align 8, !dbg !1473
  br label %bb5, !dbg !1474

bb4:                                              ; preds = %bb1
  %13 = bitcast { i64, i64 }* %3 to %"std::result::Result<(), std::sync::mpsc::SendError<usize>>::Err"*, !dbg !1475
  %14 = getelementptr inbounds %"std::result::Result<(), std::sync::mpsc::SendError<usize>>::Err", %"std::result::Result<(), std::sync::mpsc::SendError<usize>>::Err"* %13, i32 0, i32 1, !dbg !1475
  store i64 %_7, i64* %14, align 8, !dbg !1475
  %15 = bitcast { i64, i64 }* %3 to i64*, !dbg !1475
  store i64 1, i64* %15, align 8, !dbg !1475
  br label %bb5, !dbg !1474

bb5:                                              ; preds = %bb3, %bb4
  %16 = load i8, i8* %_11, align 1, !dbg !1476, !range !1079
  %17 = trunc i8 %16 to i1, !dbg !1476
  br i1 %17, label %bb9, label %bb6, !dbg !1476

bb6:                                              ; preds = %bb9, %bb5
  %18 = getelementptr inbounds { i64, i64 }, { i64, i64 }* %3, i32 0, i32 0, !dbg !1477
  %19 = load i64, i64* %18, align 8, !dbg !1477, !range !1022
  %20 = getelementptr inbounds { i64, i64 }, { i64, i64 }* %3, i32 0, i32 1, !dbg !1477
  %21 = load i64, i64* %20, align 8, !dbg !1477
  %22 = insertvalue { i64, i64 } undef, i64 %19, 0, !dbg !1477
  %23 = insertvalue { i64, i64 } %22, i64 %21, 1, !dbg !1477
  ret { i64, i64 } %23, !dbg !1477

bb7:                                              ; No predecessors!
  br label %bb8, !dbg !1476

bb8:                                              ; preds = %bb7
  %24 = bitcast { i8*, i32 }* %2 to i8**, !dbg !1478
  %25 = load i8*, i8** %24, align 8, !dbg !1478
  %26 = getelementptr inbounds { i8*, i32 }, { i8*, i32 }* %2, i32 0, i32 1, !dbg !1478
  %27 = load i32, i32* %26, align 8, !dbg !1478
  %28 = insertvalue { i8*, i32 } undef, i8* %25, 0, !dbg !1478
  %29 = insertvalue { i8*, i32 } %28, i32 %27, 1, !dbg !1478
  resume { i8*, i32 } %29, !dbg !1478

bb9:                                              ; preds = %bb5
  br label %bb6, !dbg !1476
}

; <core::alloc::layout::Layout>::for_value_raw::<alloc::sync::ArcInner<core::cell::UnsafeCell<core::option::Option<core::result::Result<(), alloc::boxed::Box<dyn core::any::Any + core::marker::Send>>>>>>
; Function Attrs: nonlazybind uwtable
define internal { i64, i64 } @_RINvMNtNtCs3p84KrD9aKt_4core5alloc6layoutNtB3_6Layout13for_value_rawINtNtCs8RW06R9lH2S_5alloc4sync8ArcInnerINtNtB7_4cell10UnsafeCellINtNtB7_6option6OptionINtNtB7_6result6ResultuINtNtB19_5boxed3BoxDNtNtB7_3any3AnyNtNtB7_6marker4SendEL_EEEEEECseoN0Z986GuA_10mutex_test(%"alloc::sync::ArcInner<std::cell::UnsafeCell<std::option::Option<std::result::Result<(), std::boxed::Box<dyn std::any::Any + std::marker::Send>>>>>"* %t) unnamed_addr #0 !dbg !1479 {
start:
  %align.dbg.spill = alloca i64, align 8
  %size.dbg.spill = alloca i64, align 8
  %t.dbg.spill = alloca %"alloc::sync::ArcInner<std::cell::UnsafeCell<std::option::Option<std::result::Result<(), std::boxed::Box<dyn std::any::Any + std::marker::Send>>>>>"*, align 8
  %_4 = alloca { i64, i64 }, align 8
  store %"alloc::sync::ArcInner<std::cell::UnsafeCell<std::option::Option<std::result::Result<(), std::boxed::Box<dyn std::any::Any + std::marker::Send>>>>>"* %t, %"alloc::sync::ArcInner<std::cell::UnsafeCell<std::option::Option<std::result::Result<(), std::boxed::Box<dyn std::any::Any + std::marker::Send>>>>>"** %t.dbg.spill, align 8
  call void @llvm.dbg.declare(metadata %"alloc::sync::ArcInner<std::cell::UnsafeCell<std::option::Option<std::result::Result<(), std::boxed::Box<dyn std::any::Any + std::marker::Send>>>>>"** %t.dbg.spill, metadata !1492, metadata !DIExpression()), !dbg !1496
; call core::mem::size_of_val_raw::<alloc::sync::ArcInner<core::cell::UnsafeCell<core::option::Option<core::result::Result<(), alloc::boxed::Box<dyn core::any::Any + core::marker::Send>>>>>>
  %_5 = call i64 @_RINvNtCs3p84KrD9aKt_4core3mem15size_of_val_rawINtNtCs8RW06R9lH2S_5alloc4sync8ArcInnerINtNtB4_4cell10UnsafeCellINtNtB4_6option6OptionINtNtB4_6result6ResultuINtNtBN_5boxed3BoxDNtNtB4_3any3AnyNtNtB4_6marker4SendEL_EEEEEECseoN0Z986GuA_10mutex_test(%"alloc::sync::ArcInner<std::cell::UnsafeCell<std::option::Option<std::result::Result<(), std::boxed::Box<dyn std::any::Any + std::marker::Send>>>>>"* %t), !dbg !1497
  br label %bb1, !dbg !1497

bb1:                                              ; preds = %start
; call core::mem::align_of_val_raw::<alloc::sync::ArcInner<core::cell::UnsafeCell<core::option::Option<core::result::Result<(), alloc::boxed::Box<dyn core::any::Any + core::marker::Send>>>>>>
  %_7 = call i64 @_RINvNtCs3p84KrD9aKt_4core3mem16align_of_val_rawINtNtCs8RW06R9lH2S_5alloc4sync8ArcInnerINtNtB4_4cell10UnsafeCellINtNtB4_6option6OptionINtNtB4_6result6ResultuINtNtBO_5boxed3BoxDNtNtB4_3any3AnyNtNtB4_6marker4SendEL_EEEEEECseoN0Z986GuA_10mutex_test(%"alloc::sync::ArcInner<std::cell::UnsafeCell<std::option::Option<std::result::Result<(), std::boxed::Box<dyn std::any::Any + std::marker::Send>>>>>"* %t), !dbg !1498
  br label %bb2, !dbg !1498

bb2:                                              ; preds = %bb1
  %0 = bitcast { i64, i64 }* %_4 to i64*, !dbg !1499
  store i64 %_5, i64* %0, align 8, !dbg !1499
  %1 = getelementptr inbounds { i64, i64 }, { i64, i64 }* %_4, i32 0, i32 1, !dbg !1499
  store i64 %_7, i64* %1, align 8, !dbg !1499
  %2 = bitcast { i64, i64 }* %_4 to i64*, !dbg !1500
  %size = load i64, i64* %2, align 8, !dbg !1500
  store i64 %size, i64* %size.dbg.spill, align 8, !dbg !1500
  call void @llvm.dbg.declare(metadata i64* %size.dbg.spill, metadata !1493, metadata !DIExpression()), !dbg !1501
  %3 = getelementptr inbounds { i64, i64 }, { i64, i64 }* %_4, i32 0, i32 1, !dbg !1502
  %align = load i64, i64* %3, align 8, !dbg !1502
  store i64 %align, i64* %align.dbg.spill, align 8, !dbg !1502
  call void @llvm.dbg.declare(metadata i64* %align.dbg.spill, metadata !1495, metadata !DIExpression()), !dbg !1503
; call <core::alloc::layout::Layout>::from_size_align_unchecked
  %4 = call { i64, i64 } @_RNvMNtNtCs3p84KrD9aKt_4core5alloc6layoutNtB2_6Layout25from_size_align_uncheckedCseoN0Z986GuA_10mutex_test(i64 %size, i64 %align), !dbg !1504
  %5 = extractvalue { i64, i64 } %4, 0, !dbg !1504
  %6 = extractvalue { i64, i64 } %4, 1, !dbg !1504
  br label %bb3, !dbg !1504

bb3:                                              ; preds = %bb2
  %7 = insertvalue { i64, i64 } undef, i64 %5, 0, !dbg !1505
  %8 = insertvalue { i64, i64 } %7, i64 %6, 1, !dbg !1505
  ret { i64, i64 } %8, !dbg !1505
}

; <core::alloc::layout::Layout>::for_value_raw::<alloc::sync::ArcInner<std::sync::mutex::Mutex<alloc::vec::Vec<u8>>>>
; Function Attrs: nonlazybind uwtable
define internal { i64, i64 } @_RINvMNtNtCs3p84KrD9aKt_4core5alloc6layoutNtB3_6Layout13for_value_rawINtNtCs8RW06R9lH2S_5alloc4sync8ArcInnerINtNtNtCs2bNvlddUlXM_3std4sync5mutex5MutexINtNtB19_3vec3VechEEEECseoN0Z986GuA_10mutex_test(%"alloc::sync::ArcInner<std::sync::Mutex<std::vec::Vec<u8>>>"* %t) unnamed_addr #0 !dbg !1506 {
start:
  %align.dbg.spill = alloca i64, align 8
  %size.dbg.spill = alloca i64, align 8
  %t.dbg.spill = alloca %"alloc::sync::ArcInner<std::sync::Mutex<std::vec::Vec<u8>>>"*, align 8
  %_4 = alloca { i64, i64 }, align 8
  store %"alloc::sync::ArcInner<std::sync::Mutex<std::vec::Vec<u8>>>"* %t, %"alloc::sync::ArcInner<std::sync::Mutex<std::vec::Vec<u8>>>"** %t.dbg.spill, align 8
  call void @llvm.dbg.declare(metadata %"alloc::sync::ArcInner<std::sync::Mutex<std::vec::Vec<u8>>>"** %t.dbg.spill, metadata !1510, metadata !DIExpression()), !dbg !1514
; call core::mem::size_of_val_raw::<alloc::sync::ArcInner<std::sync::mutex::Mutex<alloc::vec::Vec<u8>>>>
  %_5 = call i64 @_RINvNtCs3p84KrD9aKt_4core3mem15size_of_val_rawINtNtCs8RW06R9lH2S_5alloc4sync8ArcInnerINtNtNtCs2bNvlddUlXM_3std4sync5mutex5MutexINtNtBN_3vec3VechEEEECseoN0Z986GuA_10mutex_test(%"alloc::sync::ArcInner<std::sync::Mutex<std::vec::Vec<u8>>>"* %t), !dbg !1515
  br label %bb1, !dbg !1515

bb1:                                              ; preds = %start
; call core::mem::align_of_val_raw::<alloc::sync::ArcInner<std::sync::mutex::Mutex<alloc::vec::Vec<u8>>>>
  %_7 = call i64 @_RINvNtCs3p84KrD9aKt_4core3mem16align_of_val_rawINtNtCs8RW06R9lH2S_5alloc4sync8ArcInnerINtNtNtCs2bNvlddUlXM_3std4sync5mutex5MutexINtNtBO_3vec3VechEEEECseoN0Z986GuA_10mutex_test(%"alloc::sync::ArcInner<std::sync::Mutex<std::vec::Vec<u8>>>"* %t), !dbg !1516
  br label %bb2, !dbg !1516

bb2:                                              ; preds = %bb1
  %0 = bitcast { i64, i64 }* %_4 to i64*, !dbg !1517
  store i64 %_5, i64* %0, align 8, !dbg !1517
  %1 = getelementptr inbounds { i64, i64 }, { i64, i64 }* %_4, i32 0, i32 1, !dbg !1517
  store i64 %_7, i64* %1, align 8, !dbg !1517
  %2 = bitcast { i64, i64 }* %_4 to i64*, !dbg !1518
  %size = load i64, i64* %2, align 8, !dbg !1518
  store i64 %size, i64* %size.dbg.spill, align 8, !dbg !1518
  call void @llvm.dbg.declare(metadata i64* %size.dbg.spill, metadata !1511, metadata !DIExpression()), !dbg !1519
  %3 = getelementptr inbounds { i64, i64 }, { i64, i64 }* %_4, i32 0, i32 1, !dbg !1520
  %align = load i64, i64* %3, align 8, !dbg !1520
  store i64 %align, i64* %align.dbg.spill, align 8, !dbg !1520
  call void @llvm.dbg.declare(metadata i64* %align.dbg.spill, metadata !1513, metadata !DIExpression()), !dbg !1521
; call <core::alloc::layout::Layout>::from_size_align_unchecked
  %4 = call { i64, i64 } @_RNvMNtNtCs3p84KrD9aKt_4core5alloc6layoutNtB2_6Layout25from_size_align_uncheckedCseoN0Z986GuA_10mutex_test(i64 %size, i64 %align), !dbg !1522
  %5 = extractvalue { i64, i64 } %4, 0, !dbg !1522
  %6 = extractvalue { i64, i64 } %4, 1, !dbg !1522
  br label %bb3, !dbg !1522

bb3:                                              ; preds = %bb2
  %7 = insertvalue { i64, i64 } undef, i64 %5, 0, !dbg !1523
  %8 = insertvalue { i64, i64 } %7, i64 %6, 1, !dbg !1523
  ret { i64, i64 } %8, !dbg !1523
}

; <core::alloc::layout::Layout>::for_value_raw::<alloc::sync::ArcInner<std::sync::mutex::Mutex<usize>>>
; Function Attrs: nonlazybind uwtable
define internal { i64, i64 } @_RINvMNtNtCs3p84KrD9aKt_4core5alloc6layoutNtB3_6Layout13for_value_rawINtNtCs8RW06R9lH2S_5alloc4sync8ArcInnerINtNtNtCs2bNvlddUlXM_3std4sync5mutex5MutexjEEECseoN0Z986GuA_10mutex_test(%"alloc::sync::ArcInner<std::sync::Mutex<usize>>"* %t) unnamed_addr #0 !dbg !1524 {
start:
  %align.dbg.spill = alloca i64, align 8
  %size.dbg.spill = alloca i64, align 8
  %t.dbg.spill = alloca %"alloc::sync::ArcInner<std::sync::Mutex<usize>>"*, align 8
  %_4 = alloca { i64, i64 }, align 8
  store %"alloc::sync::ArcInner<std::sync::Mutex<usize>>"* %t, %"alloc::sync::ArcInner<std::sync::Mutex<usize>>"** %t.dbg.spill, align 8
  call void @llvm.dbg.declare(metadata %"alloc::sync::ArcInner<std::sync::Mutex<usize>>"** %t.dbg.spill, metadata !1528, metadata !DIExpression()), !dbg !1532
; call core::mem::size_of_val_raw::<alloc::sync::ArcInner<std::sync::mutex::Mutex<usize>>>
  %_5 = call i64 @_RINvNtCs3p84KrD9aKt_4core3mem15size_of_val_rawINtNtCs8RW06R9lH2S_5alloc4sync8ArcInnerINtNtNtCs2bNvlddUlXM_3std4sync5mutex5MutexjEEECseoN0Z986GuA_10mutex_test(%"alloc::sync::ArcInner<std::sync::Mutex<usize>>"* %t), !dbg !1533
  br label %bb1, !dbg !1533

bb1:                                              ; preds = %start
; call core::mem::align_of_val_raw::<alloc::sync::ArcInner<std::sync::mutex::Mutex<usize>>>
  %_7 = call i64 @_RINvNtCs3p84KrD9aKt_4core3mem16align_of_val_rawINtNtCs8RW06R9lH2S_5alloc4sync8ArcInnerINtNtNtCs2bNvlddUlXM_3std4sync5mutex5MutexjEEECseoN0Z986GuA_10mutex_test(%"alloc::sync::ArcInner<std::sync::Mutex<usize>>"* %t), !dbg !1534
  br label %bb2, !dbg !1534

bb2:                                              ; preds = %bb1
  %0 = bitcast { i64, i64 }* %_4 to i64*, !dbg !1535
  store i64 %_5, i64* %0, align 8, !dbg !1535
  %1 = getelementptr inbounds { i64, i64 }, { i64, i64 }* %_4, i32 0, i32 1, !dbg !1535
  store i64 %_7, i64* %1, align 8, !dbg !1535
  %2 = bitcast { i64, i64 }* %_4 to i64*, !dbg !1536
  %size = load i64, i64* %2, align 8, !dbg !1536
  store i64 %size, i64* %size.dbg.spill, align 8, !dbg !1536
  call void @llvm.dbg.declare(metadata i64* %size.dbg.spill, metadata !1529, metadata !DIExpression()), !dbg !1537
  %3 = getelementptr inbounds { i64, i64 }, { i64, i64 }* %_4, i32 0, i32 1, !dbg !1538
  %align = load i64, i64* %3, align 8, !dbg !1538
  store i64 %align, i64* %align.dbg.spill, align 8, !dbg !1538
  call void @llvm.dbg.declare(metadata i64* %align.dbg.spill, metadata !1531, metadata !DIExpression()), !dbg !1539
; call <core::alloc::layout::Layout>::from_size_align_unchecked
  %4 = call { i64, i64 } @_RNvMNtNtCs3p84KrD9aKt_4core5alloc6layoutNtB2_6Layout25from_size_align_uncheckedCseoN0Z986GuA_10mutex_test(i64 %size, i64 %align), !dbg !1540
  %5 = extractvalue { i64, i64 } %4, 0, !dbg !1540
  %6 = extractvalue { i64, i64 } %4, 1, !dbg !1540
  br label %bb3, !dbg !1540

bb3:                                              ; preds = %bb2
  %7 = insertvalue { i64, i64 } undef, i64 %5, 0, !dbg !1541
  %8 = insertvalue { i64, i64 } %7, i64 %6, 1, !dbg !1541
  ret { i64, i64 } %8, !dbg !1541
}

; <core::alloc::layout::Layout>::for_value_raw::<alloc::sync::ArcInner<std::sync::mpsc::sync::Packet<usize>>>
; Function Attrs: nonlazybind uwtable
define internal { i64, i64 } @_RINvMNtNtCs3p84KrD9aKt_4core5alloc6layoutNtB3_6Layout13for_value_rawINtNtCs8RW06R9lH2S_5alloc4sync8ArcInnerINtNtNtNtCs2bNvlddUlXM_3std4sync4mpsc4sync6PacketjEEECseoN0Z986GuA_10mutex_test(%"alloc::sync::ArcInner<std::sync::mpsc::sync::Packet<usize>>"* %t) unnamed_addr #0 !dbg !1542 {
start:
  %align.dbg.spill = alloca i64, align 8
  %size.dbg.spill = alloca i64, align 8
  %t.dbg.spill = alloca %"alloc::sync::ArcInner<std::sync::mpsc::sync::Packet<usize>>"*, align 8
  %_4 = alloca { i64, i64 }, align 8
  store %"alloc::sync::ArcInner<std::sync::mpsc::sync::Packet<usize>>"* %t, %"alloc::sync::ArcInner<std::sync::mpsc::sync::Packet<usize>>"** %t.dbg.spill, align 8
  call void @llvm.dbg.declare(metadata %"alloc::sync::ArcInner<std::sync::mpsc::sync::Packet<usize>>"** %t.dbg.spill, metadata !1546, metadata !DIExpression()), !dbg !1550
; call core::mem::size_of_val_raw::<alloc::sync::ArcInner<std::sync::mpsc::sync::Packet<usize>>>
  %_5 = call i64 @_RINvNtCs3p84KrD9aKt_4core3mem15size_of_val_rawINtNtCs8RW06R9lH2S_5alloc4sync8ArcInnerINtNtNtNtCs2bNvlddUlXM_3std4sync4mpsc4sync6PacketjEEECseoN0Z986GuA_10mutex_test(%"alloc::sync::ArcInner<std::sync::mpsc::sync::Packet<usize>>"* %t), !dbg !1551
  br label %bb1, !dbg !1551

bb1:                                              ; preds = %start
; call core::mem::align_of_val_raw::<alloc::sync::ArcInner<std::sync::mpsc::sync::Packet<usize>>>
  %_7 = call i64 @_RINvNtCs3p84KrD9aKt_4core3mem16align_of_val_rawINtNtCs8RW06R9lH2S_5alloc4sync8ArcInnerINtNtNtNtCs2bNvlddUlXM_3std4sync4mpsc4sync6PacketjEEECseoN0Z986GuA_10mutex_test(%"alloc::sync::ArcInner<std::sync::mpsc::sync::Packet<usize>>"* %t), !dbg !1552
  br label %bb2, !dbg !1552

bb2:                                              ; preds = %bb1
  %0 = bitcast { i64, i64 }* %_4 to i64*, !dbg !1553
  store i64 %_5, i64* %0, align 8, !dbg !1553
  %1 = getelementptr inbounds { i64, i64 }, { i64, i64 }* %_4, i32 0, i32 1, !dbg !1553
  store i64 %_7, i64* %1, align 8, !dbg !1553
  %2 = bitcast { i64, i64 }* %_4 to i64*, !dbg !1554
  %size = load i64, i64* %2, align 8, !dbg !1554
  store i64 %size, i64* %size.dbg.spill, align 8, !dbg !1554
  call void @llvm.dbg.declare(metadata i64* %size.dbg.spill, metadata !1547, metadata !DIExpression()), !dbg !1555
  %3 = getelementptr inbounds { i64, i64 }, { i64, i64 }* %_4, i32 0, i32 1, !dbg !1556
  %align = load i64, i64* %3, align 8, !dbg !1556
  store i64 %align, i64* %align.dbg.spill, align 8, !dbg !1556
  call void @llvm.dbg.declare(metadata i64* %align.dbg.spill, metadata !1549, metadata !DIExpression()), !dbg !1557
; call <core::alloc::layout::Layout>::from_size_align_unchecked
  %4 = call { i64, i64 } @_RNvMNtNtCs3p84KrD9aKt_4core5alloc6layoutNtB2_6Layout25from_size_align_uncheckedCseoN0Z986GuA_10mutex_test(i64 %size, i64 %align), !dbg !1558
  %5 = extractvalue { i64, i64 } %4, 0, !dbg !1558
  %6 = extractvalue { i64, i64 } %4, 1, !dbg !1558
  br label %bb3, !dbg !1558

bb3:                                              ; preds = %bb2
  %7 = insertvalue { i64, i64 } undef, i64 %5, 0, !dbg !1559
  %8 = insertvalue { i64, i64 } %7, i64 %6, 1, !dbg !1559
  ret { i64, i64 } %8, !dbg !1559
}

; <core::alloc::layout::Layout>::for_value_raw::<alloc::sync::ArcInner<std::sync::mpsc::shared::Packet<usize>>>
; Function Attrs: nonlazybind uwtable
define internal { i64, i64 } @_RINvMNtNtCs3p84KrD9aKt_4core5alloc6layoutNtB3_6Layout13for_value_rawINtNtCs8RW06R9lH2S_5alloc4sync8ArcInnerINtNtNtNtCs2bNvlddUlXM_3std4sync4mpsc6shared6PacketjEEECseoN0Z986GuA_10mutex_test(%"alloc::sync::ArcInner<std::sync::mpsc::shared::Packet<usize>>"* %t) unnamed_addr #0 !dbg !1560 {
start:
  %align.dbg.spill = alloca i64, align 8
  %size.dbg.spill = alloca i64, align 8
  %t.dbg.spill = alloca %"alloc::sync::ArcInner<std::sync::mpsc::shared::Packet<usize>>"*, align 8
  %_4 = alloca { i64, i64 }, align 8
  store %"alloc::sync::ArcInner<std::sync::mpsc::shared::Packet<usize>>"* %t, %"alloc::sync::ArcInner<std::sync::mpsc::shared::Packet<usize>>"** %t.dbg.spill, align 8
  call void @llvm.dbg.declare(metadata %"alloc::sync::ArcInner<std::sync::mpsc::shared::Packet<usize>>"** %t.dbg.spill, metadata !1564, metadata !DIExpression()), !dbg !1568
; call core::mem::size_of_val_raw::<alloc::sync::ArcInner<std::sync::mpsc::shared::Packet<usize>>>
  %_5 = call i64 @_RINvNtCs3p84KrD9aKt_4core3mem15size_of_val_rawINtNtCs8RW06R9lH2S_5alloc4sync8ArcInnerINtNtNtNtCs2bNvlddUlXM_3std4sync4mpsc6shared6PacketjEEECseoN0Z986GuA_10mutex_test(%"alloc::sync::ArcInner<std::sync::mpsc::shared::Packet<usize>>"* %t), !dbg !1569
  br label %bb1, !dbg !1569

bb1:                                              ; preds = %start
; call core::mem::align_of_val_raw::<alloc::sync::ArcInner<std::sync::mpsc::shared::Packet<usize>>>
  %_7 = call i64 @_RINvNtCs3p84KrD9aKt_4core3mem16align_of_val_rawINtNtCs8RW06R9lH2S_5alloc4sync8ArcInnerINtNtNtNtCs2bNvlddUlXM_3std4sync4mpsc6shared6PacketjEEECseoN0Z986GuA_10mutex_test(%"alloc::sync::ArcInner<std::sync::mpsc::shared::Packet<usize>>"* %t), !dbg !1570
  br label %bb2, !dbg !1570

bb2:                                              ; preds = %bb1
  %0 = bitcast { i64, i64 }* %_4 to i64*, !dbg !1571
  store i64 %_5, i64* %0, align 8, !dbg !1571
  %1 = getelementptr inbounds { i64, i64 }, { i64, i64 }* %_4, i32 0, i32 1, !dbg !1571
  store i64 %_7, i64* %1, align 8, !dbg !1571
  %2 = bitcast { i64, i64 }* %_4 to i64*, !dbg !1572
  %size = load i64, i64* %2, align 8, !dbg !1572
  store i64 %size, i64* %size.dbg.spill, align 8, !dbg !1572
  call void @llvm.dbg.declare(metadata i64* %size.dbg.spill, metadata !1565, metadata !DIExpression()), !dbg !1573
  %3 = getelementptr inbounds { i64, i64 }, { i64, i64 }* %_4, i32 0, i32 1, !dbg !1574
  %align = load i64, i64* %3, align 8, !dbg !1574
  store i64 %align, i64* %align.dbg.spill, align 8, !dbg !1574
  call void @llvm.dbg.declare(metadata i64* %align.dbg.spill, metadata !1567, metadata !DIExpression()), !dbg !1575
; call <core::alloc::layout::Layout>::from_size_align_unchecked
  %4 = call { i64, i64 } @_RNvMNtNtCs3p84KrD9aKt_4core5alloc6layoutNtB2_6Layout25from_size_align_uncheckedCseoN0Z986GuA_10mutex_test(i64 %size, i64 %align), !dbg !1576
  %5 = extractvalue { i64, i64 } %4, 0, !dbg !1576
  %6 = extractvalue { i64, i64 } %4, 1, !dbg !1576
  br label %bb3, !dbg !1576

bb3:                                              ; preds = %bb2
  %7 = insertvalue { i64, i64 } undef, i64 %5, 0, !dbg !1577
  %8 = insertvalue { i64, i64 } %7, i64 %6, 1, !dbg !1577
  ret { i64, i64 } %8, !dbg !1577
}

; <core::alloc::layout::Layout>::for_value_raw::<alloc::sync::ArcInner<std::sync::mpsc::stream::Packet<usize>>>
; Function Attrs: nonlazybind uwtable
define internal { i64, i64 } @_RINvMNtNtCs3p84KrD9aKt_4core5alloc6layoutNtB3_6Layout13for_value_rawINtNtCs8RW06R9lH2S_5alloc4sync8ArcInnerINtNtNtNtCs2bNvlddUlXM_3std4sync4mpsc6stream6PacketjEEECseoN0Z986GuA_10mutex_test(%"alloc::sync::ArcInner<std::sync::mpsc::stream::Packet<usize>>"* %t) unnamed_addr #0 !dbg !1578 {
start:
  %align.dbg.spill = alloca i64, align 8
  %size.dbg.spill = alloca i64, align 8
  %t.dbg.spill = alloca %"alloc::sync::ArcInner<std::sync::mpsc::stream::Packet<usize>>"*, align 8
  %_4 = alloca { i64, i64 }, align 8
  store %"alloc::sync::ArcInner<std::sync::mpsc::stream::Packet<usize>>"* %t, %"alloc::sync::ArcInner<std::sync::mpsc::stream::Packet<usize>>"** %t.dbg.spill, align 8
  call void @llvm.dbg.declare(metadata %"alloc::sync::ArcInner<std::sync::mpsc::stream::Packet<usize>>"** %t.dbg.spill, metadata !1582, metadata !DIExpression()), !dbg !1586
; call core::mem::size_of_val_raw::<alloc::sync::ArcInner<std::sync::mpsc::stream::Packet<usize>>>
  %_5 = call i64 @_RINvNtCs3p84KrD9aKt_4core3mem15size_of_val_rawINtNtCs8RW06R9lH2S_5alloc4sync8ArcInnerINtNtNtNtCs2bNvlddUlXM_3std4sync4mpsc6stream6PacketjEEECseoN0Z986GuA_10mutex_test(%"alloc::sync::ArcInner<std::sync::mpsc::stream::Packet<usize>>"* %t), !dbg !1587
  br label %bb1, !dbg !1587

bb1:                                              ; preds = %start
; call core::mem::align_of_val_raw::<alloc::sync::ArcInner<std::sync::mpsc::stream::Packet<usize>>>
  %_7 = call i64 @_RINvNtCs3p84KrD9aKt_4core3mem16align_of_val_rawINtNtCs8RW06R9lH2S_5alloc4sync8ArcInnerINtNtNtNtCs2bNvlddUlXM_3std4sync4mpsc6stream6PacketjEEECseoN0Z986GuA_10mutex_test(%"alloc::sync::ArcInner<std::sync::mpsc::stream::Packet<usize>>"* %t), !dbg !1588
  br label %bb2, !dbg !1588

bb2:                                              ; preds = %bb1
  %0 = bitcast { i64, i64 }* %_4 to i64*, !dbg !1589
  store i64 %_5, i64* %0, align 8, !dbg !1589
  %1 = getelementptr inbounds { i64, i64 }, { i64, i64 }* %_4, i32 0, i32 1, !dbg !1589
  store i64 %_7, i64* %1, align 8, !dbg !1589
  %2 = bitcast { i64, i64 }* %_4 to i64*, !dbg !1590
  %size = load i64, i64* %2, align 8, !dbg !1590
  store i64 %size, i64* %size.dbg.spill, align 8, !dbg !1590
  call void @llvm.dbg.declare(metadata i64* %size.dbg.spill, metadata !1583, metadata !DIExpression()), !dbg !1591
  %3 = getelementptr inbounds { i64, i64 }, { i64, i64 }* %_4, i32 0, i32 1, !dbg !1592
  %align = load i64, i64* %3, align 8, !dbg !1592
  store i64 %align, i64* %align.dbg.spill, align 8, !dbg !1592
  call void @llvm.dbg.declare(metadata i64* %align.dbg.spill, metadata !1585, metadata !DIExpression()), !dbg !1593
; call <core::alloc::layout::Layout>::from_size_align_unchecked
  %4 = call { i64, i64 } @_RNvMNtNtCs3p84KrD9aKt_4core5alloc6layoutNtB2_6Layout25from_size_align_uncheckedCseoN0Z986GuA_10mutex_test(i64 %size, i64 %align), !dbg !1594
  %5 = extractvalue { i64, i64 } %4, 0, !dbg !1594
  %6 = extractvalue { i64, i64 } %4, 1, !dbg !1594
  br label %bb3, !dbg !1594

bb3:                                              ; preds = %bb2
  %7 = insertvalue { i64, i64 } undef, i64 %5, 0, !dbg !1595
  %8 = insertvalue { i64, i64 } %7, i64 %6, 1, !dbg !1595
  ret { i64, i64 } %8, !dbg !1595
}

; <core::alloc::layout::Layout>::for_value_raw::<alloc::sync::ArcInner<std::sync::mpsc::oneshot::Packet<usize>>>
; Function Attrs: nonlazybind uwtable
define internal { i64, i64 } @_RINvMNtNtCs3p84KrD9aKt_4core5alloc6layoutNtB3_6Layout13for_value_rawINtNtCs8RW06R9lH2S_5alloc4sync8ArcInnerINtNtNtNtCs2bNvlddUlXM_3std4sync4mpsc7oneshot6PacketjEEECseoN0Z986GuA_10mutex_test(%"alloc::sync::ArcInner<std::sync::mpsc::oneshot::Packet<usize>>"* %t) unnamed_addr #0 !dbg !1596 {
start:
  %align.dbg.spill = alloca i64, align 8
  %size.dbg.spill = alloca i64, align 8
  %t.dbg.spill = alloca %"alloc::sync::ArcInner<std::sync::mpsc::oneshot::Packet<usize>>"*, align 8
  %_4 = alloca { i64, i64 }, align 8
  store %"alloc::sync::ArcInner<std::sync::mpsc::oneshot::Packet<usize>>"* %t, %"alloc::sync::ArcInner<std::sync::mpsc::oneshot::Packet<usize>>"** %t.dbg.spill, align 8
  call void @llvm.dbg.declare(metadata %"alloc::sync::ArcInner<std::sync::mpsc::oneshot::Packet<usize>>"** %t.dbg.spill, metadata !1600, metadata !DIExpression()), !dbg !1604
; call core::mem::size_of_val_raw::<alloc::sync::ArcInner<std::sync::mpsc::oneshot::Packet<usize>>>
  %_5 = call i64 @_RINvNtCs3p84KrD9aKt_4core3mem15size_of_val_rawINtNtCs8RW06R9lH2S_5alloc4sync8ArcInnerINtNtNtNtCs2bNvlddUlXM_3std4sync4mpsc7oneshot6PacketjEEECseoN0Z986GuA_10mutex_test(%"alloc::sync::ArcInner<std::sync::mpsc::oneshot::Packet<usize>>"* %t), !dbg !1605
  br label %bb1, !dbg !1605

bb1:                                              ; preds = %start
; call core::mem::align_of_val_raw::<alloc::sync::ArcInner<std::sync::mpsc::oneshot::Packet<usize>>>
  %_7 = call i64 @_RINvNtCs3p84KrD9aKt_4core3mem16align_of_val_rawINtNtCs8RW06R9lH2S_5alloc4sync8ArcInnerINtNtNtNtCs2bNvlddUlXM_3std4sync4mpsc7oneshot6PacketjEEECseoN0Z986GuA_10mutex_test(%"alloc::sync::ArcInner<std::sync::mpsc::oneshot::Packet<usize>>"* %t), !dbg !1606
  br label %bb2, !dbg !1606

bb2:                                              ; preds = %bb1
  %0 = bitcast { i64, i64 }* %_4 to i64*, !dbg !1607
  store i64 %_5, i64* %0, align 8, !dbg !1607
  %1 = getelementptr inbounds { i64, i64 }, { i64, i64 }* %_4, i32 0, i32 1, !dbg !1607
  store i64 %_7, i64* %1, align 8, !dbg !1607
  %2 = bitcast { i64, i64 }* %_4 to i64*, !dbg !1608
  %size = load i64, i64* %2, align 8, !dbg !1608
  store i64 %size, i64* %size.dbg.spill, align 8, !dbg !1608
  call void @llvm.dbg.declare(metadata i64* %size.dbg.spill, metadata !1601, metadata !DIExpression()), !dbg !1609
  %3 = getelementptr inbounds { i64, i64 }, { i64, i64 }* %_4, i32 0, i32 1, !dbg !1610
  %align = load i64, i64* %3, align 8, !dbg !1610
  store i64 %align, i64* %align.dbg.spill, align 8, !dbg !1610
  call void @llvm.dbg.declare(metadata i64* %align.dbg.spill, metadata !1603, metadata !DIExpression()), !dbg !1611
; call <core::alloc::layout::Layout>::from_size_align_unchecked
  %4 = call { i64, i64 } @_RNvMNtNtCs3p84KrD9aKt_4core5alloc6layoutNtB2_6Layout25from_size_align_uncheckedCseoN0Z986GuA_10mutex_test(i64 %size, i64 %align), !dbg !1612
  %5 = extractvalue { i64, i64 } %4, 0, !dbg !1612
  %6 = extractvalue { i64, i64 } %4, 1, !dbg !1612
  br label %bb3, !dbg !1612

bb3:                                              ; preds = %bb2
  %7 = insertvalue { i64, i64 } undef, i64 %5, 0, !dbg !1613
  %8 = insertvalue { i64, i64 } %7, i64 %6, 1, !dbg !1613
  ret { i64, i64 } %8, !dbg !1613
}

; <core::alloc::layout::Layout>::for_value_raw::<alloc::sync::ArcInner<std::thread::Inner>>
; Function Attrs: nonlazybind uwtable
define internal { i64, i64 } @_RINvMNtNtCs3p84KrD9aKt_4core5alloc6layoutNtB3_6Layout13for_value_rawINtNtCs8RW06R9lH2S_5alloc4sync8ArcInnerNtNtCs2bNvlddUlXM_3std6thread5InnerEECseoN0Z986GuA_10mutex_test(%"alloc::sync::ArcInner<std::thread::Inner>"* %t) unnamed_addr #0 !dbg !1614 {
start:
  %align.dbg.spill = alloca i64, align 8
  %size.dbg.spill = alloca i64, align 8
  %t.dbg.spill = alloca %"alloc::sync::ArcInner<std::thread::Inner>"*, align 8
  %_4 = alloca { i64, i64 }, align 8
  store %"alloc::sync::ArcInner<std::thread::Inner>"* %t, %"alloc::sync::ArcInner<std::thread::Inner>"** %t.dbg.spill, align 8
  call void @llvm.dbg.declare(metadata %"alloc::sync::ArcInner<std::thread::Inner>"** %t.dbg.spill, metadata !1618, metadata !DIExpression()), !dbg !1622
; call core::mem::size_of_val_raw::<alloc::sync::ArcInner<std::thread::Inner>>
  %_5 = call i64 @_RINvNtCs3p84KrD9aKt_4core3mem15size_of_val_rawINtNtCs8RW06R9lH2S_5alloc4sync8ArcInnerNtNtCs2bNvlddUlXM_3std6thread5InnerEECseoN0Z986GuA_10mutex_test(%"alloc::sync::ArcInner<std::thread::Inner>"* %t), !dbg !1623
  br label %bb1, !dbg !1623

bb1:                                              ; preds = %start
; call core::mem::align_of_val_raw::<alloc::sync::ArcInner<std::thread::Inner>>
  %_7 = call i64 @_RINvNtCs3p84KrD9aKt_4core3mem16align_of_val_rawINtNtCs8RW06R9lH2S_5alloc4sync8ArcInnerNtNtCs2bNvlddUlXM_3std6thread5InnerEECseoN0Z986GuA_10mutex_test(%"alloc::sync::ArcInner<std::thread::Inner>"* %t), !dbg !1624
  br label %bb2, !dbg !1624

bb2:                                              ; preds = %bb1
  %0 = bitcast { i64, i64 }* %_4 to i64*, !dbg !1625
  store i64 %_5, i64* %0, align 8, !dbg !1625
  %1 = getelementptr inbounds { i64, i64 }, { i64, i64 }* %_4, i32 0, i32 1, !dbg !1625
  store i64 %_7, i64* %1, align 8, !dbg !1625
  %2 = bitcast { i64, i64 }* %_4 to i64*, !dbg !1626
  %size = load i64, i64* %2, align 8, !dbg !1626
  store i64 %size, i64* %size.dbg.spill, align 8, !dbg !1626
  call void @llvm.dbg.declare(metadata i64* %size.dbg.spill, metadata !1619, metadata !DIExpression()), !dbg !1627
  %3 = getelementptr inbounds { i64, i64 }, { i64, i64 }* %_4, i32 0, i32 1, !dbg !1628
  %align = load i64, i64* %3, align 8, !dbg !1628
  store i64 %align, i64* %align.dbg.spill, align 8, !dbg !1628
  call void @llvm.dbg.declare(metadata i64* %align.dbg.spill, metadata !1621, metadata !DIExpression()), !dbg !1629
; call <core::alloc::layout::Layout>::from_size_align_unchecked
  %4 = call { i64, i64 } @_RNvMNtNtCs3p84KrD9aKt_4core5alloc6layoutNtB2_6Layout25from_size_align_uncheckedCseoN0Z986GuA_10mutex_test(i64 %size, i64 %align), !dbg !1630
  %5 = extractvalue { i64, i64 } %4, 0, !dbg !1630
  %6 = extractvalue { i64, i64 } %4, 1, !dbg !1630
  br label %bb3, !dbg !1630

bb3:                                              ; preds = %bb2
  %7 = insertvalue { i64, i64 } undef, i64 %5, 0, !dbg !1631
  %8 = insertvalue { i64, i64 } %7, i64 %6, 1, !dbg !1631
  ret { i64, i64 } %8, !dbg !1631
}

; <core::alloc::layout::Layout>::for_value_raw::<alloc::sync::ArcInner<std::sync::mpsc::blocking::Inner>>
; Function Attrs: nonlazybind uwtable
define internal { i64, i64 } @_RINvMNtNtCs3p84KrD9aKt_4core5alloc6layoutNtB3_6Layout13for_value_rawINtNtCs8RW06R9lH2S_5alloc4sync8ArcInnerNtNtNtNtCs2bNvlddUlXM_3std4sync4mpsc8blocking5InnerEECseoN0Z986GuA_10mutex_test(%"alloc::sync::ArcInner<std::sync::mpsc::blocking::Inner>"* %t) unnamed_addr #0 !dbg !1632 {
start:
  %align.dbg.spill = alloca i64, align 8
  %size.dbg.spill = alloca i64, align 8
  %t.dbg.spill = alloca %"alloc::sync::ArcInner<std::sync::mpsc::blocking::Inner>"*, align 8
  %_4 = alloca { i64, i64 }, align 8
  store %"alloc::sync::ArcInner<std::sync::mpsc::blocking::Inner>"* %t, %"alloc::sync::ArcInner<std::sync::mpsc::blocking::Inner>"** %t.dbg.spill, align 8
  call void @llvm.dbg.declare(metadata %"alloc::sync::ArcInner<std::sync::mpsc::blocking::Inner>"** %t.dbg.spill, metadata !1636, metadata !DIExpression()), !dbg !1640
; call core::mem::size_of_val_raw::<alloc::sync::ArcInner<std::sync::mpsc::blocking::Inner>>
  %_5 = call i64 @_RINvNtCs3p84KrD9aKt_4core3mem15size_of_val_rawINtNtCs8RW06R9lH2S_5alloc4sync8ArcInnerNtNtNtNtCs2bNvlddUlXM_3std4sync4mpsc8blocking5InnerEECseoN0Z986GuA_10mutex_test(%"alloc::sync::ArcInner<std::sync::mpsc::blocking::Inner>"* %t), !dbg !1641
  br label %bb1, !dbg !1641

bb1:                                              ; preds = %start
; call core::mem::align_of_val_raw::<alloc::sync::ArcInner<std::sync::mpsc::blocking::Inner>>
  %_7 = call i64 @_RINvNtCs3p84KrD9aKt_4core3mem16align_of_val_rawINtNtCs8RW06R9lH2S_5alloc4sync8ArcInnerNtNtNtNtCs2bNvlddUlXM_3std4sync4mpsc8blocking5InnerEECseoN0Z986GuA_10mutex_test(%"alloc::sync::ArcInner<std::sync::mpsc::blocking::Inner>"* %t), !dbg !1642
  br label %bb2, !dbg !1642

bb2:                                              ; preds = %bb1
  %0 = bitcast { i64, i64 }* %_4 to i64*, !dbg !1643
  store i64 %_5, i64* %0, align 8, !dbg !1643
  %1 = getelementptr inbounds { i64, i64 }, { i64, i64 }* %_4, i32 0, i32 1, !dbg !1643
  store i64 %_7, i64* %1, align 8, !dbg !1643
  %2 = bitcast { i64, i64 }* %_4 to i64*, !dbg !1644
  %size = load i64, i64* %2, align 8, !dbg !1644
  store i64 %size, i64* %size.dbg.spill, align 8, !dbg !1644
  call void @llvm.dbg.declare(metadata i64* %size.dbg.spill, metadata !1637, metadata !DIExpression()), !dbg !1645
  %3 = getelementptr inbounds { i64, i64 }, { i64, i64 }* %_4, i32 0, i32 1, !dbg !1646
  %align = load i64, i64* %3, align 8, !dbg !1646
  store i64 %align, i64* %align.dbg.spill, align 8, !dbg !1646
  call void @llvm.dbg.declare(metadata i64* %align.dbg.spill, metadata !1639, metadata !DIExpression()), !dbg !1647
; call <core::alloc::layout::Layout>::from_size_align_unchecked
  %4 = call { i64, i64 } @_RNvMNtNtCs3p84KrD9aKt_4core5alloc6layoutNtB2_6Layout25from_size_align_uncheckedCseoN0Z986GuA_10mutex_test(i64 %size, i64 %align), !dbg !1648
  %5 = extractvalue { i64, i64 } %4, 0, !dbg !1648
  %6 = extractvalue { i64, i64 } %4, 1, !dbg !1648
  br label %bb3, !dbg !1648

bb3:                                              ; preds = %bb2
  %7 = insertvalue { i64, i64 } undef, i64 %5, 0, !dbg !1649
  %8 = insertvalue { i64, i64 } %7, i64 %6, 1, !dbg !1649
  ret { i64, i64 } %8, !dbg !1649
}

; <core::ptr::unique::Unique<dyn core::any::Any + core::marker::Send>>::cast::<u8>
; Function Attrs: inlinehint nonlazybind uwtable
define internal nonnull i8* @_RINvMs1_NtNtCs3p84KrD9aKt_4core3ptr6uniqueINtB6_6UniqueDNtNtBa_3any3AnyNtNtBa_6marker4SendEL_E4casthECseoN0Z986GuA_10mutex_test(i8* nonnull %self.0, i64* noalias readonly align 8 dereferenceable(24) %self.1) unnamed_addr #1 !dbg !1650 {
start:
  %self.dbg.spill = alloca { i8*, i64* }, align 8
  %0 = getelementptr inbounds { i8*, i64* }, { i8*, i64* }* %self.dbg.spill, i32 0, i32 0
  store i8* %self.0, i8** %0, align 8
  %1 = getelementptr inbounds { i8*, i64* }, { i8*, i64* }* %self.dbg.spill, i32 0, i32 1
  store i64* %self.1, i64** %1, align 8
  call void @llvm.dbg.declare(metadata { i8*, i64* }* %self.dbg.spill, metadata !1665, metadata !DIExpression()), !dbg !1668
; call <core::ptr::unique::Unique<dyn core::any::Any + core::marker::Send>>::as_ptr
  %2 = call { {}*, [3 x i64]* } @_RNvMs1_NtNtCs3p84KrD9aKt_4core3ptr6uniqueINtB5_6UniqueDNtNtB9_3any3AnyNtNtB9_6marker4SendEL_E6as_ptrCseoN0Z986GuA_10mutex_test(i8* nonnull %self.0, i64* noalias readonly align 8 dereferenceable(24) %self.1), !dbg !1669
  %_3.0 = extractvalue { {}*, [3 x i64]* } %2, 0, !dbg !1669
  %_3.1 = extractvalue { {}*, [3 x i64]* } %2, 1, !dbg !1669
  br label %bb1, !dbg !1669

bb1:                                              ; preds = %start
  %_2 = bitcast {}* %_3.0 to i8*, !dbg !1669
; call <core::ptr::unique::Unique<u8>>::new_unchecked
  %3 = call nonnull i8* @_RNvMs1_NtNtCs3p84KrD9aKt_4core3ptr6uniqueINtB5_6UniquehE13new_uncheckedCseoN0Z986GuA_10mutex_test(i8* %_2), !dbg !1670
  br label %bb2, !dbg !1670

bb2:                                              ; preds = %bb1
  ret i8* %3, !dbg !1671
}

; <core::ptr::unique::Unique<dyn std::error::Error + core::marker::Send + core::marker::Sync>>::cast::<u8>
; Function Attrs: inlinehint nonlazybind uwtable
define internal nonnull i8* @_RINvMs1_NtNtCs3p84KrD9aKt_4core3ptr6uniqueINtB6_6UniqueDNtNtCs2bNvlddUlXM_3std5error5ErrorNtNtBa_6marker4SendNtB1s_4SyncEL_E4casthECseoN0Z986GuA_10mutex_test(i8* nonnull %self.0, i64* noalias readonly align 8 dereferenceable(24) %self.1) unnamed_addr #1 !dbg !1672 {
start:
  %self.dbg.spill = alloca { i8*, i64* }, align 8
  %0 = getelementptr inbounds { i8*, i64* }, { i8*, i64* }* %self.dbg.spill, i32 0, i32 0
  store i8* %self.0, i8** %0, align 8
  %1 = getelementptr inbounds { i8*, i64* }, { i8*, i64* }* %self.dbg.spill, i32 0, i32 1
  store i64* %self.1, i64** %1, align 8
  call void @llvm.dbg.declare(metadata { i8*, i64* }* %self.dbg.spill, metadata !1686, metadata !DIExpression()), !dbg !1688
; call <core::ptr::unique::Unique<dyn std::error::Error + core::marker::Send + core::marker::Sync>>::as_ptr
  %2 = call { {}*, [3 x i64]* } @_RNvMs1_NtNtCs3p84KrD9aKt_4core3ptr6uniqueINtB5_6UniqueDNtNtCs2bNvlddUlXM_3std5error5ErrorNtNtB9_6marker4SendNtB1r_4SyncEL_E6as_ptrCseoN0Z986GuA_10mutex_test(i8* nonnull %self.0, i64* noalias readonly align 8 dereferenceable(24) %self.1), !dbg !1689
  %_3.0 = extractvalue { {}*, [3 x i64]* } %2, 0, !dbg !1689
  %_3.1 = extractvalue { {}*, [3 x i64]* } %2, 1, !dbg !1689
  br label %bb1, !dbg !1689

bb1:                                              ; preds = %start
  %_2 = bitcast {}* %_3.0 to i8*, !dbg !1689
; call <core::ptr::unique::Unique<u8>>::new_unchecked
  %3 = call nonnull i8* @_RNvMs1_NtNtCs3p84KrD9aKt_4core3ptr6uniqueINtB5_6UniquehE13new_uncheckedCseoN0Z986GuA_10mutex_test(i8* %_2), !dbg !1690
  br label %bb2, !dbg !1690

bb2:                                              ; preds = %bb1
  ret i8* %3, !dbg !1691
}

; <core::ptr::unique::Unique<core::option::Option<usize>>>::cast::<u8>
; Function Attrs: inlinehint nonlazybind uwtable
define internal nonnull i8* @_RINvMs1_NtNtCs3p84KrD9aKt_4core3ptr6uniqueINtB6_6UniqueINtNtBa_6option6OptionjEE4casthECseoN0Z986GuA_10mutex_test(i64* nonnull %self) unnamed_addr #1 !dbg !1692 {
start:
  %self.dbg.spill = alloca i64*, align 8
  store i64* %self, i64** %self.dbg.spill, align 8
  call void @llvm.dbg.declare(metadata i64** %self.dbg.spill, metadata !1696, metadata !DIExpression()), !dbg !1698
; call <core::ptr::unique::Unique<core::option::Option<usize>>>::as_ptr
  %_3 = call { i64, i64 }* @_RNvMs1_NtNtCs3p84KrD9aKt_4core3ptr6uniqueINtB5_6UniqueINtNtB9_6option6OptionjEE6as_ptrCseoN0Z986GuA_10mutex_test(i64* nonnull %self), !dbg !1699
  br label %bb1, !dbg !1699

bb1:                                              ; preds = %start
  %_2 = bitcast { i64, i64 }* %_3 to i8*, !dbg !1699
; call <core::ptr::unique::Unique<u8>>::new_unchecked
  %0 = call nonnull i8* @_RNvMs1_NtNtCs3p84KrD9aKt_4core3ptr6uniqueINtB5_6UniquehE13new_uncheckedCseoN0Z986GuA_10mutex_test(i8* %_2), !dbg !1700
  br label %bb2, !dbg !1700

bb2:                                              ; preds = %bb1
  ret i8* %0, !dbg !1701
}

; <core::ptr::unique::Unique<alloc::sync::ArcInner<core::cell::UnsafeCell<core::option::Option<core::result::Result<(), alloc::boxed::Box<dyn core::any::Any + core::marker::Send>>>>>>>::cast::<u8>
; Function Attrs: inlinehint nonlazybind uwtable
define internal nonnull i8* @_RINvMs1_NtNtCs3p84KrD9aKt_4core3ptr6uniqueINtB6_6UniqueINtNtCs8RW06R9lH2S_5alloc4sync8ArcInnerINtNtBa_4cell10UnsafeCellINtNtBa_6option6OptionINtNtBa_6result6ResultuINtNtBW_5boxed3BoxDNtNtBa_3any3AnyNtNtBa_6marker4SendEL_EEEEEE4casthECseoN0Z986GuA_10mutex_test(i64* nonnull %self) unnamed_addr #1 !dbg !1702 {
start:
  %self.dbg.spill = alloca i64*, align 8
  store i64* %self, i64** %self.dbg.spill, align 8
  call void @llvm.dbg.declare(metadata i64** %self.dbg.spill, metadata !1710, metadata !DIExpression()), !dbg !1712
; call <core::ptr::unique::Unique<alloc::sync::ArcInner<core::cell::UnsafeCell<core::option::Option<core::result::Result<(), alloc::boxed::Box<dyn core::any::Any + core::marker::Send>>>>>>>::as_ptr
  %_3 = call %"alloc::sync::ArcInner<std::cell::UnsafeCell<std::option::Option<std::result::Result<(), std::boxed::Box<dyn std::any::Any + std::marker::Send>>>>>"* @_RNvMs1_NtNtCs3p84KrD9aKt_4core3ptr6uniqueINtB5_6UniqueINtNtCs8RW06R9lH2S_5alloc4sync8ArcInnerINtNtB9_4cell10UnsafeCellINtNtB9_6option6OptionINtNtB9_6result6ResultuINtNtBV_5boxed3BoxDNtNtB9_3any3AnyNtNtB9_6marker4SendEL_EEEEEE6as_ptrCseoN0Z986GuA_10mutex_test(i64* nonnull %self), !dbg !1713
  br label %bb1, !dbg !1713

bb1:                                              ; preds = %start
  %_2 = bitcast %"alloc::sync::ArcInner<std::cell::UnsafeCell<std::option::Option<std::result::Result<(), std::boxed::Box<dyn std::any::Any + std::marker::Send>>>>>"* %_3 to i8*, !dbg !1713
; call <core::ptr::unique::Unique<u8>>::new_unchecked
  %0 = call nonnull i8* @_RNvMs1_NtNtCs3p84KrD9aKt_4core3ptr6uniqueINtB5_6UniquehE13new_uncheckedCseoN0Z986GuA_10mutex_test(i8* %_2), !dbg !1714
  br label %bb2, !dbg !1714

bb2:                                              ; preds = %bb1
  ret i8* %0, !dbg !1715
}

; <core::ptr::unique::Unique<alloc::sync::ArcInner<std::sync::mutex::Mutex<usize>>>>::cast::<u8>
; Function Attrs: inlinehint nonlazybind uwtable
define internal nonnull i8* @_RINvMs1_NtNtCs3p84KrD9aKt_4core3ptr6uniqueINtB6_6UniqueINtNtCs8RW06R9lH2S_5alloc4sync8ArcInnerINtNtNtCs2bNvlddUlXM_3std4sync5mutex5MutexjEEE4casthECseoN0Z986GuA_10mutex_test(i64* nonnull %self) unnamed_addr #1 !dbg !1716 {
start:
  %self.dbg.spill = alloca i64*, align 8
  store i64* %self, i64** %self.dbg.spill, align 8
  call void @llvm.dbg.declare(metadata i64** %self.dbg.spill, metadata !1724, metadata !DIExpression()), !dbg !1726
; call <core::ptr::unique::Unique<alloc::sync::ArcInner<std::sync::mutex::Mutex<usize>>>>::as_ptr
  %_3 = call %"alloc::sync::ArcInner<std::sync::Mutex<usize>>"* @_RNvMs1_NtNtCs3p84KrD9aKt_4core3ptr6uniqueINtB5_6UniqueINtNtCs8RW06R9lH2S_5alloc4sync8ArcInnerINtNtNtCs2bNvlddUlXM_3std4sync5mutex5MutexjEEE6as_ptrCseoN0Z986GuA_10mutex_test(i64* nonnull %self), !dbg !1727
  br label %bb1, !dbg !1727

bb1:                                              ; preds = %start
  %_2 = bitcast %"alloc::sync::ArcInner<std::sync::Mutex<usize>>"* %_3 to i8*, !dbg !1727
; call <core::ptr::unique::Unique<u8>>::new_unchecked
  %0 = call nonnull i8* @_RNvMs1_NtNtCs3p84KrD9aKt_4core3ptr6uniqueINtB5_6UniquehE13new_uncheckedCseoN0Z986GuA_10mutex_test(i8* %_2), !dbg !1728
  br label %bb2, !dbg !1728

bb2:                                              ; preds = %bb1
  ret i8* %0, !dbg !1729
}

; <core::ptr::unique::Unique<alloc::sync::ArcInner<std::sync::mpsc::shared::Packet<usize>>>>::cast::<u8>
; Function Attrs: inlinehint nonlazybind uwtable
define internal nonnull i8* @_RINvMs1_NtNtCs3p84KrD9aKt_4core3ptr6uniqueINtB6_6UniqueINtNtCs8RW06R9lH2S_5alloc4sync8ArcInnerINtNtNtNtCs2bNvlddUlXM_3std4sync4mpsc6shared6PacketjEEE4casthECseoN0Z986GuA_10mutex_test(i64* nonnull %self) unnamed_addr #1 !dbg !1730 {
start:
  %self.dbg.spill = alloca i64*, align 8
  store i64* %self, i64** %self.dbg.spill, align 8
  call void @llvm.dbg.declare(metadata i64** %self.dbg.spill, metadata !1738, metadata !DIExpression()), !dbg !1740
; call <core::ptr::unique::Unique<alloc::sync::ArcInner<std::sync::mpsc::shared::Packet<usize>>>>::as_ptr
  %_3 = call %"alloc::sync::ArcInner<std::sync::mpsc::shared::Packet<usize>>"* @_RNvMs1_NtNtCs3p84KrD9aKt_4core3ptr6uniqueINtB5_6UniqueINtNtCs8RW06R9lH2S_5alloc4sync8ArcInnerINtNtNtNtCs2bNvlddUlXM_3std4sync4mpsc6shared6PacketjEEE6as_ptrCseoN0Z986GuA_10mutex_test(i64* nonnull %self), !dbg !1741
  br label %bb1, !dbg !1741

bb1:                                              ; preds = %start
  %_2 = bitcast %"alloc::sync::ArcInner<std::sync::mpsc::shared::Packet<usize>>"* %_3 to i8*, !dbg !1741
; call <core::ptr::unique::Unique<u8>>::new_unchecked
  %0 = call nonnull i8* @_RNvMs1_NtNtCs3p84KrD9aKt_4core3ptr6uniqueINtB5_6UniquehE13new_uncheckedCseoN0Z986GuA_10mutex_test(i8* %_2), !dbg !1742
  br label %bb2, !dbg !1742

bb2:                                              ; preds = %bb1
  ret i8* %0, !dbg !1743
}

; <core::ptr::unique::Unique<alloc::sync::ArcInner<std::sync::mpsc::stream::Packet<usize>>>>::cast::<u8>
; Function Attrs: inlinehint nonlazybind uwtable
define internal nonnull i8* @_RINvMs1_NtNtCs3p84KrD9aKt_4core3ptr6uniqueINtB6_6UniqueINtNtCs8RW06R9lH2S_5alloc4sync8ArcInnerINtNtNtNtCs2bNvlddUlXM_3std4sync4mpsc6stream6PacketjEEE4casthECseoN0Z986GuA_10mutex_test(i64* nonnull %self) unnamed_addr #1 !dbg !1744 {
start:
  %self.dbg.spill = alloca i64*, align 8
  store i64* %self, i64** %self.dbg.spill, align 8
  call void @llvm.dbg.declare(metadata i64** %self.dbg.spill, metadata !1752, metadata !DIExpression()), !dbg !1754
; call <core::ptr::unique::Unique<alloc::sync::ArcInner<std::sync::mpsc::stream::Packet<usize>>>>::as_ptr
  %_3 = call %"alloc::sync::ArcInner<std::sync::mpsc::stream::Packet<usize>>"* @_RNvMs1_NtNtCs3p84KrD9aKt_4core3ptr6uniqueINtB5_6UniqueINtNtCs8RW06R9lH2S_5alloc4sync8ArcInnerINtNtNtNtCs2bNvlddUlXM_3std4sync4mpsc6stream6PacketjEEE6as_ptrCseoN0Z986GuA_10mutex_test(i64* nonnull %self), !dbg !1755
  br label %bb1, !dbg !1755

bb1:                                              ; preds = %start
  %_2 = bitcast %"alloc::sync::ArcInner<std::sync::mpsc::stream::Packet<usize>>"* %_3 to i8*, !dbg !1755
; call <core::ptr::unique::Unique<u8>>::new_unchecked
  %0 = call nonnull i8* @_RNvMs1_NtNtCs3p84KrD9aKt_4core3ptr6uniqueINtB5_6UniquehE13new_uncheckedCseoN0Z986GuA_10mutex_test(i8* %_2), !dbg !1756
  br label %bb2, !dbg !1756

bb2:                                              ; preds = %bb1
  ret i8* %0, !dbg !1757
}

; <core::ptr::unique::Unique<alloc::sync::ArcInner<std::sync::mpsc::oneshot::Packet<usize>>>>::cast::<u8>
; Function Attrs: inlinehint nonlazybind uwtable
define internal nonnull i8* @_RINvMs1_NtNtCs3p84KrD9aKt_4core3ptr6uniqueINtB6_6UniqueINtNtCs8RW06R9lH2S_5alloc4sync8ArcInnerINtNtNtNtCs2bNvlddUlXM_3std4sync4mpsc7oneshot6PacketjEEE4casthECseoN0Z986GuA_10mutex_test(i64* nonnull %self) unnamed_addr #1 !dbg !1758 {
start:
  %self.dbg.spill = alloca i64*, align 8
  store i64* %self, i64** %self.dbg.spill, align 8
  call void @llvm.dbg.declare(metadata i64** %self.dbg.spill, metadata !1766, metadata !DIExpression()), !dbg !1768
; call <core::ptr::unique::Unique<alloc::sync::ArcInner<std::sync::mpsc::oneshot::Packet<usize>>>>::as_ptr
  %_3 = call %"alloc::sync::ArcInner<std::sync::mpsc::oneshot::Packet<usize>>"* @_RNvMs1_NtNtCs3p84KrD9aKt_4core3ptr6uniqueINtB5_6UniqueINtNtCs8RW06R9lH2S_5alloc4sync8ArcInnerINtNtNtNtCs2bNvlddUlXM_3std4sync4mpsc7oneshot6PacketjEEE6as_ptrCseoN0Z986GuA_10mutex_test(i64* nonnull %self), !dbg !1769
  br label %bb1, !dbg !1769

bb1:                                              ; preds = %start
  %_2 = bitcast %"alloc::sync::ArcInner<std::sync::mpsc::oneshot::Packet<usize>>"* %_3 to i8*, !dbg !1769
; call <core::ptr::unique::Unique<u8>>::new_unchecked
  %0 = call nonnull i8* @_RNvMs1_NtNtCs3p84KrD9aKt_4core3ptr6uniqueINtB5_6UniquehE13new_uncheckedCseoN0Z986GuA_10mutex_test(i8* %_2), !dbg !1770
  br label %bb2, !dbg !1770

bb2:                                              ; preds = %bb1
  ret i8* %0, !dbg !1771
}

; <core::ptr::unique::Unique<std::sync::mpsc::mpsc_queue::Node<usize>>>::cast::<u8>
; Function Attrs: inlinehint nonlazybind uwtable
define internal nonnull i8* @_RINvMs1_NtNtCs3p84KrD9aKt_4core3ptr6uniqueINtB6_6UniqueINtNtNtNtCs2bNvlddUlXM_3std4sync4mpsc10mpsc_queue4NodejEE4casthECseoN0Z986GuA_10mutex_test(i64* nonnull %self) unnamed_addr #1 !dbg !1772 {
start:
  %self.dbg.spill = alloca i64*, align 8
  store i64* %self, i64** %self.dbg.spill, align 8
  call void @llvm.dbg.declare(metadata i64** %self.dbg.spill, metadata !1782, metadata !DIExpression()), !dbg !1784
; call <core::ptr::unique::Unique<std::sync::mpsc::mpsc_queue::Node<usize>>>::as_ptr
  %_3 = call %"std::sync::mpsc::mpsc_queue::Node<usize>"* @_RNvMs1_NtNtCs3p84KrD9aKt_4core3ptr6uniqueINtB5_6UniqueINtNtNtNtCs2bNvlddUlXM_3std4sync4mpsc10mpsc_queue4NodejEE6as_ptrCseoN0Z986GuA_10mutex_test(i64* nonnull %self), !dbg !1785
  br label %bb1, !dbg !1785

bb1:                                              ; preds = %start
  %_2 = bitcast %"std::sync::mpsc::mpsc_queue::Node<usize>"* %_3 to i8*, !dbg !1785
; call <core::ptr::unique::Unique<u8>>::new_unchecked
  %0 = call nonnull i8* @_RNvMs1_NtNtCs3p84KrD9aKt_4core3ptr6uniqueINtB5_6UniquehE13new_uncheckedCseoN0Z986GuA_10mutex_test(i8* %_2), !dbg !1786
  br label %bb2, !dbg !1786

bb2:                                              ; preds = %bb1
  ret i8* %0, !dbg !1787
}

; <core::ptr::unique::Unique<std::sync::mpsc::spsc_queue::Node<std::sync::mpsc::stream::Message<usize>>>>::cast::<u8>
; Function Attrs: inlinehint nonlazybind uwtable
define internal nonnull i8* @_RINvMs1_NtNtCs3p84KrD9aKt_4core3ptr6uniqueINtB6_6UniqueINtNtNtNtCs2bNvlddUlXM_3std4sync4mpsc10spsc_queue4NodeINtNtBW_6stream7MessagejEEE4casthECseoN0Z986GuA_10mutex_test(i64* nonnull %self) unnamed_addr #1 !dbg !1788 {
start:
  %self.dbg.spill = alloca i64*, align 8
  store i64* %self, i64** %self.dbg.spill, align 8
  call void @llvm.dbg.declare(metadata i64** %self.dbg.spill, metadata !1798, metadata !DIExpression()), !dbg !1800
; call <core::ptr::unique::Unique<std::sync::mpsc::spsc_queue::Node<std::sync::mpsc::stream::Message<usize>>>>::as_ptr
  %_3 = call %"std::sync::mpsc::spsc_queue::Node<std::sync::mpsc::stream::Message<usize>>"* @_RNvMs1_NtNtCs3p84KrD9aKt_4core3ptr6uniqueINtB5_6UniqueINtNtNtNtCs2bNvlddUlXM_3std4sync4mpsc10spsc_queue4NodeINtNtBV_6stream7MessagejEEE6as_ptrCseoN0Z986GuA_10mutex_test(i64* nonnull %self), !dbg !1801
  br label %bb1, !dbg !1801

bb1:                                              ; preds = %start
  %_2 = bitcast %"std::sync::mpsc::spsc_queue::Node<std::sync::mpsc::stream::Message<usize>>"* %_3 to i8*, !dbg !1801
; call <core::ptr::unique::Unique<u8>>::new_unchecked
  %0 = call nonnull i8* @_RNvMs1_NtNtCs3p84KrD9aKt_4core3ptr6uniqueINtB5_6UniquehE13new_uncheckedCseoN0Z986GuA_10mutex_test(i8* %_2), !dbg !1802
  br label %bb2, !dbg !1802

bb2:                                              ; preds = %bb1
  ret i8* %0, !dbg !1803
}

; <core::ptr::unique::Unique<std::io::error::Custom>>::cast::<u8>
; Function Attrs: inlinehint nonlazybind uwtable
define internal nonnull i8* @_RINvMs1_NtNtCs3p84KrD9aKt_4core3ptr6uniqueINtB6_6UniqueNtNtNtCs2bNvlddUlXM_3std2io5error6CustomE4casthECseoN0Z986GuA_10mutex_test(i64* nonnull %self) unnamed_addr #1 !dbg !1804 {
start:
  %self.dbg.spill = alloca i64*, align 8
  store i64* %self, i64** %self.dbg.spill, align 8
  call void @llvm.dbg.declare(metadata i64** %self.dbg.spill, metadata !1816, metadata !DIExpression()), !dbg !1818
; call <core::ptr::unique::Unique<std::io::error::Custom>>::as_ptr
  %_3 = call %"std::io::error::Custom"* @_RNvMs1_NtNtCs3p84KrD9aKt_4core3ptr6uniqueINtB5_6UniqueNtNtNtCs2bNvlddUlXM_3std2io5error6CustomE6as_ptrCseoN0Z986GuA_10mutex_test(i64* nonnull %self), !dbg !1819
  br label %bb1, !dbg !1819

bb1:                                              ; preds = %start
  %_2 = bitcast %"std::io::error::Custom"* %_3 to i8*, !dbg !1819
; call <core::ptr::unique::Unique<u8>>::new_unchecked
  %0 = call nonnull i8* @_RNvMs1_NtNtCs3p84KrD9aKt_4core3ptr6uniqueINtB5_6UniquehE13new_uncheckedCseoN0Z986GuA_10mutex_test(i8* %_2), !dbg !1820
  br label %bb2, !dbg !1820

bb2:                                              ; preds = %bb1
  ret i8* %0, !dbg !1821
}

; <core::ptr::unique::Unique<std::sys::unix::mutex::Mutex>>::cast::<u8>
; Function Attrs: inlinehint nonlazybind uwtable
define internal nonnull i8* @_RINvMs1_NtNtCs3p84KrD9aKt_4core3ptr6uniqueINtB6_6UniqueNtNtNtNtCs2bNvlddUlXM_3std3sys4unix5mutex5MutexE4casthECseoN0Z986GuA_10mutex_test(i64* nonnull %self) unnamed_addr #1 !dbg !1822 {
start:
  %self.dbg.spill = alloca i64*, align 8
  store i64* %self, i64** %self.dbg.spill, align 8
  call void @llvm.dbg.declare(metadata i64** %self.dbg.spill, metadata !1834, metadata !DIExpression()), !dbg !1836
; call <core::ptr::unique::Unique<std::sys::unix::mutex::Mutex>>::as_ptr
  %_3 = call %"std::sys::unix::mutex::Mutex"* @_RNvMs1_NtNtCs3p84KrD9aKt_4core3ptr6uniqueINtB5_6UniqueNtNtNtNtCs2bNvlddUlXM_3std3sys4unix5mutex5MutexE6as_ptrCseoN0Z986GuA_10mutex_test(i64* nonnull %self), !dbg !1837
  br label %bb1, !dbg !1837

bb1:                                              ; preds = %start
  %_2 = bitcast %"std::sys::unix::mutex::Mutex"* %_3 to i8*, !dbg !1837
; call <core::ptr::unique::Unique<u8>>::new_unchecked
  %0 = call nonnull i8* @_RNvMs1_NtNtCs3p84KrD9aKt_4core3ptr6uniqueINtB5_6UniquehE13new_uncheckedCseoN0Z986GuA_10mutex_test(i8* %_2), !dbg !1838
  br label %bb2, !dbg !1838

bb2:                                              ; preds = %bb1
  ret i8* %0, !dbg !1839
}

; <core::ptr::unique::Unique<[u8]>>::cast::<u8>
; Function Attrs: inlinehint nonlazybind uwtable
define internal nonnull i8* @_RINvMs1_NtNtCs3p84KrD9aKt_4core3ptr6uniqueINtB6_6UniqueShE4casthECseoN0Z986GuA_10mutex_test(i8* nonnull %self.0, i64 %self.1) unnamed_addr #1 !dbg !1840 {
start:
  %self.dbg.spill = alloca { i8*, i64 }, align 8
  %0 = getelementptr inbounds { i8*, i64 }, { i8*, i64 }* %self.dbg.spill, i32 0, i32 0
  store i8* %self.0, i8** %0, align 8
  %1 = getelementptr inbounds { i8*, i64 }, { i8*, i64 }* %self.dbg.spill, i32 0, i32 1
  store i64 %self.1, i64* %1, align 8
  call void @llvm.dbg.declare(metadata { i8*, i64 }* %self.dbg.spill, metadata !1854, metadata !DIExpression()), !dbg !1856
; call <core::ptr::unique::Unique<[u8]>>::as_ptr
  %2 = call { [0 x i8]*, i64 } @_RNvMs1_NtNtCs3p84KrD9aKt_4core3ptr6uniqueINtB5_6UniqueShE6as_ptrCseoN0Z986GuA_10mutex_test(i8* nonnull %self.0, i64 %self.1), !dbg !1857
  %_3.0 = extractvalue { [0 x i8]*, i64 } %2, 0, !dbg !1857
  %_3.1 = extractvalue { [0 x i8]*, i64 } %2, 1, !dbg !1857
  br label %bb1, !dbg !1857

bb1:                                              ; preds = %start
  %_2 = bitcast [0 x i8]* %_3.0 to i8*, !dbg !1857
; call <core::ptr::unique::Unique<u8>>::new_unchecked
  %3 = call nonnull i8* @_RNvMs1_NtNtCs3p84KrD9aKt_4core3ptr6uniqueINtB5_6UniquehE13new_uncheckedCseoN0Z986GuA_10mutex_test(i8* %_2), !dbg !1858
  br label %bb2, !dbg !1858

bb2:                                              ; preds = %bb1
  ret i8* %3, !dbg !1859
}

; <core::ptr::unique::Unique<u8>>::cast::<u8>
; Function Attrs: inlinehint nonlazybind uwtable
define internal nonnull i8* @_RINvMs1_NtNtCs3p84KrD9aKt_4core3ptr6uniqueINtB6_6UniquehE4casthECseoN0Z986GuA_10mutex_test(i8* nonnull %self) unnamed_addr #1 !dbg !1860 {
start:
  %self.dbg.spill = alloca i8*, align 8
  store i8* %self, i8** %self.dbg.spill, align 8
  call void @llvm.dbg.declare(metadata i8** %self.dbg.spill, metadata !1864, metadata !DIExpression()), !dbg !1866
; call <core::ptr::unique::Unique<u8>>::as_ptr
  %_3 = call i8* @_RNvMs1_NtNtCs3p84KrD9aKt_4core3ptr6uniqueINtB5_6UniquehE6as_ptrCseoN0Z986GuA_10mutex_test(i8* nonnull %self), !dbg !1867
  br label %bb1, !dbg !1867

bb1:                                              ; preds = %start
; call <core::ptr::unique::Unique<u8>>::new_unchecked
  %0 = call nonnull i8* @_RNvMs1_NtNtCs3p84KrD9aKt_4core3ptr6uniqueINtB5_6UniquehE13new_uncheckedCseoN0Z986GuA_10mutex_test(i8* %_3), !dbg !1868
  br label %bb2, !dbg !1868

bb2:                                              ; preds = %bb1
  ret i8* %0, !dbg !1869
}

; <core::ptr::non_null::NonNull<alloc::sync::ArcInner<core::cell::UnsafeCell<core::option::Option<core::result::Result<(), alloc::boxed::Box<dyn core::any::Any + core::marker::Send>>>>>>>::cast::<u8>
; Function Attrs: inlinehint nonlazybind uwtable
define internal nonnull i8* @_RINvMs1_NtNtCs3p84KrD9aKt_4core3ptr8non_nullINtB6_7NonNullINtNtCs8RW06R9lH2S_5alloc4sync8ArcInnerINtNtBa_4cell10UnsafeCellINtNtBa_6option6OptionINtNtBa_6result6ResultuINtNtBZ_5boxed3BoxDNtNtBa_3any3AnyNtNtBa_6marker4SendEL_EEEEEE4casthECseoN0Z986GuA_10mutex_test(i64* nonnull %self) unnamed_addr #1 !dbg !1870 {
start:
  %self.dbg.spill = alloca i64*, align 8
  store i64* %self, i64** %self.dbg.spill, align 8
  call void @llvm.dbg.declare(metadata i64** %self.dbg.spill, metadata !1875, metadata !DIExpression()), !dbg !1876
; call <core::ptr::non_null::NonNull<alloc::sync::ArcInner<core::cell::UnsafeCell<core::option::Option<core::result::Result<(), alloc::boxed::Box<dyn core::any::Any + core::marker::Send>>>>>>>::as_ptr
  %_3 = call %"alloc::sync::ArcInner<std::cell::UnsafeCell<std::option::Option<std::result::Result<(), std::boxed::Box<dyn std::any::Any + std::marker::Send>>>>>"* @_RNvMs1_NtNtCs3p84KrD9aKt_4core3ptr8non_nullINtB5_7NonNullINtNtCs8RW06R9lH2S_5alloc4sync8ArcInnerINtNtB9_4cell10UnsafeCellINtNtB9_6option6OptionINtNtB9_6result6ResultuINtNtBY_5boxed3BoxDNtNtB9_3any3AnyNtNtB9_6marker4SendEL_EEEEEE6as_ptrCseoN0Z986GuA_10mutex_test(i64* nonnull %self), !dbg !1877
  br label %bb1, !dbg !1877

bb1:                                              ; preds = %start
  %_2 = bitcast %"alloc::sync::ArcInner<std::cell::UnsafeCell<std::option::Option<std::result::Result<(), std::boxed::Box<dyn std::any::Any + std::marker::Send>>>>>"* %_3 to i8*, !dbg !1877
; call <core::ptr::non_null::NonNull<u8>>::new_unchecked
  %0 = call nonnull i8* @_RNvMs1_NtNtCs3p84KrD9aKt_4core3ptr8non_nullINtB5_7NonNullhE13new_uncheckedCseoN0Z986GuA_10mutex_test(i8* %_2), !dbg !1878
  br label %bb2, !dbg !1878

bb2:                                              ; preds = %bb1
  ret i8* %0, !dbg !1879
}

; <core::ptr::non_null::NonNull<alloc::sync::ArcInner<std::sync::mutex::Mutex<alloc::vec::Vec<u8>>>>>::cast::<u8>
; Function Attrs: inlinehint nonlazybind uwtable
define internal nonnull i8* @_RINvMs1_NtNtCs3p84KrD9aKt_4core3ptr8non_nullINtB6_7NonNullINtNtCs8RW06R9lH2S_5alloc4sync8ArcInnerINtNtNtCs2bNvlddUlXM_3std4sync5mutex5MutexINtNtBZ_3vec3VechEEEE4casthECseoN0Z986GuA_10mutex_test(i64* nonnull %self) unnamed_addr #1 !dbg !1880 {
start:
  %self.dbg.spill = alloca i64*, align 8
  store i64* %self, i64** %self.dbg.spill, align 8
  call void @llvm.dbg.declare(metadata i64** %self.dbg.spill, metadata !1884, metadata !DIExpression()), !dbg !1886
; call <core::ptr::non_null::NonNull<alloc::sync::ArcInner<std::sync::mutex::Mutex<alloc::vec::Vec<u8>>>>>::as_ptr
  %_3 = call %"alloc::sync::ArcInner<std::sync::Mutex<std::vec::Vec<u8>>>"* @_RNvMs1_NtNtCs3p84KrD9aKt_4core3ptr8non_nullINtB5_7NonNullINtNtCs8RW06R9lH2S_5alloc4sync8ArcInnerINtNtNtCs2bNvlddUlXM_3std4sync5mutex5MutexINtNtBY_3vec3VechEEEE6as_ptrCseoN0Z986GuA_10mutex_test(i64* nonnull %self), !dbg !1887
  br label %bb1, !dbg !1887

bb1:                                              ; preds = %start
  %_2 = bitcast %"alloc::sync::ArcInner<std::sync::Mutex<std::vec::Vec<u8>>>"* %_3 to i8*, !dbg !1887
; call <core::ptr::non_null::NonNull<u8>>::new_unchecked
  %0 = call nonnull i8* @_RNvMs1_NtNtCs3p84KrD9aKt_4core3ptr8non_nullINtB5_7NonNullhE13new_uncheckedCseoN0Z986GuA_10mutex_test(i8* %_2), !dbg !1888
  br label %bb2, !dbg !1888

bb2:                                              ; preds = %bb1
  ret i8* %0, !dbg !1889
}

; <core::ptr::non_null::NonNull<alloc::sync::ArcInner<std::sync::mutex::Mutex<usize>>>>::cast::<u8>
; Function Attrs: inlinehint nonlazybind uwtable
define internal nonnull i8* @_RINvMs1_NtNtCs3p84KrD9aKt_4core3ptr8non_nullINtB6_7NonNullINtNtCs8RW06R9lH2S_5alloc4sync8ArcInnerINtNtNtCs2bNvlddUlXM_3std4sync5mutex5MutexjEEE4casthECseoN0Z986GuA_10mutex_test(i64* nonnull %self) unnamed_addr #1 !dbg !1890 {
start:
  %self.dbg.spill = alloca i64*, align 8
  store i64* %self, i64** %self.dbg.spill, align 8
  call void @llvm.dbg.declare(metadata i64** %self.dbg.spill, metadata !1894, metadata !DIExpression()), !dbg !1895
; call <core::ptr::non_null::NonNull<alloc::sync::ArcInner<std::sync::mutex::Mutex<usize>>>>::as_ptr
  %_3 = call %"alloc::sync::ArcInner<std::sync::Mutex<usize>>"* @_RNvMs1_NtNtCs3p84KrD9aKt_4core3ptr8non_nullINtB5_7NonNullINtNtCs8RW06R9lH2S_5alloc4sync8ArcInnerINtNtNtCs2bNvlddUlXM_3std4sync5mutex5MutexjEEE6as_ptrCseoN0Z986GuA_10mutex_test(i64* nonnull %self), !dbg !1896
  br label %bb1, !dbg !1896

bb1:                                              ; preds = %start
  %_2 = bitcast %"alloc::sync::ArcInner<std::sync::Mutex<usize>>"* %_3 to i8*, !dbg !1896
; call <core::ptr::non_null::NonNull<u8>>::new_unchecked
  %0 = call nonnull i8* @_RNvMs1_NtNtCs3p84KrD9aKt_4core3ptr8non_nullINtB5_7NonNullhE13new_uncheckedCseoN0Z986GuA_10mutex_test(i8* %_2), !dbg !1897
  br label %bb2, !dbg !1897

bb2:                                              ; preds = %bb1
  ret i8* %0, !dbg !1898
}

; <core::ptr::non_null::NonNull<alloc::sync::ArcInner<std::sync::mpsc::sync::Packet<usize>>>>::cast::<u8>
; Function Attrs: inlinehint nonlazybind uwtable
define internal nonnull i8* @_RINvMs1_NtNtCs3p84KrD9aKt_4core3ptr8non_nullINtB6_7NonNullINtNtCs8RW06R9lH2S_5alloc4sync8ArcInnerINtNtNtNtCs2bNvlddUlXM_3std4sync4mpsc4sync6PacketjEEE4casthECseoN0Z986GuA_10mutex_test(i64* nonnull %self) unnamed_addr #1 !dbg !1899 {
start:
  %self.dbg.spill = alloca i64*, align 8
  store i64* %self, i64** %self.dbg.spill, align 8
  call void @llvm.dbg.declare(metadata i64** %self.dbg.spill, metadata !1903, metadata !DIExpression()), !dbg !1905
; call <core::ptr::non_null::NonNull<alloc::sync::ArcInner<std::sync::mpsc::sync::Packet<usize>>>>::as_ptr
  %_3 = call %"alloc::sync::ArcInner<std::sync::mpsc::sync::Packet<usize>>"* @_RNvMs1_NtNtCs3p84KrD9aKt_4core3ptr8non_nullINtB5_7NonNullINtNtCs8RW06R9lH2S_5alloc4sync8ArcInnerINtNtNtNtCs2bNvlddUlXM_3std4sync4mpsc4sync6PacketjEEE6as_ptrCseoN0Z986GuA_10mutex_test(i64* nonnull %self), !dbg !1906
  br label %bb1, !dbg !1906

bb1:                                              ; preds = %start
  %_2 = bitcast %"alloc::sync::ArcInner<std::sync::mpsc::sync::Packet<usize>>"* %_3 to i8*, !dbg !1906
; call <core::ptr::non_null::NonNull<u8>>::new_unchecked
  %0 = call nonnull i8* @_RNvMs1_NtNtCs3p84KrD9aKt_4core3ptr8non_nullINtB5_7NonNullhE13new_uncheckedCseoN0Z986GuA_10mutex_test(i8* %_2), !dbg !1907
  br label %bb2, !dbg !1907

bb2:                                              ; preds = %bb1
  ret i8* %0, !dbg !1908
}

; <core::ptr::non_null::NonNull<alloc::sync::ArcInner<std::sync::mpsc::shared::Packet<usize>>>>::cast::<u8>
; Function Attrs: inlinehint nonlazybind uwtable
define internal nonnull i8* @_RINvMs1_NtNtCs3p84KrD9aKt_4core3ptr8non_nullINtB6_7NonNullINtNtCs8RW06R9lH2S_5alloc4sync8ArcInnerINtNtNtNtCs2bNvlddUlXM_3std4sync4mpsc6shared6PacketjEEE4casthECseoN0Z986GuA_10mutex_test(i64* nonnull %self) unnamed_addr #1 !dbg !1909 {
start:
  %self.dbg.spill = alloca i64*, align 8
  store i64* %self, i64** %self.dbg.spill, align 8
  call void @llvm.dbg.declare(metadata i64** %self.dbg.spill, metadata !1913, metadata !DIExpression()), !dbg !1914
; call <core::ptr::non_null::NonNull<alloc::sync::ArcInner<std::sync::mpsc::shared::Packet<usize>>>>::as_ptr
  %_3 = call %"alloc::sync::ArcInner<std::sync::mpsc::shared::Packet<usize>>"* @_RNvMs1_NtNtCs3p84KrD9aKt_4core3ptr8non_nullINtB5_7NonNullINtNtCs8RW06R9lH2S_5alloc4sync8ArcInnerINtNtNtNtCs2bNvlddUlXM_3std4sync4mpsc6shared6PacketjEEE6as_ptrCseoN0Z986GuA_10mutex_test(i64* nonnull %self), !dbg !1915
  br label %bb1, !dbg !1915

bb1:                                              ; preds = %start
  %_2 = bitcast %"alloc::sync::ArcInner<std::sync::mpsc::shared::Packet<usize>>"* %_3 to i8*, !dbg !1915
; call <core::ptr::non_null::NonNull<u8>>::new_unchecked
  %0 = call nonnull i8* @_RNvMs1_NtNtCs3p84KrD9aKt_4core3ptr8non_nullINtB5_7NonNullhE13new_uncheckedCseoN0Z986GuA_10mutex_test(i8* %_2), !dbg !1916
  br label %bb2, !dbg !1916

bb2:                                              ; preds = %bb1
  ret i8* %0, !dbg !1917
}

; <core::ptr::non_null::NonNull<alloc::sync::ArcInner<std::sync::mpsc::stream::Packet<usize>>>>::cast::<u8>
; Function Attrs: inlinehint nonlazybind uwtable
define internal nonnull i8* @_RINvMs1_NtNtCs3p84KrD9aKt_4core3ptr8non_nullINtB6_7NonNullINtNtCs8RW06R9lH2S_5alloc4sync8ArcInnerINtNtNtNtCs2bNvlddUlXM_3std4sync4mpsc6stream6PacketjEEE4casthECseoN0Z986GuA_10mutex_test(i64* nonnull %self) unnamed_addr #1 !dbg !1918 {
start:
  %self.dbg.spill = alloca i64*, align 8
  store i64* %self, i64** %self.dbg.spill, align 8
  call void @llvm.dbg.declare(metadata i64** %self.dbg.spill, metadata !1922, metadata !DIExpression()), !dbg !1923
; call <core::ptr::non_null::NonNull<alloc::sync::ArcInner<std::sync::mpsc::stream::Packet<usize>>>>::as_ptr
  %_3 = call %"alloc::sync::ArcInner<std::sync::mpsc::stream::Packet<usize>>"* @_RNvMs1_NtNtCs3p84KrD9aKt_4core3ptr8non_nullINtB5_7NonNullINtNtCs8RW06R9lH2S_5alloc4sync8ArcInnerINtNtNtNtCs2bNvlddUlXM_3std4sync4mpsc6stream6PacketjEEE6as_ptrCseoN0Z986GuA_10mutex_test(i64* nonnull %self), !dbg !1924
  br label %bb1, !dbg !1924

bb1:                                              ; preds = %start
  %_2 = bitcast %"alloc::sync::ArcInner<std::sync::mpsc::stream::Packet<usize>>"* %_3 to i8*, !dbg !1924
; call <core::ptr::non_null::NonNull<u8>>::new_unchecked
  %0 = call nonnull i8* @_RNvMs1_NtNtCs3p84KrD9aKt_4core3ptr8non_nullINtB5_7NonNullhE13new_uncheckedCseoN0Z986GuA_10mutex_test(i8* %_2), !dbg !1925
  br label %bb2, !dbg !1925

bb2:                                              ; preds = %bb1
  ret i8* %0, !dbg !1926
}

; <core::ptr::non_null::NonNull<alloc::sync::ArcInner<std::sync::mpsc::oneshot::Packet<usize>>>>::cast::<u8>
; Function Attrs: inlinehint nonlazybind uwtable
define internal nonnull i8* @_RINvMs1_NtNtCs3p84KrD9aKt_4core3ptr8non_nullINtB6_7NonNullINtNtCs8RW06R9lH2S_5alloc4sync8ArcInnerINtNtNtNtCs2bNvlddUlXM_3std4sync4mpsc7oneshot6PacketjEEE4casthECseoN0Z986GuA_10mutex_test(i64* nonnull %self) unnamed_addr #1 !dbg !1927 {
start:
  %self.dbg.spill = alloca i64*, align 8
  store i64* %self, i64** %self.dbg.spill, align 8
  call void @llvm.dbg.declare(metadata i64** %self.dbg.spill, metadata !1931, metadata !DIExpression()), !dbg !1932
; call <core::ptr::non_null::NonNull<alloc::sync::ArcInner<std::sync::mpsc::oneshot::Packet<usize>>>>::as_ptr
  %_3 = call %"alloc::sync::ArcInner<std::sync::mpsc::oneshot::Packet<usize>>"* @_RNvMs1_NtNtCs3p84KrD9aKt_4core3ptr8non_nullINtB5_7NonNullINtNtCs8RW06R9lH2S_5alloc4sync8ArcInnerINtNtNtNtCs2bNvlddUlXM_3std4sync4mpsc7oneshot6PacketjEEE6as_ptrCseoN0Z986GuA_10mutex_test(i64* nonnull %self), !dbg !1933
  br label %bb1, !dbg !1933

bb1:                                              ; preds = %start
  %_2 = bitcast %"alloc::sync::ArcInner<std::sync::mpsc::oneshot::Packet<usize>>"* %_3 to i8*, !dbg !1933
; call <core::ptr::non_null::NonNull<u8>>::new_unchecked
  %0 = call nonnull i8* @_RNvMs1_NtNtCs3p84KrD9aKt_4core3ptr8non_nullINtB5_7NonNullhE13new_uncheckedCseoN0Z986GuA_10mutex_test(i8* %_2), !dbg !1934
  br label %bb2, !dbg !1934

bb2:                                              ; preds = %bb1
  ret i8* %0, !dbg !1935
}

; <core::ptr::non_null::NonNull<alloc::sync::ArcInner<std::thread::Inner>>>::cast::<u8>
; Function Attrs: inlinehint nonlazybind uwtable
define internal nonnull i8* @_RINvMs1_NtNtCs3p84KrD9aKt_4core3ptr8non_nullINtB6_7NonNullINtNtCs8RW06R9lH2S_5alloc4sync8ArcInnerNtNtCs2bNvlddUlXM_3std6thread5InnerEE4casthECseoN0Z986GuA_10mutex_test(i64* nonnull %self) unnamed_addr #1 !dbg !1936 {
start:
  %self.dbg.spill = alloca i64*, align 8
  store i64* %self, i64** %self.dbg.spill, align 8
  call void @llvm.dbg.declare(metadata i64** %self.dbg.spill, metadata !1940, metadata !DIExpression()), !dbg !1942
; call <core::ptr::non_null::NonNull<alloc::sync::ArcInner<std::thread::Inner>>>::as_ptr
  %_3 = call %"alloc::sync::ArcInner<std::thread::Inner>"* @_RNvMs1_NtNtCs3p84KrD9aKt_4core3ptr8non_nullINtB5_7NonNullINtNtCs8RW06R9lH2S_5alloc4sync8ArcInnerNtNtCs2bNvlddUlXM_3std6thread5InnerEE6as_ptrCseoN0Z986GuA_10mutex_test(i64* nonnull %self), !dbg !1943
  br label %bb1, !dbg !1943

bb1:                                              ; preds = %start
  %_2 = bitcast %"alloc::sync::ArcInner<std::thread::Inner>"* %_3 to i8*, !dbg !1943
; call <core::ptr::non_null::NonNull<u8>>::new_unchecked
  %0 = call nonnull i8* @_RNvMs1_NtNtCs3p84KrD9aKt_4core3ptr8non_nullINtB5_7NonNullhE13new_uncheckedCseoN0Z986GuA_10mutex_test(i8* %_2), !dbg !1944
  br label %bb2, !dbg !1944

bb2:                                              ; preds = %bb1
  ret i8* %0, !dbg !1945
}

; <core::ptr::non_null::NonNull<alloc::sync::ArcInner<std::sync::mpsc::blocking::Inner>>>::cast::<u8>
; Function Attrs: inlinehint nonlazybind uwtable
define internal nonnull i8* @_RINvMs1_NtNtCs3p84KrD9aKt_4core3ptr8non_nullINtB6_7NonNullINtNtCs8RW06R9lH2S_5alloc4sync8ArcInnerNtNtNtNtCs2bNvlddUlXM_3std4sync4mpsc8blocking5InnerEE4casthECseoN0Z986GuA_10mutex_test(i64* nonnull %self) unnamed_addr #1 !dbg !1946 {
start:
  %self.dbg.spill = alloca i64*, align 8
  store i64* %self, i64** %self.dbg.spill, align 8
  call void @llvm.dbg.declare(metadata i64** %self.dbg.spill, metadata !1950, metadata !DIExpression()), !dbg !1952
; call <core::ptr::non_null::NonNull<alloc::sync::ArcInner<std::sync::mpsc::blocking::Inner>>>::as_ptr
  %_3 = call %"alloc::sync::ArcInner<std::sync::mpsc::blocking::Inner>"* @_RNvMs1_NtNtCs3p84KrD9aKt_4core3ptr8non_nullINtB5_7NonNullINtNtCs8RW06R9lH2S_5alloc4sync8ArcInnerNtNtNtNtCs2bNvlddUlXM_3std4sync4mpsc8blocking5InnerEE6as_ptrCseoN0Z986GuA_10mutex_test(i64* nonnull %self), !dbg !1953
  br label %bb1, !dbg !1953

bb1:                                              ; preds = %start
  %_2 = bitcast %"alloc::sync::ArcInner<std::sync::mpsc::blocking::Inner>"* %_3 to i8*, !dbg !1953
; call <core::ptr::non_null::NonNull<u8>>::new_unchecked
  %0 = call nonnull i8* @_RNvMs1_NtNtCs3p84KrD9aKt_4core3ptr8non_nullINtB5_7NonNullhE13new_uncheckedCseoN0Z986GuA_10mutex_test(i8* %_2), !dbg !1954
  br label %bb2, !dbg !1954

bb2:                                              ; preds = %bb1
  ret i8* %0, !dbg !1955
}

; <core::any::TypeId>::of::<&str>
; Function Attrs: nonlazybind uwtable
define internal i64 @_RINvMs5_NtCs3p84KrD9aKt_4core3anyNtB6_6TypeId2ofReECseoN0Z986GuA_10mutex_test() unnamed_addr #0 !dbg !1956 {
start:
  %0 = alloca i64, align 8
  %1 = alloca i64, align 8
  store i64 9147559743429524724, i64* %0, align 8, !dbg !1963
  %_1 = load i64, i64* %0, align 8, !dbg !1963
  br label %bb1, !dbg !1963

bb1:                                              ; preds = %start
  store i64 %_1, i64* %1, align 8, !dbg !1964
  %2 = load i64, i64* %1, align 8, !dbg !1965
  ret i64 %2, !dbg !1965
}

; <core::fmt::ArgumentV1>::new::<std::sync::mutex::MutexGuard<usize>>
; Function Attrs: nonlazybind uwtable
define internal { i8*, i64* } @_RINvMs_NtCs3p84KrD9aKt_4core3fmtNtB5_10ArgumentV13newINtNtNtCs2bNvlddUlXM_3std4sync5mutex10MutexGuardjEECseoN0Z986GuA_10mutex_test({ i64*, i8 }* noalias readonly align 8 dereferenceable(16) %x, i1 ({ i64*, i8 }*, %"std::fmt::Formatter"*)* nonnull %f) unnamed_addr #0 !dbg !1966 {
start:
  %0 = alloca %"core::fmt::Opaque"*, align 8
  %1 = alloca i1 (%"core::fmt::Opaque"*, %"std::fmt::Formatter"*)*, align 8
  %f.dbg.spill = alloca i1 ({ i64*, i8 }*, %"std::fmt::Formatter"*)*, align 8
  %x.dbg.spill = alloca { i64*, i8 }*, align 8
  %2 = alloca { i8*, i64* }, align 8
  store { i64*, i8 }* %x, { i64*, i8 }** %x.dbg.spill, align 8
  call void @llvm.dbg.declare(metadata { i64*, i8 }** %x.dbg.spill, metadata !1999, metadata !DIExpression()), !dbg !2001
  store i1 ({ i64*, i8 }*, %"std::fmt::Formatter"*)* %f, i1 ({ i64*, i8 }*, %"std::fmt::Formatter"*)** %f.dbg.spill, align 8
  call void @llvm.dbg.declare(metadata i1 ({ i64*, i8 }*, %"std::fmt::Formatter"*)** %f.dbg.spill, metadata !2000, metadata !DIExpression()), !dbg !2002
  %3 = bitcast i1 ({ i64*, i8 }*, %"std::fmt::Formatter"*)* %f to i1 (%"core::fmt::Opaque"*, %"std::fmt::Formatter"*)*, !dbg !2003
  store i1 (%"core::fmt::Opaque"*, %"std::fmt::Formatter"*)* %3, i1 (%"core::fmt::Opaque"*, %"std::fmt::Formatter"*)** %1, align 8, !dbg !2003
  %_3 = load i1 (%"core::fmt::Opaque"*, %"std::fmt::Formatter"*)*, i1 (%"core::fmt::Opaque"*, %"std::fmt::Formatter"*)** %1, align 8, !dbg !2003, !nonnull !4
  br label %bb1, !dbg !2003

bb1:                                              ; preds = %start
  %4 = bitcast { i64*, i8 }* %x to %"core::fmt::Opaque"*, !dbg !2004
  store %"core::fmt::Opaque"* %4, %"core::fmt::Opaque"** %0, align 8, !dbg !2004
  %_5 = load %"core::fmt::Opaque"*, %"core::fmt::Opaque"** %0, align 8, !dbg !2004, !nonnull !4
  br label %bb2, !dbg !2004

bb2:                                              ; preds = %bb1
  %5 = bitcast { i8*, i64* }* %2 to %"core::fmt::Opaque"**, !dbg !2005
  store %"core::fmt::Opaque"* %_5, %"core::fmt::Opaque"** %5, align 8, !dbg !2005
  %6 = getelementptr inbounds { i8*, i64* }, { i8*, i64* }* %2, i32 0, i32 1, !dbg !2005
  %7 = bitcast i64** %6 to i1 (%"core::fmt::Opaque"*, %"std::fmt::Formatter"*)**, !dbg !2005
  store i1 (%"core::fmt::Opaque"*, %"std::fmt::Formatter"*)* %_3, i1 (%"core::fmt::Opaque"*, %"std::fmt::Formatter"*)** %7, align 8, !dbg !2005
  %8 = getelementptr inbounds { i8*, i64* }, { i8*, i64* }* %2, i32 0, i32 0, !dbg !2006
  %9 = load i8*, i8** %8, align 8, !dbg !2006, !nonnull !4
  %10 = getelementptr inbounds { i8*, i64* }, { i8*, i64* }* %2, i32 0, i32 1, !dbg !2006
  %11 = load i64*, i64** %10, align 8, !dbg !2006, !nonnull !4
  %12 = insertvalue { i8*, i64* } undef, i8* %9, 0, !dbg !2006
  %13 = insertvalue { i8*, i64* } %12, i64* %11, 1, !dbg !2006
  ret { i8*, i64* } %13, !dbg !2006
}

; <core::fmt::ArgumentV1>::new::<&isize>
; Function Attrs: nonlazybind uwtable
define internal { i8*, i64* } @_RINvMs_NtCs3p84KrD9aKt_4core3fmtNtB5_10ArgumentV13newRiECseoN0Z986GuA_10mutex_test(i64** noalias readonly align 8 dereferenceable(8) %x, i1 (i64**, %"std::fmt::Formatter"*)* nonnull %f) unnamed_addr #0 !dbg !2007 {
start:
  %0 = alloca %"core::fmt::Opaque"*, align 8
  %1 = alloca i1 (%"core::fmt::Opaque"*, %"std::fmt::Formatter"*)*, align 8
  %f.dbg.spill = alloca i1 (i64**, %"std::fmt::Formatter"*)*, align 8
  %x.dbg.spill = alloca i64**, align 8
  %2 = alloca { i8*, i64* }, align 8
  store i64** %x, i64*** %x.dbg.spill, align 8
  call void @llvm.dbg.declare(metadata i64*** %x.dbg.spill, metadata !2016, metadata !DIExpression()), !dbg !2020
  store i1 (i64**, %"std::fmt::Formatter"*)* %f, i1 (i64**, %"std::fmt::Formatter"*)** %f.dbg.spill, align 8
  call void @llvm.dbg.declare(metadata i1 (i64**, %"std::fmt::Formatter"*)** %f.dbg.spill, metadata !2017, metadata !DIExpression()), !dbg !2021
  %3 = bitcast i1 (i64**, %"std::fmt::Formatter"*)* %f to i1 (%"core::fmt::Opaque"*, %"std::fmt::Formatter"*)*, !dbg !2022
  store i1 (%"core::fmt::Opaque"*, %"std::fmt::Formatter"*)* %3, i1 (%"core::fmt::Opaque"*, %"std::fmt::Formatter"*)** %1, align 8, !dbg !2022
  %_3 = load i1 (%"core::fmt::Opaque"*, %"std::fmt::Formatter"*)*, i1 (%"core::fmt::Opaque"*, %"std::fmt::Formatter"*)** %1, align 8, !dbg !2022, !nonnull !4
  br label %bb1, !dbg !2022

bb1:                                              ; preds = %start
  %4 = bitcast i64** %x to %"core::fmt::Opaque"*, !dbg !2023
  store %"core::fmt::Opaque"* %4, %"core::fmt::Opaque"** %0, align 8, !dbg !2023
  %_5 = load %"core::fmt::Opaque"*, %"core::fmt::Opaque"** %0, align 8, !dbg !2023, !nonnull !4
  br label %bb2, !dbg !2023

bb2:                                              ; preds = %bb1
  %5 = bitcast { i8*, i64* }* %2 to %"core::fmt::Opaque"**, !dbg !2024
  store %"core::fmt::Opaque"* %_5, %"core::fmt::Opaque"** %5, align 8, !dbg !2024
  %6 = getelementptr inbounds { i8*, i64* }, { i8*, i64* }* %2, i32 0, i32 1, !dbg !2024
  %7 = bitcast i64** %6 to i1 (%"core::fmt::Opaque"*, %"std::fmt::Formatter"*)**, !dbg !2024
  store i1 (%"core::fmt::Opaque"*, %"std::fmt::Formatter"*)* %_3, i1 (%"core::fmt::Opaque"*, %"std::fmt::Formatter"*)** %7, align 8, !dbg !2024
  %8 = getelementptr inbounds { i8*, i64* }, { i8*, i64* }* %2, i32 0, i32 0, !dbg !2025
  %9 = load i8*, i8** %8, align 8, !dbg !2025, !nonnull !4
  %10 = getelementptr inbounds { i8*, i64* }, { i8*, i64* }* %2, i32 0, i32 1, !dbg !2025
  %11 = load i64*, i64** %10, align 8, !dbg !2025, !nonnull !4
  %12 = insertvalue { i8*, i64* } undef, i8* %9, 0, !dbg !2025
  %13 = insertvalue { i8*, i64* } %12, i64* %11, 1, !dbg !2025
  ret { i8*, i64* } %13, !dbg !2025
}

; <core::fmt::ArgumentV1>::new::<&usize>
; Function Attrs: nonlazybind uwtable
define internal { i8*, i64* } @_RINvMs_NtCs3p84KrD9aKt_4core3fmtNtB5_10ArgumentV13newRjECseoN0Z986GuA_10mutex_test(i64** noalias readonly align 8 dereferenceable(8) %x, i1 (i64**, %"std::fmt::Formatter"*)* nonnull %f) unnamed_addr #0 !dbg !2026 {
start:
  %0 = alloca %"core::fmt::Opaque"*, align 8
  %1 = alloca i1 (%"core::fmt::Opaque"*, %"std::fmt::Formatter"*)*, align 8
  %f.dbg.spill = alloca i1 (i64**, %"std::fmt::Formatter"*)*, align 8
  %x.dbg.spill = alloca i64**, align 8
  %2 = alloca { i8*, i64* }, align 8
  store i64** %x, i64*** %x.dbg.spill, align 8
  call void @llvm.dbg.declare(metadata i64*** %x.dbg.spill, metadata !2035, metadata !DIExpression()), !dbg !2039
  store i1 (i64**, %"std::fmt::Formatter"*)* %f, i1 (i64**, %"std::fmt::Formatter"*)** %f.dbg.spill, align 8
  call void @llvm.dbg.declare(metadata i1 (i64**, %"std::fmt::Formatter"*)** %f.dbg.spill, metadata !2036, metadata !DIExpression()), !dbg !2040
  %3 = bitcast i1 (i64**, %"std::fmt::Formatter"*)* %f to i1 (%"core::fmt::Opaque"*, %"std::fmt::Formatter"*)*, !dbg !2041
  store i1 (%"core::fmt::Opaque"*, %"std::fmt::Formatter"*)* %3, i1 (%"core::fmt::Opaque"*, %"std::fmt::Formatter"*)** %1, align 8, !dbg !2041
  %_3 = load i1 (%"core::fmt::Opaque"*, %"std::fmt::Formatter"*)*, i1 (%"core::fmt::Opaque"*, %"std::fmt::Formatter"*)** %1, align 8, !dbg !2041, !nonnull !4
  br label %bb1, !dbg !2041

bb1:                                              ; preds = %start
  %4 = bitcast i64** %x to %"core::fmt::Opaque"*, !dbg !2042
  store %"core::fmt::Opaque"* %4, %"core::fmt::Opaque"** %0, align 8, !dbg !2042
  %_5 = load %"core::fmt::Opaque"*, %"core::fmt::Opaque"** %0, align 8, !dbg !2042, !nonnull !4
  br label %bb2, !dbg !2042

bb2:                                              ; preds = %bb1
  %5 = bitcast { i8*, i64* }* %2 to %"core::fmt::Opaque"**, !dbg !2043
  store %"core::fmt::Opaque"* %_5, %"core::fmt::Opaque"** %5, align 8, !dbg !2043
  %6 = getelementptr inbounds { i8*, i64* }, { i8*, i64* }* %2, i32 0, i32 1, !dbg !2043
  %7 = bitcast i64** %6 to i1 (%"core::fmt::Opaque"*, %"std::fmt::Formatter"*)**, !dbg !2043
  store i1 (%"core::fmt::Opaque"*, %"std::fmt::Formatter"*)* %_3, i1 (%"core::fmt::Opaque"*, %"std::fmt::Formatter"*)** %7, align 8, !dbg !2043
  %8 = getelementptr inbounds { i8*, i64* }, { i8*, i64* }* %2, i32 0, i32 0, !dbg !2044
  %9 = load i8*, i8** %8, align 8, !dbg !2044, !nonnull !4
  %10 = getelementptr inbounds { i8*, i64* }, { i8*, i64* }* %2, i32 0, i32 1, !dbg !2044
  %11 = load i64*, i64** %10, align 8, !dbg !2044, !nonnull !4
  %12 = insertvalue { i8*, i64* } undef, i8* %9, 0, !dbg !2044
  %13 = insertvalue { i8*, i64* } %12, i64* %11, 1, !dbg !2044
  ret { i8*, i64* } %13, !dbg !2044
}

; <core::fmt::ArgumentV1>::new::<usize>
; Function Attrs: nonlazybind uwtable
define internal { i8*, i64* } @_RINvMs_NtCs3p84KrD9aKt_4core3fmtNtB5_10ArgumentV13newjECseoN0Z986GuA_10mutex_test(i64* noalias readonly align 8 dereferenceable(8) %x, i1 (i64*, %"std::fmt::Formatter"*)* nonnull %f) unnamed_addr #0 !dbg !2045 {
start:
  %0 = alloca %"core::fmt::Opaque"*, align 8
  %1 = alloca i1 (%"core::fmt::Opaque"*, %"std::fmt::Formatter"*)*, align 8
  %f.dbg.spill = alloca i1 (i64*, %"std::fmt::Formatter"*)*, align 8
  %x.dbg.spill = alloca i64*, align 8
  %2 = alloca { i8*, i64* }, align 8
  store i64* %x, i64** %x.dbg.spill, align 8
  call void @llvm.dbg.declare(metadata i64** %x.dbg.spill, metadata !2052, metadata !DIExpression()), !dbg !2054
  store i1 (i64*, %"std::fmt::Formatter"*)* %f, i1 (i64*, %"std::fmt::Formatter"*)** %f.dbg.spill, align 8
  call void @llvm.dbg.declare(metadata i1 (i64*, %"std::fmt::Formatter"*)** %f.dbg.spill, metadata !2053, metadata !DIExpression()), !dbg !2055
  %3 = bitcast i1 (i64*, %"std::fmt::Formatter"*)* %f to i1 (%"core::fmt::Opaque"*, %"std::fmt::Formatter"*)*, !dbg !2056
  store i1 (%"core::fmt::Opaque"*, %"std::fmt::Formatter"*)* %3, i1 (%"core::fmt::Opaque"*, %"std::fmt::Formatter"*)** %1, align 8, !dbg !2056
  %_3 = load i1 (%"core::fmt::Opaque"*, %"std::fmt::Formatter"*)*, i1 (%"core::fmt::Opaque"*, %"std::fmt::Formatter"*)** %1, align 8, !dbg !2056, !nonnull !4
  br label %bb1, !dbg !2056

bb1:                                              ; preds = %start
  %4 = bitcast i64* %x to %"core::fmt::Opaque"*, !dbg !2057
  store %"core::fmt::Opaque"* %4, %"core::fmt::Opaque"** %0, align 8, !dbg !2057
  %_5 = load %"core::fmt::Opaque"*, %"core::fmt::Opaque"** %0, align 8, !dbg !2057, !nonnull !4
  br label %bb2, !dbg !2057

bb2:                                              ; preds = %bb1
  %5 = bitcast { i8*, i64* }* %2 to %"core::fmt::Opaque"**, !dbg !2058
  store %"core::fmt::Opaque"* %_5, %"core::fmt::Opaque"** %5, align 8, !dbg !2058
  %6 = getelementptr inbounds { i8*, i64* }, { i8*, i64* }* %2, i32 0, i32 1, !dbg !2058
  %7 = bitcast i64** %6 to i1 (%"core::fmt::Opaque"*, %"std::fmt::Formatter"*)**, !dbg !2058
  store i1 (%"core::fmt::Opaque"*, %"std::fmt::Formatter"*)* %_3, i1 (%"core::fmt::Opaque"*, %"std::fmt::Formatter"*)** %7, align 8, !dbg !2058
  %8 = getelementptr inbounds { i8*, i64* }, { i8*, i64* }* %2, i32 0, i32 0, !dbg !2059
  %9 = load i8*, i8** %8, align 8, !dbg !2059, !nonnull !4
  %10 = getelementptr inbounds { i8*, i64* }, { i8*, i64* }* %2, i32 0, i32 1, !dbg !2059
  %11 = load i64*, i64** %10, align 8, !dbg !2059, !nonnull !4
  %12 = insertvalue { i8*, i64* } undef, i8* %9, 0, !dbg !2059
  %13 = insertvalue { i8*, i64* } %12, i64* %11, 1, !dbg !2059
  ret { i8*, i64* } %13, !dbg !2059
}

; std::rt::lang_start::<()>
; Function Attrs: nonlazybind uwtable
define hidden i64 @_RINvNtCs2bNvlddUlXM_3std2rt10lang_startuECseoN0Z986GuA_10mutex_test(void ()* nonnull %main, i64 %argc, i8** %argv) unnamed_addr #0 !dbg !2060 {
start:
  %argv.dbg.spill = alloca i8**, align 8
  %argc.dbg.spill = alloca i64, align 8
  %main.dbg.spill = alloca void ()*, align 8
  %_7 = alloca i64*, align 8
  store void ()* %main, void ()** %main.dbg.spill, align 8
  call void @llvm.dbg.declare(metadata void ()** %main.dbg.spill, metadata !2066, metadata !DIExpression()), !dbg !2069
  store i64 %argc, i64* %argc.dbg.spill, align 8
  call void @llvm.dbg.declare(metadata i64* %argc.dbg.spill, metadata !2067, metadata !DIExpression()), !dbg !2070
  store i8** %argv, i8*** %argv.dbg.spill, align 8
  call void @llvm.dbg.declare(metadata i8*** %argv.dbg.spill, metadata !2068, metadata !DIExpression()), !dbg !2071
  %0 = bitcast i64** %_7 to void ()**, !dbg !2072
  store void ()* %main, void ()** %0, align 8, !dbg !2072
  %_4.0 = bitcast i64** %_7 to {}*, !dbg !2073
; call std::rt::lang_start_internal
  %1 = call i64 @_ZN3std2rt19lang_start_internal17he4958117ec6901fdE({}* nonnull align 1 %_4.0, [3 x i64]* noalias readonly align 8 dereferenceable(24) bitcast ({ void (i64**)*, i64, i64, i32 (i64**)*, i32 (i64**)*, i32 (i64**)* }* @vtable.1 to [3 x i64]*), i64 %argc, i8** %argv), !dbg !2074
  br label %bb1, !dbg !2074

bb1:                                              ; preds = %start
  ret i64 %1, !dbg !2075
}

; std::panic::catch_unwind::<std::panic::AssertUnwindSafe<<std::thread::Builder>::spawn_unchecked<mutex_test::main::{closure#0}, ()>::{closure#0}::{closure#0}>, ()>
; Function Attrs: nonlazybind uwtable
define internal { i8*, i8* } @_RINvNtCs2bNvlddUlXM_3std5panic12catch_unwindINtB2_16AssertUnwindSafeNCNCINvMNtB4_6threadNtB1c_7Builder15spawn_uncheckedNCNvCseoN0Z986GuA_10mutex_test4main0uE00EuEB1X_(%"std::panic::AssertUnwindSafe<[closure@std::thread::Builder::spawn_unchecked<[closure@src/main.rs:25:20: 44:7], ()>::{closure#0}::{closure#0}]>"* noalias nocapture dereferenceable(24) %f) unnamed_addr #0 !dbg !2076 {
start:
  %_2 = alloca %"std::panic::AssertUnwindSafe<[closure@std::thread::Builder::spawn_unchecked<[closure@src/main.rs:25:20: 44:7], ()>::{closure#0}::{closure#0}]>", align 8
  call void @llvm.dbg.declare(metadata %"std::panic::AssertUnwindSafe<[closure@std::thread::Builder::spawn_unchecked<[closure@src/main.rs:25:20: 44:7], ()>::{closure#0}::{closure#0}]>"* %f, metadata !2091, metadata !DIExpression()), !dbg !2095
  %0 = bitcast %"std::panic::AssertUnwindSafe<[closure@std::thread::Builder::spawn_unchecked<[closure@src/main.rs:25:20: 44:7], ()>::{closure#0}::{closure#0}]>"* %_2 to i8*, !dbg !2096
  %1 = bitcast %"std::panic::AssertUnwindSafe<[closure@std::thread::Builder::spawn_unchecked<[closure@src/main.rs:25:20: 44:7], ()>::{closure#0}::{closure#0}]>"* %f to i8*, !dbg !2096
  call void @llvm.memcpy.p0i8.p0i8.i64(i8* align 8 %0, i8* align 8 %1, i64 24, i1 false), !dbg !2096
; call std::panicking::try::<(), std::panic::AssertUnwindSafe<<std::thread::Builder>::spawn_unchecked<mutex_test::main::{closure#0}, ()>::{closure#0}::{closure#0}>>
  %2 = call { i8*, i8* } @_RINvNtCs2bNvlddUlXM_3std9panicking3tryuINtNtB4_5panic16AssertUnwindSafeNCNCINvMNtB4_6threadNtB1f_7Builder15spawn_uncheckedNCNvCseoN0Z986GuA_10mutex_test4main0uE00EEB20_(%"std::panic::AssertUnwindSafe<[closure@std::thread::Builder::spawn_unchecked<[closure@src/main.rs:25:20: 44:7], ()>::{closure#0}::{closure#0}]>"* noalias nocapture dereferenceable(24) %_2), !dbg !2097
  %3 = extractvalue { i8*, i8* } %2, 0, !dbg !2097
  %4 = extractvalue { i8*, i8* } %2, 1, !dbg !2097
  br label %bb1, !dbg !2097

bb1:                                              ; preds = %start
  %5 = insertvalue { i8*, i8* } undef, i8* %3, 0, !dbg !2098
  %6 = insertvalue { i8*, i8* } %5, i8* %4, 1, !dbg !2098
  ret { i8*, i8* } %6, !dbg !2098
}

; std::thread::spawn::<mutex_test::main::{closure#0}, ()>
; Function Attrs: nonlazybind uwtable
define internal void @_RINvNtCs2bNvlddUlXM_3std6thread5spawnNCNvCseoN0Z986GuA_10mutex_test4main0uEBD_(%"std::thread::JoinHandle<()>"* noalias nocapture sret dereferenceable(32) %0, %"[closure@src/main.rs:25:20: 44:7]"* noalias nocapture dereferenceable(24) %f) unnamed_addr #0 personality i32 (i32, i32, i64, %"unwind::libunwind::_Unwind_Exception"*, %"unwind::libunwind::_Unwind_Context"*)* @rust_eh_personality !dbg !2099 {
start:
  %1 = alloca { i8*, i32 }, align 8
  %_7 = alloca i8, align 1
  %_4 = alloca %"[closure@src/main.rs:25:20: 44:7]", align 8
  %_3 = alloca %"std::thread::Builder", align 8
  %_2 = alloca %"std::result::Result<std::thread::JoinHandle<()>, std::io::Error>", align 8
  call void @llvm.dbg.declare(metadata %"[closure@src/main.rs:25:20: 44:7]"* %f, metadata !2103, metadata !DIExpression()), !dbg !2104
  store i8 0, i8* %_7, align 1, !dbg !2105
  store i8 1, i8* %_7, align 1, !dbg !2105
; invoke std::thread::Builder::new
  invoke void @_ZN3std6thread7Builder3new17h18aec502241fcaefE(%"std::thread::Builder"* noalias nocapture sret dereferenceable(40) %_3)
          to label %bb1 unwind label %cleanup, !dbg !2105

bb1:                                              ; preds = %start
  store i8 0, i8* %_7, align 1, !dbg !2106
  %2 = bitcast %"[closure@src/main.rs:25:20: 44:7]"* %_4 to i8*, !dbg !2106
  %3 = bitcast %"[closure@src/main.rs:25:20: 44:7]"* %f to i8*, !dbg !2106
  call void @llvm.memcpy.p0i8.p0i8.i64(i8* align 8 %2, i8* align 8 %3, i64 24, i1 false), !dbg !2106
; invoke <std::thread::Builder>::spawn::<mutex_test::main::{closure#0}, ()>
  invoke void @_RINvMNtCs2bNvlddUlXM_3std6threadNtB3_7Builder5spawnNCNvCseoN0Z986GuA_10mutex_test4main0uEBR_(%"std::result::Result<std::thread::JoinHandle<()>, std::io::Error>"* noalias nocapture sret dereferenceable(40) %_2, %"std::thread::Builder"* noalias nocapture dereferenceable(40) %_3, %"[closure@src/main.rs:25:20: 44:7]"* noalias nocapture dereferenceable(24) %_4)
          to label %bb2 unwind label %cleanup, !dbg !2105

bb2:                                              ; preds = %bb1
; invoke <core::result::Result<std::thread::JoinHandle<()>, std::io::error::Error>>::expect
  invoke void @_RNvMs3_NtCs3p84KrD9aKt_4core6resultINtB5_6ResultINtNtCs2bNvlddUlXM_3std6thread10JoinHandleuENtNtNtBP_2io5error5ErrorE6expectCseoN0Z986GuA_10mutex_test(%"std::thread::JoinHandle<()>"* noalias nocapture sret dereferenceable(32) %0, %"std::result::Result<std::thread::JoinHandle<()>, std::io::Error>"* noalias nocapture dereferenceable(40) %_2, [0 x i8]* noalias nonnull readonly align 1 bitcast (<{ [22 x i8] }>* @alloc136 to [0 x i8]*), i64 22, %"std::panic::Location"* noalias readonly align 8 dereferenceable(24) bitcast (<{ i8*, [16 x i8] }>* @alloc138 to %"std::panic::Location"*))
          to label %bb3 unwind label %cleanup, !dbg !2105

bb3:                                              ; preds = %bb2
  ret void, !dbg !2107

bb4:                                              ; preds = %bb5, %bb6
  %4 = bitcast { i8*, i32 }* %1 to i8**, !dbg !2108
  %5 = load i8*, i8** %4, align 8, !dbg !2108
  %6 = getelementptr inbounds { i8*, i32 }, { i8*, i32 }* %1, i32 0, i32 1, !dbg !2108
  %7 = load i32, i32* %6, align 8, !dbg !2108
  %8 = insertvalue { i8*, i32 } undef, i8* %5, 0, !dbg !2108
  %9 = insertvalue { i8*, i32 } %8, i32 %7, 1, !dbg !2108
  resume { i8*, i32 } %9, !dbg !2108

bb5:                                              ; preds = %bb6
; call core::ptr::drop_in_place::<mutex_test::main::{closure#0}>
  call void @_RINvNtCs3p84KrD9aKt_4core3ptr13drop_in_placeNCNvCseoN0Z986GuA_10mutex_test4main0EBK_(%"[closure@src/main.rs:25:20: 44:7]"* %f) #18, !dbg !2109
  br label %bb4, !dbg !2109

bb6:                                              ; preds = %cleanup
  %10 = load i8, i8* %_7, align 1, !dbg !2109, !range !1079
  %11 = trunc i8 %10 to i1, !dbg !2109
  br i1 %11, label %bb5, label %bb4, !dbg !2109

cleanup:                                          ; preds = %bb2, %bb1, %start
  %12 = landingpad { i8*, i32 }
          cleanup
  %13 = extractvalue { i8*, i32 } %12, 0
  %14 = extractvalue { i8*, i32 } %12, 1
  %15 = getelementptr inbounds { i8*, i32 }, { i8*, i32 }* %1, i32 0, i32 0
  store i8* %13, i8** %15, align 8
  %16 = getelementptr inbounds { i8*, i32 }, { i8*, i32 }* %1, i32 0, i32 1
  store i32 %14, i32* %16, align 8
  br label %bb6
}

; std::panicking::begin_panic::<&str>
; Function Attrs: cold noinline noreturn nonlazybind uwtable
define internal void @_RINvNtCs2bNvlddUlXM_3std9panicking11begin_panicReECseoN0Z986GuA_10mutex_test([0 x i8]* noalias nonnull readonly align 1 %msg.0, i64 %msg.1, %"std::panic::Location"* noalias readonly align 8 dereferenceable(24) %0) unnamed_addr #2 personality i32 (i32, i32, i64, %"unwind::libunwind::_Unwind_Exception"*, %"unwind::libunwind::_Unwind_Context"*)* @rust_eh_personality !dbg !2110 {
start:
  %loc.dbg.spill = alloca %"std::panic::Location"*, align 8
  %1 = alloca { i8*, i32 }, align 8
  %msg.dbg.spill = alloca { [0 x i8]*, i64 }, align 8
  %_4 = alloca i8, align 1
  %_3 = alloca %"[closure@std::rt::begin_panic<&str>::{closure#0}]", align 8
  %2 = getelementptr inbounds { [0 x i8]*, i64 }, { [0 x i8]*, i64 }* %msg.dbg.spill, i32 0, i32 0
  store [0 x i8]* %msg.0, [0 x i8]** %2, align 8
  %3 = getelementptr inbounds { [0 x i8]*, i64 }, { [0 x i8]*, i64 }* %msg.dbg.spill, i32 0, i32 1
  store i64 %msg.1, i64* %3, align 8
  call void @llvm.dbg.declare(metadata { [0 x i8]*, i64 }* %msg.dbg.spill, metadata !2122, metadata !DIExpression()), !dbg !2127
  store i8 0, i8* %_4, align 1, !dbg !2128
  store i8 1, i8* %_4, align 1, !dbg !2128
; invoke core::panic::Location::caller
  %loc = invoke align 8 dereferenceable(24) %"std::panic::Location"* @_ZN4core5panic8Location6caller17h3ca9d386bd7f89a3E(%"std::panic::Location"* noalias readonly align 8 dereferenceable(24) %0)
          to label %bb1 unwind label %cleanup, !dbg !2129

bb1:                                              ; preds = %start
  store %"std::panic::Location"* %loc, %"std::panic::Location"** %loc.dbg.spill, align 8, !dbg !2129
  call void @llvm.dbg.declare(metadata %"std::panic::Location"** %loc.dbg.spill, metadata !2123, metadata !DIExpression()), !dbg !2130
  store i8 0, i8* %_4, align 1, !dbg !2131
  %4 = bitcast %"[closure@std::rt::begin_panic<&str>::{closure#0}]"* %_3 to { [0 x i8]*, i64 }*, !dbg !2131
  %5 = getelementptr inbounds { [0 x i8]*, i64 }, { [0 x i8]*, i64 }* %4, i32 0, i32 0, !dbg !2131
  store [0 x i8]* %msg.0, [0 x i8]** %5, align 8, !dbg !2131
  %6 = getelementptr inbounds { [0 x i8]*, i64 }, { [0 x i8]*, i64 }* %4, i32 0, i32 1, !dbg !2131
  store i64 %msg.1, i64* %6, align 8, !dbg !2131
  %7 = getelementptr inbounds %"[closure@std::rt::begin_panic<&str>::{closure#0}]", %"[closure@std::rt::begin_panic<&str>::{closure#0}]"* %_3, i32 0, i32 3, !dbg !2131
  store %"std::panic::Location"* %loc, %"std::panic::Location"** %7, align 8, !dbg !2131
; invoke std::sys_common::backtrace::__rust_end_short_backtrace::<std::panicking::begin_panic<&str>::{closure#0}, !>
  invoke void @_RINvNtNtCs2bNvlddUlXM_3std10sys_common9backtrace26___rust_end_short_backtraceNCINvNtB6_9panicking11begin_panicReE0zECseoN0Z986GuA_10mutex_test(%"[closure@std::rt::begin_panic<&str>::{closure#0}]"* noalias nocapture dereferenceable(24) %_3)
          to label %unreachable unwind label %cleanup, !dbg !2132

bb2:                                              ; preds = %bb3, %bb4
  %8 = bitcast { i8*, i32 }* %1 to i8**, !dbg !2133
  %9 = load i8*, i8** %8, align 8, !dbg !2133
  %10 = getelementptr inbounds { i8*, i32 }, { i8*, i32 }* %1, i32 0, i32 1, !dbg !2133
  %11 = load i32, i32* %10, align 8, !dbg !2133
  %12 = insertvalue { i8*, i32 } undef, i8* %9, 0, !dbg !2133
  %13 = insertvalue { i8*, i32 } %12, i32 %11, 1, !dbg !2133
  resume { i8*, i32 } %13, !dbg !2133

bb3:                                              ; preds = %bb4
  br label %bb2, !dbg !2134

bb4:                                              ; preds = %cleanup
  %14 = load i8, i8* %_4, align 1, !dbg !2134, !range !1079
  %15 = trunc i8 %14 to i1, !dbg !2134
  br i1 %15, label %bb3, label %bb2, !dbg !2134

cleanup:                                          ; preds = %bb1, %start
  %16 = landingpad { i8*, i32 }
          cleanup
  %17 = extractvalue { i8*, i32 } %16, 0
  %18 = extractvalue { i8*, i32 } %16, 1
  %19 = getelementptr inbounds { i8*, i32 }, { i8*, i32 }* %1, i32 0, i32 0
  store i8* %17, i8** %19, align 8
  %20 = getelementptr inbounds { i8*, i32 }, { i8*, i32 }* %1, i32 0, i32 1
  store i32 %18, i32* %20, align 8
  br label %bb4

unreachable:                                      ; preds = %bb1
  unreachable
}

; std::panicking::try::<(), std::panic::AssertUnwindSafe<<std::thread::Builder>::spawn_unchecked<mutex_test::main::{closure#0}, ()>::{closure#0}::{closure#0}>>
; Function Attrs: nonlazybind uwtable
define internal { i8*, i8* } @_RINvNtCs2bNvlddUlXM_3std9panicking3tryuINtNtB4_5panic16AssertUnwindSafeNCNCINvMNtB4_6threadNtB1f_7Builder15spawn_uncheckedNCNvCseoN0Z986GuA_10mutex_test4main0uE00EEB20_(%"std::panic::AssertUnwindSafe<[closure@std::thread::Builder::spawn_unchecked<[closure@src/main.rs:25:20: 44:7], ()>::{closure#0}::{closure#0}]>"* noalias nocapture dereferenceable(24) %f) unnamed_addr #0 !dbg !2135 {
start:
  %slot.dbg.spill.i = alloca { i8*, i64* }, align 8
  %_2.i = alloca %"std::panic::AssertUnwindSafe<[closure@std::thread::Builder::spawn_unchecked<[closure@src/main.rs:25:20: 44:7], ()>::{closure#0}::{closure#0}]>", align 8
  %0 = alloca i32, align 4
  %data_ptr.dbg.spill = alloca i8*, align 8
  %_4 = alloca %"std::panic::AssertUnwindSafe<[closure@std::thread::Builder::spawn_unchecked<[closure@src/main.rs:25:20: 44:7], ()>::{closure#0}::{closure#0}]>", align 8
  %_3 = alloca %"std::mem::ManuallyDrop<std::panic::AssertUnwindSafe<[closure@std::thread::Builder::spawn_unchecked<[closure@src/main.rs:25:20: 44:7], ()>::{closure#0}::{closure#0}]>>", align 8
  %data = alloca %"std::panicking::r#try::Data<std::panic::AssertUnwindSafe<[closure@std::thread::Builder::spawn_unchecked<[closure@src/main.rs:25:20: 44:7], ()>::{closure#0}::{closure#0}]>, ()>", align 8
  %1 = alloca { i8*, i8* }, align 8
  call void @llvm.dbg.declare(metadata %"std::panic::AssertUnwindSafe<[closure@std::thread::Builder::spawn_unchecked<[closure@src/main.rs:25:20: 44:7], ()>::{closure#0}::{closure#0}]>"* %f, metadata !2137, metadata !DIExpression()), !dbg !2164
  call void @llvm.dbg.declare(metadata %"std::panicking::r#try::Data<std::panic::AssertUnwindSafe<[closure@std::thread::Builder::spawn_unchecked<[closure@src/main.rs:25:20: 44:7], ()>::{closure#0}::{closure#0}]>, ()>"* %data, metadata !2138, metadata !DIExpression()), !dbg !2165
  %2 = bitcast %"std::panic::AssertUnwindSafe<[closure@std::thread::Builder::spawn_unchecked<[closure@src/main.rs:25:20: 44:7], ()>::{closure#0}::{closure#0}]>"* %_4 to i8*, !dbg !2166
  %3 = bitcast %"std::panic::AssertUnwindSafe<[closure@std::thread::Builder::spawn_unchecked<[closure@src/main.rs:25:20: 44:7], ()>::{closure#0}::{closure#0}]>"* %f to i8*, !dbg !2166
  call void @llvm.memcpy.p0i8.p0i8.i64(i8* align 8 %2, i8* align 8 %3, i64 24, i1 false), !dbg !2166
  call void @llvm.dbg.declare(metadata %"std::panic::AssertUnwindSafe<[closure@std::thread::Builder::spawn_unchecked<[closure@src/main.rs:25:20: 44:7], ()>::{closure#0}::{closure#0}]>"* %_4, metadata !2167, metadata !DIExpression()), !dbg !2173
  %4 = bitcast %"std::panic::AssertUnwindSafe<[closure@std::thread::Builder::spawn_unchecked<[closure@src/main.rs:25:20: 44:7], ()>::{closure#0}::{closure#0}]>"* %_2.i to i8*, !dbg !2175
  %5 = bitcast %"std::panic::AssertUnwindSafe<[closure@std::thread::Builder::spawn_unchecked<[closure@src/main.rs:25:20: 44:7], ()>::{closure#0}::{closure#0}]>"* %_4 to i8*, !dbg !2175
  call void @llvm.memcpy.p0i8.p0i8.i64(i8* align 8 %4, i8* align 8 %5, i64 24, i1 false), !dbg !2175, !noalias !2176
  %6 = bitcast %"std::mem::ManuallyDrop<std::panic::AssertUnwindSafe<[closure@std::thread::Builder::spawn_unchecked<[closure@src/main.rs:25:20: 44:7], ()>::{closure#0}::{closure#0}]>>"* %_3 to %"std::panic::AssertUnwindSafe<[closure@std::thread::Builder::spawn_unchecked<[closure@src/main.rs:25:20: 44:7], ()>::{closure#0}::{closure#0}]>"*, !dbg !2179
  %7 = bitcast %"std::panic::AssertUnwindSafe<[closure@std::thread::Builder::spawn_unchecked<[closure@src/main.rs:25:20: 44:7], ()>::{closure#0}::{closure#0}]>"* %6 to i8*, !dbg !2179
  %8 = bitcast %"std::panic::AssertUnwindSafe<[closure@std::thread::Builder::spawn_unchecked<[closure@src/main.rs:25:20: 44:7], ()>::{closure#0}::{closure#0}]>"* %_2.i to i8*, !dbg !2179
  call void @llvm.memcpy.p0i8.p0i8.i64(i8* align 8 %7, i8* align 8 %8, i64 24, i1 false), !dbg !2179, !noalias !2180
  br label %bb1, !dbg !2182

bb1:                                              ; preds = %start
  %9 = bitcast %"std::panicking::r#try::Data<std::panic::AssertUnwindSafe<[closure@std::thread::Builder::spawn_unchecked<[closure@src/main.rs:25:20: 44:7], ()>::{closure#0}::{closure#0}]>, ()>"* %data to %"std::mem::ManuallyDrop<std::panic::AssertUnwindSafe<[closure@std::thread::Builder::spawn_unchecked<[closure@src/main.rs:25:20: 44:7], ()>::{closure#0}::{closure#0}]>>"*, !dbg !2183
  %10 = bitcast %"std::mem::ManuallyDrop<std::panic::AssertUnwindSafe<[closure@std::thread::Builder::spawn_unchecked<[closure@src/main.rs:25:20: 44:7], ()>::{closure#0}::{closure#0}]>>"* %9 to i8*, !dbg !2183
  %11 = bitcast %"std::mem::ManuallyDrop<std::panic::AssertUnwindSafe<[closure@std::thread::Builder::spawn_unchecked<[closure@src/main.rs:25:20: 44:7], ()>::{closure#0}::{closure#0}]>>"* %_3 to i8*, !dbg !2183
  call void @llvm.memcpy.p0i8.p0i8.i64(i8* align 8 %10, i8* align 8 %11, i64 24, i1 false), !dbg !2183
  %data_ptr = bitcast %"std::panicking::r#try::Data<std::panic::AssertUnwindSafe<[closure@std::thread::Builder::spawn_unchecked<[closure@src/main.rs:25:20: 44:7], ()>::{closure#0}::{closure#0}]>, ()>"* %data to i8*, !dbg !2184
  store i8* %data_ptr, i8** %data_ptr.dbg.spill, align 8, !dbg !2184
  call void @llvm.dbg.declare(metadata i8** %data_ptr.dbg.spill, metadata !2161, metadata !DIExpression()), !dbg !2185
  %12 = call i32 @__rust_try(void (i8*)* @_RINvNvNtCs2bNvlddUlXM_3std9panicking3try7do_callINtNtB6_5panic16AssertUnwindSafeNCNCINvMNtB6_6threadNtB1o_7Builder15spawn_uncheckedNCNvCseoN0Z986GuA_10mutex_test4main0uE00EuEB29_, i8* %data_ptr, void (i8*, i8*)* @_RINvNvNtCs2bNvlddUlXM_3std9panicking3try8do_catchINtNtB6_5panic16AssertUnwindSafeNCNCINvMNtB6_6threadNtB1p_7Builder15spawn_uncheckedNCNvCseoN0Z986GuA_10mutex_test4main0uE00EuEB2a_), !dbg !2186
  store i32 %12, i32* %0, align 4, !dbg !2186
  %_9 = load i32, i32* %0, align 4, !dbg !2186
  br label %bb2, !dbg !2186

bb2:                                              ; preds = %bb1
  %13 = icmp eq i32 %_9, 0, !dbg !2187
  br i1 %13, label %bb3, label %bb4, !dbg !2187

bb3:                                              ; preds = %bb2
  call void @llvm.dbg.declare(metadata %"std::mem::ManuallyDrop<()>"* undef, metadata !2188, metadata !DIExpression()), !dbg !2193
  br label %bb5, !dbg !2195

bb4:                                              ; preds = %bb2
  %14 = bitcast %"std::panicking::r#try::Data<std::panic::AssertUnwindSafe<[closure@std::thread::Builder::spawn_unchecked<[closure@src/main.rs:25:20: 44:7], ()>::{closure#0}::{closure#0}]>, ()>"* %data to { i8*, i64* }*, !dbg !2196
  %15 = getelementptr inbounds { i8*, i64* }, { i8*, i64* }* %14, i32 0, i32 0, !dbg !2196
  %_17.0 = load i8*, i8** %15, align 8, !dbg !2196, !nonnull !4
  %16 = getelementptr inbounds { i8*, i64* }, { i8*, i64* }* %14, i32 0, i32 1, !dbg !2196
  %_17.1 = load i64*, i64** %16, align 8, !dbg !2196, !nonnull !4
  %17 = getelementptr inbounds { i8*, i64* }, { i8*, i64* }* %slot.dbg.spill.i, i32 0, i32 0
  store i8* %_17.0, i8** %17, align 8, !noalias !2197
  %18 = getelementptr inbounds { i8*, i64* }, { i8*, i64* }* %slot.dbg.spill.i, i32 0, i32 1
  store i64* %_17.1, i64** %18, align 8, !noalias !2197
  call void @llvm.dbg.declare(metadata { i8*, i64* }* %slot.dbg.spill.i, metadata !2201, metadata !DIExpression()), !dbg !2206
  %19 = bitcast i8* %_17.0 to {}*, !dbg !2208
  %20 = bitcast i64* %_17.1 to [3 x i64]*, !dbg !2208
  %21 = insertvalue { {}*, [3 x i64]* } undef, {}* %19, 0, !dbg !2209
  %22 = insertvalue { {}*, [3 x i64]* } %21, [3 x i64]* %20, 1, !dbg !2209
  %_16.0 = extractvalue { {}*, [3 x i64]* } %22, 0, !dbg !2210
  %_16.1 = extractvalue { {}*, [3 x i64]* } %22, 1, !dbg !2210
  br label %bb6, !dbg !2210

bb5:                                              ; preds = %bb3
  %23 = bitcast { i8*, i8* }* %1 to %"std::result::Result<(), std::boxed::Box<dyn std::any::Any + std::marker::Send>>::Ok"*, !dbg !2211
  %24 = bitcast %"std::result::Result<(), std::boxed::Box<dyn std::any::Any + std::marker::Send>>::Ok"* %23 to {}*, !dbg !2211
  %25 = bitcast { i8*, i8* }* %1 to {}**, !dbg !2211
  store {}* null, {}** %25, align 8, !dbg !2211
  br label %bb7, !dbg !2187

bb6:                                              ; preds = %bb4
  %26 = bitcast { i8*, i8* }* %1 to { {}*, [3 x i64]* }*, !dbg !2212
  %27 = getelementptr inbounds { {}*, [3 x i64]* }, { {}*, [3 x i64]* }* %26, i32 0, i32 0, !dbg !2212
  store {}* %_16.0, {}** %27, align 8, !dbg !2212
  %28 = getelementptr inbounds { {}*, [3 x i64]* }, { {}*, [3 x i64]* }* %26, i32 0, i32 1, !dbg !2212
  store [3 x i64]* %_16.1, [3 x i64]** %28, align 8, !dbg !2212
  br label %bb7, !dbg !2187

bb7:                                              ; preds = %bb5, %bb6
  %29 = getelementptr inbounds { i8*, i8* }, { i8*, i8* }* %1, i32 0, i32 0, !dbg !2213
  %30 = load i8*, i8** %29, align 8, !dbg !2213
  %31 = getelementptr inbounds { i8*, i8* }, { i8*, i8* }* %1, i32 0, i32 1, !dbg !2213
  %32 = load i8*, i8** %31, align 8, !dbg !2213
  %33 = insertvalue { i8*, i8* } undef, i8* %30, 0, !dbg !2213
  %34 = insertvalue { i8*, i8* } %33, i8* %32, 1, !dbg !2213
  ret { i8*, i8* } %34, !dbg !2213
}

; core::intrinsics::copy_nonoverlapping::<core::option::Option<std::sync::mpsc::stream::Message<usize>>>
; Function Attrs: inlinehint nonlazybind uwtable
define internal void @_RINvNtCs3p84KrD9aKt_4core10intrinsics19copy_nonoverlappingINtNtB4_6option6OptionINtNtNtNtCs2bNvlddUlXM_3std4sync4mpsc6stream7MessagejEEECseoN0Z986GuA_10mutex_test(%"std::option::Option<std::sync::mpsc::stream::Message<usize>>"* %src, %"std::option::Option<std::sync::mpsc::stream::Message<usize>>"* %dst, i64 %count) unnamed_addr #1 !dbg !2214 {
start:
  %count.dbg.spill = alloca i64, align 8
  %dst.dbg.spill = alloca %"std::option::Option<std::sync::mpsc::stream::Message<usize>>"*, align 8
  %src.dbg.spill = alloca %"std::option::Option<std::sync::mpsc::stream::Message<usize>>"*, align 8
  store %"std::option::Option<std::sync::mpsc::stream::Message<usize>>"* %src, %"std::option::Option<std::sync::mpsc::stream::Message<usize>>"** %src.dbg.spill, align 8
  call void @llvm.dbg.declare(metadata %"std::option::Option<std::sync::mpsc::stream::Message<usize>>"** %src.dbg.spill, metadata !2222, metadata !DIExpression()), !dbg !2227
  store %"std::option::Option<std::sync::mpsc::stream::Message<usize>>"* %dst, %"std::option::Option<std::sync::mpsc::stream::Message<usize>>"** %dst.dbg.spill, align 8
  call void @llvm.dbg.declare(metadata %"std::option::Option<std::sync::mpsc::stream::Message<usize>>"** %dst.dbg.spill, metadata !2223, metadata !DIExpression()), !dbg !2228
  store i64 %count, i64* %count.dbg.spill, align 8
  call void @llvm.dbg.declare(metadata i64* %count.dbg.spill, metadata !2224, metadata !DIExpression()), !dbg !2229
  %0 = mul i64 24, %count, !dbg !2230
  %1 = bitcast %"std::option::Option<std::sync::mpsc::stream::Message<usize>>"* %dst to i8*, !dbg !2230
  %2 = bitcast %"std::option::Option<std::sync::mpsc::stream::Message<usize>>"* %src to i8*, !dbg !2230
  call void @llvm.memcpy.p0i8.p0i8.i64(i8* align 8 %1, i8* align 8 %2, i64 %0, i1 false), !dbg !2230
  br label %bb1, !dbg !2230

bb1:                                              ; preds = %start
  ret void, !dbg !2231
}

; core::intrinsics::copy_nonoverlapping::<core::option::Option<&mut bool>>
; Function Attrs: inlinehint nonlazybind uwtable
define internal void @_RINvNtCs3p84KrD9aKt_4core10intrinsics19copy_nonoverlappingINtNtB4_6option6OptionQbEECseoN0Z986GuA_10mutex_test(i8** %src, i8** %dst, i64 %count) unnamed_addr #1 !dbg !2232 {
start:
  %count.dbg.spill = alloca i64, align 8
  %dst.dbg.spill = alloca i8**, align 8
  %src.dbg.spill = alloca i8**, align 8
  store i8** %src, i8*** %src.dbg.spill, align 8
  call void @llvm.dbg.declare(metadata i8*** %src.dbg.spill, metadata !2238, metadata !DIExpression()), !dbg !2243
  store i8** %dst, i8*** %dst.dbg.spill, align 8
  call void @llvm.dbg.declare(metadata i8*** %dst.dbg.spill, metadata !2239, metadata !DIExpression()), !dbg !2244
  store i64 %count, i64* %count.dbg.spill, align 8
  call void @llvm.dbg.declare(metadata i64* %count.dbg.spill, metadata !2240, metadata !DIExpression()), !dbg !2245
  %0 = mul i64 8, %count, !dbg !2246
  %1 = bitcast i8** %dst to i8*, !dbg !2246
  %2 = bitcast i8** %src to i8*, !dbg !2246
  call void @llvm.memcpy.p0i8.p0i8.i64(i8* align 8 %1, i8* align 8 %2, i64 %0, i1 false), !dbg !2246
  br label %bb1, !dbg !2246

bb1:                                              ; preds = %start
  ret void, !dbg !2247
}

; core::intrinsics::copy_nonoverlapping::<core::option::Option<&str>>
; Function Attrs: inlinehint nonlazybind uwtable
define internal void @_RINvNtCs3p84KrD9aKt_4core10intrinsics19copy_nonoverlappingINtNtB4_6option6OptionReEECseoN0Z986GuA_10mutex_test({ i8*, i64 }* %src, { i8*, i64 }* %dst, i64 %count) unnamed_addr #1 !dbg !2248 {
start:
  %count.dbg.spill = alloca i64, align 8
  %dst.dbg.spill = alloca { i8*, i64 }*, align 8
  %src.dbg.spill = alloca { i8*, i64 }*, align 8
  store { i8*, i64 }* %src, { i8*, i64 }** %src.dbg.spill, align 8
  call void @llvm.dbg.declare(metadata { i8*, i64 }** %src.dbg.spill, metadata !2254, metadata !DIExpression()), !dbg !2259
  store { i8*, i64 }* %dst, { i8*, i64 }** %dst.dbg.spill, align 8
  call void @llvm.dbg.declare(metadata { i8*, i64 }** %dst.dbg.spill, metadata !2255, metadata !DIExpression()), !dbg !2260
  store i64 %count, i64* %count.dbg.spill, align 8
  call void @llvm.dbg.declare(metadata i64* %count.dbg.spill, metadata !2256, metadata !DIExpression()), !dbg !2261
  %0 = mul i64 16, %count, !dbg !2262
  %1 = bitcast { i8*, i64 }* %dst to i8*, !dbg !2262
  %2 = bitcast { i8*, i64 }* %src to i8*, !dbg !2262
  call void @llvm.memcpy.p0i8.p0i8.i64(i8* align 8 %1, i8* align 8 %2, i64 %0, i1 false), !dbg !2262
  br label %bb1, !dbg !2262

bb1:                                              ; preds = %start
  ret void, !dbg !2263
}

; core::intrinsics::copy_nonoverlapping::<core::option::Option<usize>>
; Function Attrs: inlinehint nonlazybind uwtable
define internal void @_RINvNtCs3p84KrD9aKt_4core10intrinsics19copy_nonoverlappingINtNtB4_6option6OptionjEECseoN0Z986GuA_10mutex_test({ i64, i64 }* %src, { i64, i64 }* %dst, i64 %count) unnamed_addr #1 !dbg !2264 {
start:
  %count.dbg.spill = alloca i64, align 8
  %dst.dbg.spill = alloca { i64, i64 }*, align 8
  %src.dbg.spill = alloca { i64, i64 }*, align 8
  store { i64, i64 }* %src, { i64, i64 }** %src.dbg.spill, align 8
  call void @llvm.dbg.declare(metadata { i64, i64 }** %src.dbg.spill, metadata !2269, metadata !DIExpression()), !dbg !2272
  store { i64, i64 }* %dst, { i64, i64 }** %dst.dbg.spill, align 8
  call void @llvm.dbg.declare(metadata { i64, i64 }** %dst.dbg.spill, metadata !2270, metadata !DIExpression()), !dbg !2273
  store i64 %count, i64* %count.dbg.spill, align 8
  call void @llvm.dbg.declare(metadata i64* %count.dbg.spill, metadata !2271, metadata !DIExpression()), !dbg !2274
  %0 = mul i64 16, %count, !dbg !2275
  %1 = bitcast { i64, i64 }* %dst to i8*, !dbg !2275
  %2 = bitcast { i64, i64 }* %src to i8*, !dbg !2275
  call void @llvm.memcpy.p0i8.p0i8.i64(i8* align 8 %1, i8* align 8 %2, i64 %0, i1 false), !dbg !2275
  br label %bb1, !dbg !2275

bb1:                                              ; preds = %start
  ret void, !dbg !2276
}

; core::intrinsics::copy_nonoverlapping::<std::panic::AssertUnwindSafe<<std::thread::Builder>::spawn_unchecked<mutex_test::main::{closure#0}, ()>::{closure#0}::{closure#0}>>
; Function Attrs: inlinehint nonlazybind uwtable
define internal void @_RINvNtCs3p84KrD9aKt_4core10intrinsics19copy_nonoverlappingINtNtCs2bNvlddUlXM_3std5panic16AssertUnwindSafeNCNCINvMNtBZ_6threadNtB1N_7Builder15spawn_uncheckedNCNvCseoN0Z986GuA_10mutex_test4main0uE00EEB2y_(%"std::panic::AssertUnwindSafe<[closure@std::thread::Builder::spawn_unchecked<[closure@src/main.rs:25:20: 44:7], ()>::{closure#0}::{closure#0}]>"* %src, %"std::panic::AssertUnwindSafe<[closure@std::thread::Builder::spawn_unchecked<[closure@src/main.rs:25:20: 44:7], ()>::{closure#0}::{closure#0}]>"* %dst, i64 %count) unnamed_addr #1 !dbg !2277 {
start:
  %count.dbg.spill = alloca i64, align 8
  %dst.dbg.spill = alloca %"std::panic::AssertUnwindSafe<[closure@std::thread::Builder::spawn_unchecked<[closure@src/main.rs:25:20: 44:7], ()>::{closure#0}::{closure#0}]>"*, align 8
  %src.dbg.spill = alloca %"std::panic::AssertUnwindSafe<[closure@std::thread::Builder::spawn_unchecked<[closure@src/main.rs:25:20: 44:7], ()>::{closure#0}::{closure#0}]>"*, align 8
  store %"std::panic::AssertUnwindSafe<[closure@std::thread::Builder::spawn_unchecked<[closure@src/main.rs:25:20: 44:7], ()>::{closure#0}::{closure#0}]>"* %src, %"std::panic::AssertUnwindSafe<[closure@std::thread::Builder::spawn_unchecked<[closure@src/main.rs:25:20: 44:7], ()>::{closure#0}::{closure#0}]>"** %src.dbg.spill, align 8
  call void @llvm.dbg.declare(metadata %"std::panic::AssertUnwindSafe<[closure@std::thread::Builder::spawn_unchecked<[closure@src/main.rs:25:20: 44:7], ()>::{closure#0}::{closure#0}]>"** %src.dbg.spill, metadata !2283, metadata !DIExpression()), !dbg !2286
  store %"std::panic::AssertUnwindSafe<[closure@std::thread::Builder::spawn_unchecked<[closure@src/main.rs:25:20: 44:7], ()>::{closure#0}::{closure#0}]>"* %dst, %"std::panic::AssertUnwindSafe<[closure@std::thread::Builder::spawn_unchecked<[closure@src/main.rs:25:20: 44:7], ()>::{closure#0}::{closure#0}]>"** %dst.dbg.spill, align 8
  call void @llvm.dbg.declare(metadata %"std::panic::AssertUnwindSafe<[closure@std::thread::Builder::spawn_unchecked<[closure@src/main.rs:25:20: 44:7], ()>::{closure#0}::{closure#0}]>"** %dst.dbg.spill, metadata !2284, metadata !DIExpression()), !dbg !2287
  store i64 %count, i64* %count.dbg.spill, align 8
  call void @llvm.dbg.declare(metadata i64* %count.dbg.spill, metadata !2285, metadata !DIExpression()), !dbg !2288
  %0 = mul i64 24, %count, !dbg !2289
  %1 = bitcast %"std::panic::AssertUnwindSafe<[closure@std::thread::Builder::spawn_unchecked<[closure@src/main.rs:25:20: 44:7], ()>::{closure#0}::{closure#0}]>"* %dst to i8*, !dbg !2289
  %2 = bitcast %"std::panic::AssertUnwindSafe<[closure@std::thread::Builder::spawn_unchecked<[closure@src/main.rs:25:20: 44:7], ()>::{closure#0}::{closure#0}]>"* %src to i8*, !dbg !2289
  call void @llvm.memcpy.p0i8.p0i8.i64(i8* align 8 %1, i8* align 8 %2, i64 %0, i1 false), !dbg !2289
  br label %bb1, !dbg !2289

bb1:                                              ; preds = %start
  ret void, !dbg !2290
}

; core::intrinsics::copy_nonoverlapping::<alloc::vec::Vec<core::option::Option<usize>>>
; Function Attrs: inlinehint nonlazybind uwtable
define internal void @_RINvNtCs3p84KrD9aKt_4core10intrinsics19copy_nonoverlappingINtNtCs8RW06R9lH2S_5alloc3vec3VecINtNtB4_6option6OptionjEEECseoN0Z986GuA_10mutex_test(%"std::vec::Vec<std::option::Option<usize>>"* %src, %"std::vec::Vec<std::option::Option<usize>>"* %dst, i64 %count) unnamed_addr #1 !dbg !2291 {
start:
  %count.dbg.spill = alloca i64, align 8
  %dst.dbg.spill = alloca %"std::vec::Vec<std::option::Option<usize>>"*, align 8
  %src.dbg.spill = alloca %"std::vec::Vec<std::option::Option<usize>>"*, align 8
  store %"std::vec::Vec<std::option::Option<usize>>"* %src, %"std::vec::Vec<std::option::Option<usize>>"** %src.dbg.spill, align 8
  call void @llvm.dbg.declare(metadata %"std::vec::Vec<std::option::Option<usize>>"** %src.dbg.spill, metadata !2297, metadata !DIExpression()), !dbg !2302
  store %"std::vec::Vec<std::option::Option<usize>>"* %dst, %"std::vec::Vec<std::option::Option<usize>>"** %dst.dbg.spill, align 8
  call void @llvm.dbg.declare(metadata %"std::vec::Vec<std::option::Option<usize>>"** %dst.dbg.spill, metadata !2298, metadata !DIExpression()), !dbg !2303
  store i64 %count, i64* %count.dbg.spill, align 8
  call void @llvm.dbg.declare(metadata i64* %count.dbg.spill, metadata !2299, metadata !DIExpression()), !dbg !2304
  %0 = mul i64 24, %count, !dbg !2305
  %1 = bitcast %"std::vec::Vec<std::option::Option<usize>>"* %dst to i8*, !dbg !2305
  %2 = bitcast %"std::vec::Vec<std::option::Option<usize>>"* %src to i8*, !dbg !2305
  call void @llvm.memcpy.p0i8.p0i8.i64(i8* align 8 %1, i8* align 8 %2, i64 %0, i1 false), !dbg !2305
  br label %bb1, !dbg !2305

bb1:                                              ; preds = %start
  ret void, !dbg !2306
}

; core::intrinsics::copy_nonoverlapping::<std::sync::mpsc::Flavor<usize>>
; Function Attrs: inlinehint nonlazybind uwtable
define internal void @_RINvNtCs3p84KrD9aKt_4core10intrinsics19copy_nonoverlappingINtNtNtCs2bNvlddUlXM_3std4sync4mpsc6FlavorjEECseoN0Z986GuA_10mutex_test({ i64, i8* }* %src, { i64, i8* }* %dst, i64 %count) unnamed_addr #1 !dbg !2307 {
start:
  %count.dbg.spill = alloca i64, align 8
  %dst.dbg.spill = alloca { i64, i8* }*, align 8
  %src.dbg.spill = alloca { i64, i8* }*, align 8
  store { i64, i8* }* %src, { i64, i8* }** %src.dbg.spill, align 8
  call void @llvm.dbg.declare(metadata { i64, i8* }** %src.dbg.spill, metadata !2313, metadata !DIExpression()), !dbg !2316
  store { i64, i8* }* %dst, { i64, i8* }** %dst.dbg.spill, align 8
  call void @llvm.dbg.declare(metadata { i64, i8* }** %dst.dbg.spill, metadata !2314, metadata !DIExpression()), !dbg !2317
  store i64 %count, i64* %count.dbg.spill, align 8
  call void @llvm.dbg.declare(metadata i64* %count.dbg.spill, metadata !2315, metadata !DIExpression()), !dbg !2318
  %0 = mul i64 16, %count, !dbg !2319
  %1 = bitcast { i64, i8* }* %dst to i8*, !dbg !2319
